
HIFI3_BUILD_ELF:     file format elf32-xtensa-le


Disassembly of section .ResetHandler.text:

07800000 <_ResetHandler-0x38>:
 7800000:	00000000 07800400 00004000 00002000     .........@... ..
 7800010:	0000c000 00051044 42222224 e0000000     ....D...$""B....
 7800020:	078000e4 07830188 07832d14              .........-..

0780002c <_ResetHandler-0xc>:
	...

07800038 <_ResetHandler>:
 7800038:	000c                	movi.n	a0, 0
 780003a:	13e400               	wsr.intenable	a0
 780003d:	fff021               	l32r	a2, 7800000 <_ResetHandler_text_start>
 7800040:	03eb30               	rsr.prid	a3
 7800043:	743030               	extui	a3, a3, 0, 8
 7800046:	328c                	beqz.n	a2, 780004d <_ResetHandler+0x15>
 7800048:	13cc                	bnez.n	a3, 780004d <_ResetHandler+0x15>
 780004a:	006202               	s32i	a0, a2, 0

0780004d <_ResetHandler+0x15>:
 780004d:	ffed21               	l32r	a2, 7800004 <_ResetHandler_text_start+0x4>
 7800050:	13e720               	wsr.vecbase	a2
 7800053:	531c                	movi.n	a3, 21
 7800055:	136330               	wsr.atomctl	a3
 7800058:	006120               	rsil	a2, 1
 780005b:	ffeb21               	l32r	a2, 7800008 <_ResetHandler_text_start+0x8>
 780005e:	00a032               	movi	a3, 0
 7800061:	0373d2               	iiu	a3, 0
 7800064:	8373d2               	iiu	a3, 128
 7800067:	01d332               	addmi	a3, a3, 0x100
 780006a:	f33327               	bltu	a3, a2, 7800061 <_ResetHandler+0x29>
 780006d:	002000               	isync
 7800070:	ffe721               	l32r	a2, 780000c <_ResetHandler_text_start+0xc>
 7800073:	030c                	movi.n	a3, 0
 7800075:	0073f2               	iii	a3, 0
 7800078:	2073f2               	iii	a3, 128
 780007b:	4073f2               	iii	a3, 0x100
 780007e:	6073f2               	iii	a3, 0x180
 7800081:	02d332               	addmi	a3, a3, 0x200
 7800084:	ed3327               	bltu	a3, a2, 7800075 <_ResetHandler+0x3d>
 7800087:	002000               	isync
 780008a:	ffe121               	l32r	a2, 7800010 <_ResetHandler_text_start+0x10>
 780008d:	00a032               	movi	a3, 0
 7800090:	037382               	diu	a3, 0
 7800093:	837382               	diu	a3, 128
 7800096:	01d332               	addmi	a3, a3, 0x100
 7800099:	f33327               	bltu	a3, a2, 7800090 <_ResetHandler+0x58>
 780009c:	ffdb21               	l32r	a2, 7800008 <_ResetHandler_text_start+0x8>
 780009f:	030c                	movi.n	a3, 0
 78000a1:	007372               	dii	a3, 0
 78000a4:	207372               	dii	a3, 128
 78000a7:	407372               	dii	a3, 0x100
 78000aa:	607372               	dii	a3, 0x180
 78000ad:	02d332               	addmi	a3, a3, 0x200
 78000b0:	ed3327               	bltu	a3, a2, 78000a1 <_ResetHandler+0x69>
 78000b3:	ffd821               	l32r	a2, 7800014 <_ResetHandler_text_start+0x14>
 78000b6:	132820               	wsr.prefctl	a2
 78000b9:	ffd721               	l32r	a2, 7800018 <_ResetHandler_text_start+0x18>
 78000bc:	ffd851               	l32r	a5, 780001c <_ResetHandler_text_start+0x1c>
 78000bf:	ffd861               	l32r	a6, 7800020 <_ResetHandler_text_start+0x20>
 78000c2:	030c                	movi.n	a3, 0
 78000c4:	027d                	mov.n	a7, a2
 78000c6:	106650               	and	a6, a6, a5
 78000c9:	0005c6               	j	78000e4 <_ResetHandler+0xac>

078000cc <_ResetHandler+0x94>:
 78000cc:	00000000                                ....

078000d0 <_ResetHandler+0x98>:
 78000d0:	506340               	witlb	a4, a3
 78000d3:	002000               	isync
 78000d6:	f03d                	nop.n

078000d8 <_ResetHandler+0xa0>:
 78000d8:	0020f0               	nop
 78000db:	c03350               	sub	a3, a3, a5
 78000de:	1fb3b6               	bltui	a3, 16, 7800101 <_ResetHandler+0xc9>

078000e1 <_ResetHandler+0xa9>:
 78000e1:	417470               	srli	a7, a7, 4
 78000e4:	507380               	ritlb1	a8, a3
 78000e7:	344070               	extui	a4, a7, 0, 4
 78000ea:	418480               	srli	a8, a8, 4
 78000ed:	1188c0               	slli	a8, a8, 4
 78000f0:	448a                	add.n	a4, a4, a8
 78000f2:	da1367               	beq	a3, a6, 78000d0 <_ResetHandler+0x98>
 78000f5:	506340               	witlb	a4, a3
 78000f8:	c03350               	sub	a3, a3, a5
 78000fb:	e2b3f6               	bgeui	a3, 16, 78000e1 <_ResetHandler+0xa9>
 78000fe:	002000               	isync
 7800101:	ffc651               	l32r	a5, 780001c <_ResetHandler_text_start+0x1c>
 7800104:	00a032               	movi	a3, 0
 7800107:	207220               	or	a7, a2, a2

0780010a <_ResetHandler+0xd2>:
 780010a:	50f380               	rdtlb1	a8, a3
 780010d:	344070               	extui	a4, a7, 0, 4
 7800110:	418480               	srli	a8, a8, 4
 7800113:	1188c0               	slli	a8, a8, 4
 7800116:	804480               	add	a4, a4, a8
 7800119:	50e340               	wdtlb	a4, a3
 780011c:	c03350               	sub	a3, a3, a5
 780011f:	417470               	srli	a7, a7, 4
 7800122:	e4b3f6               	bgeui	a3, 16, 780010a <_ResetHandler+0xd2>
 7800125:	002030               	dsync
 7800128:	01a032               	movi	a3, 1
 780012b:	036120               	rsr.memctl	a2
 780012e:	202230               	or	a2, a2, a3
 7800131:	136120               	wsr.memctl	a2

07800134 <unpackdone>:
 7800134:	01a012               	movi	a1, 1
 7800137:	134910               	wsr.windowstart	a1
 780013a:	134800               	wsr.windowbase	a0
 780013d:	002010               	rsync
 7800140:	000c                	movi.n	a0, 0
 7800142:	ffb841               	l32r	a4, 7800024 <_ResetHandler_text_start+0x24>
 7800145:	13d240               	wsr.excsave2	a4
 7800148:	ffb851               	l32r	a5, 7800028 <_ResetHandler_text_start+0x28>
 780014b:	0549                	s32i.n	a4, a5, 0
 780014d:	214405               	call0	7821590 <_start>

Disassembly of section .WindowVectors.text:

07800400 <_WindowOverflow4>:
 7800400:	49c500               	s32e	a0, a5, -16
 7800403:	49d510               	s32e	a1, a5, -12
 7800406:	49e520               	s32e	a2, a5, -8
 7800409:	49f530               	s32e	a3, a5, -4
 780040c:	003400               	rfwo

0780040f <_WindowOverflow4+0xf>:
	...

07800410 <_xtos_alloca_handler>:
 7800410:	4128                	l32i.n	a2, a1, 16
 7800412:	5138                	l32i.n	a3, a1, 20
 7800414:	6148                	l32i.n	a4, a1, 24
 7800416:	60c112               	addi	a1, a1, 96
 7800419:	13d100               	wsr.excsave1	a0
 780041c:	034800               	rsr.windowbase	a0
 780041f:	4080f0               	rotw	-1
 7800422:	03e620               	rsr.ps	a2
 7800425:	343820               	extui	a3, a2, 8, 4
 7800428:	303340               	xor	a3, a3, a4
 780042b:	000846               	j	7800450 <_xtos_alloca_2>

0780042e <_xtos_alloca_handler+0x1e>:
	...

07800440 <_WindowUnderflow4>:
 7800440:	09c500               	l32e	a0, a5, -16
 7800443:	09d510               	l32e	a1, a5, -12
 7800446:	09e520               	l32e	a2, a5, -8
 7800449:	09f530               	l32e	a3, a5, -4
 780044c:	003500               	rfwu

0780044f <_WindowUnderflow4+0xf>:
	...

07800450 <_xtos_alloca_2>:
 7800450:	03d140               	rsr.excsave1	a4
 7800453:	113380               	slli	a3, a3, 8
 7800456:	302230               	xor	a2, a2, a3
 7800459:	13e620               	wsr.ps	a2
 780045c:	002010               	rsync
 780045f:	dd74f7               	bbci	a4, 31, 7800440 <_WindowUnderflow4>
 7800462:	4080f0               	rotw	-1
 7800465:	5778e7               	bbci	a8, 30, 78004c0 <_WindowUnderflow8>
 7800468:	4080f0               	rotw	-1
 780046b:	003446               	j	7800540 <_WindowUnderflow12>

0780046e <_xtos_alloca_2+0x1e>:
	...

07800480 <_WindowOverflow8>:
 7800480:	49c900               	s32e	a0, a9, -16
 7800483:	09d100               	l32e	a0, a1, -12
 7800486:	49d910               	s32e	a1, a9, -12
 7800489:	49e920               	s32e	a2, a9, -8
 780048c:	49f930               	s32e	a3, a9, -4
 780048f:	498040               	s32e	a4, a0, -32
 7800492:	499050               	s32e	a5, a0, -28
 7800495:	49a060               	s32e	a6, a0, -24
 7800498:	49b070               	s32e	a7, a0, -20
 780049b:	003400               	rfwo

0780049e <_WindowOverflow8+0x1e>:
	...

078004c0 <_WindowUnderflow8>:
 78004c0:	09c900               	l32e	a0, a9, -16
 78004c3:	09d910               	l32e	a1, a9, -12
 78004c6:	09e920               	l32e	a2, a9, -8
 78004c9:	09d170               	l32e	a7, a1, -12
 78004cc:	09f930               	l32e	a3, a9, -4
 78004cf:	098740               	l32e	a4, a7, -32
 78004d2:	099750               	l32e	a5, a7, -28
 78004d5:	09a760               	l32e	a6, a7, -24
 78004d8:	09b770               	l32e	a7, a7, -20
 78004db:	003500               	rfwu

078004de <_WindowUnderflow8+0x1e>:
	...

07800500 <_WindowOverflow12>:
 7800500:	49cd00               	s32e	a0, a13, -16
 7800503:	09d100               	l32e	a0, a1, -12
 7800506:	49dd10               	s32e	a1, a13, -12
 7800509:	49ed20               	s32e	a2, a13, -8
 780050c:	49fd30               	s32e	a3, a13, -4
 780050f:	494040               	s32e	a4, a0, -48
 7800512:	495050               	s32e	a5, a0, -44
 7800515:	496060               	s32e	a6, a0, -40
 7800518:	497070               	s32e	a7, a0, -36
 780051b:	498080               	s32e	a8, a0, -32
 780051e:	499090               	s32e	a9, a0, -28
 7800521:	49a0a0               	s32e	a10, a0, -24
 7800524:	49b0b0               	s32e	a11, a0, -20
 7800527:	003400               	rfwo

0780052a <_WindowOverflow12+0x2a>:
	...

07800540 <_WindowUnderflow12>:
 7800540:	09cd00               	l32e	a0, a13, -16
 7800543:	09dd10               	l32e	a1, a13, -12
 7800546:	09ed20               	l32e	a2, a13, -8
 7800549:	09d1b0               	l32e	a11, a1, -12
 780054c:	09fd30               	l32e	a3, a13, -4
 780054f:	094b40               	l32e	a4, a11, -48
 7800552:	095b50               	l32e	a5, a11, -44
 7800555:	096b60               	l32e	a6, a11, -40
 7800558:	097b70               	l32e	a7, a11, -36
 780055b:	098b80               	l32e	a8, a11, -32
 780055e:	099b90               	l32e	a9, a11, -28
 7800561:	09aba0               	l32e	a10, a11, -24
 7800564:	09bbb0               	l32e	a11, a11, -20
 7800567:	003500               	rfwu

Disassembly of section .Level2InterruptVector.text:

0780057c <_Level2Vector>:
 780057c:	61d220               	xsr.excsave2	a2
 780057f:	0002a0               	jx	a2

Disassembly of section .DebugExceptionVector.text:

0780059c <_DebugExceptionVector>:
 780059c:	13d320               	wsr.excsave3	a2
 780059f:	827c                	movi.n	a2, -8
 78005a1:	005100               	simcall

078005a4 <_DebugExceptionVector+0x8>:
 78005a4:	ffff06               	j	78005a4 <_DebugExceptionVector+0x8>

Disassembly of section .NMIExceptionVector.text:

078005bc <_NMIExceptionVector>:
 78005bc:	003410               	rfi	4

Disassembly of section .KernelExceptionVector.text:

078005dc <_KernelExceptionVector>:
 78005dc:	004100               	break	1, 0
 78005df:	fffe46               	j	78005dc <_KernelExceptionVector>

Disassembly of section .UserExceptionVector.literal:

078005f8 <_memmap_seg_sram10_end-0x8>:
 78005f8:	07832c14                                .,..

Disassembly of section .UserExceptionVector.text:

078005fc <_UserExceptionVector>:
 78005fc:	a0c112               	addi	a1, a1, -96
 78005ff:	4129                	s32i.n	a2, a1, 16
 7800601:	5139                	s32i.n	a3, a1, 20
 7800603:	fffd31               	l32r	a3, 78005f8 <_UserExceptionVector_literal_start>
 7800606:	03e820               	rsr.exccause	a2
 7800609:	a03230               	addx4	a3, a2, a3
 780060c:	0338                	l32i.n	a3, a3, 0
 780060e:	6149                	s32i.n	a4, a1, 24
 7800610:	0003a0               	jx	a3

Disassembly of section .DoubleExceptionVector.text:

0780061c <_DoubleExceptionVector>:
 780061c:	004140               	break	1, 4
 780061f:	fffe46               	j	780061c <_DoubleExceptionVector>

Disassembly of section .text:

07821140 <_stext>:
 7821140:	0782164c 07831600 08000000 00040020     L........... ...
 7821150:	00000000 07821134 0782113c 07831d08     ....4...<.......
 7821160:	07831d00 07831d04 07821574 07831cf0     ........t.......
 7821170:	07832e30 07831d10 00000000 078210e8     0...............
 7821180:	00000000 07832e34 07832e20 00000000     ....4... .......
 7821190:	07832e4c 002625a0 0026259f 20000000     L....%&..%&.... 
 78211a0:	c0000000 40000000 60000000 80000000     .......@...`....
 78211b0:	a0000000 e0000000 f8cdf010 f9868f00     ................
 78211c0:	07820fec 07832e54 0782101c 07821038     ....T.......8...
 78211d0:	07820fb0 07820fb4 07820fb8 07820fbc     ................
 78211e0:	07820fc0 07820fc4 07820fc8 07820fcc     ................
 78211f0:	07820fd0 07820fd4 07820fd8 07820fdc     ................
 7821200:	07820fe0 07821044 07831d18 3fffffff     ....D..........?
 7821210:	07821064 07821074 07821000 0002ee00     d...t...........
 7821220:	07831d20 07831d60 00007fff 07832e6c      ...`.......l...
 7821230:	078225e4 078225cc 0000ffff 0000f872     .%...%......r...
 7821240:	00004e1f 07800434 ffff0000 ffffb000     .N..4...........
 7821250:	07831bac 007fffff 07831ba4 7fffffff     ................
 7821260:	00013c68 07831da0 3c6ef35f 07832ebc     h<......_.n<....
 7821270:	07800748 ffefffff 00100000 000fffff     H...............
 7821280:	0007ffff 07800730 01ffffff 00ffffff     ....0...........
 7821290:	07832efc 07825670 07832f3c 0780076c     ....pV..</..l...
 78212a0:	07800780 00000f9f 078007a4 078007ac     ................
 78212b0:	0000bb80 00007d00 00017700 00003e80     .....}...w...>..
 78212c0:	00005dc0 00002b11 00002ee0 00001f40     .]...+......@...
 78212d0:	00015888 0000ac44 00005622 0002b110     .X..D..."V......
 78212e0:	0001ffff 1fffffff ffc0ffff 00007900     .............y..
 78212f0:	ffffc7ff ffff80ff 00001800 07832f7c     ............|/..
 7821300:	078007bc 07832fac f9868000 00000b00     ...../..........
 7821310:	0000f000 a5a5a5a5 07832fb8 ffff0fff     ........./......
 7821320:	00000800 00004800 07831f30 07832fd0     .....H..0..../..
 7821330:	f9868b00 ff0fffff 00480000 00080000     ..........H.....
 7821340:	07832fe0 fdffffff 6b49d5e7 80008000     ./........Ik....
 7821350:	80001003 feffffff 01000000 00002710     .............'..
 7821360:	0fffffff 078007e0 fbffffff 04000000     ................
 7821370:	e000ffff f7ffffff 08000000 0003ffff     ................
 7821380:	07831f70 00004100 80000001 80000003     p....A..........
 7821390:	80000002 80000005 80000008 80000006     ................
 78213a0:	07832760 f8b00000 00001b98 00001b97     `'..............
 78213b0:	53524349 00001280 00001370 0781ed80     ICRS....p.......
 78213c0:	000012f8 0781ee48 3c81b7f4 00001b7c     ....H......<|...
 78213d0:	00001b74 00001b84 00001b8a 09300080     t.............0.
 78213e0:	000eb334 078209c0 0781f020 0000324c     4....... ...L2..
 78213f0:	00001184 00001b78 00001b70 00001b80     ....x...p.......
 7821400:	00001b88 07833010 07832330 07820b00     .....0..0#......
 7821410:	07832780 07832770 07833018 fffff000     .'..p'...0......
 7821420:	80808080 fefefeff 07820b10 07820b20     ............ ...
 7821430:	07820b40 07821098 078210b4 078210c8     @...............
 7821440:	078210ac 07821090 07821094 07821088     ................
 7821450:	0782108c 0782a6c4 7ff00000 0000270f     .............'..
 7821460:	078210d8 078210c8 3ff00000 bff80000     ...........?....
 7821470:	3fd287a7 636f4361 3fd34413 509f79fb     ...?aCoc.D.?.y.P
 7821480:	3fc68a28 8b60c8b3 07820cb0 078210cc     (..?..`.........
 7821490:	40240000 07820db0 401c0000 fcc00000     ..$@.......@....
 78214a0:	3fe00000 07820ab0 fe100000 40140000     ...?...........@
 78214b0:	c0140000 07832774 00001000 0783301c     ....t'.......0..
 78214c0:	078210dc 07821084 078210c4 07832bd0     .............+..
 78214d0:	07832b90 07832bf0 0783304c 07832b94     .+...+..L0...+..
 78214e0:	07820be0 03400000 7fefffff 800fffff     ......@.........
 78214f0:	fff00000 000000ff 0000ff00 00ff0000     ................
 7821500:	ff000000 40404040 0000fb7f 07820df0     ....@@@@........
 7821510:	07820e10 07821098 078210b4 078210ac     ................
 7821520:	0783305c 07832c10 078335b0 00050021     \0...,...5..!...
 7821530:	80000007 07832d18 07832ca0 07831bc8     .....-...,......
 7821540:	07820f90 07832d20 07831bb0 07833460     .... -......`4..
 7821550:	07832d14 00050022 00002c00 07820f80     .-.."....,......
 7821560:	07830474 001fffff 07820f28 07821124     t.......(...$...
 7821570:	07821610                                ....

07821574 <_init>:
 7821574:	008136               	entry	a1, 64
 7821577:	fef281               	l32r	a8, 7821140 <_stext>
 782157a:	f03d                	nop.n
 782157c:	0008e0               	callx8	a8
 782157f:	fef181               	l32r	a8, 7821144 <_stext+0x4>
 7821582:	f03d                	nop.n
 7821584:	0008e0               	callx8	a8
 7821587:	f01d                	retw.n

07821589 <_init+0x15>:
 7821589:	00000000 02000000                                .......

07821590 <_start>:
 7821590:	00a002               	movi	a0, 0
 7821593:	feed11               	l32r	a1, 7821148 <_stext+0x8>
 7821596:	feed31               	l32r	a3, 782114c <_stext+0xc>
 7821599:	f03d                	nop.n
 782159b:	13e630               	wsr.ps	a3
 782159e:	002010               	rsync
 78215a1:	feeb41               	l32r	a4, 7821150 <_stext+0x10>
 78215a4:	002416               	beqz	a4, 78215aa <_start+0x1a>
 78215a7:	0004d0               	callx4	a4

078215aa <_start+0x1a>:
 78215aa:	feea61               	l32r	a6, 7821154 <_stext+0x14>
 78215ad:	feea71               	l32r	a7, 7821158 <_stext+0x18>
 78215b0:	2cb677               	bgeu	a6, a7, 78215e0 <_start+0x50>
 78215b3:	0688                	l32i.n	a8, a6, 0
 78215b5:	1698                	l32i.n	a9, a6, 4
 78215b7:	668b                	addi.n	a6, a6, 8
 78215b9:	c0a980               	sub	a10, a9, a8
 78215bc:	036a27               	bbci	a10, 2, 78215c3 <_start+0x33>
 78215bf:	0809                	s32i.n	a0, a8, 0
 78215c1:	884b                	addi.n	a8, a8, 4
 78215c3:	056a37               	bbci	a10, 3, 78215cc <_start+0x3c>
 78215c6:	0809                	s32i.n	a0, a8, 0
 78215c8:	1809                	s32i.n	a0, a8, 4
 78215ca:	888b                	addi.n	a8, a8, 8
 78215cc:	41a4a0               	srli	a10, a10, 4
 78215cf:	0a9a76               	loopnez	a10, 78215dd <_start+0x4d>
 78215d2:	0809                	s32i.n	a0, a8, 0
 78215d4:	1809                	s32i.n	a0, a8, 4
 78215d6:	2809                	s32i.n	a0, a8, 8
 78215d8:	3809                	s32i.n	a0, a8, 12
 78215da:	10c882               	addi	a8, a8, 16

078215dd <_start+0x4d>:
 78215dd:	d23677               	bltu	a6, a7, 78215b3 <_start+0x23>

078215e0 <_start+0x50>:
 78215e0:	105a55               	call4	7831b88 <board_init>
 78215e3:	fede61               	l32r	a6, 782115c <_stext+0x1c>
 78215e6:	fede71               	l32r	a7, 7821160 <_stext+0x20>
 78215e9:	fede81               	l32r	a8, 7821164 <_stext+0x24>
 78215ec:	fedf91               	l32r	a9, 7821168 <_stext+0x28>
 78215ef:	fedfa1               	l32r	a10, 782116c <_stext+0x2c>
 78215f2:	002662               	l32i	a6, a6, 0
 78215f5:	090715               	call4	782a668 <__clibrary_init>
 78215f8:	fed961               	l32r	a6, 782115c <_stext+0x1c>
 78215fb:	fed971               	l32r	a7, 7821160 <_stext+0x20>
 78215fe:	fed981               	l32r	a8, 7821164 <_stext+0x24>
 7821601:	0668                	l32i.n	a6, a6, 0
 7821603:	001d95               	call4	78217dc <main>
 7821606:	090895               	call4	782a690 <exit>

07821609 <_start+0x79>:
 7821609:	00000000 36000000                                .......

07821610 <__do_global_dtors_aux>:
 7821610:	004136               	entry	a1, 32
 7821613:	fed731               	l32r	a3, 7821170 <_stext+0x30>
 7821616:	000382               	l8ui	a8, a3, 0
 7821619:	d8ec                	bnez.n	a8, 782164a <__do_global_dtors_aux+0x3a>
 782161b:	fed621               	l32r	a2, 7821174 <_stext+0x34>
 782161e:	02b8                	l32i.n	a11, a2, 0
 7821620:	0ba8                	l32i.n	a10, a11, 0
 7821622:	ca8c                	beqz.n	a10, 7821632 <__do_global_dtors_aux+0x22>

07821624 <__do_global_dtors_aux+0x14>:
 7821624:	9b4b                	addi.n	a9, a11, 4
 7821626:	0299                	s32i.n	a9, a2, 0
 7821628:	000ae0               	callx8	a10
 782162b:	02b8                	l32i.n	a11, a2, 0
 782162d:	0ba8                	l32i.n	a10, a11, 0
 782162f:	ff1a56               	bnez	a10, 7821624 <__do_global_dtors_aux+0x14>
 7821632:	fed1a1               	l32r	a10, 7821178 <_stext+0x38>
 7821635:	0b0c                	movi.n	a11, 0
 7821637:	081ab7               	beq	a10, a11, 7821643 <__do_global_dtors_aux+0x33>
 782163a:	fed0a1               	l32r	a10, 782117c <_stext+0x3c>
 782163d:	fece81               	l32r	a8, 7821178 <_stext+0x38>
 7821640:	0008e0               	callx8	a8
 7821643:	1c0c                	movi.n	a12, 1
 7821645:	0043c2               	s8i	a12, a3, 0
 7821648:	f01d                	retw.n

0782164a <__do_global_dtors_aux+0x3a>:
 782164a:	f01d                	retw.n

0782164c <frame_dummy>:
 782164c:	004136               	entry	a1, 32
 782164f:	fecc81               	l32r	a8, 7821180 <_stext+0x40>
 7821652:	090c                	movi.n	a9, 0
 7821654:	0b1897               	beq	a8, a9, 7821663 <frame_dummy+0x17>
 7821657:	fec9a1               	l32r	a10, 782117c <_stext+0x3c>
 782165a:	fecab1               	l32r	a11, 7821184 <_stext+0x44>
 782165d:	fec881               	l32r	a8, 7821180 <_stext+0x40>
 7821660:	0008e0               	callx8	a8

07821663 <frame_dummy+0x17>:
 7821663:	fec9a1               	l32r	a10, 7821188 <_stext+0x48>
 7821666:	0ab8                	l32i.n	a11, a10, 0
 7821668:	6b8c                	beqz.n	a11, 7821672 <frame_dummy+0x26>
 782166a:	fec8b1               	l32r	a11, 782118c <_stext+0x4c>
 782166d:	1b8c                	beqz.n	a11, 7821672 <frame_dummy+0x26>
 782166f:	000be0               	callx8	a11
 7821672:	f01d                	retw.n

07821674 <frame_dummy+0x28>:
 7821674:	00000000                                ....

07821678 <DSP0_L3_int10_timer1>:
 7821678:	004136               	entry	a1, 32
 782167b:	fec541               	l32r	a4, 7821190 <_stext+0x50>
 782167e:	fec521               	l32r	a2, 7821194 <_stext+0x54>

07821681 <DSP0_L3_int10_timer1+0x9>:
 7821681:	002492               	l32i	a9, a4, 0
 7821684:	0020c0               	memw
 7821687:	3988                	l32i.n	a8, a9, 12
 7821689:	881b                	addi.n	a8, a8, 1
 782168b:	0020c0               	memw
 782168e:	0a0c                	movi.n	a10, 0
 7821690:	036982               	s32i	a8, a9, 12
 7821693:	105725               	call8	7831c04 <xthal_get_ccompare>
 7821696:	0a3d                	mov.n	a3, a10
 7821698:	0a0c                	movi.n	a10, 0
 782169a:	b32a                	add.n	a11, a3, a2
 782169c:	1054e5               	call8	7831bec <xthal_set_ccompare>
 782169f:	105465               	call8	7831be4 <xthal_get_ccount>
 78216a2:	c09a30               	sub	a9, a10, a3
 78216a5:	d83297               	bltu	a2, a9, 7821681 <DSP0_L3_int10_timer1+0x9>
 78216a8:	006fa0               	rsil	a10, 15
 78216ab:	13e6a0               	wsr.ps	a10
 78216ae:	002010               	rsync
 78216b1:	f01d                	retw.n

078216b3 <DSP0_L3_int10_timer1+0x3b>:
	...

078216b4 <ADSP_CastTimerInit>:
 78216b4:	004136               	entry	a1, 32
 78216b7:	01a0a2               	movi	a10, 1
 78216ba:	feb6b1               	l32r	a11, 7821194 <_stext+0x54>
 78216bd:	00f865               	call8	7822644 <TIMER_Init>
 78216c0:	01a0a2               	movi	a10, 1
 78216c3:	00f6a5               	call8	782262c <TIMER_SetEnable>
 78216c6:	000090               	retw

078216c9 <ADSP_CastTimerInit+0x15>:
 78216c9:	000000                                        ...

078216cc <MyProfiler_Flush>:
 78216cc:	004136               	entry	a1, 32
 78216cf:	030c                	movi.n	a3, 0
 78216d1:	feaf51               	l32r	a5, 7821190 <_stext+0x50>
 78216d4:	0faf62               	movi	a6, -241
 78216d7:	0558                	l32i.n	a5, a5, 0
 78216d9:	0020c0               	memw
 78216dc:	0548                	l32i.n	a4, a5, 0
 78216de:	104460               	and	a4, a4, a6
 78216e1:	0020c0               	memw
 78216e4:	0549                	s32i.n	a4, a5, 0
 78216e6:	0239                	s32i.n	a3, a2, 0
 78216e8:	1239                	s32i.n	a3, a2, 4
 78216ea:	2239                	s32i.n	a3, a2, 8
 78216ec:	3239                	s32i.n	a3, a2, 12
 78216ee:	4239                	s32i.n	a3, a2, 16
 78216f0:	5239                	s32i.n	a3, a2, 20
 78216f2:	f01d                	retw.n

078216f4 <MyProfiler_Start>:
 78216f4:	004136               	entry	a1, 32
 78216f7:	0fafb2               	movi	a11, -241
 78216fa:	fea591               	l32r	a9, 7821190 <_stext+0x50>
 78216fd:	34a030               	extui	a10, a3, 0, 4
 7821700:	11aac0               	slli	a10, a10, 4
 7821703:	002992               	l32i	a9, a9, 0
 7821706:	0020c0               	memw
 7821709:	002982               	l32i	a8, a9, 0
 782170c:	1088b0               	and	a8, a8, a11
 782170f:	2088a0               	or	a8, a8, a10
 7821712:	0020c0               	memw
 7821715:	006982               	s32i	a8, a9, 0
 7821718:	104ca5               	call8	7831be4 <xthal_get_ccount>
 782171b:	32a9                	s32i.n	a10, a2, 12
 782171d:	f01d                	retw.n

0782171f <MyProfiler_Start+0x2b>:
	...

07821720 <MyProfiler_Stop>:
 7821720:	004136               	entry	a1, 32
 7821723:	104c25               	call8	7831be4 <xthal_get_ccount>
 7821726:	0322b2               	l32i	a11, a2, 12
 7821729:	0462a2               	s32i	a10, a2, 16
 782172c:	14bba7               	bgeu	a11, a10, 7821744 <MyProfiler_Stop+0x24>
 782172f:	c0aab0               	sub	a10, a10, a11
 7821732:	e8a3b2               	movi	a11, 0x3e8
 7821735:	1001a5               	call8	7831750 <__udivsi3>
 7821738:	081326               	beqi	a3, 1, 7821744 <MyProfiler_Stop+0x24>
 782173b:	132326               	beqi	a3, 2, 7821752 <MyProfiler_Stop+0x32>
 782173e:	183326               	beqi	a3, 3, 782175a <MyProfiler_Stop+0x3a>
 7821741:	054326               	beqi	a3, 4, 782174a <MyProfiler_Stop+0x2a>
 7821744:	000090               	retw

07821747 <MyProfiler_Stop+0x27>:
 7821747:	000000                                        ...

0782174a <MyProfiler_Stop+0x2a>:
 782174a:	2288                	l32i.n	a8, a2, 8
 782174c:	88aa                	add.n	a8, a8, a10
 782174e:	2289                	s32i.n	a8, a2, 8
 7821750:	f01d                	retw.n

07821752 <MyProfiler_Stop+0x32>:
 7821752:	0298                	l32i.n	a9, a2, 0
 7821754:	99aa                	add.n	a9, a9, a10
 7821756:	0299                	s32i.n	a9, a2, 0
 7821758:	f01d                	retw.n

0782175a <MyProfiler_Stop+0x3a>:
 782175a:	12b8                	l32i.n	a11, a2, 4
 782175c:	bbaa                	add.n	a11, a11, a10
 782175e:	12b9                	s32i.n	a11, a2, 4
 7821760:	f01d                	retw.n

07821762 <MyProfiler_Stop+0x42>:
	...

07821764 <MyProfiler_Show>:
 7821764:	004136               	entry	a1, 32
 7821767:	0a0c                	movi.n	a10, 0
 7821769:	0298                	l32i.n	a9, a2, 0
 782176b:	1288                	l32i.n	a8, a2, 4
 782176d:	2238                	l32i.n	a3, a2, 8
 782176f:	889a                	add.n	a8, a8, a9
 7821771:	338a                	add.n	a3, a3, a8
 7821773:	fe8981               	l32r	a8, 7821198 <_stext+0x58>
 7821776:	5239                	s32i.n	a3, a2, 20
 7821778:	0db837               	bgeu	a8, a3, 7821789 <MyProfiler_Show+0x25>
 782177b:	0a3d                	mov.n	a3, a10
 782177d:	0239                	s32i.n	a3, a2, 0
 782177f:	1239                	s32i.n	a3, a2, 4
 7821781:	2239                	s32i.n	a3, a2, 8
 7821783:	3239                	s32i.n	a3, a2, 12
 7821785:	4239                	s32i.n	a3, a2, 16
 7821787:	5239                	s32i.n	a3, a2, 20

07821789 <MyProfiler_Show+0x25>:
 7821789:	04d316               	beqz	a3, 78217da <MyProfiler_Show+0x76>
 782178c:	0022b2               	l32i	a11, a2, 0
 782178f:	fe8041               	l32r	a4, 7821190 <_stext+0x50>
 7821792:	90abb0               	addx2	a10, a11, a11
 7821795:	b0aab0               	addx8	a10, a10, a11
 7821798:	11aae0               	slli	a10, a10, 2
 782179b:	03bd                	mov.n	a11, a3
 782179d:	0ffb25               	call8	7831750 <__udivsi3>
 78217a0:	04c8                	l32i.n	a12, a4, 0
 78217a2:	0020c0               	memw
 78217a5:	12b8                	l32i.n	a11, a2, 4
 78217a7:	044ca2               	s8i	a10, a12, 4
 78217aa:	90abb0               	addx2	a10, a11, a11
 78217ad:	b0aab0               	addx8	a10, a10, a11
 78217b0:	11aae0               	slli	a10, a10, 2
 78217b3:	03bd                	mov.n	a11, a3
 78217b5:	0ff9a5               	call8	7831750 <__udivsi3>
 78217b8:	04c8                	l32i.n	a12, a4, 0
 78217ba:	0020c0               	memw
 78217bd:	22b8                	l32i.n	a11, a2, 8
 78217bf:	054ca2               	s8i	a10, a12, 5
 78217c2:	90abb0               	addx2	a10, a11, a11
 78217c5:	b0aab0               	addx8	a10, a10, a11
 78217c8:	11aae0               	slli	a10, a10, 2
 78217cb:	03bd                	mov.n	a11, a3
 78217cd:	0ff825               	call8	7831750 <__udivsi3>
 78217d0:	04d8                	l32i.n	a13, a4, 0
 78217d2:	0020c0               	memw
 78217d5:	064da2               	s8i	a10, a13, 6
 78217d8:	f01d                	retw.n

078217da <MyProfiler_Show+0x76>:
 78217da:	f01d                	retw.n

078217dc <main>:
 78217dc:	00a136               	entry	a1, 80
 78217df:	0a0c                	movi.n	a10, 0
 78217e1:	fe6eb1               	l32r	a11, 782119c <_stext+0x5c>
 78217e4:	4c0c                	movi.n	a12, 4
 78217e6:	00a2d2               	movi	a13, 0x200
 78217e9:	0eaf65               	call8	78302e0 <xthal_set_region_attribute>
 78217ec:	fe6da1               	l32r	a10, 78211a0 <_stext+0x60>
 78217ef:	fe6bb1               	l32r	a11, 782119c <_stext+0x5c>
 78217f2:	2c0c                	movi.n	a12, 2
 78217f4:	00a2d2               	movi	a13, 0x200
 78217f7:	0eaea5               	call8	78302e0 <xthal_set_region_attribute>
 78217fa:	fe68a1               	l32r	a10, 782119c <_stext+0x5c>
 78217fd:	fe67b1               	l32r	a11, 782119c <_stext+0x5c>
 7821800:	4c0c                	movi.n	a12, 4
 7821802:	00a2d2               	movi	a13, 0x200
 7821805:	0eada5               	call8	78302e0 <xthal_set_region_attribute>
 7821808:	fe67a1               	l32r	a10, 78211a4 <_stext+0x64>
 782180b:	fe64b1               	l32r	a11, 782119c <_stext+0x5c>
 782180e:	4c0c                	movi.n	a12, 4
 7821810:	00a2d2               	movi	a13, 0x200
 7821813:	0eace5               	call8	78302e0 <xthal_set_region_attribute>
 7821816:	fe64a1               	l32r	a10, 78211a8 <_stext+0x68>
 7821819:	fe60b1               	l32r	a11, 782119c <_stext+0x5c>
 782181c:	4c0c                	movi.n	a12, 4
 782181e:	00a2d2               	movi	a13, 0x200
 7821821:	0eabe5               	call8	78302e0 <xthal_set_region_attribute>
 7821824:	fe62a1               	l32r	a10, 78211ac <_stext+0x6c>
 7821827:	fe5db1               	l32r	a11, 782119c <_stext+0x5c>
 782182a:	4c0c                	movi.n	a12, 4
 782182c:	00a2d2               	movi	a13, 0x200
 782182f:	0eab25               	call8	78302e0 <xthal_set_region_attribute>
 7821832:	fe5fa1               	l32r	a10, 78211b0 <_stext+0x70>
 7821835:	fe59b1               	l32r	a11, 782119c <_stext+0x5c>
 7821838:	4c0c                	movi.n	a12, 4
 782183a:	00a2d2               	movi	a13, 0x200
 782183d:	0eaa25               	call8	78302e0 <xthal_set_region_attribute>
 7821840:	fe5da1               	l32r	a10, 78211b4 <_stext+0x74>
 7821843:	fe56b1               	l32r	a11, 782119c <_stext+0x5c>
 7821846:	2c0c                	movi.n	a12, 2
 7821848:	00a2d2               	movi	a13, 0x200
 782184b:	0ea965               	call8	78302e0 <xthal_set_region_attribute>
 782184e:	fe5031               	l32r	a3, 7821190 <_stext+0x50>
 7821851:	fe59a1               	l32r	a10, 78211b8 <_stext+0x78>
 7821854:	13a9                	s32i.n	a10, a3, 4
 7821856:	ec7c                	movi.n	a12, -2
 7821858:	1b0c                	movi.n	a11, 1
 782185a:	0020c0               	memw
 782185d:	0a98                	l32i.n	a9, a10, 0
 782185f:	1099c0               	and	a9, a9, a12
 7821862:	2099b0               	or	a9, a9, a11
 7821865:	0020c0               	memw
 7821868:	0a99                	s32i.n	a9, a10, 0
 782186a:	fe5481               	l32r	a8, 78211bc <_stext+0x7c>
 782186d:	0389                	s32i.n	a8, a3, 0
 782186f:	ffe465               	call8	78216b4 <ADSP_CastTimerInit>
 7821872:	fe53a1               	l32r	a10, 78211c0 <_stext+0x80>
 7821875:	0858a5               	call8	7829e00 <Osal_Print>
 7821878:	fe5321               	l32r	a2, 78211c4 <_stext+0x84>
 782187b:	02ad                	mov.n	a10, a2
 782187d:	ffe4e5               	call8	78216cc <MyProfiler_Flush>
 7821880:	fe52a1               	l32r	a10, 78211c8 <_stext+0x88>
 7821883:	0857e5               	call8	7829e00 <Osal_Print>
 7821886:	0398                	l32i.n	a9, a3, 0
 7821888:	13a8                	l32i.n	a10, a3, 4
 782188a:	000286               	j	7821898 <main+0xbc>

0782188d <main+0xb1>:
 782188d:	0020c0               	memw
 7821890:	09d8                	l32i.n	a13, a9, 0
 7821892:	02ed07               	bbsi	a13, 0, 7821898 <main+0xbc>
 7821895:	007000               	waiti	0
 7821898:	0020c0               	memw
 782189b:	002ae2               	l32i	a14, a10, 0
 782189e:	eb6e17               	bbci	a14, 1, 782188d <main+0xb1>
 78218a1:	fe4aa1               	l32r	a10, 78211cc <_stext+0x8c>
 78218a4:	0855a5               	call8	7829e00 <Osal_Print>
 78218a7:	fe5441               	l32r	a4, 78211f8 <_stext+0xb8>
 78218aa:	fe5251               	l32r	a5, 78211f4 <_stext+0xb4>
 78218ad:	fe5061               	l32r	a6, 78211f0 <_stext+0xb0>
 78218b0:	fe53f1               	l32r	a15, 78211fc <_stext+0xbc>
 78218b3:	fe4e71               	l32r	a7, 78211ec <_stext+0xac>
 78218b6:	fe4c81               	l32r	a8, 78211e8 <_stext+0xa8>
 78218b9:	fe4a91               	l32r	a9, 78211e4 <_stext+0xa4>
 78218bc:	fe49a1               	l32r	a10, 78211e0 <_stext+0xa0>
 78218bf:	fe47b1               	l32r	a11, 78211dc <_stext+0x9c>
 78218c2:	fe45c1               	l32r	a12, 78211d8 <_stext+0x98>
 78218c5:	fe43d1               	l32r	a13, 78211d4 <_stext+0x94>
 78218c8:	fe42e1               	l32r	a14, 78211d0 <_stext+0x90>
 78218cb:	0061e2               	s32i	a14, a1, 0
 78218ce:	0161d2               	s32i	a13, a1, 4
 78218d1:	21c9                	s32i.n	a12, a1, 8
 78218d3:	31b9                	s32i.n	a11, a1, 12
 78218d5:	41a9                	s32i.n	a10, a1, 16
 78218d7:	5199                	s32i.n	a9, a1, 20
 78218d9:	6189                	s32i.n	a8, a1, 24
 78218db:	7179                	s32i.n	a7, a1, 28
 78218dd:	b1f9                	s32i.n	a15, a1, 44
 78218df:	8169                	s32i.n	a6, a1, 32
 78218e1:	9159                	s32i.n	a5, a1, 36
 78218e3:	a149                	s32i.n	a4, a1, 40
 78218e5:	050c                	movi.n	a5, 0
 78218e7:	014d                	mov.n	a4, a1
 78218e9:	30c162               	addi	a6, a1, 48
 78218ec:	fe45a1               	l32r	a10, 7821200 <_stext+0xc0>
 78218ef:	0024b2               	l32i	a11, a4, 0
 78218f2:	03a0c2               	movi	a12, 3
 78218f5:	092d25               	call8	782abc8 <strncmp>
 78218f8:	15fa16               	beqz	a10, 7821a5b <main+0x27f>
 78218fb:	01c552               	addi	a5, a5, 1
 78218fe:	444b                	addi.n	a4, a4, 4
 7821900:	e89467               	bne	a4, a6, 78218ec <main+0x110>
 7821903:	019ab6               	bltui	a10, 10, 7821908 <main+0x12c>
 7821906:	aa6b                	addi.n	a10, a10, 6
 7821908:	17a382               	movi	a8, 0x317
 782190b:	002392               	l32i	a9, a3, 0
 782190e:	0020c0               	memw
 7821911:	164982               	s8i	a8, a9, 22
 7821914:	0023f2               	l32i	a15, a3, 0
 7821917:	0020c0               	memw
 782191a:	154fa2               	s8i	a10, a15, 21
 782191d:	25a3d2               	movi	a13, 0x325
 7821920:	0023e2               	l32i	a14, a3, 0
 7821923:	0020c0               	memw
 7821926:	144ed2               	s8i	a13, a14, 20
 7821929:	19a3b2               	movi	a11, 0x319
 782192c:	03c8                	l32i.n	a12, a3, 0
 782192e:	0020c0               	memw
 7821931:	1a4cb2               	s8i	a11, a12, 26
 7821934:	26a392               	movi	a9, 0x326
 7821937:	03a8                	l32i.n	a10, a3, 0
 7821939:	0020c0               	memw
 782193c:	194a92               	s8i	a9, a10, 25
 782193f:	02a3f2               	movi	a15, 0x302
 7821942:	0388                	l32i.n	a8, a3, 0
 7821944:	0020c0               	memw
 7821947:	fe2fa1               	l32r	a10, 7821204 <_stext+0xc4>
 782194a:	1848f2               	s8i	a15, a8, 24
 782194d:	084b25               	call8	7829e00 <Osal_Print>
 7821950:	070c                	movi.n	a7, 0
 7821952:	fe2d41               	l32r	a4, 7821208 <_stext+0xc8>
 7821955:	fe2d61               	l32r	a6, 782120c <_stext+0xcc>
 7821958:	001c86               	j	78219ce <main+0x1f2>

0782195b <main+0x17f>:
	...

0782195d <main+0x181>:
 782195d:	0020c0               	memw
 7821960:	0024d2               	l32i	a13, a4, 0
 7821963:	271d66               	bnei	a13, 1, 782198e <main+0x1b2>
 7821966:	fe2aa1               	l32r	a10, 7821210 <_stext+0xd0>
 7821969:	084965               	call8	7829e00 <Osal_Print>
 782196c:	1a0c                	movi.n	a10, 1
 782196e:	00cca5               	call8	7822638 <TIMER_SetDisable>
 7821971:	13f8                	l32i.n	a15, a3, 4
 7821973:	0020c0               	memw
 7821976:	0fe8                	l32i.n	a14, a15, 0
 7821978:	e57c                	movi.n	a5, -2
 782197a:	10ee50               	and	a14, a14, a5
 782197d:	20ee70               	or	a14, a14, a7
 7821980:	0020c0               	memw
 7821983:	0fe9                	s32i.n	a14, a15, 0
 7821985:	fe23a1               	l32r	a10, 7821214 <_stext+0xd4>
 7821988:	084765               	call8	7829e00 <Osal_Print>
 782198b:	007000               	waiti	0
 782198e:	02ad                	mov.n	a10, a2
 7821990:	04a0b2               	movi	a11, 4
 7821993:	ffd625               	call8	78216f4 <MyProfiler_Start>
 7821996:	0023f2               	l32i	a15, a3, 0
 7821999:	0020c0               	memw
 782199c:	002ff2               	l32i	a15, a15, 0
 782199f:	02ef07               	bbsi	a15, 0, 78219a5 <main+0x1c9>
 78219a2:	007000               	waiti	0
 78219a5:	02ad                	mov.n	a10, a2
 78219a7:	4b0c                	movi.n	a11, 4
 78219a9:	ffd765               	call8	7821720 <MyProfiler_Stop>
 78219ac:	1398                	l32i.n	a9, a3, 4
 78219ae:	0020c0               	memw
 78219b1:	09a8                	l32i.n	a10, a9, 0
 78219b3:	41a2a0               	srli	a10, a10, 2
 78219b6:	aa1b                	addi.n	a10, a10, 1
 78219b8:	10aa60               	and	a10, a10, a6
 78219bb:	11aae0               	slli	a10, a10, 2
 78219be:	0020c0               	memw
 78219c1:	0988                	l32i.n	a8, a9, 0
 78219c3:	148080               	extui	a8, a8, 0, 2
 78219c6:	2088a0               	or	a8, a8, a10
 78219c9:	0020c0               	memw
 78219cc:	0989                	s32i.n	a8, a9, 0
 78219ce:	20a220               	or	a10, a2, a2
 78219d1:	ffd925               	call8	7821764 <MyProfiler_Show>
 78219d4:	20a220               	or	a10, a2, a2
 78219d7:	01a0b2               	movi	a11, 1
 78219da:	ffd1a5               	call8	78216f4 <MyProfiler_Start>
 78219dd:	002392               	l32i	a9, a3, 0
 78219e0:	0020c0               	memw
 78219e3:	29b8                	l32i.n	a11, a9, 8
 78219e5:	44eb37               	bbsi	a11, 3, 7821a2d <main+0x251>
 78219e8:	0020c0               	memw
 78219eb:	2958                	l32i.n	a5, a9, 8
 78219ed:	145050               	extui	a5, a5, 0, 2
 78219f0:	158c                	beqz.n	a5, 78219f5 <main+0x219>
 78219f2:	0e1566               	bnei	a5, 1, 7821a04 <main+0x228>
 78219f5:	fe08a1               	l32r	a10, 7821218 <_stext+0xd8>
 78219f8:	05bd                	mov.n	a11, a5
 78219fa:	084065               	call8	7829e00 <Osal_Print>
 78219fd:	0020c0               	memw
 7821a00:	0398                	l32i.n	a9, a3, 0
 7821a02:	0459                	s32i.n	a5, a4, 0
 7821a04:	0020c0               	memw
 7821a07:	29c8                	l32i.n	a12, a9, 8
 7821a09:	0fafd2               	movi	a13, -241
 7821a0c:	10ccd0               	and	a12, a12, a13
 7821a0f:	20cc70               	or	a12, a12, a7
 7821a12:	0020c0               	memw
 7821a15:	29c9                	s32i.n	a12, a9, 8
 7821a17:	03a8                	l32i.n	a10, a3, 0
 7821a19:	0020c0               	memw
 7821a1c:	2a88                	l32i.n	a8, a10, 8
 7821a1e:	7b7c                	movi.n	a11, -9
 7821a20:	1088b0               	and	a8, a8, a11
 7821a23:	8b0c                	movi.n	a11, 8
 7821a25:	2088b0               	or	a8, a8, a11
 7821a28:	0020c0               	memw
 7821a2b:	2a89                	s32i.n	a8, a10, 8
 7821a2d:	02ad                	mov.n	a10, a2
 7821a2f:	1b0c                	movi.n	a11, 1
 7821a31:	ffcee5               	call8	7821720 <MyProfiler_Stop>
 7821a34:	0020c0               	memw
 7821a37:	04e8                	l32i.n	a14, a4, 0
 7821a39:	f20e56               	bnez	a14, 782195d <main+0x181>
 7821a3c:	02ad                	mov.n	a10, a2
 7821a3e:	2b0c                	movi.n	a11, 2
 7821a40:	ffcb25               	call8	78216f4 <MyProfiler_Start>
 7821a43:	05e3a5               	call8	782787c <AOE_ProcThread>
 7821a46:	02ad                	mov.n	a10, a2
 7821a48:	2b0c                	movi.n	a11, 2
 7821a4a:	ffcd65               	call8	7821720 <MyProfiler_Stop>
 7821a4d:	05ed25               	call8	7827920 <AOE_GetThreadStatus>
 7821a50:	0d7ff741a0b01a0e 	{ beqi.w18	a10, 1, 78219ce <main+0x1f2>; nop }
 7821a58:	ffcc86               	j	782198e <main+0x1b2>

07821a5b <main+0x27f>:
 7821a5b:	a51b                	addi.n	a10, a5, 1
 7821a5d:	ffa886               	j	7821903 <main+0x127>

07821a60 <LSRC_Create>:
 7821a60:	006136               	entry	a1, 48
 7821a63:	00a072               	movi	a7, 0
 7821a66:	006272               	s32i	a7, a2, 0
 7821a69:	0d400a4110b0136e 	{ blti.w18	a3, 1, 7821b0e <LSRC_Create+0xae>; nop }
 7821a71:	fdea81               	l32r	a8, 782121c <_stext+0xdc>
 7821a74:	0d00094160b0983e 	{ blt.w18	a8, a3, 7821b0e <LSRC_Create+0xae>; nop }
 7821a7c:	0d400841e0b0146e 	{ blti.w18	a4, 1, 7821b0e <LSRC_Create+0xae>; nop }
 7821a84:	0d00084160b0984e 	{ blt.w18	a8, a4, 7821b0e <LSRC_Create+0xae>; nop }
 7821a8c:	20a440               	or	a10, a4, a4
 7821a8f:	20b330               	or	a11, a3, a3
 7821a92:	0fc0e5               	call8	78316a0 <__divsi3>
 7821a95:	0d40074150b07a4e 	{ bgei.w18	a10, 7, 7821b0e <LSRC_Create+0xae>; nop }
 7821a9d:	10a0a2               	movi	a10, 16
 7821aa0:	cb4c                	movi.n	a11, 76
 7821aa2:	00bf65               	call8	7822698 <HI_ADSP_MALLOC>
 7821aa5:	01a9                	s32i.n	a10, a1, 0
 7821aa7:	063a16               	beqz	a10, 7821b0e <LSRC_Create+0xae>
 7821aaa:	0b0c                	movi.n	a11, 0
 7821aac:	cc4c                	movi.n	a12, 76
 7821aae:	1007e5               	call8	7831b2c <memset>
 7821ab1:	fddb81               	l32r	a8, 7821220 <_stext+0xe0>
 7821ab4:	090c                	movi.n	a9, 0
 7821ab6:	cc0c                	movi.n	a12, 12
 7821ab8:	da0c                	movi.n	a10, 13
 7821aba:	08aa76               	loopgtz	a10, 7821ac6 <LSRC_Create+0x66>
 7821abd:	08b8                	l32i.n	a11, a8, 0
 7821abf:	884b                	addi.n	a8, a8, 4
 7821ac1:	011b47               	beq	a11, a4, 7821ac6 <LSRC_Create+0x66>
 7821ac4:	991b                	addi.n	a9, a9, 1

07821ac6 <LSRC_Create+0x66>:
 7821ac6:	01f8                	l32i.n	a15, a1, 0
 7821ac8:	0c3c97               	bltu	a12, a9, 7821ad8 <LSRC_Create+0x78>
 7821acb:	fdd6d1               	l32r	a13, 7821224 <_stext+0xe4>
 7821ace:	01e8                	l32i.n	a14, a1, 0
 7821ad0:	a0d9d0               	addx4	a13, a9, a13
 7821ad3:	0dd8                	l32i.n	a13, a13, 0
 7821ad5:	086ed2               	s32i	a13, a14, 32

07821ad8 <LSRC_Create+0x78>:
 7821ad8:	46ac                	beqz.n	a6, 7821b00 <LSRC_Create+0xa0>
 7821ada:	0188                	l32i.n	a8, a1, 0
 7821adc:	21a360               	srai	a10, a6, 3
 7821adf:	24e060               	extui	a14, a6, 0, 3
 7821ae2:	03ae76               	loopgtz	a14, 7821ae9 <LSRC_Create+0x89>
 7821ae5:	9879                	s32i.n	a7, a8, 36
 7821ae7:	884b                	addi.n	a8, a8, 4
 7821ae9:	13aa76               	loopgtz	a10, 7821b00 <LSRC_Create+0xa0>
 7821aec:	9879                	s32i.n	a7, a8, 36
 7821aee:	a879                	s32i.n	a7, a8, 40
 7821af0:	b879                	s32i.n	a7, a8, 44
 7821af2:	c879                	s32i.n	a7, a8, 48
 7821af4:	d879                	s32i.n	a7, a8, 52
 7821af6:	e879                	s32i.n	a7, a8, 56
 7821af8:	f879                	s32i.n	a7, a8, 60
 7821afa:	106872               	s32i	a7, a8, 64
 7821afd:	20c882               	addi	a8, a8, 32
 7821b00:	0f59                	s32i.n	a5, a15, 0
 7821b02:	1f69                	s32i.n	a6, a15, 4
 7821b04:	2f39                	s32i.n	a3, a15, 8
 7821b06:	3f39                	s32i.n	a3, a15, 12
 7821b08:	4f49                	s32i.n	a4, a15, 16
 7821b0a:	02f9                	s32i.n	a15, a2, 0
 7821b0c:	f01d                	retw.n

07821b0e <LSRC_Create+0xae>:
 7821b0e:	f01d                	retw.n

07821b10 <LSRC_Destroy>:
 7821b10:	004136               	entry	a1, 32
 7821b13:	628c                	beqz.n	a2, 7821b1d <LSRC_Destroy+0xd>
 7821b15:	02bd                	mov.n	a11, a2
 7821b17:	10a0a2               	movi	a10, 16
 7821b1a:	00b8e5               	call8	78226a8 <HI_ADSP_FREE>

07821b1d <LSRC_Destroy+0xd>:
 7821b1d:	f01d                	retw.n

07821b1f <LSRC_Destroy+0xf>:
 7821b1f:	000000                                        ...

07821b22 <LSRC_Destroy+0x12>:
	...

07821b24 <LSRC_GetMaxOutputNum>:
 7821b24:	004136               	entry	a1, 32
 7821b27:	32cc                	bnez.n	a2, 7821b2e <LSRC_GetMaxOutputNum+0xa>
 7821b29:	f27c                	movi.n	a2, -1
 7821b2b:	f01d                	retw.n

07821b2d <LSRC_GetMaxOutputNum+0x9>:
	...

07821b2e <LSRC_GetMaxOutputNum+0xa>:
 7821b2e:	20b330               	or	a11, a3, a3
 7821b31:	0422a2               	l32i	a10, a2, 16
 7821b34:	0faea5               	call8	7831620 <__mulsi3>
 7821b37:	0222b2               	l32i	a11, a2, 8
 7821b3a:	0fb665               	call8	78316a0 <__divsi3>
 7821b3d:	2a1b                	addi.n	a2, a10, 1
 7821b3f:	f01d                	retw.n

07821b41 <LSRC_GetMaxOutputNum+0x1d>:
 7821b41:	000000                                        ...

07821b44 <LSRC_GetMinInputNum>:
 7821b44:	004136               	entry	a1, 32
 7821b47:	32cc                	bnez.n	a2, 7821b4e <LSRC_GetMinInputNum+0xa>
 7821b49:	f27c                	movi.n	a2, -1
 7821b4b:	f01d                	retw.n

07821b4d <LSRC_GetMinInputNum+0x9>:
	...

07821b4e <LSRC_GetMinInputNum+0xa>:
 7821b4e:	20a330               	or	a10, a3, a3
 7821b51:	22b8                	l32i.n	a11, a2, 8
 7821b53:	4248                	l32i.n	a4, a2, 16
 7821b55:	0faca5               	call8	7831620 <__mulsi3>
 7821b58:	0a3d                	mov.n	a3, a10
 7821b5a:	04bd                	mov.n	a11, a4
 7821b5c:	0fb425               	call8	78316a0 <__divsi3>
 7821b5f:	0a2d                	mov.n	a2, a10
 7821b61:	04bd                	mov.n	a11, a4
 7821b63:	03ad                	mov.n	a10, a3
 7821b65:	0fba25               	call8	7831708 <__modsi3>
 7821b68:	821b                	addi.n	a8, a2, 1
 7821b6a:	9328a0               	movnez	a2, a8, a10
 7821b6d:	f01d                	retw.n

07821b6f <LSRC_GetMinInputNum+0x2b>:
	...

07821b70 <LSRC_CheckUpdate>:
 7821b70:	004136               	entry	a1, 32
 7821b73:	1d0c                	movi.n	a13, 1
 7821b75:	1298                	l32i.n	a9, a2, 4
 7821b77:	0278                	l32i.n	a7, a2, 0
 7821b79:	3288                	l32i.n	a8, a2, 12
 7821b7b:	42a8                	l32i.n	a10, a2, 16
 7821b7d:	c08830               	sub	a8, a8, a3
 7821b80:	c0aa40               	sub	a10, a10, a4
 7821b83:	c07750               	sub	a7, a7, a5
 7821b86:	c09960               	sub	a9, a9, a6
 7821b89:	939d90               	movnez	a9, a13, a9
 7821b8c:	937d70               	movnez	a7, a13, a7
 7821b8f:	93ada0               	movnez	a10, a13, a10
 7821b92:	938d80               	movnez	a8, a13, a8
 7821b95:	88aa                	add.n	a8, a8, a10
 7821b97:	779a                	add.n	a7, a7, a9
 7821b99:	778a                	add.n	a7, a7, a8
 7821b9b:	278c                	beqz.n	a7, 7821ba1 <LSRC_CheckUpdate+0x31>
 7821b9d:	0d2d                	mov.n	a2, a13
 7821b9f:	f01d                	retw.n

07821ba1 <LSRC_CheckUpdate+0x31>:
 7821ba1:	020c                	movi.n	a2, 0
 7821ba3:	f01d                	retw.n

07821ba5 <LSRC_CheckUpdate+0x35>:
 7821ba5:	000000                                        ...

07821ba8 <LSRC_UpdateChange>:
 7821ba8:	004136               	entry	a1, 32
 7821bab:	1b0c                	movi.n	a11, 1
 7821bad:	1298                	l32i.n	a9, a2, 4
 7821baf:	0278                	l32i.n	a7, a2, 0
 7821bb1:	3288                	l32i.n	a8, a2, 12
 7821bb3:	42a8                	l32i.n	a10, a2, 16
 7821bb5:	c08830               	sub	a8, a8, a3
 7821bb8:	c0aa40               	sub	a10, a10, a4
 7821bbb:	c07750               	sub	a7, a7, a5
 7821bbe:	c09960               	sub	a9, a9, a6
 7821bc1:	939b90               	movnez	a9, a11, a9
 7821bc4:	937b70               	movnez	a7, a11, a7
 7821bc7:	93aba0               	movnez	a10, a11, a10
 7821bca:	938b80               	movnez	a8, a11, a8
 7821bcd:	88aa                	add.n	a8, a8, a10
 7821bcf:	779a                	add.n	a7, a7, a9
 7821bd1:	778a                	add.n	a7, a7, a8
 7821bd3:	059716               	beqz	a7, 7821c30 <LSRC_UpdateChange+0x88>
 7821bd6:	cc0c                	movi.n	a12, 12
 7821bd8:	1269                	s32i.n	a6, a2, 4
 7821bda:	4249                	s32i.n	a4, a2, 16
 7821bdc:	da0c                	movi.n	a10, 13
 7821bde:	2239                	s32i.n	a3, a2, 8
 7821be0:	0259                	s32i.n	a5, a2, 0
 7821be2:	3239                	s32i.n	a3, a2, 12
 7821be4:	fd8f51               	l32r	a5, 7821220 <_stext+0xe0>
 7821be7:	030c                	movi.n	a3, 0
 7821be9:	5239                	s32i.n	a3, a2, 20
 7821beb:	6239                	s32i.n	a3, a2, 24
 7821bed:	7239                	s32i.n	a3, a2, 28
 7821bef:	039d                	mov.n	a9, a3
 7821bf1:	08aa76               	loopgtz	a10, 7821bfd <LSRC_UpdateChange+0x55>
 7821bf4:	05b8                	l32i.n	a11, a5, 0
 7821bf6:	554b                	addi.n	a5, a5, 4
 7821bf8:	011b47               	beq	a11, a4, 7821bfd <LSRC_UpdateChange+0x55>
 7821bfb:	991b                	addi.n	a9, a9, 1

07821bfd <LSRC_UpdateChange+0x55>:
 7821bfd:	093c97               	bltu	a12, a9, 7821c0a <LSRC_UpdateChange+0x62>
 7821c00:	fd89d1               	l32r	a13, 7821224 <_stext+0xe4>
 7821c03:	a0d9d0               	addx4	a13, a9, a13
 7821c06:	0dd8                	l32i.n	a13, a13, 0
 7821c08:	82d9                	s32i.n	a13, a2, 32

07821c0a <LSRC_UpdateChange+0x62>:
 7821c0a:	26ac                	beqz.n	a6, 7821c30 <LSRC_UpdateChange+0x88>
 7821c0c:	214360               	srai	a4, a6, 3
 7821c0f:	24e060               	extui	a14, a6, 0, 3
 7821c12:	03ae76               	loopgtz	a14, 7821c19 <LSRC_UpdateChange+0x71>
 7821c15:	9239                	s32i.n	a3, a2, 36
 7821c17:	224b                	addi.n	a2, a2, 4
 7821c19:	13a476               	loopgtz	a4, 7821c30 <LSRC_UpdateChange+0x88>
 7821c1c:	9239                	s32i.n	a3, a2, 36
 7821c1e:	a239                	s32i.n	a3, a2, 40
 7821c20:	b239                	s32i.n	a3, a2, 44
 7821c22:	c239                	s32i.n	a3, a2, 48
 7821c24:	d239                	s32i.n	a3, a2, 52
 7821c26:	e239                	s32i.n	a3, a2, 56
 7821c28:	f239                	s32i.n	a3, a2, 60
 7821c2a:	106232               	s32i	a3, a2, 64
 7821c2d:	20c222               	addi	a2, a2, 32
 7821c30:	f01d                	retw.n

07821c32 <LSRC_UpdateChange+0x8a>:
	...

07821c34 <LSRC_Flush>:
 7821c34:	004136               	entry	a1, 32
 7821c37:	4278                	l32i.n	a7, a2, 16
 7821c39:	fd7961               	l32r	a6, 7821220 <_stext+0xe0>
 7821c3c:	d30c                	movi.n	a3, 13
 7821c3e:	080c                	movi.n	a8, 0
 7821c40:	5289                	s32i.n	a8, a2, 20
 7821c42:	6289                	s32i.n	a8, a2, 24
 7821c44:	085d                	mov.n	a5, a8
 7821c46:	08a376               	loopgtz	a3, 7821c52 <LSRC_Flush+0x1e>
 7821c49:	0648                	l32i.n	a4, a6, 0
 7821c4b:	664b                	addi.n	a6, a6, 4
 7821c4d:	011477               	beq	a4, a7, 7821c52 <LSRC_Flush+0x1e>
 7821c50:	551b                	addi.n	a5, a5, 1

07821c52 <LSRC_Flush+0x1e>:
 7821c52:	c90c                	movi.n	a9, 12
 7821c54:	093957               	bltu	a9, a5, 7821c61 <LSRC_Flush+0x2d>
 7821c57:	fd73a1               	l32r	a10, 7821224 <_stext+0xe4>
 7821c5a:	a0a5a0               	addx4	a10, a5, a10
 7821c5d:	0aa8                	l32i.n	a10, a10, 0
 7821c5f:	82a9                	s32i.n	a10, a2, 32

07821c61 <LSRC_Flush+0x2d>:
 7821c61:	12b8                	l32i.n	a11, a2, 4
 7821c63:	3b9c                	beqz.n	a11, 7821c7a <LSRC_Flush+0x46>
 7821c65:	026d                	mov.n	a6, a2
 7821c67:	050c                	movi.n	a5, 0
 7821c69:	0a8076               	loop	a0, 7821c77 <LSRC_Flush+0x43>
 7821c6c:	551b                	addi.n	a5, a5, 1
 7821c6e:	9689                	s32i.n	a8, a6, 36
 7821c70:	12c8                	l32i.n	a12, a2, 4
 7821c72:	664b                	addi.n	a6, a6, 4
 7821c74:	02b5c7               	bgeu	a5, a12, 7821c7a <LSRC_Flush+0x46>

07821c77 <LSRC_Flush+0x43>:
 7821c77:	fffb86               	j	7821c69 <LSRC_Flush+0x35>

07821c7a <LSRC_Flush+0x46>:
 7821c7a:	f01d                	retw.n

07821c7c <LSRC_CheckDoSRC>:
 7821c7c:	004136               	entry	a1, 32
 7821c7f:	4248                	l32i.n	a4, a2, 16
 7821c81:	2238                	l32i.n	a3, a2, 8
 7821c83:	6288                	l32i.n	a8, a2, 24
 7821c85:	019347               	bne	a3, a4, 7821c8a <LSRC_CheckDoSRC+0xe>
 7821c88:	288c                	beqz.n	a8, 7821c8e <LSRC_CheckDoSRC+0x12>
 7821c8a:	120c                	movi.n	a2, 1
 7821c8c:	f01d                	retw.n

07821c8e <LSRC_CheckDoSRC+0x12>:
 7821c8e:	020c                	movi.n	a2, 0
 7821c90:	f01d                	retw.n

07821c92 <LSRC_CheckDoSRC+0x16>:
	...

07821c94 <LSRC_SetSpeedAdjust>:
 7821c94:	004136               	entry	a1, 32
 7821c97:	72a8                	l32i.n	a10, a2, 28
 7821c99:	64a082               	movi	a8, 100
 7821c9c:	301a37               	beq	a10, a3, 7821cd0 <LSRC_SetSpeedAdjust+0x3c>
 7821c9f:	2d2837               	blt	a8, a3, 7821cd0 <LSRC_SetSpeedAdjust+0x3c>
 7821ca2:	9caf92               	movi	a9, -100
 7821ca5:	272397               	blt	a3, a9, 7821cd0 <LSRC_SetSpeedAdjust+0x3c>
 7821ca8:	190c                	movi.n	a9, 1
 7821caa:	aaac                	beqz.n	a10, 7821cd8 <LSRC_SetSpeedAdjust+0x44>

07821cac <LSRC_SetSpeedAdjust+0x18>:
 7821cac:	23ac                	beqz.n	a3, 7821cd2 <LSRC_SetSpeedAdjust+0x3e>
 7821cae:	076232               	s32i	a3, a2, 28
 7821cb1:	0322a2               	l32i	a10, a2, 12
 7821cb4:	04d3b2               	addmi	a11, a3, 0x400
 7821cb7:	e8cbb2               	addi	a11, a11, -24
 7821cba:	0f9665               	call8	7831620 <__mulsi3>
 7821cbd:	e8a3b2               	movi	a11, 0x3e8
 7821cc0:	0f9de5               	call8	78316a0 <__divsi3>
 7821cc3:	0262a2               	s32i	a10, a2, 8
 7821cc6:	00a0a2               	movi	a10, 0
 7821cc9:	0562a2               	s32i	a10, a2, 20
 7821ccc:	000090               	retw

07821ccf <LSRC_SetSpeedAdjust+0x3b>:
	...

07821cd0 <LSRC_SetSpeedAdjust+0x3c>:
 7821cd0:	f01d                	retw.n

07821cd2 <LSRC_SetSpeedAdjust+0x3e>:
 7821cd2:	6299                	s32i.n	a9, a2, 24
 7821cd4:	fff586               	j	7821cae <LSRC_SetSpeedAdjust+0x1a>

07821cd7 <LSRC_SetSpeedAdjust+0x43>:
	...

07821cd8 <LSRC_SetSpeedAdjust+0x44>:
 7821cd8:	038c                	beqz.n	a3, 7821cdc <LSRC_SetSpeedAdjust+0x48>
 7821cda:	6299                	s32i.n	a9, a2, 24
 7821cdc:	fcca56               	bnez	a10, 7821cac <LSRC_SetSpeedAdjust+0x18>
 7821cdf:	fff2c6               	j	7821cae <LSRC_SetSpeedAdjust+0x1a>

07821ce2 <LSRC_SetSpeedAdjust+0x4e>:
	...

07821ce4 <LSRC_ProcessFrame>:
 7821ce4:	012136               	entry	a1, 144
 7821ce7:	166122               	s32i	a2, a1, 88
 7821cea:	8139                	s32i.n	a3, a1, 32
 7821cec:	6288                	l32i.n	a8, a2, 24
 7821cee:	b149                	s32i.n	a4, a1, 44
 7821cf0:	1298                	l32i.n	a9, a2, 4
 7821cf2:	106192               	s32i	a9, a1, 64
 7821cf5:	0298                	l32i.n	a9, a2, 0
 7821cf7:	040c                	movi.n	a4, 0
 7821cf9:	0d403841d0b0b90e 	{ beqi.w18	a9, 16, 782208a <LSRC_ProcessFrame+0x3a6>; nop }
 7821d01:	d159                	s32i.n	a5, a1, 52
 7821d03:	5c3816               	beqz	a8, 78222ca <LSRC_ProcessFrame+0x5e6>
 7821d06:	4278                	l32i.n	a7, a2, 16
 7821d08:	2288                	l32i.n	a8, a2, 8
 7821d0a:	0189                	s32i.n	a8, a1, 0
 7821d0c:	0d401841a0b0156e 	{ blti.w18	a5, 1, 7821e9a <LSRC_ProcessFrame+0x1b6>; nop }
 7821d14:	0d00124100b0b87e 	{ bne.w18	a8, a7, 7821e38 <LSRC_ProcessFrame+0x154>; nop }
 7821d1c:	1021a2               	l32i	a10, a1, 64
 7821d1f:	4d1aa6               	blti	a10, 1, 7821d70 <LSRC_ProcessFrame+0x8c>
 7821d22:	b1a8                	l32i.n	a10, a1, 44
 7821d24:	1021c2               	l32i	a12, a1, 64
 7821d27:	027d                	mov.n	a7, a2
 7821d29:	0cbd                	mov.n	a11, a12
 7821d2b:	24c0c0               	extui	a12, a12, 0, 3
 7821d2e:	07ac76               	loopgtz	a12, 7821d39 <LSRC_ProcessFrame+0x55>
 7821d31:	97d8                	l32i.n	a13, a7, 36
 7821d33:	0ad9                	s32i.n	a13, a10, 0
 7821d35:	774b                	addi.n	a7, a7, 4
 7821d37:	aa4b                	addi.n	a10, a10, 4

07821d39 <LSRC_ProcessFrame+0x55>:
 7821d39:	2193b0               	srai	a9, a11, 3
 7821d3c:	f03d                	nop.n
 7821d3e:	25a976               	loopgtz	a9, 7821d67 <LSRC_ProcessFrame+0x83>
 7821d41:	9798                	l32i.n	a9, a7, 36
 7821d43:	20c772               	addi	a7, a7, 32
 7821d46:	0a99                	s32i.n	a9, a10, 0
 7821d48:	2798                	l32i.n	a9, a7, 8
 7821d4a:	1a99                	s32i.n	a9, a10, 4
 7821d4c:	3798                	l32i.n	a9, a7, 12
 7821d4e:	2a99                	s32i.n	a9, a10, 8
 7821d50:	4798                	l32i.n	a9, a7, 16
 7821d52:	3a99                	s32i.n	a9, a10, 12
 7821d54:	5798                	l32i.n	a9, a7, 20
 7821d56:	4a99                	s32i.n	a9, a10, 16
 7821d58:	6798                	l32i.n	a9, a7, 24
 7821d5a:	5a99                	s32i.n	a9, a10, 20
 7821d5c:	7798                	l32i.n	a9, a7, 28
 7821d5e:	6a99                	s32i.n	a9, a10, 24
 7821d60:	8798                	l32i.n	a9, a7, 32
 7821d62:	7a99                	s32i.n	a9, a10, 28
 7821d64:	20caa2               	addi	a10, a10, 32
 7821d67:	162172               	l32i	a7, a1, 88
 7821d6a:	2788                	l32i.n	a8, a7, 8
 7821d6c:	0189                	s32i.n	a8, a1, 0
 7821d6e:	4778                	l32i.n	a7, a7, 16

07821d70 <LSRC_ProcessFrame+0x8c>:
 7821d70:	120c                	movi.n	a2, 1
 7821d72:	0c0c                	movi.n	a12, 0
 7821d74:	150c                	movi.n	a5, 1
 7821d76:	1621a2               	l32i	a10, a1, 88
 7821d79:	0198                	l32i.n	a9, a1, 0
 7821d7b:	6a49                	s32i.n	a4, a10, 24
 7821d7d:	0d00124190b0b97e 	{ bne.w18	a9, a7, 7821eaa <LSRC_ProcessFrame+0x1c6>; nop }
 7821d85:	0d21b2               	l32i	a11, a1, 52
 7821d88:	0d400a4190b01b6e 	{ blti.w18	a11, 1, 7821e35 <LSRC_ProcessFrame+0x151>; nop }
 7821d90:	1021a2               	l32i	a10, a1, 64
 7821d93:	20bcc0               	or	a11, a12, a12
 7821d96:	0f88a5               	call8	7831620 <__mulsi3>
 7821d99:	206aa0               	or	a6, a10, a10
 7821d9c:	0e61a2               	s32i	a10, a1, 56
 7821d9f:	20b550               	or	a11, a5, a5
 7821da2:	1021a2               	l32i	a10, a1, 64
 7821da5:	0f87a5               	call8	7831620 <__mulsi3>
 7821da8:	1021d2               	l32i	a13, a1, 64
 7821dab:	11cae0               	slli	a12, a10, 2
 7821dae:	11e6e0               	slli	a14, a6, 2
 7821db1:	0f61e2               	s32i	a14, a1, 60
 7821db4:	1161c2               	s32i	a12, a1, 68
 7821db7:	11dde0               	slli	a13, a13, 2
 7821dba:	c1d9                	s32i.n	a13, a1, 48
 7821dbc:	1021f2               	l32i	a15, a1, 64
 7821dbf:	05cd                	mov.n	a12, a5
 7821dc1:	4a1fa6               	blti	a15, 1, 7821e0f <LSRC_ProcessFrame+0x12b>
 7821dc4:	0fad                	mov.n	a10, a15
 7821dc6:	8198                	l32i.n	a9, a1, 32
 7821dc8:	f158                	l32i.n	a5, a1, 60
 7821dca:	112122               	l32i	a2, a1, 68
 7821dcd:	559a                	add.n	a5, a5, a9
 7821dcf:	b198                	l32i.n	a9, a1, 44
 7821dd1:	2480f0               	extui	a8, a15, 0, 3
 7821dd4:	229a                	add.n	a2, a2, a9
 7821dd6:	07a876               	loopgtz	a8, 7821de1 <LSRC_ProcessFrame+0xfd>
 7821dd9:	05b8                	l32i.n	a11, a5, 0
 7821ddb:	02b9                	s32i.n	a11, a2, 0
 7821ddd:	554b                	addi.n	a5, a5, 4
 7821ddf:	224b                	addi.n	a2, a2, 4

07821de1 <LSRC_ProcessFrame+0xfd>:
 7821de1:	2193a0               	srai	a9, a10, 3
 7821de4:	f03d                	nop.n
 7821de6:	25a976               	loopgtz	a9, 7821e0f <LSRC_ProcessFrame+0x12b>
 7821de9:	0598                	l32i.n	a9, a5, 0
 7821deb:	0299                	s32i.n	a9, a2, 0
 7821ded:	1598                	l32i.n	a9, a5, 4
 7821def:	1299                	s32i.n	a9, a2, 4
 7821df1:	2598                	l32i.n	a9, a5, 8
 7821df3:	2299                	s32i.n	a9, a2, 8
 7821df5:	3598                	l32i.n	a9, a5, 12
 7821df7:	3299                	s32i.n	a9, a2, 12
 7821df9:	4598                	l32i.n	a9, a5, 16
 7821dfb:	4299                	s32i.n	a9, a2, 16
 7821dfd:	5598                	l32i.n	a9, a5, 20
 7821dff:	5299                	s32i.n	a9, a2, 20
 7821e01:	6598                	l32i.n	a9, a5, 24
 7821e03:	6299                	s32i.n	a9, a2, 24
 7821e05:	7598                	l32i.n	a9, a5, 28
 7821e07:	7299                	s32i.n	a9, a2, 28
 7821e09:	20c552               	addi	a5, a5, 32
 7821e0c:	20c222               	addi	a2, a2, 32

07821e0f <LSRC_ProcessFrame+0x12b>:
 7821e0f:	112182               	l32i	a8, a1, 68
 7821e12:	c1f8                	l32i.n	a15, a1, 48
 7821e14:	f1e8                	l32i.n	a14, a1, 60
 7821e16:	102152               	l32i	a5, a1, 64
 7821e19:	d1d8                	l32i.n	a13, a1, 52
 7821e1b:	e128                	l32i.n	a2, a1, 56
 7821e1d:	dd0b                	addi.n	a13, a13, -1
 7821e1f:	d1d9                	s32i.n	a13, a1, 52
 7821e21:	225a                	add.n	a2, a2, a5
 7821e23:	eefa                	add.n	a14, a14, a15
 7821e25:	88fa                	add.n	a8, a8, a15
 7821e27:	116182               	s32i	a8, a1, 68
 7821e2a:	f1e9                	s32i.n	a14, a1, 60
 7821e2c:	e129                	s32i.n	a2, a1, 56
 7821e2e:	5c1b                	addi.n	a5, a12, 1
 7821e30:	052d                	mov.n	a2, a5
 7821e32:	f86d56               	bnez	a13, 7821dbc <LSRC_ProcessFrame+0xd8>
 7821e35:	f01d                	retw.n

07821e37 <LSRC_ProcessFrame+0x153>:
	...

07821e38 <LSRC_ProcessFrame+0x154>:
 7821e38:	102192               	l32i	a9, a1, 64
 7821e3b:	4919a6               	blti	a9, 1, 7821e88 <LSRC_ProcessFrame+0x1a4>
 7821e3e:	038d                	mov.n	a8, a3
 7821e40:	027d                	mov.n	a7, a2
 7821e42:	09ad                	mov.n	a10, a9
 7821e44:	24b090               	extui	a11, a9, 0, 3
 7821e47:	07ab76               	loopgtz	a11, 7821e52 <LSRC_ProcessFrame+0x16e>
 7821e4a:	08c8                	l32i.n	a12, a8, 0
 7821e4c:	97c9                	s32i.n	a12, a7, 36
 7821e4e:	884b                	addi.n	a8, a8, 4
 7821e50:	774b                	addi.n	a7, a7, 4

07821e52 <LSRC_ProcessFrame+0x16e>:
 7821e52:	2193a0               	srai	a9, a10, 3
 7821e55:	25a976               	loopgtz	a9, 7821e7e <LSRC_ProcessFrame+0x19a>
 7821e58:	0898                	l32i.n	a9, a8, 0
 7821e5a:	20c772               	addi	a7, a7, 32
 7821e5d:	1799                	s32i.n	a9, a7, 4
 7821e5f:	1898                	l32i.n	a9, a8, 4
 7821e61:	2799                	s32i.n	a9, a7, 8
 7821e63:	2898                	l32i.n	a9, a8, 8
 7821e65:	3799                	s32i.n	a9, a7, 12
 7821e67:	3898                	l32i.n	a9, a8, 12
 7821e69:	4799                	s32i.n	a9, a7, 16
 7821e6b:	4898                	l32i.n	a9, a8, 16
 7821e6d:	5799                	s32i.n	a9, a7, 20
 7821e6f:	5898                	l32i.n	a9, a8, 20
 7821e71:	6799                	s32i.n	a9, a7, 24
 7821e73:	6898                	l32i.n	a9, a8, 24
 7821e75:	7799                	s32i.n	a9, a7, 28
 7821e77:	7898                	l32i.n	a9, a8, 28
 7821e79:	8799                	s32i.n	a9, a7, 32
 7821e7b:	20c882               	addi	a8, a8, 32
 7821e7e:	162172               	l32i	a7, a1, 88
 7821e81:	2788                	l32i.n	a8, a7, 8
 7821e83:	0189                	s32i.n	a8, a1, 0
 7821e85:	042772               	l32i	a7, a7, 16

07821e88 <LSRC_ProcessFrame+0x1a4>:
 7821e88:	020c                	movi.n	a2, 0
 7821e8a:	1c0c                	movi.n	a12, 1
 7821e8c:	1621a2               	l32i	a10, a1, 88
 7821e8f:	950b                	addi.n	a9, a5, -1
 7821e91:	d199                	s32i.n	a9, a1, 52
 7821e93:	050c                	movi.n	a5, 0
 7821e95:	6a49                	s32i.n	a4, a10, 24
 7821e97:	000146               	j	7821ea0 <LSRC_ProcessFrame+0x1bc>

07821e9a <LSRC_ProcessFrame+0x1b6>:
 7821e9a:	042d                	mov.n	a2, a4
 7821e9c:	0c0c                	movi.n	a12, 0
 7821e9e:	050c                	movi.n	a5, 0
 7821ea0:	01b8                	l32i.n	a11, a1, 0
 7821ea2:	0d3fed41f0b08b7e 	{ beq.w18	a11, a7, 7821d85 <LSRC_ProcessFrame+0xa1>; nop }
 7821eaa:	d1d8                	l32i.n	a13, a1, 52
 7821eac:	1a1da6               	blti	a13, 1, 7821eca <LSRC_ProcessFrame+0x1e6>
 7821eaf:	162142               	l32i	a4, a1, 88
 7821eb2:	5448                	l32i.n	a4, a4, 20
 7821eb4:	0d004d41d0b0947e 	{ blt.w18	a4, a7, 7822395 <LSRC_ProcessFrame+0x6b1>; nop }
 7821ebc:	162192               	l32i	a9, a1, 88
 7821ebf:	c08470               	sub	a8, a4, a7
 7821ec2:	d1a8                	l32i.n	a10, a1, 52
 7821ec4:	5989                	s32i.n	a8, a9, 20
 7821ec6:	aa0b                	addi.n	a10, a10, -1
 7821ec8:	d1a9                	s32i.n	a10, a1, 52
 7821eca:	d1b8                	l32i.n	a11, a1, 52
 7821ecc:	0bdd                	mov.n	a13, a11
 7821ece:	0d401541a0b01b6e 	{ blti.w18	a11, 1, 782202c <LSRC_ProcessFrame+0x348>; nop }
 7821ed6:	21c9                	s32i.n	a12, a1, 8
 7821ed8:	0cad                	mov.n	a10, a12
 7821eda:	1021b2               	l32i	a11, a1, 64
 7821edd:	11d9                	s32i.n	a13, a1, 4
 7821edf:	0f7425               	call8	7831620 <__mulsi3>
 7821ee2:	1021b2               	l32i	a11, a1, 64
 7821ee5:	0a6d                	mov.n	a6, a10
 7821ee7:	e1a9                	s32i.n	a10, a1, 56
 7821ee9:	162142               	l32i	a4, a1, 88
 7821eec:	21a8                	l32i.n	a10, a1, 8
 7821eee:	5448                	l32i.n	a4, a4, 20
 7821ef0:	aa1b                	addi.n	a10, a10, 1
 7821ef2:	0f72e5               	call8	7831620 <__mulsi3>
 7821ef5:	102192               	l32i	a9, a1, 64
 7821ef8:	118ae0               	slli	a8, a10, 2
 7821efb:	11b6e0               	slli	a11, a6, 2
 7821efe:	f1b9                	s32i.n	a11, a1, 60
 7821f00:	a189                	s32i.n	a8, a1, 40
 7821f02:	1199e0               	slli	a9, a9, 2
 7821f05:	0c6192               	s32i	a9, a1, 48
 7821f08:	0d000f4110b0a47e 	{ bge.w18	a4, a7, 7821ffd <LSRC_ProcessFrame+0x319>; nop }
 7821f10:	1021a2               	l32i	a10, a1, 64
 7821f13:	20b550               	or	a11, a5, a5
 7821f16:	0f70a5               	call8	7831620 <__mulsi3>
 7821f19:	002182               	l32i	a8, a1, 0
 7821f1c:	0f2192               	l32i	a9, a1, 60
 7821f1f:	81d8                	l32i.n	a13, a1, 32
 7821f21:	1021e2               	l32i	a14, a1, 64
 7821f24:	e1c8                	l32i.n	a12, a1, 56
 7821f26:	a1f8                	l32i.n	a15, a1, 40
 7821f28:	80cce0               	add	a12, a12, a14
 7821f2b:	80ffd0               	add	a15, a15, a13
 7821f2e:	99da                	add.n	a9, a9, a13
 7821f30:	7199                	s32i.n	a9, a1, 28
 7821f32:	0661f2               	s32i	a15, a1, 24
 7821f35:	a0ccd0               	addx4	a12, a12, a13
 7821f38:	11eae0               	slli	a14, a10, 2
 7821f3b:	1161e2               	s32i	a14, a1, 68
 7821f3e:	1261c2               	s32i	a12, a1, 72
 7821f41:	1021a2               	l32i	a10, a1, 64
 7821f44:	05cd                	mov.n	a12, a5
 7821f46:	0d40094140b01a6e 	{ blti.w18	a10, 1, 7821fde <LSRC_ProcessFrame+0x2fa>; nop }
 7821f4e:	6178                	l32i.n	a7, a1, 24
 7821f50:	b188                	l32i.n	a8, a1, 44
 7821f52:	196152               	s32i	a5, a1, 100
 7821f55:	112122               	l32i	a2, a1, 68
 7821f58:	7158                	l32i.n	a5, a1, 28
 7821f5a:	802280               	add	a2, a2, a8
 7821f5d:	1621b2               	l32i	a11, a1, 88
 7821f60:	0027c2               	l32i	a12, a7, 0
 7821f63:	1461c2               	s32i	a12, a1, 80
 7821f66:	052b42               	l32i	a4, a11, 20
 7821f69:	082bb2               	l32i	a11, a11, 32
 7821f6c:	1561b2               	s32i	a11, a1, 84
 7821f6f:	20a440               	or	a10, a4, a4
 7821f72:	0f6ae5               	call8	7831620 <__mulsi3>
 7821f75:	0538                	l32i.n	a3, a5, 0
 7821f77:	1621b2               	l32i	a11, a1, 88
 7821f7a:	0a6d                	mov.n	a6, a10
 7821f7c:	4bb8                	l32i.n	a11, a11, 16
 7821f7e:	1521a2               	l32i	a10, a1, 84
 7821f81:	c0bb40               	sub	a11, a11, a4
 7821f84:	0f69a5               	call8	7831620 <__mulsi3>
 7821f87:	31bf60               	srai	a11, a6, 31
 7821f8a:	1361a2               	s32i	a10, a1, 76
 7821f8d:	1421c2               	l32i	a12, a1, 80
 7821f90:	06ad                	mov.n	a10, a6
 7821f92:	31dfc0               	srai	a13, a12, 31
 7821f95:	0869a5               	call8	782a630 <__muldi3>
 7821f98:	31df30               	srai	a13, a3, 31
 7821f9b:	1321a2               	l32i	a10, a1, 76
 7821f9e:	0b4d                	mov.n	a4, a11
 7821fa0:	31cfa0               	srai	a12, a10, 31
 7821fa3:	0cbd                	mov.n	a11, a12
 7821fa5:	03cd                	mov.n	a12, a3
 7821fa7:	0868a5               	call8	782a630 <__muldi3>
 7821faa:	774b                	addi.n	a7, a7, 4
 7821fac:	122192               	l32i	a9, a1, 72
 7821faf:	554b                	addi.n	a5, a5, 4
 7821fb1:	c4ba                	add.n	a12, a4, a11
 7821fb3:	218ec0               	srai	a8, a12, 14
 7821fb6:	31ddc0               	srai	a13, a12, 29
 7821fb9:	31cfc0               	srai	a12, a12, 31
 7821fbc:	051cd7               	beq	a12, a13, 7821fc5 <LSRC_ProcessFrame+0x2e1>
 7821fbf:	fc9a81               	l32r	a8, 7821228 <_stext+0xe8>
 7821fc2:	308c80               	xor	a8, a12, a8
 7821fc5:	11a800               	slli	a10, a8, 16
 7821fc8:	02a9                	s32i.n	a10, a2, 0
 7821fca:	224b                	addi.n	a2, a2, 4
 7821fcc:	8d9597               	bne	a5, a9, 7821f5d <LSRC_ProcessFrame+0x279>
 7821fcf:	162142               	l32i	a4, a1, 88
 7821fd2:	1921c2               	l32i	a12, a1, 100
 7821fd5:	022482               	l32i	a8, a4, 8
 7821fd8:	042472               	l32i	a7, a4, 16
 7821fdb:	052442               	l32i	a4, a4, 20
 7821fde:	c1a8                	l32i.n	a10, a1, 48
 7821fe0:	112192               	l32i	a9, a1, 68
 7821fe3:	162162               	l32i	a6, a1, 88
 7821fe6:	5c1b                	addi.n	a5, a12, 1
 7821fe8:	448a                	add.n	a4, a4, a8
 7821fea:	052d                	mov.n	a2, a5
 7821fec:	5649                	s32i.n	a4, a6, 20
 7821fee:	99aa                	add.n	a9, a9, a10
 7821ff0:	116192               	s32i	a9, a1, 68
 7821ff3:	0d3ff441a0b0947e 	{ blt.w18	a4, a7, 7821f41 <LSRC_ProcessFrame+0x25d>; nop }
 7821ffb:	0189                	s32i.n	a8, a1, 0
 7821ffd:	a198                	l32i.n	a9, a1, 40
 7821fff:	102182               	l32i	a8, a1, 64
 7822002:	e1f8                	l32i.n	a15, a1, 56
 7822004:	c1e8                	l32i.n	a14, a1, 48
 7822006:	f1d8                	l32i.n	a13, a1, 60
 7822008:	d1b8                	l32i.n	a11, a1, 52
 782200a:	1621c2               	l32i	a12, a1, 88
 782200d:	c04470               	sub	a4, a4, a7
 7822010:	5c49                	s32i.n	a4, a12, 20
 7822012:	bb0b                	addi.n	a11, a11, -1
 7822014:	d1b9                	s32i.n	a11, a1, 52
 7822016:	ddea                	add.n	a13, a13, a14
 7822018:	ff8a                	add.n	a15, a15, a8
 782201a:	99ea                	add.n	a9, a9, a14
 782201c:	a199                	s32i.n	a9, a1, 40
 782201e:	e1f9                	s32i.n	a15, a1, 56
 7822020:	f1d9                	s32i.n	a13, a1, 60
 7822022:	ee2b56               	bnez	a11, 7821f08 <LSRC_ProcessFrame+0x224>
 7822025:	21d8                	l32i.n	a13, a1, 8
 7822027:	11c8                	l32i.n	a12, a1, 4
 7822029:	80ccd0               	add	a12, a12, a13
 782202c:	1021e2               	l32i	a14, a1, 64
 782202f:	0d7fe04120b01e6e 	{ blti.w18	a14, 1, 7821e35 <LSRC_ProcessFrame+0x151>; nop }
 7822037:	20aee0               	or	a10, a14, a14
 782203a:	20bcc0               	or	a11, a12, a12
 782203d:	0f5e25               	call8	7831620 <__mulsi3>
 7822040:	162172               	l32i	a7, a1, 88
 7822043:	082152               	l32i	a5, a1, 32
 7822046:	1021f2               	l32i	a15, a1, 64
 7822049:	a05a50               	addx4	a5, a10, a5
 782204c:	0fad                	mov.n	a10, a15
 782204e:	24f0f0               	extui	a15, a15, 0, 3
 7822051:	07af76               	loopgtz	a15, 782205c <LSRC_ProcessFrame+0x378>
 7822054:	0588                	l32i.n	a8, a5, 0
 7822056:	9789                	s32i.n	a8, a7, 36
 7822058:	554b                	addi.n	a5, a5, 4
 782205a:	774b                	addi.n	a7, a7, 4

0782205c <LSRC_ProcessFrame+0x378>:
 782205c:	2193a0               	srai	a9, a10, 3
 782205f:	25a976               	loopgtz	a9, 7822088 <LSRC_ProcessFrame+0x3a4>
 7822062:	0598                	l32i.n	a9, a5, 0
 7822064:	20c772               	addi	a7, a7, 32
 7822067:	1799                	s32i.n	a9, a7, 4
 7822069:	1598                	l32i.n	a9, a5, 4
 782206b:	2799                	s32i.n	a9, a7, 8
 782206d:	2598                	l32i.n	a9, a5, 8
 782206f:	3799                	s32i.n	a9, a7, 12
 7822071:	3598                	l32i.n	a9, a5, 12
 7822073:	4799                	s32i.n	a9, a7, 16
 7822075:	4598                	l32i.n	a9, a5, 16
 7822077:	5799                	s32i.n	a9, a7, 20
 7822079:	5598                	l32i.n	a9, a5, 20
 782207b:	6799                	s32i.n	a9, a7, 24
 782207d:	6598                	l32i.n	a9, a5, 24
 782207f:	7799                	s32i.n	a9, a7, 28
 7822081:	7598                	l32i.n	a9, a5, 28
 7822083:	8799                	s32i.n	a9, a7, 32
 7822085:	20c552               	addi	a5, a5, 32
 7822088:	f01d                	retw.n

0782208a <LSRC_ProcessFrame+0x3a6>:
 782208a:	4278                	l32i.n	a7, a2, 16
 782208c:	400000007441b22e 	{ ae_l32.i	aed1, a2, 16; nop; addi	a11, a2, 64 }
 7822094:	bd0b84               	ae_l32.i	aed0, a11, -32
 7822097:	eb0fdd010000259f 	{ nop; ae_mul32.ll	aed0, aed0, aed1; nop }
 782209f:	5159                	s32i.n	a5, a1, 20
 78220a1:	2590c4               	ae_movad32.l	a9, aed0
 78220a4:	4199                	s32i.n	a9, a1, 16
 78220a6:	44b816               	beqz	a8, 78224f5 <LSRC_ProcessFrame+0x811>
 78220a9:	22e8                	l32i.n	a14, a2, 8
 78220ab:	01e9                	s32i.n	a14, a1, 0
 78220ad:	0d402241c0b0156e 	{ blti.w18	a5, 1, 78222dd <LSRC_ProcessFrame+0x5f9>; nop }
 78220b5:	0d003c41c0b0be7e 	{ bne.w18	a14, a7, 7822485 <LSRC_ProcessFrame+0x7a1>; nop }
 78220bd:	102182               	l32i	a8, a1, 64
 78220c0:	4c18a6               	blti	a8, 1, 7822110 <LSRC_ProcessFrame+0x42c>
 78220c3:	028d                	mov.n	a8, a2
 78220c5:	1021b2               	l32i	a11, a1, 64
 78220c8:	b1a8                	l32i.n	a10, a1, 44
 78220ca:	0b9d                	mov.n	a9, a11
 78220cc:	24b0b0               	extui	a11, a11, 0, 3
 78220cf:	08ab76               	loopgtz	a11, 78220db <LSRC_ProcessFrame+0x3f7>
 78220d2:	98c8                	l32i.n	a12, a8, 36
 78220d4:	005ac2               	s16i	a12, a10, 0
 78220d7:	884b                	addi.n	a8, a8, 4
 78220d9:	aa2b                	addi.n	a10, a10, 2

078220db <LSRC_ProcessFrame+0x3f7>:
 78220db:	212390               	srai	a2, a9, 3
 78220de:	2ea276               	loopgtz	a2, 7822110 <LSRC_ProcessFrame+0x42c>
 78220e1:	9898                	l32i.n	a9, a8, 36
 78220e3:	a8b8                	l32i.n	a11, a8, 40
 78220e5:	b8c8                	l32i.n	a12, a8, 44
 78220e7:	c8d8                	l32i.n	a13, a8, 48
 78220e9:	d8e8                	l32i.n	a14, a8, 52
 78220eb:	e8f8                	l32i.n	a15, a8, 56
 78220ed:	f828                	l32i.n	a2, a8, 60
 78220ef:	102832               	l32i	a3, a8, 64
 78220f2:	20c882               	addi	a8, a8, 32
 78220f5:	005a92               	s16i	a9, a10, 0
 78220f8:	015ab2               	s16i	a11, a10, 2
 78220fb:	025ac2               	s16i	a12, a10, 4
 78220fe:	035ad2               	s16i	a13, a10, 6
 7822101:	045ae2               	s16i	a14, a10, 8
 7822104:	055af2               	s16i	a15, a10, 10
 7822107:	065a22               	s16i	a2, a10, 12
 782210a:	075a32               	s16i	a3, a10, 14
 782210d:	10caa2               	addi	a10, a10, 16

07822110 <LSRC_ProcessFrame+0x42c>:
 7822110:	150c                	movi.n	a5, 1
 7822112:	0b0c                	movi.n	a11, 0
 7822114:	120c                	movi.n	a2, 1
 7822116:	1621e2               	l32i	a14, a1, 88
 7822119:	01d8                	l32i.n	a13, a1, 0
 782211b:	6e49                	s32i.n	a4, a14, 24
 782211d:	0d001c41c0b08d7e 	{ beq.w18	a13, a7, 78222ed <LSRC_ProcessFrame+0x609>; nop }
 7822125:	1021a2               	l32i	a10, a1, 64
 7822128:	0f4f65               	call8	7831620 <__mulsi3>
 782212b:	082132               	l32i	a3, a1, 32
 782212e:	20b220               	or	a11, a2, a2
 7822131:	903a30               	addx2	a3, a10, a3
 7822134:	1021a2               	l32i	a10, a1, 64
 7822137:	201110               	or	a1, a1, a1
 782213a:	0f4e65               	call8	7831620 <__mulsi3>
 782213d:	0b21c2               	l32i	a12, a1, 44
 7822140:	5188                	l32i.n	a8, a1, 20
 7822142:	90cac0               	addx2	a12, a10, a12
 7822145:	0d40124140b0186e 	{ blti.w18	a8, 1, 782226d <LSRC_ProcessFrame+0x589>; nop }
 782214d:	162142               	l32i	a4, a1, 88
 7822150:	5448                	l32i.n	a4, a4, 20
 7822152:	6fa477               	bge	a4, a7, 78221c5 <LSRC_ProcessFrame+0x4e1>
 7822155:	162182               	l32i	a8, a1, 88
 7822158:	40c882               	addi	a8, a8, 64
 782215b:	bd4884               	ae_l32.i	aed4, a8, -32
 782215e:	0cbd                	mov.n	a11, a12
 7822160:	1621a2               	l32i	a10, a1, 88
 7822163:	400001214502e40e 	{ ae_movda32	aed2, a4; nop; movi	a14, 32 }
 782216b:	eb0f4002040212df 	{ movi	a13, 18; ae_mul32.ll	aed2, aed4, aed2; nop }
 7822173:	41f8                	l32i.n	a15, a1, 16
 7822175:	2582c4               	ae_movad32.l	a8, aed2
 7822178:	102192               	l32i	a9, a1, 64
 782217b:	c0ff80               	sub	a15, a15, a8
 782217e:	400001b5453248fe 	{ ae_movda32	aed2, a8; nop; ae_movda32	aed3, a15 }
 7822186:	208330               	or	a8, a3, a3
 7822189:	28a976               	loopgtz	a9, 78221b5 <LSRC_ProcessFrame+0x4d1>
 782218c:	009892               	l16si	a9, a8, 0

0782218f <LSRC_ProcessFrame+0x4ab>:
 782218f:	40000041454099ae 	{ ae_movda32	aed0, a9; nop; addi	a9, a10, 68 }
 7822197:	eb0fae020001098f 	{ ae_l32.i	aed0, a9, -32; ae_mul32.ll	aed1, aed0, aed2; nop }
 782219f:	eb1b200300014aaf 	{ addi	a10, a10, 4; ae_mula32.ll	aed1, aed0, aed3; nop }
 78221a7:	882b                	addi.n	a8, a8, 2
 78221a9:	810e14               	ae_sraa64	aed0, aed1, a14
 78221ac:	050d04               	ae_slaa32s	aed0, aed0, a13
 78221af:	a70004               	ae_sel16i	aed0, aed0, aed0, 7
 78221b2:	d30b14               	ae_s16.0.ip	aed0, a11, 2

078221b5 <LSRC_ProcessFrame+0x4d1>:
 78221b5:	551b                	addi.n	a5, a5, 1
 78221b7:	162162               	l32i	a6, a1, 88
 78221ba:	0188                	l32i.n	a8, a1, 0
 78221bc:	0bcd                	mov.n	a12, a11
 78221be:	448a                	add.n	a4, a4, a8
 78221c0:	5649                	s32i.n	a4, a6, 20
 78221c2:	982477               	blt	a4, a7, 782215e <LSRC_ProcessFrame+0x47a>

078221c5 <LSRC_ProcessFrame+0x4e1>:
 78221c5:	5198                	l32i.n	a9, a1, 20
 78221c7:	1621a2               	l32i	a10, a1, 88
 78221ca:	c08470               	sub	a8, a4, a7
 78221cd:	5a89                	s32i.n	a8, a10, 20
 78221cf:	990b                	addi.n	a9, a9, -1
 78221d1:	5199                	s32i.n	a9, a1, 20
 78221d3:	0d40094160b0196e 	{ blti.w18	a9, 1, 782226d <LSRC_ProcessFrame+0x589>; nop }
 78221db:	1021b2               	l32i	a11, a1, 64
 78221de:	084d                	mov.n	a4, a8
 78221e0:	11bbf0               	slli	a11, a11, 1
 78221e3:	31b9                	s32i.n	a11, a1, 12
 78221e5:	6fa477               	bge	a4, a7, 7822258 <LSRC_ProcessFrame+0x574>
 78221e8:	3128                	l32i.n	a2, a1, 12
 78221ea:	1621d2               	l32i	a13, a1, 88
 78221ed:	223a                	add.n	a2, a2, a3
 78221ef:	40cdd2               	addi	a13, a13, 64
 78221f2:	bd4d84               	ae_l32.i	aed4, a13, -32
 78221f5:	03ad                	mov.n	a10, a3
 78221f7:	400001114503e42e 	{ ae_movda32	aed3, a4; nop; movi	a14, 18 }
 78221ff:	eb0f4003040320df 	{ movi	a13, 32; ae_mul32.ll	aed3, aed4, aed3; nop }
 7822207:	4188                	l32i.n	a8, a1, 16
 7822209:	2593c4               	ae_movad32.l	a9, aed3
 782220c:	551b                	addi.n	a5, a5, 1
 782220e:	c08890               	sub	a8, a8, a9
 7822211:	400001b54532498e 	{ ae_movda32	aed2, a9; nop; ae_movda32	aed3, a8 }
 7822219:	102192               	l32i	a9, a1, 64
 782221c:	028d                	mov.n	a8, a2
 782221e:	29a976               	loopgtz	a9, 782224b <LSRC_ProcessFrame+0x567>
 7822221:	009892               	l16si	a9, a8, 0
 7822224:	009ab2               	l16si	a11, a10, 0
 7822227:	400001b5451049be 	{ ae_movda32	aed0, a9; nop; ae_movda32	aed1, a11 }
 782222f:	eb0f20020000288f 	{ addi	a8, a8, 2; ae_mul32.ll	aed0, aed0, aed2; nop }
 7822237:	eb1b200301002aaf 	{ addi	a10, a10, 2; ae_mula32.ll	aed0, aed1, aed3; nop }
 782223f:	810d04               	ae_sraa64	aed0, aed0, a13
 7822242:	050e04               	ae_slaa32s	aed0, aed0, a14
 7822245:	a70004               	ae_sel16i	aed0, aed0, aed0, 7
 7822248:	d30c14               	ae_s16.0.ip	aed0, a12, 2

0782224b <LSRC_ProcessFrame+0x567>:
 782224b:	01a8                	l32i.n	a10, a1, 0
 782224d:	162192               	l32i	a9, a1, 88
 7822250:	44aa                	add.n	a4, a4, a10
 7822252:	056942               	s32i	a4, a9, 20
 7822255:	9c2477               	blt	a4, a7, 78221f5 <LSRC_ProcessFrame+0x511>

07822258 <LSRC_ProcessFrame+0x574>:
 7822258:	51b8                	l32i.n	a11, a1, 20
 782225a:	1621d2               	l32i	a13, a1, 88
 782225d:	31e8                	l32i.n	a14, a1, 12
 782225f:	c04470               	sub	a4, a4, a7
 7822262:	33ea                	add.n	a3, a3, a14
 7822264:	5d49                	s32i.n	a4, a13, 20
 7822266:	bb0b                	addi.n	a11, a11, -1
 7822268:	51b9                	s32i.n	a11, a1, 20
 782226a:	f77b56               	bnez	a11, 78221e5 <LSRC_ProcessFrame+0x501>
 782226d:	1021f2               	l32i	a15, a1, 64
 7822270:	0d401141c0b01f6e 	{ blti.w18	a15, 1, 7822390 <LSRC_ProcessFrame+0x6ac>; nop }
 7822278:	162182               	l32i	a8, a1, 88
 782227b:	20aff0               	or	a10, a15, a15
 782227e:	2490f0               	extui	a9, a15, 0, 3
 7822281:	08a976               	loopgtz	a9, 782228d <LSRC_ProcessFrame+0x5a9>
 7822284:	0093b2               	l16si	a11, a3, 0
 7822287:	98b9                	s32i.n	a11, a8, 36
 7822289:	332b                	addi.n	a3, a3, 2
 782228b:	884b                	addi.n	a8, a8, 4

0782228d <LSRC_ProcessFrame+0x5a9>:
 782228d:	2123a0               	srai	a2, a10, 3
 7822290:	08ad                	mov.n	a10, a8
 7822292:	208330               	or	a8, a3, a3
 7822295:	2da276               	loopgtz	a2, 78222c6 <LSRC_ProcessFrame+0x5e2>
 7822298:	009892               	l16si	a9, a8, 0
 782229b:	0198b2               	l16si	a11, a8, 2
 782229e:	0298c2               	l16si	a12, a8, 4
 78222a1:	0398d2               	l16si	a13, a8, 6
 78222a4:	0498e2               	l16si	a14, a8, 8
 78222a7:	0598f2               	l16si	a15, a8, 10
 78222aa:	069822               	l16si	a2, a8, 12
 78222ad:	079832               	l16si	a3, a8, 14
 78222b0:	20caa2               	addi	a10, a10, 32
 78222b3:	1a99                	s32i.n	a9, a10, 4
 78222b5:	2ab9                	s32i.n	a11, a10, 8
 78222b7:	3ac9                	s32i.n	a12, a10, 12
 78222b9:	4ad9                	s32i.n	a13, a10, 16
 78222bb:	5ae9                	s32i.n	a14, a10, 20
 78222bd:	6af9                	s32i.n	a15, a10, 24
 78222bf:	7a29                	s32i.n	a2, a10, 28
 78222c1:	8a39                	s32i.n	a3, a10, 32
 78222c3:	10c882               	addi	a8, a8, 16
 78222c6:	052d                	mov.n	a2, a5
 78222c8:	f01d                	retw.n

078222ca <LSRC_ProcessFrame+0x5e6>:
 78222ca:	042d                	mov.n	a2, a4
 78222cc:	0c0c                	movi.n	a12, 0
 78222ce:	162172               	l32i	a7, a1, 88
 78222d1:	050c                	movi.n	a5, 0
 78222d3:	2788                	l32i.n	a8, a7, 8
 78222d5:	0189                	s32i.n	a8, a1, 0
 78222d7:	4778                	l32i.n	a7, a7, 16
 78222d9:	fef0c6               	j	7821ea0 <LSRC_ProcessFrame+0x1bc>

078222dc <LSRC_ProcessFrame+0x5f8>:
	...

078222dd <LSRC_ProcessFrame+0x5f9>:
 78222dd:	045d                	mov.n	a5, a4
 78222df:	0b0c                	movi.n	a11, 0
 78222e1:	020c                	movi.n	a2, 0
 78222e3:	0198                	l32i.n	a9, a1, 0
 78222e5:	0d3fe341c0b0b97e 	{ bne.w18	a9, a7, 7822125 <LSRC_ProcessFrame+0x441>; nop }
 78222ed:	51a8                	l32i.n	a10, a1, 20
 78222ef:	0d400941d0b01a6e 	{ blti.w18	a10, 1, 7822390 <LSRC_ProcessFrame+0x6ac>; nop }
 78222f7:	1021a2               	l32i	a10, a1, 64
 78222fa:	0f3265               	call8	7831620 <__mulsi3>
 78222fd:	0a5d                	mov.n	a5, a10
 78222ff:	02bd                	mov.n	a11, a2
 7822301:	1021a2               	l32i	a10, a1, 64
 7822304:	0f31a5               	call8	7831620 <__mulsi3>
 7822307:	11d5f0               	slli	a13, a5, 1
 782230a:	1021e2               	l32i	a14, a1, 64
 782230d:	11caf0               	slli	a12, a10, 1
 7822310:	11fef0               	slli	a15, a14, 1
 7822313:	31f9                	s32i.n	a15, a1, 12
 7822315:	81f8                	l32i.n	a15, a1, 32
 7822317:	e5ea                	add.n	a14, a5, a14
 7822319:	90eef0               	addx2	a14, a14, a15
 782231c:	102182               	l32i	a8, a1, 64
 782231f:	5718a6               	blti	a8, 1, 782237a <LSRC_ProcessFrame+0x696>
 7822322:	b1a8                	l32i.n	a10, a1, 44
 7822324:	08bd                	mov.n	a11, a8
 7822326:	089d                	mov.n	a9, a8
 7822328:	249090               	extui	a9, a9, 0, 3
 782232b:	8188                	l32i.n	a8, a1, 32
 782232d:	acaa                	add.n	a10, a12, a10
 782232f:	8d8a                	add.n	a8, a13, a8
 7822331:	09a976               	loopgtz	a9, 782233e <LSRC_ProcessFrame+0x65a>
 7822334:	009892               	l16si	a9, a8, 0
 7822337:	005a92               	s16i	a9, a10, 0
 782233a:	882b                	addi.n	a8, a8, 2
 782233c:	aa2b                	addi.n	a10, a10, 2

0782233e <LSRC_ProcessFrame+0x65a>:
 782233e:	2193b0               	srai	a9, a11, 3
 7822341:	35a976               	loopgtz	a9, 782237a <LSRC_ProcessFrame+0x696>
 7822344:	009892               	l16si	a9, a8, 0
 7822347:	005a92               	s16i	a9, a10, 0
 782234a:	019892               	l16si	a9, a8, 2
 782234d:	015a92               	s16i	a9, a10, 2
 7822350:	029892               	l16si	a9, a8, 4
 7822353:	025a92               	s16i	a9, a10, 4
 7822356:	039892               	l16si	a9, a8, 6
 7822359:	035a92               	s16i	a9, a10, 6
 782235c:	049892               	l16si	a9, a8, 8
 782235f:	045a92               	s16i	a9, a10, 8
 7822362:	059892               	l16si	a9, a8, 10
 7822365:	055a92               	s16i	a9, a10, 10
 7822368:	069892               	l16si	a9, a8, 12
 782236b:	065a92               	s16i	a9, a10, 12
 782236e:	079892               	l16si	a9, a8, 14
 7822371:	075a92               	s16i	a9, a10, 14
 7822374:	10c882               	addi	a8, a8, 16
 7822377:	10caa2               	addi	a10, a10, 16

0782237a <LSRC_ProcessFrame+0x696>:
 782237a:	51a8                	l32i.n	a10, a1, 20
 782237c:	31b8                	l32i.n	a11, a1, 12
 782237e:	221b                	addi.n	a2, a2, 1
 7822380:	025d                	mov.n	a5, a2
 7822382:	ccba                	add.n	a12, a12, a11
 7822384:	ddba                	add.n	a13, a13, a11
 7822386:	eeba                	add.n	a14, a14, a11
 7822388:	aa0b                	addi.n	a10, a10, -1
 782238a:	0561a2               	s32i	a10, a1, 20
 782238d:	f8ba56               	bnez	a10, 782231c <LSRC_ProcessFrame+0x638>
 7822390:	052d                	mov.n	a2, a5
 7822392:	f01d                	retw.n

07822394 <LSRC_ProcessFrame+0x6b0>:
	...

07822395 <LSRC_ProcessFrame+0x6b1>:
 7822395:	1861c2               	s32i	a12, a1, 96
 7822398:	1021a2               	l32i	a10, a1, 64
 782239b:	20bcc0               	or	a11, a12, a12
 782239e:	0f2825               	call8	7831620 <__mulsi3>
 78223a1:	206aa0               	or	a6, a10, a10
 78223a4:	1021a2               	l32i	a10, a1, 64
 78223a7:	20b550               	or	a11, a5, a5
 78223aa:	11cae0               	slli	a12, a10, 2
 78223ad:	0c61c2               	s32i	a12, a1, 48
 78223b0:	0f26e5               	call8	7831620 <__mulsi3>
 78223b3:	1621f2               	l32i	a15, a1, 88
 78223b6:	0c21e2               	l32i	a14, a1, 48
 78223b9:	082182               	l32i	a8, a1, 32
 78223bc:	11dae0               	slli	a13, a10, 2
 78223bf:	1161d2               	s32i	a13, a1, 68
 78223c2:	a08680               	addx4	a8, a6, a8
 78223c5:	7189                	s32i.n	a8, a1, 28
 78223c7:	eefa                	add.n	a14, a14, a15
 78223c9:	0961e2               	s32i	a14, a1, 36
 78223cc:	102192               	l32i	a9, a1, 64
 78223cf:	058d                	mov.n	a8, a5
 78223d1:	0d400841b0b0196e 	{ blti.w18	a9, 1, 7822460 <LSRC_ProcessFrame+0x77c>; nop }
 78223d9:	162172               	l32i	a7, a1, 88
 78223dc:	b188                	l32i.n	a8, a1, 44
 78223de:	176152               	s32i	a5, a1, 92
 78223e1:	112122               	l32i	a2, a1, 68
 78223e4:	7158                	l32i.n	a5, a1, 28
 78223e6:	802280               	add	a2, a2, a8
 78223e9:	1621b2               	l32i	a11, a1, 88
 78223ec:	002532               	l32i	a3, a5, 0
 78223ef:	052b42               	l32i	a4, a11, 20
 78223f2:	082bb2               	l32i	a11, a11, 32
 78223f5:	1561b2               	s32i	a11, a1, 84
 78223f8:	20a440               	or	a10, a4, a4
 78223fb:	0f2265               	call8	7831620 <__mulsi3>
 78223fe:	1621b2               	l32i	a11, a1, 88
 7822401:	0a6d                	mov.n	a6, a10
 7822403:	4bb8                	l32i.n	a11, a11, 16
 7822405:	1521a2               	l32i	a10, a1, 84
 7822408:	c0bb40               	sub	a11, a11, a4
 782240b:	9748                	l32i.n	a4, a7, 36
 782240d:	0f2125               	call8	7831620 <__mulsi3>
 7822410:	31df40               	srai	a13, a4, 31
 7822413:	31bfa0               	srai	a11, a10, 31
 7822416:	04cd                	mov.n	a12, a4
 7822418:	082165               	call8	782a630 <__muldi3>
 782241b:	31df30               	srai	a13, a3, 31
 782241e:	0b4d                	mov.n	a4, a11
 7822420:	31cf60               	srai	a12, a6, 31
 7822423:	06ad                	mov.n	a10, a6
 7822425:	20bcc0               	or	a11, a12, a12
 7822428:	20c330               	or	a12, a3, a3
 782242b:	082065               	call8	782a630 <__muldi3>
 782242e:	554b                	addi.n	a5, a5, 4
 7822430:	9198                	l32i.n	a9, a1, 36
 7822432:	774b                	addi.n	a7, a7, 4
 7822434:	c4ba                	add.n	a12, a4, a11
 7822436:	218ec0               	srai	a8, a12, 14
 7822439:	31ddc0               	srai	a13, a12, 29
 782243c:	31cfc0               	srai	a12, a12, 31
 782243f:	051cd7               	beq	a12, a13, 7822448 <LSRC_ProcessFrame+0x764>
 7822442:	fb7981               	l32r	a8, 7821228 <_stext+0xe8>
 7822445:	308c80               	xor	a8, a12, a8
 7822448:	11a800               	slli	a10, a8, 16
 782244b:	02a9                	s32i.n	a10, a2, 0
 782244d:	224b                	addi.n	a2, a2, 4
 782244f:	969797               	bne	a7, a9, 78223e9 <LSRC_ProcessFrame+0x705>
 7822452:	162142               	l32i	a4, a1, 88
 7822455:	172182               	l32i	a8, a1, 92
 7822458:	2478                	l32i.n	a7, a4, 8
 782245a:	0179                	s32i.n	a7, a1, 0
 782245c:	4478                	l32i.n	a7, a4, 16
 782245e:	5448                	l32i.n	a4, a4, 20
 7822460:	c1c8                	l32i.n	a12, a1, 48
 7822462:	1121b2               	l32i	a11, a1, 68
 7822465:	162192               	l32i	a9, a1, 88
 7822468:	01a8                	l32i.n	a10, a1, 0
 782246a:	581b                	addi.n	a5, a8, 1
 782246c:	052d                	mov.n	a2, a5
 782246e:	44aa                	add.n	a4, a4, a10
 7822470:	5949                	s32i.n	a4, a9, 20
 7822472:	bbca                	add.n	a11, a11, a12
 7822474:	1161b2               	s32i	a11, a1, 68
 7822477:	0d3ff54110b0947e 	{ blt.w18	a4, a7, 78223cc <LSRC_ProcessFrame+0x6e8>; nop }
 782247f:	1821c2               	l32i	a12, a1, 96
 7822482:	fe8d86               	j	7821ebc <LSRC_ProcessFrame+0x1d8>

07822485 <LSRC_ProcessFrame+0x7a1>:
 7822485:	1021d2               	l32i	a13, a1, 64
 7822488:	571da6               	blti	a13, 1, 78224e3 <LSRC_ProcessFrame+0x7ff>
 782248b:	028d                	mov.n	a8, a2
 782248d:	03cd                	mov.n	a12, a3
 782248f:	20add0               	or	a10, a13, a13
 7822492:	24e0d0               	extui	a14, a13, 0, 3
 7822495:	08ae76               	loopgtz	a14, 78224a1 <LSRC_ProcessFrame+0x7bd>
 7822498:	009cf2               	l16si	a15, a12, 0
 782249b:	98f9                	s32i.n	a15, a8, 36
 782249d:	cc2b                	addi.n	a12, a12, 2
 782249f:	884b                	addi.n	a8, a8, 4

078224a1 <LSRC_ProcessFrame+0x7bd>:
 78224a1:	2123a0               	srai	a2, a10, 3
 78224a4:	08ad                	mov.n	a10, a8
 78224a6:	208cc0               	or	a8, a12, a12
 78224a9:	2da276               	loopgtz	a2, 78224da <LSRC_ProcessFrame+0x7f6>
 78224ac:	009892               	l16si	a9, a8, 0
 78224af:	0198b2               	l16si	a11, a8, 2
 78224b2:	0298c2               	l16si	a12, a8, 4
 78224b5:	0398d2               	l16si	a13, a8, 6
 78224b8:	0498e2               	l16si	a14, a8, 8
 78224bb:	0598f2               	l16si	a15, a8, 10
 78224be:	069822               	l16si	a2, a8, 12
 78224c1:	079832               	l16si	a3, a8, 14
 78224c4:	20caa2               	addi	a10, a10, 32
 78224c7:	1a99                	s32i.n	a9, a10, 4
 78224c9:	2ab9                	s32i.n	a11, a10, 8
 78224cb:	3ac9                	s32i.n	a12, a10, 12
 78224cd:	4ad9                	s32i.n	a13, a10, 16
 78224cf:	5ae9                	s32i.n	a14, a10, 20
 78224d1:	6af9                	s32i.n	a15, a10, 24
 78224d3:	7a29                	s32i.n	a2, a10, 28
 78224d5:	8a39                	s32i.n	a3, a10, 32
 78224d7:	10c882               	addi	a8, a8, 16
 78224da:	162172               	l32i	a7, a1, 88
 78224dd:	2788                	l32i.n	a8, a7, 8
 78224df:	0189                	s32i.n	a8, a1, 0
 78224e1:	4778                	l32i.n	a7, a7, 16

078224e3 <LSRC_ProcessFrame+0x7ff>:
 78224e3:	1b0c                	movi.n	a11, 1
 78224e5:	020c                	movi.n	a2, 0
 78224e7:	1621a2               	l32i	a10, a1, 88
 78224ea:	950b                	addi.n	a9, a5, -1
 78224ec:	5199                	s32i.n	a9, a1, 20
 78224ee:	050c                	movi.n	a5, 0
 78224f0:	6a49                	s32i.n	a4, a10, 24
 78224f2:	ff7b46               	j	78222e3 <LSRC_ProcessFrame+0x5ff>

078224f5 <LSRC_ProcessFrame+0x811>:
 78224f5:	045d                	mov.n	a5, a4
 78224f7:	22b8                	l32i.n	a11, a2, 8
 78224f9:	01b9                	s32i.n	a11, a1, 0
 78224fb:	020c                	movi.n	a2, 0
 78224fd:	0b0c                	movi.n	a11, 0
 78224ff:	ff7806               	j	78222e3 <LSRC_ProcessFrame+0x5ff>

07822502 <LSRC_ProcessFrame+0x81e>:
 7822502:	00000000 41360000                                ......

07822508 <DSP_EnableLock>:
 7822508:	004136               	entry	a1, 32
 782250b:	006f20               	rsil	a2, 15
 782250e:	f01d                	retw.n

07822510 <DSP_DisableLock>:
 7822510:	004136               	entry	a1, 32
 7822513:	13e620               	wsr.ps	a2
 7822516:	002010               	rsync
 7822519:	f01d                	retw.n

0782251b <DSP_DisableLock+0xb>:
	...

0782251c <DSP_TimerMod>:
 782251c:	004136               	entry	a1, 32

0782251f <DSP_TimerMod+0x3>:
 782251f:	20a220               	or	a10, a2, a2
 7822522:	0f6e25               	call8	7831c04 <xthal_get_ccompare>
 7822525:	0a4d                	mov.n	a4, a10
 7822527:	02ad                	mov.n	a10, a2
 7822529:	b43a                	add.n	a11, a4, a3
 782252b:	0f6c25               	call8	7831bec <xthal_set_ccompare>
 782252e:	0f6b65               	call8	7831be4 <xthal_get_ccount>
 7822531:	c08a40               	sub	a8, a10, a4
 7822534:	e73387               	bltu	a3, a8, 782251f <DSP_TimerMod+0x3>
 7822537:	f01d                	retw.n

07822539 <DSP_TimerMod+0x1d>:
 7822539:	000000                                        ...

0782253c <DSP_TimerDisable>:
 782253c:	004136               	entry	a1, 32
 782253f:	0542f6               	bgeui	a2, 4, 7822548 <DSP_TimerDisable+0xc>
 7822542:	004216               	beqz	a2, 782254a <DSP_TimerDisable+0xe>
 7822545:	0b1226               	beqi	a2, 1, 7822554 <DSP_TimerDisable+0x18>

07822548 <DSP_TimerDisable+0xc>:
 7822548:	f01d                	retw.n

0782254a <DSP_TimerDisable+0xe>:
 782254a:	0a4c                	movi.n	a10, 64
 782254c:	0dc125               	call8	7830160 <_xtos_ints_off>
 782254f:	f01d                	retw.n

07822551 <DSP_TimerDisable+0x15>:
 7822551:	000000                                        ...

07822554 <DSP_TimerDisable+0x18>:
 7822554:	00a4a2               	movi	a10, 0x400
 7822557:	0dc0a5               	call8	7830160 <_xtos_ints_off>
 782255a:	f01d                	retw.n

0782255c <DSP_TimerDisable+0x20>:
 782255c:	000000                                        ...

0782255f <DSP_TimerDisable+0x23>:
	...

07822560 <DSP_TimerEnable>:
 7822560:	004136               	entry	a1, 32
 7822563:	0452f6               	bgeui	a2, 5, 782256b <DSP_TimerEnable+0xb>
 7822566:	328c                	beqz.n	a2, 782256d <DSP_TimerEnable+0xd>
 7822568:	0c1226               	beqi	a2, 1, 7822578 <DSP_TimerEnable+0x18>

0782256b <DSP_TimerEnable+0xb>:
 782256b:	f01d                	retw.n

0782256d <DSP_TimerEnable+0xd>:
 782256d:	0a4c                	movi.n	a10, 64
 782256f:	0dbce5               	call8	783013c <_xtos_ints_on>
 7822572:	f01d                	retw.n

07822574 <DSP_TimerEnable+0x14>:
 7822574:	000000                                        ...

07822577 <DSP_TimerEnable+0x17>:
	...

07822578 <DSP_TimerEnable+0x18>:
 7822578:	00a4a2               	movi	a10, 0x400
 782257b:	0dbc25               	call8	783013c <_xtos_ints_on>
 782257e:	f01d                	retw.n

07822580 <DSP_TimerEnable+0x20>:
 7822580:	000000                                        ...

07822583 <DSP_TimerEnable+0x23>:
	...

07822584 <DSP_TimerInit>:
 7822584:	004136               	entry	a1, 32
 7822587:	0842f6               	bgeui	a2, 4, 7822593 <DSP_TimerInit+0xf>
 782258a:	02ac                	beqz.n	a2, 78225ae <DSP_TimerInit+0x2a>
 782258c:	081226               	beqi	a2, 1, 7822598 <DSP_TimerInit+0x14>
 782258f:	020c                	movi.n	a2, 0
 7822591:	f01d                	retw.n

07822593 <DSP_TimerInit+0xf>:
 7822593:	f27c                	movi.n	a2, -1
 7822595:	f01d                	retw.n

07822597 <DSP_TimerInit+0x13>:
	...

07822598 <DSP_TimerInit+0x14>:
 7822598:	0aa0a2               	movi	a10, 10
 782259b:	20b440               	or	a11, a4, a4
 782259e:	0db8e5               	call8	783012c <_xtos_set_interrupt_handler>
 78225a1:	20a330               	or	a10, a3, a3
 78225a4:	0f5fa5               	call8	7831ba0 <_xtos_timer_1_delta>
 78225a7:	020c                	movi.n	a2, 0
 78225a9:	f01d                	retw.n

078225ab <DSP_TimerInit+0x27>:
 78225ab:	000000                                        ...

078225ae <DSP_TimerInit+0x2a>:
 78225ae:	20b440               	or	a11, a4, a4
 78225b1:	06a0a2               	movi	a10, 6
 78225b4:	0db765               	call8	783012c <_xtos_set_interrupt_handler>
 78225b7:	20a330               	or	a10, a3, a3
 78225ba:	0f5d65               	call8	7831b90 <_xtos_timer_0_delta>
 78225bd:	020c                	movi.n	a2, 0
 78225bf:	f01d                	retw.n

078225c1 <DSP_TimerInit+0x3d>:
 78225c1:	000000                                        ...

078225c4 <DSP_TimerDeInit>:
 78225c4:	004136               	entry	a1, 32
 78225c7:	f01d                	retw.n

078225c9 <DSP_TimerDeInit+0x5>:
 78225c9:	000000                                        ...

078225cc <DSPTimer0Func>:
 78225cc:	004136               	entry	a1, 32
 78225cf:	fb1721               	l32r	a2, 782122c <_stext+0xec>
 78225d2:	32a8                	l32i.n	a10, a2, 12
 78225d4:	1a8c                	beqz.n	a10, 78225d9 <DSPTimer0Func+0xd>
 78225d6:	000ae0               	callx8	a10

078225d9 <DSPTimer0Func+0xd>:
 78225d9:	02a8                	l32i.n	a10, a2, 0
 78225db:	12b8                	l32i.n	a11, a2, 4
 78225dd:	fff3e5               	call8	782251c <DSP_TimerMod>
 78225e0:	f01d                	retw.n

078225e2 <DSPTimer0Func+0x16>:
	...

078225e4 <DSPTimer1Func>:
 78225e4:	004136               	entry	a1, 32
 78225e7:	fb1121               	l32r	a2, 782122c <_stext+0xec>
 78225ea:	82a8                	l32i.n	a10, a2, 32
 78225ec:	1a8c                	beqz.n	a10, 78225f1 <DSPTimer1Func+0xd>
 78225ee:	000ae0               	callx8	a10

078225f1 <DSPTimer1Func+0xd>:
 78225f1:	52a8                	l32i.n	a10, a2, 20
 78225f3:	62b8                	l32i.n	a11, a2, 24
 78225f5:	fff265               	call8	782251c <DSP_TimerMod>
 78225f8:	f01d                	retw.n

078225fa <DSPTimer1Func+0x16>:
	...

078225fc <TIMER_RegIsrFunc>:
 78225fc:	004136               	entry	a1, 32
 78225ff:	0142b6               	bltui	a2, 4, 7822604 <TIMER_RegIsrFunc+0x8>
 7822602:	f01d                	retw.n

07822604 <TIMER_RegIsrFunc+0x8>:
 7822604:	fb0a51               	l32r	a5, 782122c <_stext+0xec>
 7822607:	a04220               	addx4	a4, a2, a2
 782260a:	a04450               	addx4	a4, a4, a5
 782260d:	3439                	s32i.n	a3, a4, 12
 782260f:	f01d                	retw.n

07822611 <TIMER_RegIsrFunc+0x15>:
 7822611:	000000                                        ...

07822614 <TIMER_DelIsrFunc>:
 7822614:	004136               	entry	a1, 32
 7822617:	0142b6               	bltui	a2, 4, 782261c <TIMER_DelIsrFunc+0x8>
 782261a:	f01d                	retw.n

0782261c <TIMER_DelIsrFunc+0x8>:
 782261c:	030c                	movi.n	a3, 0
 782261e:	fb0381               	l32r	a8, 782122c <_stext+0xec>
 7822621:	a04220               	addx4	a4, a2, a2
 7822624:	a04480               	addx4	a4, a4, a8
 7822627:	3439                	s32i.n	a3, a4, 12
 7822629:	f01d                	retw.n

0782262b <TIMER_DelIsrFunc+0x17>:
	...

0782262c <TIMER_SetEnable>:
 782262c:	004136               	entry	a1, 32
 782262f:	02ad                	mov.n	a10, a2
 7822631:	fff2e5               	call8	7822560 <DSP_TimerEnable>
 7822634:	f01d                	retw.n

07822636 <TIMER_SetEnable+0xa>:
	...

07822638 <TIMER_SetDisable>:
 7822638:	004136               	entry	a1, 32
 782263b:	02ad                	mov.n	a10, a2
 782263d:	ffefe5               	call8	782253c <DSP_TimerDisable>
 7822640:	f01d                	retw.n

07822642 <TIMER_SetDisable+0xa>:
	...

07822644 <TIMER_Init>:
 7822644:	004136               	entry	a1, 32
 7822647:	1e42f6               	bgeui	a2, 4, 7822669 <TIMER_Init+0x25>
 782264a:	180c                	movi.n	a8, 1
 782264c:	faf8a1               	l32r	a10, 782122c <_stext+0xec>
 782264f:	a09220               	addx4	a9, a2, a2
 7822652:	a099a0               	addx4	a9, a9, a10
 7822655:	0929                	s32i.n	a2, a9, 0
 7822657:	1939                	s32i.n	a3, a9, 4
 7822659:	4989                	s32i.n	a8, a9, 16
 782265b:	429c                	beqz.n	a2, 7822673 <TIMER_Init+0x2f>
 782265d:	0a1226               	beqi	a2, 1, 782266b <TIMER_Init+0x27>
 7822660:	29c8                	l32i.n	a12, a9, 8

07822662 <TIMER_Init+0x1e>:
 7822662:	03bd                	mov.n	a11, a3
 7822664:	02ad                	mov.n	a10, a2
 7822666:	fff1e5               	call8	7822584 <DSP_TimerInit>
 7822669:	f01d                	retw.n

0782266b <TIMER_Init+0x27>:
 782266b:	faf1c1               	l32r	a12, 7821230 <_stext+0xf0>
 782266e:	29c9                	s32i.n	a12, a9, 8
 7822670:	fffb86               	j	7822662 <TIMER_Init+0x1e>

07822673 <TIMER_Init+0x2f>:
 7822673:	faf0c1               	l32r	a12, 7821234 <_stext+0xf4>
 7822676:	29c9                	s32i.n	a12, a9, 8
 7822678:	fff986               	j	7822662 <TIMER_Init+0x1e>

0782267b <TIMER_Init+0x37>:
	...

0782267c <TIMER_DeInit>:
 782267c:	004136               	entry	a1, 32
 782267f:	02ad                	mov.n	a10, a2
 7822681:	fff425               	call8	78225c4 <DSP_TimerDeInit>
 7822684:	080c                	movi.n	a8, 0
 7822686:	fae9a1               	l32r	a10, 782122c <_stext+0xec>
 7822689:	a09220               	addx4	a9, a2, a2
 782268c:	a099a0               	addx4	a9, a9, a10
 782268f:	2989                	s32i.n	a8, a9, 8
 7822691:	f01d                	retw.n

07822693 <TIMER_DeInit+0x17>:
 7822693:	00000000 00413600                                .....

07822698 <HI_ADSP_MALLOC>:
 7822698:	004136               	entry	a1, 32
 782269b:	20a330               	or	a10, a3, a3
 782269e:	080125               	call8	782a6b0 <malloc>
 78226a1:	202aa0               	or	a2, a10, a10
 78226a4:	000090               	retw

078226a7 <HI_ADSP_MALLOC+0xf>:
	...

078226a8 <HI_ADSP_FREE>:
 78226a8:	004136               	entry	a1, 32
 78226ab:	338c                	beqz.n	a3, 78226b2 <HI_ADSP_FREE+0xa>
 78226ad:	03ad                	mov.n	a10, a3
 78226af:	080165               	call8	782a6c4 <free>

078226b2 <HI_ADSP_FREE+0xa>:
 78226b2:	f01d                	retw.n

078226b4 <HI_ADSP_FREE+0xc>:
 78226b4:	000000                                        ...

078226b7 <HI_ADSP_FREE+0xf>:
	...

078226b8 <HI_ADSP_V_MALLOC>:
 78226b8:	004136               	entry	a1, 32
 78226bb:	20a330               	or	a10, a3, a3
 78226be:	07ff25               	call8	782a6b0 <malloc>
 78226c1:	202aa0               	or	a2, a10, a10
 78226c4:	000090               	retw

078226c7 <HI_ADSP_V_MALLOC+0xf>:
	...

078226c8 <HI_ADSP_V_FREE>:
 78226c8:	004136               	entry	a1, 32
 78226cb:	338c                	beqz.n	a3, 78226d2 <HI_ADSP_V_FREE+0xa>
 78226cd:	03ad                	mov.n	a10, a3
 78226cf:	07ff65               	call8	782a6c4 <free>

078226d2 <HI_ADSP_V_FREE+0xa>:
 78226d2:	f01d                	retw.n

078226d4 <HI_ADSP_V_FREE+0xc>:
 78226d4:	000000                                        ...

078226d7 <HI_ADSP_V_FREE+0xf>:
	...

078226d8 <HI_ADSP_MALLOC_Aligned>:
 78226d8:	004136               	entry	a1, 32
 78226db:	3624b6               	bltui	a4, 2, 7822715 <HI_ADSP_MALLOC_Aligned+0x3d>
 78226de:	00a182               	movi	a8, 0x100
 78226e1:	303847               	bltu	a8, a4, 7822715 <HI_ADSP_MALLOC_Aligned+0x3d>
 78226e4:	0a0c                	movi.n	a10, 0
 78226e6:	0a8076               	loop	a0, 78226f4 <HI_ADSP_MALLOC_Aligned+0x1c>
 78226e9:	aa1b                	addi.n	a10, a10, 1
 78226eb:	400a00               	ssr	a10
 78226ee:	919040               	srl	a9, a4
 78226f1:	0329b6               	bltui	a9, 2, 78226f8 <HI_ADSP_MALLOC_Aligned+0x20>

078226f4 <HI_ADSP_MALLOC_Aligned+0x1c>:
 78226f4:	fffb86               	j	78226e6 <HI_ADSP_MALLOC_Aligned+0xe>

078226f7 <HI_ADSP_MALLOC_Aligned+0x1f>:
	...

078226f8 <HI_ADSP_MALLOC_Aligned+0x20>:
 78226f8:	401a00               	ssl	a10
 78226fb:	ffafb2               	movi	a11, -1
 78226fe:	a15b00               	sll	a5, a11
 7822701:	30b5b0               	xor	a11, a5, a11
 7822704:	0d8b47               	bany	a11, a4, 7822715 <HI_ADSP_MALLOC_Aligned+0x3d>
 7822707:	0eb437               	bgeu	a4, a3, 7822719 <HI_ADSP_MALLOC_Aligned+0x41>
 782270a:	20a330               	or	a10, a3, a3
 782270d:	20b440               	or	a11, a4, a4
 7822710:	0f08e5               	call8	78317a0 <__umodsi3>
 7822713:	2a8c                	beqz.n	a10, 7822719 <HI_ADSP_MALLOC_Aligned+0x41>
 7822715:	020c                	movi.n	a2, 0
 7822717:	f01d                	retw.n

07822719 <HI_ADSP_MALLOC_Aligned+0x41>:
 7822719:	02ad                	mov.n	a10, a2
 782271b:	b34a                	add.n	a11, a3, a4
 782271d:	fff7a5               	call8	7822698 <HI_ADSP_MALLOC>
 7822720:	ff1a16               	beqz	a10, 7822715 <HI_ADSP_MALLOC_Aligned+0x3d>
 7822723:	2a4a                	add.n	a2, a10, a4
 7822725:	102520               	and	a2, a5, a2
 7822728:	ffd2d2               	addmi	a13, a2, 0xffffff00
 782272b:	c0c2a0               	sub	a12, a2, a10
 782272e:	ff4dc2               	s8i	a12, a13, 255
 7822731:	f01d                	retw.n

07822733 <HI_ADSP_MALLOC_Aligned+0x5b>:
	...

07822734 <HI_ADSP_FREE_Aligned>:
 7822734:	004136               	entry	a1, 32
 7822737:	d38c                	beqz.n	a3, 7822748 <HI_ADSP_FREE_Aligned+0x14>
 7822739:	ffd3b2               	addmi	a11, a3, 0xffffff00
 782273c:	ff0bb2               	l8ui	a11, a11, 255
 782273f:	20a220               	or	a10, a2, a2
 7822742:	c0b3b0               	sub	a11, a3, a11
 7822745:	fff625               	call8	78226a8 <HI_ADSP_FREE>

07822748 <HI_ADSP_FREE_Aligned+0x14>:
 7822748:	f01d                	retw.n

0782274a <HI_ADSP_FREE_Aligned+0x16>:
	...

0782274c <HI_ADSP_VMALLOC_Aligned>:
 782274c:	004136               	entry	a1, 32
 782274f:	3524b6               	bltui	a4, 2, 7822788 <HI_ADSP_VMALLOC_Aligned+0x3c>
 7822752:	00a182               	movi	a8, 0x100
 7822755:	2f3847               	bltu	a8, a4, 7822788 <HI_ADSP_VMALLOC_Aligned+0x3c>
 7822758:	0a0c                	movi.n	a10, 0
 782275a:	0a8076               	loop	a0, 7822768 <HI_ADSP_VMALLOC_Aligned+0x1c>
 782275d:	aa1b                	addi.n	a10, a10, 1
 782275f:	400a00               	ssr	a10
 7822762:	919040               	srl	a9, a4
 7822765:	0229b6               	bltui	a9, 2, 782276b <HI_ADSP_VMALLOC_Aligned+0x1f>

07822768 <HI_ADSP_VMALLOC_Aligned+0x1c>:
 7822768:	fffb86               	j	782275a <HI_ADSP_VMALLOC_Aligned+0xe>

0782276b <HI_ADSP_VMALLOC_Aligned+0x1f>:
 782276b:	401a00               	ssl	a10
 782276e:	ffafb2               	movi	a11, -1
 7822771:	a15b00               	sll	a5, a11
 7822774:	30b5b0               	xor	a11, a5, a11
 7822777:	0d8b47               	bany	a11, a4, 7822788 <HI_ADSP_VMALLOC_Aligned+0x3c>
 782277a:	0eb437               	bgeu	a4, a3, 782278c <HI_ADSP_VMALLOC_Aligned+0x40>
 782277d:	20a330               	or	a10, a3, a3
 7822780:	20b440               	or	a11, a4, a4
 7822783:	0f01e5               	call8	78317a0 <__umodsi3>
 7822786:	2a8c                	beqz.n	a10, 782278c <HI_ADSP_VMALLOC_Aligned+0x40>
 7822788:	020c                	movi.n	a2, 0
 782278a:	f01d                	retw.n

0782278c <HI_ADSP_VMALLOC_Aligned+0x40>:
 782278c:	02ad                	mov.n	a10, a2
 782278e:	b34a                	add.n	a11, a3, a4
 7822790:	fff265               	call8	78226b8 <HI_ADSP_V_MALLOC>
 7822793:	ff1a16               	beqz	a10, 7822788 <HI_ADSP_VMALLOC_Aligned+0x3c>
 7822796:	2a4a                	add.n	a2, a10, a4
 7822798:	102520               	and	a2, a5, a2
 782279b:	ffd2d2               	addmi	a13, a2, 0xffffff00
 782279e:	c0c2a0               	sub	a12, a2, a10
 78227a1:	ff4dc2               	s8i	a12, a13, 255
 78227a4:	f01d                	retw.n

078227a6 <HI_ADSP_VMALLOC_Aligned+0x5a>:
	...

078227a8 <HI_ADSP_VFREE_Aligned>:
 78227a8:	004136               	entry	a1, 32
 78227ab:	c38c                	beqz.n	a3, 78227bb <HI_ADSP_VFREE_Aligned+0x13>
 78227ad:	ffd3b2               	addmi	a11, a3, 0xffffff00
 78227b0:	ff0bb2               	l8ui	a11, a11, 255
 78227b3:	02ad                	mov.n	a10, a2
 78227b5:	c0b3b0               	sub	a11, a3, a11
 78227b8:	fff0e5               	call8	78226c8 <HI_ADSP_V_FREE>

078227bb <HI_ADSP_VFREE_Aligned+0x13>:
 78227bb:	f01d                	retw.n

078227bd <HI_ADSP_VFREE_Aligned+0x15>:
 78227bd:	000000                                        ...

078227c0 <CIRC_BUF_Flush>:
 78227c0:	004136               	entry	a1, 32
 78227c3:	1248                	l32i.n	a4, a2, 4
 78227c5:	0238                	l32i.n	a3, a2, 0
 78227c7:	0020c0               	memw
 78227ca:	0338                	l32i.n	a3, a3, 0
 78227cc:	0020c0               	memw
 78227cf:	0439                	s32i.n	a3, a4, 0
 78227d1:	f01d                	retw.n

078227d3 <CIRC_BUF_Flush+0x13>:
	...

078227d4 <dsp_memcpy>:
 78227d4:	004136               	entry	a1, 32
 78227d7:	163526               	beqi	a5, 3, 78227f1 <dsp_memcpy+0x1d>
 78227da:	132526               	beqi	a5, 2, 78227f1 <dsp_memcpy+0x1d>

078227dd <dsp_memcpy+0x9>:
 78227dd:	20b330               	or	a11, a3, a3
 78227e0:	20a220               	or	a10, a2, a2
 78227e3:	20c440               	or	a12, a4, a4
 78227e6:	0f0c65               	call8	78318ac <memcpy>
 78227e9:	113526               	beqi	a5, 3, 78227fe <dsp_memcpy+0x2a>
 78227ec:	0e1526               	beqi	a5, 1, 78227fe <dsp_memcpy+0x2a>
 78227ef:	f01d                	retw.n

078227f1 <dsp_memcpy+0x1d>:
 78227f1:	03ad                	mov.n	a10, a3
 78227f3:	04bd                	mov.n	a11, a4
 78227f5:	0f45a5               	call8	7831c50 <xthal_dcache_region_invalidate>
 78227f8:	fff846               	j	78227dd <dsp_memcpy+0x9>

078227fb <dsp_memcpy+0x27>:
 78227fb:	000000                                        ...

078227fe <dsp_memcpy+0x2a>:
 78227fe:	20b440               	or	a11, a4, a4
 7822801:	20a220               	or	a10, a2, a2
 7822804:	0f46a5               	call8	7831c70 <xthal_dcache_region_writeback>
 7822807:	000090               	retw

0782280a <dsp_memcpy+0x36>:
	...

0782280c <RBUF_Create>:
 782280c:	004136               	entry	a1, 32
 782280f:	10a0a2               	movi	a10, 16
 7822812:	54a0b2               	movi	a11, 84
 7822815:	ffe825               	call8	7822698 <HI_ADSP_MALLOC>
 7822818:	204aa0               	or	a4, a10, a10
 782281b:	050c                	movi.n	a5, 0
 782281d:	2acc                	bnez.n	a10, 7822823 <RBUF_Create+0x17>
 782281f:	0259                	s32i.n	a5, a2, 0
 7822821:	f01d                	retw.n

07822823 <RBUF_Create+0x17>:
 7822823:	20b550               	or	a11, a5, a5
 7822826:	54a0c2               	movi	a12, 84
 7822829:	0f3025               	call8	7831b2c <memset>
 782282c:	20a440               	or	a10, a4, a4
 782282f:	20b330               	or	a11, a3, a3
 7822832:	24a0c2               	movi	a12, 36
 7822835:	0f0765               	call8	78318ac <memcpy>
 7822838:	002382               	l32i	a8, a3, 0
 782283b:	d89c                	beqz.n	a8, 782285c <RBUF_Create+0x50>
 782283d:	34a8                	l32i.n	a10, a4, 12
 782283f:	4498                	l32i.n	a9, a4, 16
 7822841:	14b8                	l32i.n	a11, a4, 4
 7822843:	24c8                	l32i.n	a12, a4, 8
 7822845:	c4c9                	s32i.n	a12, a4, 48
 7822847:	b4b9                	s32i.n	a11, a4, 44
 7822849:	a499                	s32i.n	a9, a4, 40
 782284b:	94a9                	s32i.n	a10, a4, 36
 782284d:	0020c0               	memw
 7822850:	0a59                	s32i.n	a5, a10, 0
 7822852:	0020c0               	memw
 7822855:	0959                	s32i.n	a5, a9, 0
 7822857:	0249                	s32i.n	a4, a2, 0
 7822859:	f01d                	retw.n

0782285b <RBUF_Create+0x4f>:
	...

0782285c <RBUF_Create+0x50>:
 782285c:	10a0a2               	movi	a10, 16
 782285f:	0223b2               	l32i	a11, a3, 8
 7822862:	0623c2               	l32i	a12, a3, 24
 7822865:	ffee65               	call8	782274c <HI_ADSP_VMALLOC_Aligned>
 7822868:	ea9c                	beqz.n	a10, 782288a <RBUF_Create+0x7e>
 782286a:	b4a9                	s32i.n	a10, a4, 44
 782286c:	14a9                	s32i.n	a10, a4, 4
 782286e:	34e8                	l32i.n	a14, a4, 12
 7822870:	44d8                	l32i.n	a13, a4, 16
 7822872:	23f8                	l32i.n	a15, a3, 8
 7822874:	c4f9                	s32i.n	a15, a4, 48
 7822876:	24f9                	s32i.n	a15, a4, 8
 7822878:	a4d9                	s32i.n	a13, a4, 40
 782287a:	94e9                	s32i.n	a14, a4, 36
 782287c:	0020c0               	memw
 782287f:	0e59                	s32i.n	a5, a14, 0
 7822881:	0020c0               	memw
 7822884:	0d59                	s32i.n	a5, a13, 0
 7822886:	0249                	s32i.n	a4, a2, 0
 7822888:	f01d                	retw.n

0782288a <RBUF_Create+0x7e>:
 782288a:	20b440               	or	a11, a4, a4
 782288d:	10a0a2               	movi	a10, 16
 7822890:	ffe165               	call8	78226a8 <HI_ADSP_FREE>
 7822893:	006252               	s32i	a5, a2, 0
 7822896:	f01d                	retw.n

07822898 <RBUF_Create_EXT>:
 7822898:	004136               	entry	a1, 32
 782289b:	10a0a2               	movi	a10, 16
 782289e:	54a0b2               	movi	a11, 84
 78228a1:	ffdf65               	call8	7822698 <HI_ADSP_MALLOC>
 78228a4:	204aa0               	or	a4, a10, a10
 78228a7:	050c                	movi.n	a5, 0
 78228a9:	3acc                	bnez.n	a10, 78228b0 <RBUF_Create_EXT+0x18>
 78228ab:	0259                	s32i.n	a5, a2, 0
 78228ad:	f01d                	retw.n

078228af <RBUF_Create_EXT+0x17>:
	...

078228b0 <RBUF_Create_EXT+0x18>:
 78228b0:	20b550               	or	a11, a5, a5
 78228b3:	54a0c2               	movi	a12, 84
 78228b6:	0f2765               	call8	7831b2c <memset>
 78228b9:	20a440               	or	a10, a4, a4
 78228bc:	20b330               	or	a11, a3, a3
 78228bf:	24a0c2               	movi	a12, 36
 78228c2:	0efea5               	call8	78318ac <memcpy>
 78228c5:	002382               	l32i	a8, a3, 0
 78228c8:	289c                	beqz.n	a8, 78228de <RBUF_Create_EXT+0x46>
 78228ca:	3498                	l32i.n	a9, a4, 12
 78228cc:	44a8                	l32i.n	a10, a4, 16
 78228ce:	14b8                	l32i.n	a11, a4, 4
 78228d0:	24c8                	l32i.n	a12, a4, 8
 78228d2:	c4c9                	s32i.n	a12, a4, 48
 78228d4:	b4b9                	s32i.n	a11, a4, 44
 78228d6:	a4a9                	s32i.n	a10, a4, 40
 78228d8:	9499                	s32i.n	a9, a4, 36
 78228da:	0249                	s32i.n	a4, a2, 0
 78228dc:	f01d                	retw.n

078228de <RBUF_Create_EXT+0x46>:
 78228de:	10a0a2               	movi	a10, 16
 78228e1:	0223b2               	l32i	a11, a3, 8
 78228e4:	0623c2               	l32i	a12, a3, 24
 78228e7:	ffe665               	call8	782274c <HI_ADSP_VMALLOC_Aligned>
 78228ea:	4a9c                	beqz.n	a10, 7822902 <RBUF_Create_EXT+0x6a>
 78228ec:	b4a9                	s32i.n	a10, a4, 44
 78228ee:	14a9                	s32i.n	a10, a4, 4
 78228f0:	34d8                	l32i.n	a13, a4, 12
 78228f2:	44e8                	l32i.n	a14, a4, 16
 78228f4:	23f8                	l32i.n	a15, a3, 8
 78228f6:	c4f9                	s32i.n	a15, a4, 48
 78228f8:	24f9                	s32i.n	a15, a4, 8
 78228fa:	a4e9                	s32i.n	a14, a4, 40
 78228fc:	94d9                	s32i.n	a13, a4, 36
 78228fe:	0249                	s32i.n	a4, a2, 0
 7822900:	f01d                	retw.n

07822902 <RBUF_Create_EXT+0x6a>:
 7822902:	20b440               	or	a11, a4, a4
 7822905:	10a0a2               	movi	a10, 16
 7822908:	ffd9e5               	call8	78226a8 <HI_ADSP_FREE>
 782290b:	006252               	s32i	a5, a2, 0
 782290e:	f01d                	retw.n

07822910 <RBUF_Destroy>:
 7822910:	004136               	entry	a1, 32
 7822913:	b28c                	beqz.n	a2, 7822922 <RBUF_Destroy+0x12>
 7822915:	0288                	l32i.n	a8, a2, 0
 7822917:	b88c                	beqz.n	a8, 7822926 <RBUF_Destroy+0x16>

07822919 <RBUF_Destroy+0x9>:
 7822919:	20b220               	or	a11, a2, a2
 782291c:	10a0a2               	movi	a10, 16
 782291f:	ffd8a5               	call8	78226a8 <HI_ADSP_FREE>
 7822922:	000090               	retw

07822925 <RBUF_Destroy+0x15>:
	...

07822926 <RBUF_Destroy+0x16>:
 7822926:	0a1c                	movi.n	a10, 16
 7822928:	12b8                	l32i.n	a11, a2, 4
 782292a:	ffe7e5               	call8	78227a8 <HI_ADSP_VFREE_Aligned>
 782292d:	fffa06               	j	7822919 <RBUF_Destroy+0x9>

07822930 <RBUF_Destroy+0x20>:
 7822930:	000000                                        ...

07822933 <RBUF_Destroy+0x23>:
	...

07822934 <RBUF_ReadData>:
 7822934:	008136               	entry	a1, 64
 7822937:	0b8216               	beqz	a2, 78229f3 <RBUF_ReadData+0xbf>
 782293a:	e2f8                	l32i.n	a15, a2, 56
 782293c:	0b0c                	movi.n	a11, 0
 782293e:	11b9                	s32i.n	a11, a1, 4
 7822940:	01b9                	s32i.n	a11, a1, 0
 7822942:	31b9                	s32i.n	a11, a1, 12
 7822944:	21b9                	s32i.n	a11, a1, 8
 7822946:	ff1b                	addi.n	a15, a15, 1
 7822948:	e2f9                	s32i.n	a15, a2, 56
 782294a:	a2c8                	l32i.n	a12, a2, 40
 782294c:	0020c0               	memw
 782294f:	0ca8                	l32i.n	a10, a12, 0
 7822951:	92e8                	l32i.n	a14, a2, 36
 7822953:	0020c0               	memw
 7822956:	21a9                	s32i.n	a10, a1, 8
 7822958:	0ee8                	l32i.n	a14, a14, 0
 782295a:	d4aa                	add.n	a13, a4, a10
 782295c:	0e3ea7               	bltu	a14, a10, 782296e <RBUF_ReadData+0x3a>
 782295f:	0d000a4150b0eede 	{ bltu.w18	a14, a13, 7822a08 <RBUF_ReadData+0xd4>; nop }
 7822967:	0149                	s32i.n	a4, a1, 0
 7822969:	5149                	s32i.n	a4, a1, 20
 782296b:	000706               	j	782298b <RBUF_ReadData+0x57>

0782296e <RBUF_ReadData+0x3a>:
 782296e:	c2f8                	l32i.n	a15, a2, 48
 7822970:	063fd7               	bltu	a15, a13, 782297a <RBUF_ReadData+0x46>
 7822973:	0149                	s32i.n	a4, a1, 0
 7822975:	5149                	s32i.n	a4, a1, 20
 7822977:	000406               	j	782298b <RBUF_ReadData+0x57>

0782297a <RBUF_ReadData+0x46>:
 782297a:	31b9                	s32i.n	a11, a1, 12
 782297c:	c0dfa0               	sub	a13, a15, a10
 782297f:	51d9                	s32i.n	a13, a1, 20
 7822981:	01d9                	s32i.n	a13, a1, 0
 7822983:	c0d4d0               	sub	a13, a4, a13
 7822986:	63dde0               	minu	a13, a13, a14
 7822989:	11d9                	s32i.n	a13, a1, 4
 782298b:	51e8                	l32i.n	a14, a1, 20
 782298d:	014d                	mov.n	a4, a1
 782298f:	041e16               	beqz	a14, 78229d4 <RBUF_ReadData+0xa0>
 7822992:	518b                	addi.n	a5, a1, 8
 7822994:	714b                	addi.n	a7, a1, 4
 7822996:	0168                	l32i.n	a6, a1, 0
 7822998:	03dc                	bnez.n	a3, 78229ac <RBUF_ReadData+0x78>
 782299a:	444b                	addi.n	a4, a4, 4
 782299c:	05a8                	l32i.n	a10, a5, 0
 782299e:	554b                	addi.n	a5, a5, 4
 78229a0:	aa6a                	add.n	a10, a10, a6
 78229a2:	2c3747               	bltu	a7, a4, 78229d2 <RBUF_ReadData+0x9e>
 78229a5:	0468                	l32i.n	a6, a4, 0
 78229a7:	76ac                	beqz.n	a6, 78229d2 <RBUF_ReadData+0x9e>
 78229a9:	fed316               	beqz	a3, 782299a <RBUF_ReadData+0x66>
 78229ac:	20a330               	or	a10, a3, a3
 78229af:	0b22b2               	l32i	a11, a2, 44
 78229b2:	0025c2               	l32i	a12, a5, 0
 78229b5:	41c9                	s32i.n	a12, a1, 16
 78229b7:	bbca                	add.n	a11, a11, a12
 78229b9:	06cd                	mov.n	a12, a6
 78229bb:	0eef25               	call8	78318ac <memcpy>
 78229be:	0b0c                	movi.n	a11, 0
 78229c0:	336a                	add.n	a3, a3, a6
 78229c2:	554b                	addi.n	a5, a5, 4
 78229c4:	41a8                	l32i.n	a10, a1, 16
 78229c6:	444b                	addi.n	a4, a4, 4
 78229c8:	a6aa                	add.n	a10, a6, a10
 78229ca:	043747               	bltu	a7, a4, 78229d2 <RBUF_ReadData+0x9e>
 78229cd:	0468                	l32i.n	a6, a4, 0
 78229cf:	fd6656               	bnez	a6, 78229a9 <RBUF_ReadData+0x75>
 78229d2:	a2c8                	l32i.n	a12, a2, 40
 78229d4:	c2e8                	l32i.n	a14, a2, 48
 78229d6:	c0eea0               	sub	a14, a14, a10
 78229d9:	83abe0               	moveqz	a10, a11, a14
 78229dc:	0020c0               	memw
 78229df:	51d8                	l32i.n	a13, a1, 20
 78229e1:	1198                	l32i.n	a9, a1, 4
 78229e3:	0ca9                	s32i.n	a10, a12, 0
 78229e5:	99da                	add.n	a9, a9, a13
 78229e7:	d98c                	beqz.n	a9, 78229f8 <RBUF_ReadData+0xc4>
 78229e9:	d2f8                	l32i.n	a15, a2, 52
 78229eb:	ff9a                	add.n	a15, a15, a9
 78229ed:	d2f9                	s32i.n	a15, a2, 52
 78229ef:	092d                	mov.n	a2, a9
 78229f1:	f01d                	retw.n

078229f3 <RBUF_ReadData+0xbf>:
 78229f3:	020c                	movi.n	a2, 0
 78229f5:	f01d                	retw.n

078229f7 <RBUF_ReadData+0xc3>:
	...

078229f8 <RBUF_ReadData+0xc4>:
 78229f8:	d288                	l32i.n	a8, a2, 52
 78229fa:	f2a8                	l32i.n	a10, a2, 60
 78229fc:	889a                	add.n	a8, a8, a9
 78229fe:	aa1b                	addi.n	a10, a10, 1
 7822a00:	f2a9                	s32i.n	a10, a2, 60
 7822a02:	d289                	s32i.n	a8, a2, 52
 7822a04:	092d                	mov.n	a2, a9
 7822a06:	f01d                	retw.n

07822a08 <RBUF_ReadData+0xd4>:
 7822a08:	c0dea0               	sub	a13, a14, a10
 7822a0b:	51d9                	s32i.n	a13, a1, 20
 7822a0d:	01d9                	s32i.n	a13, a1, 0
 7822a0f:	ffde06               	j	782298b <RBUF_ReadData+0x57>

07822a12 <RBUF_ReadData+0xde>:
	...

07822a14 <RBUF_WriteData>:
 7822a14:	008136               	entry	a1, 64
 7822a17:	0a9216               	beqz	a2, 7822ac4 <RBUF_WriteData+0xb0>
 7822a1a:	1222f2               	l32i	a15, a2, 72
 7822a1d:	0a0c                	movi.n	a10, 0
 7822a1f:	11a9                	s32i.n	a10, a1, 4
 7822a21:	01a9                	s32i.n	a10, a1, 0
 7822a23:	31a9                	s32i.n	a10, a1, 12
 7822a25:	21a9                	s32i.n	a10, a1, 8
 7822a27:	ff1b                	addi.n	a15, a15, 1
 7822a29:	1262f2               	s32i	a15, a2, 72
 7822a2c:	a2e8                	l32i.n	a14, a2, 40
 7822a2e:	0020c0               	memw
 7822a31:	92c8                	l32i.n	a12, a2, 36
 7822a33:	0ee8                	l32i.n	a14, a14, 0
 7822a35:	0020c0               	memw
 7822a38:	0cb8                	l32i.n	a11, a12, 0
 7822a3a:	21b9                	s32i.n	a11, a1, 8
 7822a3c:	d4ba                	add.n	a13, a4, a11
 7822a3e:	103be7               	bltu	a11, a14, 7822a52 <RBUF_WriteData+0x3e>
 7822a41:	c2e8                	l32i.n	a14, a2, 48
 7822a43:	0d00094150b0eede 	{ bltu.w18	a14, a13, 7822adc <RBUF_WriteData+0xc8>; nop }
 7822a4b:	0149                	s32i.n	a4, a1, 0
 7822a4d:	4149                	s32i.n	a4, a1, 16
 7822a4f:	000406               	j	7822a63 <RBUF_WriteData+0x4f>

07822a52 <RBUF_WriteData+0x3e>:
 7822a52:	06bde7               	bgeu	a13, a14, 7822a5c <RBUF_WriteData+0x48>
 7822a55:	0149                	s32i.n	a4, a1, 0
 7822a57:	4149                	s32i.n	a4, a1, 16
 7822a59:	000186               	j	7822a63 <RBUF_WriteData+0x4f>

07822a5c <RBUF_WriteData+0x48>:
 7822a5c:	c0aeb0               	sub	a10, a14, a11
 7822a5f:	41a9                	s32i.n	a10, a1, 16
 7822a61:	01a9                	s32i.n	a10, a1, 0
 7822a63:	41d8                	l32i.n	a13, a1, 16
 7822a65:	bdbc                	beqz.n	a13, 7822aa4 <RBUF_WriteData+0x90>
 7822a67:	016d                	mov.n	a6, a1
 7822a69:	518b                	addi.n	a5, a1, 8
 7822a6b:	0148                	l32i.n	a4, a1, 0
 7822a6d:	e1cb                	addi.n	a14, a1, 12
 7822a6f:	51e9                	s32i.n	a14, a1, 20
 7822a71:	002572               	l32i	a7, a5, 0
 7822a74:	0b22a2               	l32i	a10, a2, 44
 7822a77:	80aa70               	add	a10, a10, a7
 7822a7a:	83cc                	bnez.n	a3, 7822a86 <RBUF_WriteData+0x72>
 7822a7c:	0b0c                	movi.n	a11, 0
 7822a7e:	04cd                	mov.n	a12, a4
 7822a80:	0f0aa5               	call8	7831b2c <memset>
 7822a83:	0002c6               	j	7822a92 <RBUF_WriteData+0x7e>

07822a86 <RBUF_WriteData+0x72>:
 7822a86:	20b330               	or	a11, a3, a3
 7822a89:	20c440               	or	a12, a4, a4
 7822a8c:	0ee1e5               	call8	78318ac <memcpy>
 7822a8f:	803340               	add	a3, a3, a4
 7822a92:	b74a                	add.n	a11, a7, a4
 7822a94:	664b                	addi.n	a6, a6, 4
 7822a96:	51c8                	l32i.n	a12, a1, 20
 7822a98:	554b                	addi.n	a5, a5, 4
 7822a9a:	043c57               	bltu	a12, a5, 7822aa2 <RBUF_WriteData+0x8e>
 7822a9d:	0648                	l32i.n	a4, a6, 0
 7822a9f:	fce456               	bnez	a4, 7822a71 <RBUF_WriteData+0x5d>
 7822aa2:	92c8                	l32i.n	a12, a2, 36
 7822aa4:	c2d8                	l32i.n	a13, a2, 48
 7822aa6:	013bd7               	bltu	a11, a13, 7822aab <RBUF_WriteData+0x97>
 7822aa9:	0b0c                	movi.n	a11, 0
 7822aab:	0020c0               	memw
 7822aae:	41a8                	l32i.n	a10, a1, 16
 7822ab0:	1198                	l32i.n	a9, a1, 4
 7822ab2:	0cb9                	s32i.n	a11, a12, 0
 7822ab4:	99aa                	add.n	a9, a9, a10
 7822ab6:	e98c                	beqz.n	a9, 7822ac8 <RBUF_WriteData+0xb4>
 7822ab8:	1122b2               	l32i	a11, a2, 68
 7822abb:	bb9a                	add.n	a11, a11, a9
 7822abd:	1162b2               	s32i	a11, a2, 68
 7822ac0:	092d                	mov.n	a2, a9
 7822ac2:	f01d                	retw.n

07822ac4 <RBUF_WriteData+0xb0>:
 7822ac4:	042d                	mov.n	a2, a4
 7822ac6:	f01d                	retw.n

07822ac8 <RBUF_WriteData+0xb4>:
 7822ac8:	1122c2               	l32i	a12, a2, 68
 7822acb:	1322d2               	l32i	a13, a2, 76
 7822ace:	cc9a                	add.n	a12, a12, a9
 7822ad0:	dd1b                	addi.n	a13, a13, 1
 7822ad2:	1362d2               	s32i	a13, a2, 76
 7822ad5:	1162c2               	s32i	a12, a2, 68
 7822ad8:	092d                	mov.n	a2, a9
 7822ada:	f01d                	retw.n

07822adc <RBUF_WriteData+0xc8>:
 7822adc:	31a9                	s32i.n	a10, a1, 12
 7822ade:	c0feb0               	sub	a15, a14, a11
 7822ae1:	41f9                	s32i.n	a15, a1, 16
 7822ae3:	01f9                	s32i.n	a15, a1, 0
 7822ae5:	c084f0               	sub	a8, a4, a15
 7822ae8:	1189                	s32i.n	a8, a1, 4
 7822aea:	ffdd46               	j	7822a63 <RBUF_WriteData+0x4f>

07822aed <RBUF_WriteData+0xd9>:
 7822aed:	000000                                        ...

07822af0 <RBUF_ReadDataComplete>:
 7822af0:	006136               	entry	a1, 48
 7822af3:	074216               	beqz	a2, 7822b6b <RBUF_ReadDataComplete+0x7b>
 7822af6:	0d0c                	movi.n	a13, 0
 7822af8:	11d9                	s32i.n	a13, a1, 4
 7822afa:	01d9                	s32i.n	a13, a1, 0
 7822afc:	31d9                	s32i.n	a13, a1, 12
 7822afe:	21d9                	s32i.n	a13, a1, 8
 7822b00:	a2c8                	l32i.n	a12, a2, 40
 7822b02:	0020c0               	memw
 7822b05:	0c98                	l32i.n	a9, a12, 0
 7822b07:	9278                	l32i.n	a7, a2, 36
 7822b09:	0020c0               	memw
 7822b0c:	2199                	s32i.n	a9, a1, 8
 7822b0e:	c2b8                	l32i.n	a11, a2, 48
 7822b10:	0778                	l32i.n	a7, a7, 0
 7822b12:	639a                	add.n	a6, a3, a9
 7822b14:	083797               	bltu	a7, a9, 7822b20 <RBUF_ReadDataComplete+0x30>
 7822b17:	523767               	bltu	a7, a6, 7822b6d <RBUF_ReadDataComplete+0x7d>
 7822b1a:	0139                	s32i.n	a3, a1, 0
 7822b1c:	000606               	j	7822b38 <RBUF_ReadDataComplete+0x48>

07822b1f <RBUF_ReadDataComplete+0x2f>:
	...

07822b20 <RBUF_ReadDataComplete+0x30>:
 7822b20:	053b67               	bltu	a11, a6, 7822b29 <RBUF_ReadDataComplete+0x39>
 7822b23:	0139                	s32i.n	a3, a1, 0
 7822b25:	0003c6               	j	7822b38 <RBUF_ReadDataComplete+0x48>

07822b28 <RBUF_ReadDataComplete+0x38>:
	...

07822b29 <RBUF_ReadDataComplete+0x39>:
 7822b29:	31d9                	s32i.n	a13, a1, 12
 7822b2b:	c08b90               	sub	a8, a11, a9
 7822b2e:	0189                	s32i.n	a8, a1, 0
 7822b30:	c08380               	sub	a8, a3, a8
 7822b33:	638870               	minu	a8, a8, a7
 7822b36:	1189                	s32i.n	a8, a1, 4
 7822b38:	0188                	l32i.n	a8, a1, 0
 7822b3a:	a89c                	beqz.n	a8, 7822b58 <RBUF_ReadDataComplete+0x68>
 7822b3c:	016d                	mov.n	a6, a1
 7822b3e:	a14b                	addi.n	a10, a1, 4
 7822b40:	718b                	addi.n	a7, a1, 8
 7822b42:	0e8076               	loop	a0, 7822b54 <RBUF_ReadDataComplete+0x64>
 7822b45:	664b                	addi.n	a6, a6, 4
 7822b47:	0798                	l32i.n	a9, a7, 0
 7822b49:	774b                	addi.n	a7, a7, 4
 7822b4b:	998a                	add.n	a9, a9, a8
 7822b4d:	073a67               	bltu	a10, a6, 7822b58 <RBUF_ReadDataComplete+0x68>
 7822b50:	0688                	l32i.n	a8, a6, 0
 7822b52:	288c                	beqz.n	a8, 7822b58 <RBUF_ReadDataComplete+0x68>

07822b54 <RBUF_ReadDataComplete+0x64>:
 7822b54:	fffa86               	j	7822b42 <RBUF_ReadDataComplete+0x52>

07822b57 <RBUF_ReadDataComplete+0x67>:
	...

07822b58 <RBUF_ReadDataComplete+0x68>:
 7822b58:	c0eb90               	sub	a14, a11, a9
 7822b5b:	839de0               	moveqz	a9, a13, a14
 7822b5e:	0020c0               	memw
 7822b61:	0c99                	s32i.n	a9, a12, 0
 7822b63:	d2a8                	l32i.n	a10, a2, 52
 7822b65:	aa3a                	add.n	a10, a10, a3
 7822b67:	d2a9                	s32i.n	a10, a2, 52
 7822b69:	f01d                	retw.n

07822b6b <RBUF_ReadDataComplete+0x7b>:
 7822b6b:	f01d                	retw.n

07822b6d <RBUF_ReadDataComplete+0x7d>:
 7822b6d:	c0f790               	sub	a15, a7, a9
 7822b70:	01f9                	s32i.n	a15, a1, 0
 7822b72:	fff086               	j	7822b38 <RBUF_ReadDataComplete+0x48>

07822b75 <RBUF_ReadDataComplete+0x85>:
 7822b75:	000000                                        ...

07822b78 <RBUF_WriteDataComplete>:
 7822b78:	006136               	entry	a1, 48
 7822b7b:	076216               	beqz	a2, 7822bf5 <RBUF_WriteDataComplete+0x7d>
 7822b7e:	0d0c                	movi.n	a13, 0
 7822b80:	11d9                	s32i.n	a13, a1, 4
 7822b82:	01d9                	s32i.n	a13, a1, 0
 7822b84:	31d9                	s32i.n	a13, a1, 12
 7822b86:	21d9                	s32i.n	a13, a1, 8
 7822b88:	a248                	l32i.n	a4, a2, 40
 7822b8a:	0020c0               	memw
 7822b8d:	92c8                	l32i.n	a12, a2, 36
 7822b8f:	0448                	l32i.n	a4, a4, 0
 7822b91:	0020c0               	memw
 7822b94:	c2b8                	l32i.n	a11, a2, 48
 7822b96:	0c98                	l32i.n	a9, a12, 0
 7822b98:	2199                	s32i.n	a9, a1, 8
 7822b9a:	1c3947               	bltu	a9, a4, 7822bba <RBUF_WriteDataComplete+0x42>
 7822b9d:	539a                	add.n	a5, a3, a9
 7822b9f:	053b57               	bltu	a11, a5, 7822ba8 <RBUF_WriteDataComplete+0x30>
 7822ba2:	0139                	s32i.n	a3, a1, 0
 7822ba4:	000306               	j	7822bb4 <RBUF_WriteDataComplete+0x3c>

07822ba7 <RBUF_WriteDataComplete+0x2f>:
	...

07822ba8 <RBUF_WriteDataComplete+0x30>:
 7822ba8:	31d9                	s32i.n	a13, a1, 12
 7822baa:	c08b90               	sub	a8, a11, a9
 7822bad:	0189                	s32i.n	a8, a1, 0
 7822baf:	c08380               	sub	a8, a3, a8
 7822bb2:	1189                	s32i.n	a8, a1, 4
 7822bb4:	0158                	l32i.n	a5, a1, 0
 7822bb6:	000106               	j	7822bbe <RBUF_WriteDataComplete+0x46>

07822bb9 <RBUF_WriteDataComplete+0x41>:
	...

07822bba <RBUF_WriteDataComplete+0x42>:
 7822bba:	0139                	s32i.n	a3, a1, 0
 7822bbc:	035d                	mov.n	a5, a3
 7822bbe:	e59c                	beqz.n	a5, 7822be0 <RBUF_WriteDataComplete+0x68>
 7822bc0:	016d                	mov.n	a6, a1
 7822bc2:	a14b                	addi.n	a10, a1, 4
 7822bc4:	718b                	addi.n	a7, a1, 8
 7822bc6:	002182               	l32i	a8, a1, 0
 7822bc9:	0e8076               	loop	a0, 7822bdb <RBUF_WriteDataComplete+0x63>
 7822bcc:	664b                	addi.n	a6, a6, 4
 7822bce:	0798                	l32i.n	a9, a7, 0
 7822bd0:	774b                	addi.n	a7, a7, 4
 7822bd2:	998a                	add.n	a9, a9, a8
 7822bd4:	083a67               	bltu	a10, a6, 7822be0 <RBUF_WriteDataComplete+0x68>
 7822bd7:	0688                	l32i.n	a8, a6, 0
 7822bd9:	388c                	beqz.n	a8, 7822be0 <RBUF_WriteDataComplete+0x68>

07822bdb <RBUF_WriteDataComplete+0x63>:
 7822bdb:	fffa86               	j	7822bc9 <RBUF_WriteDataComplete+0x51>

07822bde <RBUF_WriteDataComplete+0x66>:
	...

07822be0 <RBUF_WriteDataComplete+0x68>:
 7822be0:	c0eb90               	sub	a14, a11, a9
 7822be3:	839de0               	moveqz	a9, a13, a14
 7822be6:	0020c0               	memw
 7822be9:	0c99                	s32i.n	a9, a12, 0
 7822beb:	1122a2               	l32i	a10, a2, 68
 7822bee:	aa3a                	add.n	a10, a10, a3
 7822bf0:	1162a2               	s32i	a10, a2, 68
 7822bf3:	f01d                	retw.n

07822bf5 <RBUF_WriteDataComplete+0x7d>:
 7822bf5:	f01d                	retw.n

07822bf7 <RBUF_WriteDataComplete+0x7f>:
	...

07822bf8 <RBUF_QueryInfo>:
 7822bf8:	004136               	entry	a1, 32
 7822bfb:	087216               	beqz	a2, 7822c86 <RBUF_QueryInfo+0x8e>
 7822bfe:	7288                	l32i.n	a8, a2, 28
 7822c00:	c2d8                	l32i.n	a13, a2, 48
 7822c02:	b298                	l32i.n	a9, a2, 44
 7822c04:	0399                	s32i.n	a9, a3, 0
 7822c06:	33d9                	s32i.n	a13, a3, 12
 7822c08:	8389                	s32i.n	a8, a3, 32
 7822c0a:	62b8                	l32i.n	a11, a2, 24
 7822c0c:	9288                	l32i.n	a8, a2, 36
 7822c0e:	0020c0               	memw
 7822c11:	08f8                	l32i.n	a15, a8, 0
 7822c13:	23f9                	s32i.n	a15, a3, 8
 7822c15:	a2c8                	l32i.n	a12, a2, 40
 7822c17:	0020c0               	memw
 7822c1a:	0ce8                	l32i.n	a14, a12, 0
 7822c1c:	13e9                	s32i.n	a14, a3, 4
 7822c1e:	0020c0               	memw
 7822c21:	0cc8                	l32i.n	a12, a12, 0
 7822c23:	0020c0               	memw
 7822c26:	0888                	l32i.n	a8, a8, 0
 7822c28:	c0fdc0               	sub	a15, a13, a12
 7822c2b:	c0a8c0               	sub	a10, a8, a12
 7822c2e:	0638c7               	bltu	a8, a12, 7822c38 <RBUF_QueryInfo+0x40>
 7822c31:	43a9                	s32i.n	a10, a3, 16
 7822c33:	53a9                	s32i.n	a10, a3, 20
 7822c35:	000146               	j	7822c3e <RBUF_QueryInfo+0x46>

07822c38 <RBUF_QueryInfo+0x40>:
 7822c38:	43f9                	s32i.n	a15, a3, 16
 7822c3a:	edaa                	add.n	a14, a13, a10
 7822c3c:	53e9                	s32i.n	a14, a3, 20
 7822c3e:	a288                	l32i.n	a8, a2, 40
 7822c40:	0020c0               	memw
 7822c43:	92c8                	l32i.n	a12, a2, 36
 7822c45:	0888                	l32i.n	a8, a8, 0
 7822c47:	0020c0               	memw
 7822c4a:	0cc8                	l32i.n	a12, a12, 0
 7822c4c:	c2d8                	l32i.n	a13, a2, 48
 7822c4e:	c0a8c0               	sub	a10, a8, a12
 7822c51:	0d3c87               	bltu	a12, a8, 7822c62 <RBUF_QueryInfo+0x6a>
 7822c54:	adaa                	add.n	a10, a13, a10
 7822c56:	73a9                	s32i.n	a10, a3, 28
 7822c58:	c0ddc0               	sub	a13, a13, a12
 7822c5b:	63d9                	s32i.n	a13, a3, 24
 7822c5d:	0001c6               	j	7822c68 <RBUF_QueryInfo+0x70>

07822c60 <RBUF_QueryInfo+0x68>:
	...

07822c62 <RBUF_QueryInfo+0x6a>:
 7822c62:	63a9                	s32i.n	a10, a3, 24
 7822c64:	73a9                	s32i.n	a10, a3, 28
 7822c66:	0add                	mov.n	a13, a10
 7822c68:	12bba7               	bgeu	a11, a10, 7822c7e <RBUF_QueryInfo+0x86>
 7822c6b:	c0ead0               	sub	a14, a10, a13
 7822c6e:	c0aab0               	sub	a10, a10, a11
 7822c71:	033eb7               	bltu	a14, a11, 7822c78 <RBUF_QueryInfo+0x80>
 7822c74:	73a9                	s32i.n	a10, a3, 28
 7822c76:	f01d                	retw.n

07822c78 <RBUF_QueryInfo+0x80>:
 7822c78:	63a9                	s32i.n	a10, a3, 24
 7822c7a:	73a9                	s32i.n	a10, a3, 28
 7822c7c:	f01d                	retw.n

07822c7e <RBUF_QueryInfo+0x86>:
 7822c7e:	0f0c                	movi.n	a15, 0
 7822c80:	63f9                	s32i.n	a15, a3, 24
 7822c82:	73f9                	s32i.n	a15, a3, 28
 7822c84:	f01d                	retw.n

07822c86 <RBUF_QueryInfo+0x8e>:
 7822c86:	20a330               	or	a10, a3, a3
 7822c89:	00a0b2               	movi	a11, 0
 7822c8c:	24a0c2               	movi	a12, 36
 7822c8f:	0ee9e5               	call8	7831b2c <memset>
 7822c92:	f01d                	retw.n

07822c94 <RBUF_QueryBusy_ProvideRptr>:
 7822c94:	004136               	entry	a1, 32
 7822c97:	e29c                	beqz.n	a2, 7822cb9 <RBUF_QueryBusy_ProvideRptr+0x25>
 7822c99:	a258                	l32i.n	a5, a2, 40
 7822c9b:	0020c0               	memw
 7822c9e:	9248                	l32i.n	a4, a2, 36
 7822ca0:	0558                	l32i.n	a5, a5, 0
 7822ca2:	0020c0               	memw
 7822ca5:	0358                	l32i.n	a5, a3, 0
 7822ca7:	0448                	l32i.n	a4, a4, 0
 7822ca9:	c228                	l32i.n	a2, a2, 48
 7822cab:	c03450               	sub	a3, a4, a5
 7822cae:	033457               	bltu	a4, a5, 7822cb5 <RBUF_QueryBusy_ProvideRptr+0x21>
 7822cb1:	032d                	mov.n	a2, a3
 7822cb3:	f01d                	retw.n

07822cb5 <RBUF_QueryBusy_ProvideRptr+0x21>:
 7822cb5:	223a                	add.n	a2, a2, a3
 7822cb7:	f01d                	retw.n

07822cb9 <RBUF_QueryBusy_ProvideRptr+0x25>:
 7822cb9:	020c                	movi.n	a2, 0
 7822cbb:	f01d                	retw.n

07822cbd <RBUF_QueryBusy_ProvideRptr+0x29>:
 7822cbd:	000000                                        ...

07822cc0 <RBUF_QueryBusy>:
 7822cc0:	004136               	entry	a1, 32
 7822cc3:	d29c                	beqz.n	a2, 7822ce4 <RBUF_QueryBusy+0x24>
 7822cc5:	a248                	l32i.n	a4, a2, 40
 7822cc7:	0020c0               	memw
 7822cca:	9238                	l32i.n	a3, a2, 36
 7822ccc:	0448                	l32i.n	a4, a4, 0
 7822cce:	0020c0               	memw
 7822cd1:	0338                	l32i.n	a3, a3, 0
 7822cd3:	c228                	l32i.n	a2, a2, 48
 7822cd5:	c05340               	sub	a5, a3, a4
 7822cd8:	043347               	bltu	a3, a4, 7822ce0 <RBUF_QueryBusy+0x20>
 7822cdb:	052d                	mov.n	a2, a5
 7822cdd:	f01d                	retw.n

07822cdf <RBUF_QueryBusy+0x1f>:
	...

07822ce0 <RBUF_QueryBusy+0x20>:
 7822ce0:	225a                	add.n	a2, a2, a5
 7822ce2:	f01d                	retw.n

07822ce4 <RBUF_QueryBusy+0x24>:
 7822ce4:	020c                	movi.n	a2, 0
 7822ce6:	f01d                	retw.n

07822ce8 <RBUF_QueryFree>:
 7822ce8:	004136               	entry	a1, 32
 7822ceb:	92ac                	beqz.n	a2, 7822d18 <RBUF_QueryFree+0x30>
 7822ced:	6258                	l32i.n	a5, a2, 24
 7822cef:	a248                	l32i.n	a4, a2, 40
 7822cf1:	0020c0               	memw
 7822cf4:	9238                	l32i.n	a3, a2, 36
 7822cf6:	0448                	l32i.n	a4, a4, 0
 7822cf8:	0020c0               	memw
 7822cfb:	0338                	l32i.n	a3, a3, 0
 7822cfd:	c228                	l32i.n	a2, a2, 48
 7822cff:	c06430               	sub	a6, a4, a3
 7822d02:	083347               	bltu	a3, a4, 7822d0e <RBUF_QueryFree+0x26>
 7822d05:	226a                	add.n	a2, a2, a6
 7822d07:	083527               	bltu	a5, a2, 7822d13 <RBUF_QueryFree+0x2b>

07822d0a <RBUF_QueryFree+0x22>:
 7822d0a:	020c                	movi.n	a2, 0
 7822d0c:	f01d                	retw.n

07822d0e <RBUF_QueryFree+0x26>:
 7822d0e:	062d                	mov.n	a2, a6
 7822d10:	f6b567               	bgeu	a5, a6, 7822d0a <RBUF_QueryFree+0x22>
 7822d13:	c02250               	sub	a2, a2, a5
 7822d16:	f01d                	retw.n

07822d18 <RBUF_QueryFree+0x30>:
 7822d18:	020c                	movi.n	a2, 0
 7822d1a:	f01d                	retw.n

07822d1c <RBUF_CheckFree>:
 7822d1c:	004136               	entry	a1, 32
 7822d1f:	52bc                	beqz.n	a2, 7822d58 <RBUF_CheckFree+0x3c>
 7822d21:	a258                	l32i.n	a5, a2, 40
 7822d23:	6278                	l32i.n	a7, a2, 24
 7822d25:	0020c0               	memw
 7822d28:	0558                	l32i.n	a5, a5, 0
 7822d2a:	9248                	l32i.n	a4, a2, 36
 7822d2c:	0020c0               	memw
 7822d2f:	0448                	l32i.n	a4, a4, 0
 7822d31:	c298                	l32i.n	a9, a2, 48
 7822d33:	c08450               	sub	a8, a4, a5
 7822d36:	c06540               	sub	a6, a5, a4
 7822d39:	043457               	bltu	a4, a5, 7822d41 <RBUF_CheckFree+0x25>
 7822d3c:	696a                	add.n	a6, a9, a6
 7822d3e:	000046               	j	7822d43 <RBUF_CheckFree+0x27>

07822d41 <RBUF_CheckFree+0x25>:
 7822d41:	898a                	add.n	a8, a9, a8
 7822d43:	7298                	l32i.n	a9, a2, 28
 7822d45:	238a                	add.n	a2, a3, a8
 7822d47:	0db767               	bgeu	a7, a6, 7822d58 <RBUF_CheckFree+0x3c>
 7822d4a:	c06670               	sub	a6, a6, a7
 7822d4d:	073927               	bltu	a9, a2, 7822d58 <RBUF_CheckFree+0x3c>
 7822d50:	04b367               	bgeu	a3, a6, 7822d58 <RBUF_CheckFree+0x3c>
 7822d53:	120c                	movi.n	a2, 1
 7822d55:	f01d                	retw.n

07822d57 <RBUF_CheckFree+0x3b>:
	...

07822d58 <RBUF_CheckFree+0x3c>:
 7822d58:	020c                	movi.n	a2, 0
 7822d5a:	f01d                	retw.n

07822d5c <RBUF_Flush>:
 7822d5c:	004136               	entry	a1, 32
 7822d5f:	005216               	beqz	a2, 7822d68 <RBUF_Flush+0xc>
 7822d62:	24c2a2               	addi	a10, a2, 36
 7822d65:	ffa5a5               	call8	78227c0 <CIRC_BUF_Flush>

07822d68 <RBUF_Flush+0xc>:
 7822d68:	f01d                	retw.n

07822d6a <RBUF_Flush+0xe>:
	...

07822d6c <RBUF_ReadDataDma>:
 7822d6c:	008136               	entry	a1, 64
 7822d6f:	05bd                	mov.n	a11, a5
 7822d71:	0cb216               	beqz	a2, 7822e40 <RBUF_ReadDataDma+0xd4>
 7822d74:	0c0c                	movi.n	a12, 0
 7822d76:	45cc                	bnez.n	a5, 7822d7e <RBUF_ReadDataDma+0x12>
 7822d78:	e288                	l32i.n	a8, a2, 56
 7822d7a:	881b                	addi.n	a8, a8, 1
 7822d7c:	e289                	s32i.n	a8, a2, 56

07822d7e <RBUF_ReadDataDma+0x12>:
 7822d7e:	31c9                	s32i.n	a12, a1, 12
 7822d80:	21c9                	s32i.n	a12, a1, 8
 7822d82:	11c9                	s32i.n	a12, a1, 4
 7822d84:	01c9                	s32i.n	a12, a1, 0
 7822d86:	a2a8                	l32i.n	a10, a2, 40
 7822d88:	0020c0               	memw
 7822d8b:	92c8                	l32i.n	a12, a2, 36
 7822d8d:	0aa8                	l32i.n	a10, a10, 0
 7822d8f:	0020c0               	memw
 7822d92:	0cc8                	l32i.n	a12, a12, 0
 7822d94:	0b8c                	beqz.n	a11, 7822d98 <RBUF_ReadDataDma+0x2c>
 7822d96:	0ba8                	l32i.n	a10, a11, 0
 7822d98:	21a9                	s32i.n	a10, a1, 8
 7822d9a:	d4aa                	add.n	a13, a4, a10
 7822d9c:	103ca7               	bltu	a12, a10, 7822db0 <RBUF_ReadDataDma+0x44>
 7822d9f:	41b9                	s32i.n	a11, a1, 16
 7822da1:	0d000941f0b0ecde 	{ bltu.w18	a12, a13, 7822e44 <RBUF_ReadDataDma+0xd8>; nop }
 7822da9:	0149                	s32i.n	a4, a1, 0
 7822dab:	5149                	s32i.n	a4, a1, 20
 7822dad:	000886               	j	7822dd3 <RBUF_ReadDataDma+0x67>

07822db0 <RBUF_ReadDataDma+0x44>:
 7822db0:	c2e8                	l32i.n	a14, a2, 48
 7822db2:	41b9                	s32i.n	a11, a1, 16
 7822db4:	083ed7               	bltu	a14, a13, 7822dc0 <RBUF_ReadDataDma+0x54>
 7822db7:	0149                	s32i.n	a4, a1, 0
 7822db9:	5149                	s32i.n	a4, a1, 20
 7822dbb:	000506               	j	7822dd3 <RBUF_ReadDataDma+0x67>

07822dbe <RBUF_ReadDataDma+0x52>:
	...

07822dc0 <RBUF_ReadDataDma+0x54>:
 7822dc0:	c08ea0               	sub	a8, a14, a10
 7822dc3:	090c                	movi.n	a9, 0
 7822dc5:	3199                	s32i.n	a9, a1, 12
 7822dc7:	5189                	s32i.n	a8, a1, 20
 7822dc9:	0189                	s32i.n	a8, a1, 0
 7822dcb:	c08480               	sub	a8, a4, a8
 7822dce:	6388c0               	minu	a8, a8, a12
 7822dd1:	1189                	s32i.n	a8, a1, 4
 7822dd3:	51b8                	l32i.n	a11, a1, 20
 7822dd5:	618b                	addi.n	a6, a1, 8
 7822dd7:	8bbc                	beqz.n	a11, 7822e13 <RBUF_ReadDataDma+0xa7>
 7822dd9:	017d                	mov.n	a7, a1
 7822ddb:	0148                	l32i.n	a4, a1, 0
 7822ddd:	c1cb                	addi.n	a12, a1, 12
 7822ddf:	61c9                	s32i.n	a12, a1, 24
 7822de1:	0000c6               	j	7822de8 <RBUF_ReadDataDma+0x7c>

07822de4 <RBUF_ReadDataDma+0x78>:
 7822de4:	0748                	l32i.n	a4, a7, 0
 7822de6:	94ac                	beqz.n	a4, 7822e13 <RBUF_ReadDataDma+0xa7>
 7822de8:	002652               	l32i	a5, a6, 0
 7822deb:	0b22a2               	l32i	a10, a2, 44
 7822dee:	20b440               	or	a11, a4, a4
 7822df1:	80aa50               	add	a10, a10, a5
 7822df4:	0761a2               	s32i	a10, a1, 28
 7822df7:	0ee5a5               	call8	7831c50 <xthal_dcache_region_invalidate>
 7822dfa:	00a316               	beqz	a3, 7822e08 <RBUF_ReadDataDma+0x9c>
 7822dfd:	03ad                	mov.n	a10, a3
 7822dff:	71b8                	l32i.n	a11, a1, 28
 7822e01:	04cd                	mov.n	a12, a4
 7822e03:	0eaaa5               	call8	78318ac <memcpy>
 7822e06:	334a                	add.n	a3, a3, a4
 7822e08:	a54a                	add.n	a10, a5, a4
 7822e0a:	774b                	addi.n	a7, a7, 4
 7822e0c:	61b8                	l32i.n	a11, a1, 24
 7822e0e:	664b                	addi.n	a6, a6, 4
 7822e10:	d0bb67               	bgeu	a11, a6, 7822de4 <RBUF_ReadDataDma+0x78>
 7822e13:	41c8                	l32i.n	a12, a1, 16
 7822e15:	0d0c                	movi.n	a13, 0
 7822e17:	51b8                	l32i.n	a11, a1, 20
 7822e19:	c2e8                	l32i.n	a14, a2, 48
 7822e1b:	1198                	l32i.n	a9, a1, 4
 7822e1d:	c0eea0               	sub	a14, a14, a10
 7822e20:	99ba                	add.n	a9, a9, a11
 7822e22:	83ade0               	moveqz	a10, a13, a14
 7822e25:	1cdc                	bnez.n	a12, 7822e3a <RBUF_ReadDataDma+0xce>
 7822e27:	a2c8                	l32i.n	a12, a2, 40
 7822e29:	0020c0               	memw
 7822e2c:	0ca9                	s32i.n	a10, a12, 0
 7822e2e:	c99c                	beqz.n	a9, 7822e4e <RBUF_ReadDataDma+0xe2>
 7822e30:	d2d8                	l32i.n	a13, a2, 52
 7822e32:	dd9a                	add.n	a13, a13, a9
 7822e34:	d2d9                	s32i.n	a13, a2, 52
 7822e36:	092d                	mov.n	a2, a9
 7822e38:	f01d                	retw.n

07822e3a <RBUF_ReadDataDma+0xce>:
 7822e3a:	0ca9                	s32i.n	a10, a12, 0
 7822e3c:	092d                	mov.n	a2, a9
 7822e3e:	f01d                	retw.n

07822e40 <RBUF_ReadDataDma+0xd4>:
 7822e40:	020c                	movi.n	a2, 0
 7822e42:	f01d                	retw.n

07822e44 <RBUF_ReadDataDma+0xd8>:
 7822e44:	c0fca0               	sub	a15, a12, a10
 7822e47:	51f9                	s32i.n	a15, a1, 20
 7822e49:	01f9                	s32i.n	a15, a1, 0
 7822e4b:	ffe106               	j	7822dd3 <RBUF_ReadDataDma+0x67>

07822e4e <RBUF_ReadDataDma+0xe2>:
 7822e4e:	d2d8                	l32i.n	a13, a2, 52
 7822e50:	f288                	l32i.n	a8, a2, 60
 7822e52:	dd9a                	add.n	a13, a13, a9
 7822e54:	881b                	addi.n	a8, a8, 1
 7822e56:	f289                	s32i.n	a8, a2, 60
 7822e58:	d2d9                	s32i.n	a13, a2, 52
 7822e5a:	092d                	mov.n	a2, a9
 7822e5c:	f01d                	retw.n

07822e5e <RBUF_ReadDataDma+0xf2>:
	...

07822e60 <RBUF_WriteDataDma>:
 7822e60:	008136               	entry	a1, 64
 7822e63:	0c2216               	beqz	a2, 7822f29 <RBUF_WriteDataDma+0xc9>
 7822e66:	1222f2               	l32i	a15, a2, 72
 7822e69:	0a0c                	movi.n	a10, 0
 7822e6b:	11a9                	s32i.n	a10, a1, 4
 7822e6d:	01a9                	s32i.n	a10, a1, 0
 7822e6f:	31a9                	s32i.n	a10, a1, 12
 7822e71:	21a9                	s32i.n	a10, a1, 8
 7822e73:	ff1b                	addi.n	a15, a15, 1
 7822e75:	1262f2               	s32i	a15, a2, 72
 7822e78:	a2e8                	l32i.n	a14, a2, 40
 7822e7a:	0020c0               	memw
 7822e7d:	92c8                	l32i.n	a12, a2, 36
 7822e7f:	0ee8                	l32i.n	a14, a14, 0
 7822e81:	0020c0               	memw
 7822e84:	0cb8                	l32i.n	a11, a12, 0
 7822e86:	21b9                	s32i.n	a11, a1, 8
 7822e88:	d4ba                	add.n	a13, a4, a11
 7822e8a:	123be7               	bltu	a11, a14, 7822ea0 <RBUF_WriteDataDma+0x40>
 7822e8d:	c2e8                	l32i.n	a14, a2, 48
 7822e8f:	0d000a41e0b0eede 	{ bltu.w18	a14, a13, 7822f41 <RBUF_WriteDataDma+0xe1>; nop }
 7822e97:	0149                	s32i.n	a4, a1, 0
 7822e99:	4149                	s32i.n	a4, a1, 16
 7822e9b:	000506               	j	7822eb3 <RBUF_WriteDataDma+0x53>

07822e9e <RBUF_WriteDataDma+0x3e>:
	...

07822ea0 <RBUF_WriteDataDma+0x40>:
 7822ea0:	08bde7               	bgeu	a13, a14, 7822eac <RBUF_WriteDataDma+0x4c>
 7822ea3:	0149                	s32i.n	a4, a1, 0
 7822ea5:	4149                	s32i.n	a4, a1, 16
 7822ea7:	000206               	j	7822eb3 <RBUF_WriteDataDma+0x53>

07822eaa <RBUF_WriteDataDma+0x4a>:
	...

07822eac <RBUF_WriteDataDma+0x4c>:
 7822eac:	c0aeb0               	sub	a10, a14, a11
 7822eaf:	41a9                	s32i.n	a10, a1, 16
 7822eb1:	01a9                	s32i.n	a10, a1, 0
 7822eb3:	41d8                	l32i.n	a13, a1, 16
 7822eb5:	04fd16               	beqz	a13, 7822f08 <RBUF_WriteDataDma+0xa8>
 7822eb8:	016d                	mov.n	a6, a1
 7822eba:	518b                	addi.n	a5, a1, 8
 7822ebc:	0148                	l32i.n	a4, a1, 0
 7822ebe:	e1cb                	addi.n	a14, a1, 12
 7822ec0:	51e9                	s32i.n	a14, a1, 20
 7822ec2:	0b2272               	l32i	a7, a2, 44
 7822ec5:	002582               	l32i	a8, a5, 0
 7822ec8:	066182               	s32i	a8, a1, 24
 7822ecb:	778a                	add.n	a7, a7, a8
 7822ecd:	b3cc                	bnez.n	a3, 7822edc <RBUF_WriteDataDma+0x7c>
 7822ecf:	07ad                	mov.n	a10, a7
 7822ed1:	0b0c                	movi.n	a11, 0
 7822ed3:	04cd                	mov.n	a12, a4
 7822ed5:	0ec565               	call8	7831b2c <memset>
 7822ed8:	000386               	j	7822eea <RBUF_WriteDataDma+0x8a>

07822edb <RBUF_WriteDataDma+0x7b>:
	...

07822edc <RBUF_WriteDataDma+0x7c>:
 7822edc:	20a770               	or	a10, a7, a7
 7822edf:	20b330               	or	a11, a3, a3
 7822ee2:	20c440               	or	a12, a4, a4
 7822ee5:	0e9c65               	call8	78318ac <memcpy>
 7822ee8:	334a                	add.n	a3, a3, a4
 7822eea:	20a770               	or	a10, a7, a7
 7822eed:	20b440               	or	a11, a4, a4
 7822ef0:	0ed7e5               	call8	7831c70 <xthal_dcache_region_writeback>
 7822ef3:	04c662               	addi	a6, a6, 4
 7822ef6:	554b                	addi.n	a5, a5, 4
 7822ef8:	61b8                	l32i.n	a11, a1, 24
 7822efa:	5198                	l32i.n	a9, a1, 20
 7822efc:	bb4a                	add.n	a11, a11, a4
 7822efe:	043957               	bltu	a9, a5, 7822f06 <RBUF_WriteDataDma+0xa6>
 7822f01:	0648                	l32i.n	a4, a6, 0
 7822f03:	fbb456               	bnez	a4, 7822ec2 <RBUF_WriteDataDma+0x62>
 7822f06:	92c8                	l32i.n	a12, a2, 36
 7822f08:	c2d8                	l32i.n	a13, a2, 48
 7822f0a:	023bd7               	bltu	a11, a13, 7822f10 <RBUF_WriteDataDma+0xb0>
 7822f0d:	00a0b2               	movi	a11, 0
 7822f10:	0020c0               	memw
 7822f13:	41a8                	l32i.n	a10, a1, 16
 7822f15:	1198                	l32i.n	a9, a1, 4
 7822f17:	0cb9                	s32i.n	a11, a12, 0
 7822f19:	99aa                	add.n	a9, a9, a10
 7822f1b:	e98c                	beqz.n	a9, 7822f2d <RBUF_WriteDataDma+0xcd>
 7822f1d:	1122b2               	l32i	a11, a2, 68
 7822f20:	bb9a                	add.n	a11, a11, a9
 7822f22:	1162b2               	s32i	a11, a2, 68
 7822f25:	092d                	mov.n	a2, a9
 7822f27:	f01d                	retw.n

07822f29 <RBUF_WriteDataDma+0xc9>:
 7822f29:	042d                	mov.n	a2, a4
 7822f2b:	f01d                	retw.n

07822f2d <RBUF_WriteDataDma+0xcd>:
 7822f2d:	1122c2               	l32i	a12, a2, 68
 7822f30:	1322d2               	l32i	a13, a2, 76
 7822f33:	cc9a                	add.n	a12, a12, a9
 7822f35:	dd1b                	addi.n	a13, a13, 1
 7822f37:	1362d2               	s32i	a13, a2, 76
 7822f3a:	1162c2               	s32i	a12, a2, 68
 7822f3d:	092d                	mov.n	a2, a9
 7822f3f:	f01d                	retw.n

07822f41 <RBUF_WriteDataDma+0xe1>:
 7822f41:	31a9                	s32i.n	a10, a1, 12
 7822f43:	c0feb0               	sub	a15, a14, a11
 7822f46:	41f9                	s32i.n	a15, a1, 16
 7822f48:	01f9                	s32i.n	a15, a1, 0
 7822f4a:	c084f0               	sub	a8, a4, a15
 7822f4d:	1189                	s32i.n	a8, a1, 4
 7822f4f:	ffd806               	j	7822eb3 <RBUF_WriteDataDma+0x53>

07822f52 <RBUF_WriteDataDma+0xf2>:
	...

07822f54 <RBUF_CopyData>:
 7822f54:	00a136               	entry	a1, 80
 7822f57:	0fe216               	beqz	a2, 7823059 <RBUF_CopyData+0x105>
 7822f5a:	0fb316               	beqz	a3, 7823059 <RBUF_CopyData+0x105>
 7822f5d:	080c                	movi.n	a8, 0
 7822f5f:	2189                	s32i.n	a8, a1, 8
 7822f61:	3189                	s32i.n	a8, a1, 12
 7822f63:	0189                	s32i.n	a8, a1, 0
 7822f65:	1189                	s32i.n	a8, a1, 4
 7822f67:	a278                	l32i.n	a7, a2, 40
 7822f69:	0020c0               	memw
 7822f6c:	9368                	l32i.n	a6, a3, 36
 7822f6e:	07d8                	l32i.n	a13, a7, 0
 7822f70:	0020c0               	memw
 7822f73:	b3a8                	l32i.n	a10, a3, 44
 7822f75:	b2b8                	l32i.n	a11, a2, 44
 7822f77:	06c8                	l32i.n	a12, a6, 0
 7822f79:	0020c0               	memw
 7822f7c:	0778                	l32i.n	a7, a7, 0
 7822f7e:	92e8                	l32i.n	a14, a2, 36
 7822f80:	0020c0               	memw
 7822f83:	0ee8                	l32i.n	a14, a14, 0
 7822f85:	f47a                	add.n	a15, a4, a7
 7822f87:	153e77               	bltu	a14, a7, 7822fa0 <RBUF_CopyData+0x4c>
 7822f8a:	91b9                	s32i.n	a11, a1, 36
 7822f8c:	81a9                	s32i.n	a10, a1, 32
 7822f8e:	61c9                	s32i.n	a12, a1, 24
 7822f90:	0d00124140b0eefe 	{ bltu.w18	a14, a15, 78230b8 <RBUF_CopyData+0x164>; nop }
 7822f98:	0149                	s32i.n	a4, a1, 0
 7822f9a:	047d                	mov.n	a7, a4
 7822f9c:	000506               	j	7822fb4 <RBUF_CopyData+0x60>

07822f9f <RBUF_CopyData+0x4b>:
	...

07822fa0 <RBUF_CopyData+0x4c>:
 7822fa0:	91b9                	s32i.n	a11, a1, 36
 7822fa2:	81a9                	s32i.n	a10, a1, 32
 7822fa4:	c298                	l32i.n	a9, a2, 48
 7822fa6:	61c9                	s32i.n	a12, a1, 24
 7822fa8:	0d00114150b0e9fe 	{ bltu.w18	a9, a15, 78230c1 <RBUF_CopyData+0x16d>; nop }
 7822fb0:	0149                	s32i.n	a4, a1, 0
 7822fb2:	047d                	mov.n	a7, a4
 7822fb4:	1e0c                	movi.n	a14, 1
 7822fb6:	a3f8                	l32i.n	a15, a3, 40
 7822fb8:	0020c0               	memw
 7822fbb:	0ff8                	l32i.n	a15, a15, 0
 7822fbd:	0020c0               	memw
 7822fc0:	0668                	l32i.n	a6, a6, 0
 7822fc2:	81b8                	l32i.n	a11, a1, 32
 7822fc4:	c46a                	add.n	a12, a4, a6
 7822fc6:	1036f7               	bltu	a6, a15, 7822fda <RBUF_CopyData+0x86>
 7822fc9:	c3f8                	l32i.n	a15, a3, 48
 7822fcb:	0d00104160b0efce 	{ bltu.w18	a15, a12, 78230d5 <RBUF_CopyData+0x181>; nop }
 7822fd3:	2149                	s32i.n	a4, a1, 8
 7822fd5:	046d                	mov.n	a6, a4
 7822fd7:	0001c6               	j	7822fe2 <RBUF_CopyData+0x8e>

07822fda <RBUF_CopyData+0x86>:
 7822fda:	f53cf7               	bltu	a12, a15, 7822fd3 <RBUF_CopyData+0x7f>
 7822fdd:	c06f60               	sub	a6, a15, a6
 7822fe0:	2169                	s32i.n	a6, a1, 8
 7822fe2:	71d9                	s32i.n	a13, a1, 28
 7822fe4:	0d401641a0b01e0e 	{ beqi.w18	a14, 1, 7823152 <RBUF_CopyData+0x1fe>; nop }
 7822fec:	0d40184100b02e0e 	{ beqi.w18	a14, 2, 7823170 <RBUF_CopyData+0x21c>; nop }
 7822ff4:	61a8                	l32i.n	a10, a1, 24
 7822ff6:	aaba                	add.n	a10, a10, a11
 7822ff8:	91b8                	l32i.n	a11, a1, 36
 7822ffa:	bdba                	add.n	a11, a13, a11
 7822ffc:	0d00114160b0867e 	{ beq.w18	a6, a7, 7823116 <RBUF_CopyData+0x1c2>; nop }
 7823004:	71d9                	s32i.n	a13, a1, 28
 7823006:	54b677               	bgeu	a6, a7, 782305e <RBUF_CopyData+0x10a>
 7823009:	06cd                	mov.n	a12, a6
 782300b:	05dd                	mov.n	a13, a5
 782300d:	ff7c65               	call8	78227d4 <dsp_memcpy>
 7823010:	81a8                	l32i.n	a10, a1, 32
 7823012:	05dd                	mov.n	a13, a5
 7823014:	c07760               	sub	a7, a7, a6
 7823017:	71b8                	l32i.n	a11, a1, 28
 7823019:	91c8                	l32i.n	a12, a1, 36
 782301b:	bb6a                	add.n	a11, a11, a6
 782301d:	bbca                	add.n	a11, a11, a12
 782301f:	07cd                	mov.n	a12, a7
 7823021:	ff7b25               	call8	78227d4 <dsp_memcpy>
 7823024:	91b8                	l32i.n	a11, a1, 36
 7823026:	05dd                	mov.n	a13, a5
 7823028:	81a8                	l32i.n	a10, a1, 32
 782302a:	1168                	l32i.n	a6, a1, 4
 782302c:	a7aa                	add.n	a10, a7, a10
 782302e:	06cd                	mov.n	a12, a6
 7823030:	ff7a25               	call8	78227d4 <dsp_memcpy>
 7823033:	a2d8                	l32i.n	a13, a2, 40
 7823035:	0e0c                	movi.n	a14, 0
 7823037:	c288                	l32i.n	a8, a2, 48
 7823039:	c3f8                	l32i.n	a15, a3, 48
 782303b:	b76a                	add.n	a11, a7, a6
 782303d:	c0ffb0               	sub	a15, a15, a11
 7823040:	c08860               	sub	a8, a8, a6
 7823043:	836e80               	moveqz	a6, a14, a8
 7823046:	83bef0               	moveqz	a11, a14, a15
 7823049:	0020c0               	memw
 782304c:	0d69                	s32i.n	a6, a13, 0
 782304e:	93c8                	l32i.n	a12, a3, 36
 7823050:	0020c0               	memw
 7823053:	0cb9                	s32i.n	a11, a12, 0
 7823055:	042d                	mov.n	a2, a4
 7823057:	f01d                	retw.n

07823059 <RBUF_CopyData+0x105>:
 7823059:	020c                	movi.n	a2, 0
 782305b:	f01d                	retw.n

0782305d <RBUF_CopyData+0x109>:
	...

0782305e <RBUF_CopyData+0x10a>:
 782305e:	07cd                	mov.n	a12, a7
 7823060:	05dd                	mov.n	a13, a5
 7823062:	ff7725               	call8	78227d4 <dsp_memcpy>
 7823065:	05dd                	mov.n	a13, a5
 7823067:	81b8                	l32i.n	a11, a1, 32
 7823069:	61a8                	l32i.n	a10, a1, 24
 782306b:	c0c670               	sub	a12, a6, a7
 782306e:	a1c9                	s32i.n	a12, a1, 40
 7823070:	aa7a                	add.n	a10, a10, a7
 7823072:	aaba                	add.n	a10, a10, a11
 7823074:	91b8                	l32i.n	a11, a1, 36
 7823076:	ff75e5               	call8	78227d4 <dsp_memcpy>
 7823079:	81a8                	l32i.n	a10, a1, 32
 782307b:	05dd                	mov.n	a13, a5
 782307d:	91c8                	l32i.n	a12, a1, 36
 782307f:	a1b8                	l32i.n	a11, a1, 40
 7823081:	3168                	l32i.n	a6, a1, 12
 7823083:	bbca                	add.n	a11, a11, a12
 7823085:	06cd                	mov.n	a12, a6
 7823087:	ff74e5               	call8	78227d4 <dsp_memcpy>
 782308a:	a178                	l32i.n	a7, a1, 40
 782308c:	6169                	s32i.n	a6, a1, 24
 782308e:	776a                	add.n	a7, a7, a6
 7823090:	a2a8                	l32i.n	a10, a2, 40
 7823092:	0b0c                	movi.n	a11, 0
 7823094:	6188                	l32i.n	a8, a1, 24
 7823096:	c2c8                	l32i.n	a12, a2, 48
 7823098:	c3d8                	l32i.n	a13, a3, 48
 782309a:	c0cc70               	sub	a12, a12, a7
 782309d:	c0dd80               	sub	a13, a13, a8
 78230a0:	837bc0               	moveqz	a7, a11, a12
 78230a3:	838bd0               	moveqz	a8, a11, a13
 78230a6:	0020c0               	memw
 78230a9:	0a79                	s32i.n	a7, a10, 0
 78230ab:	9398                	l32i.n	a9, a3, 36
 78230ad:	0020c0               	memw
 78230b0:	0989                	s32i.n	a8, a9, 0
 78230b2:	042d                	mov.n	a2, a4
 78230b4:	f01d                	retw.n

078230b6 <RBUF_CopyData+0x162>:
	...

078230b8 <RBUF_CopyData+0x164>:
 78230b8:	c07e70               	sub	a7, a14, a7
 78230bb:	0179                	s32i.n	a7, a1, 0
 78230bd:	ffbcc6               	j	7822fb4 <RBUF_CopyData+0x60>

078230c0 <RBUF_CopyData+0x16c>:
	...

078230c1 <RBUF_CopyData+0x16d>:
 78230c1:	c07970               	sub	a7, a9, a7
 78230c4:	0179                	s32i.n	a7, a1, 0
 78230c6:	c0f470               	sub	a15, a4, a7
 78230c9:	11f9                	s32i.n	a15, a1, 4
 78230cb:	01bef7               	bgeu	a14, a15, 78230d0 <RBUF_CopyData+0x17c>
 78230ce:	11e9                	s32i.n	a14, a1, 4
 78230d0:	2e0c                	movi.n	a14, 2
 78230d2:	ffb806               	j	7822fb6 <RBUF_CopyData+0x62>

078230d5 <RBUF_CopyData+0x181>:
 78230d5:	71d9                	s32i.n	a13, a1, 28
 78230d7:	c06f60               	sub	a6, a15, a6
 78230da:	2169                	s32i.n	a6, a1, 8
 78230dc:	c09460               	sub	a9, a4, a6
 78230df:	5199                	s32i.n	a9, a1, 20
 78230e1:	3199                	s32i.n	a9, a1, 12
 78230e3:	0d7ff041d0b01ece 	{ bnei.w18	a14, 1, 7822ff4 <RBUF_CopyData+0xa0>; nop }
 78230eb:	81b8                	l32i.n	a11, a1, 32
 78230ed:	61a8                	l32i.n	a10, a1, 24
 78230ef:	06cd                	mov.n	a12, a6
 78230f1:	aaba                	add.n	a10, a10, a11
 78230f3:	91b8                	l32i.n	a11, a1, 36
 78230f5:	0d7d                	mov.n	a7, a13
 78230f7:	bdba                	add.n	a11, a13, a11
 78230f9:	05dd                	mov.n	a13, a5
 78230fb:	ff6da5               	call8	78227d4 <dsp_memcpy>
 78230fe:	81a8                	l32i.n	a10, a1, 32
 7823100:	51c8                	l32i.n	a12, a1, 20
 7823102:	05dd                	mov.n	a13, a5
 7823104:	91b8                	l32i.n	a11, a1, 36
 7823106:	776a                	add.n	a7, a7, a6
 7823108:	b7ba                	add.n	a11, a7, a11
 782310a:	ff6ca5               	call8	78227d4 <dsp_memcpy>
 782310d:	51c8                	l32i.n	a12, a1, 20
 782310f:	61c9                	s32i.n	a12, a1, 24
 7823111:	77ca                	add.n	a7, a7, a12
 7823113:	ffde46               	j	7823090 <RBUF_CopyData+0x13c>

07823116 <RBUF_CopyData+0x1c2>:
 7823116:	06cd                	mov.n	a12, a6
 7823118:	05dd                	mov.n	a13, a5
 782311a:	ff6ba5               	call8	78227d4 <dsp_memcpy>
 782311d:	05dd                	mov.n	a13, a5
 782311f:	81a8                	l32i.n	a10, a1, 32
 7823121:	91b8                	l32i.n	a11, a1, 36
 7823123:	31c8                	l32i.n	a12, a1, 12
 7823125:	51c9                	s32i.n	a12, a1, 20
 7823127:	ff6ae5               	call8	78227d4 <dsp_memcpy>
 782312a:	0b0c                	movi.n	a11, 0
 782312c:	c3d8                	l32i.n	a13, a3, 48
 782312e:	c2c8                	l32i.n	a12, a2, 48
 7823130:	a2a8                	l32i.n	a10, a2, 40
 7823132:	5178                	l32i.n	a7, a1, 20
 7823134:	042d                	mov.n	a2, a4
 7823136:	078d                	mov.n	a8, a7
 7823138:	c0cc70               	sub	a12, a12, a7
 782313b:	c0dd70               	sub	a13, a13, a7
 782313e:	838bd0               	moveqz	a8, a11, a13
 7823141:	837bc0               	moveqz	a7, a11, a12
 7823144:	0020c0               	memw
 7823147:	0a79                	s32i.n	a7, a10, 0
 7823149:	9398                	l32i.n	a9, a3, 36
 782314b:	0020c0               	memw
 782314e:	0989                	s32i.n	a8, a9, 0
 7823150:	f01d                	retw.n

07823152 <RBUF_CopyData+0x1fe>:
 7823152:	81b8                	l32i.n	a11, a1, 32
 7823154:	61a8                	l32i.n	a10, a1, 24
 7823156:	04cd                	mov.n	a12, a4
 7823158:	aaba                	add.n	a10, a10, a11
 782315a:	91b8                	l32i.n	a11, a1, 36
 782315c:	0d7d                	mov.n	a7, a13
 782315e:	bdba                	add.n	a11, a13, a11
 7823160:	05dd                	mov.n	a13, a5
 7823162:	ff6725               	call8	78227d4 <dsp_memcpy>
 7823165:	61c8                	l32i.n	a12, a1, 24
 7823167:	747a                	add.n	a7, a4, a7
 7823169:	c4ca                	add.n	a12, a4, a12
 782316b:	61c9                	s32i.n	a12, a1, 24
 782316d:	ffc7c6               	j	7823090 <RBUF_CopyData+0x13c>

07823170 <RBUF_CopyData+0x21c>:
 7823170:	81c8                	l32i.n	a12, a1, 32
 7823172:	91b8                	l32i.n	a11, a1, 36
 7823174:	61a8                	l32i.n	a10, a1, 24
 7823176:	bdba                	add.n	a11, a13, a11
 7823178:	aaca                	add.n	a10, a10, a12
 782317a:	05dd                	mov.n	a13, a5
 782317c:	07cd                	mov.n	a12, a7
 782317e:	ff6565               	call8	78227d4 <dsp_memcpy>
 7823181:	05dd                	mov.n	a13, a5
 7823183:	81a8                	l32i.n	a10, a1, 32
 7823185:	1168                	l32i.n	a6, a1, 4
 7823187:	61b8                	l32i.n	a11, a1, 24
 7823189:	06cd                	mov.n	a12, a6
 782318b:	7b7a                	add.n	a7, a11, a7
 782318d:	a7aa                	add.n	a10, a7, a10
 782318f:	91b8                	l32i.n	a11, a1, 36
 7823191:	ff6425               	call8	78227d4 <dsp_memcpy>
 7823194:	c76a                	add.n	a12, a7, a6
 7823196:	61c9                	s32i.n	a12, a1, 24
 7823198:	067d                	mov.n	a7, a6
 782319a:	ffbc86               	j	7823090 <RBUF_CopyData+0x13c>

0782319d <RBUF_CopyData+0x249>:
 782319d:	000000                                        ...

078231a0 <RBUF_GetCompressInfo>:
 78231a0:	004136               	entry	a1, 32
 78231a3:	0a0c                	movi.n	a10, 0
 78231a5:	08d216               	beqz	a2, 7823236 <RBUF_GetCompressInfo+0x96>
 78231a8:	0a7d                	mov.n	a7, a10
 78231aa:	b2d8                	l32i.n	a13, a2, 44
 78231ac:	a2b8                	l32i.n	a11, a2, 40
 78231ae:	0020c0               	memw
 78231b1:	0bb8                	l32i.n	a11, a11, 0
 78231b3:	c288                	l32i.n	a8, a2, 48
 78231b5:	5dba                	add.n	a5, a13, a11
 78231b7:	0015c2               	l16ui	a12, a5, 0
 78231ba:	bb2b                	addi.n	a11, a11, 2
 78231bc:	01bb87               	bgeu	a11, a8, 78231c1 <RBUF_GetCompressInfo+0x21>
 78231bf:	0b7d                	mov.n	a7, a11

078231c1 <RBUF_GetCompressInfo+0x21>:
 78231c1:	06fc16               	beqz	a12, 7823234 <RBUF_GetCompressInfo+0x94>
 78231c4:	f81db1               	l32r	a11, 7821238 <_stext+0xf8>
 78231c7:	806d70               	add	a6, a13, a7
 78231ca:	051cb7               	beq	a12, a11, 78231d3 <RBUF_GetCompressInfo+0x33>
 78231cd:	0016d2               	l16ui	a13, a6, 0
 78231d0:	603dc7               	bltu	a13, a12, 7823234 <RBUF_GetCompressInfo+0x94>
 78231d3:	20a550               	or	a10, a5, a5
 78231d6:	02a0b2               	movi	a11, 2
 78231d9:	0ea765               	call8	7831c50 <xthal_dcache_region_invalidate>
 78231dc:	20a660               	or	a10, a6, a6
 78231df:	02a0b2               	movi	a11, 2
 78231e2:	0015e2               	l16ui	a14, a5, 0
 78231e5:	0063e2               	s32i	a14, a3, 0
 78231e8:	0ea665               	call8	7831c50 <xthal_dcache_region_invalidate>
 78231eb:	f81381               	l32r	a8, 7821238 <_stext+0xf8>
 78231ee:	0015f2               	l16ui	a15, a5, 0
 78231f1:	0016c2               	l16ui	a12, a6, 0
 78231f4:	159f87               	bne	a15, a8, 782320d <RBUF_GetCompressInfo+0x6d>
 78231f7:	0a0c                	movi.n	a10, 0
 78231f9:	03a9                	s32i.n	a10, a3, 0
 78231fb:	04c9                	s32i.n	a12, a4, 0
 78231fd:	c298                	l32i.n	a9, a2, 48
 78231ff:	b72b                	addi.n	a11, a7, 2
 7823201:	37bb97               	bgeu	a11, a9, 782323c <RBUF_GetCompressInfo+0x9c>
 7823204:	a2c8                	l32i.n	a12, a2, 40
 7823206:	0020c0               	memw
 7823209:	0cb9                	s32i.n	a11, a12, 0
 782320b:	f01d                	retw.n

0782320d <RBUF_GetCompressInfo+0x6d>:
 782320d:	20a550               	or	a10, a5, a5
 7823210:	02a0b2               	movi	a11, 2
 7823213:	0023e2               	l32i	a14, a3, 0
 7823216:	f809d1               	l32r	a13, 782123c <_stext+0xfc>
 7823219:	c0ece0               	sub	a14, a12, a14
 782321c:	0064e2               	s32i	a14, a4, 0
 782321f:	0055d2               	s16i	a13, a5, 0
 7823222:	0ea4e5               	call8	7831c70 <xthal_dcache_region_writeback>
 7823225:	20a660               	or	a10, a6, a6
 7823228:	02a0b2               	movi	a11, 2
 782322b:	f805f1               	l32r	a15, 7821240 <_stext+0x100>
 782322e:	0056f2               	s16i	a15, a6, 0
 7823231:	0ea3e5               	call8	7831c70 <xthal_dcache_region_writeback>
 7823234:	f01d                	retw.n

07823236 <RBUF_GetCompressInfo+0x96>:
 7823236:	03a9                	s32i.n	a10, a3, 0
 7823238:	04a9                	s32i.n	a10, a4, 0
 782323a:	f01d                	retw.n

0782323c <RBUF_GetCompressInfo+0x9c>:
 782323c:	a298                	l32i.n	a9, a2, 40
 782323e:	0020c0               	memw
 7823241:	080c                	movi.n	a8, 0
 7823243:	0989                	s32i.n	a8, a9, 0
 7823245:	f01d                	retw.n

07823247 <RBUF_GetCompressInfo+0xa7>:
	...

07823248 <RBUF_UpdateAttr>:
 7823248:	004136               	entry	a1, 32
 782324b:	928c                	beqz.n	a2, 7823258 <RBUF_UpdateAttr+0x10>
 782324d:	7348                	l32i.n	a4, a3, 28
 782324f:	8388                	l32i.n	a8, a3, 32
 7823251:	8289                	s32i.n	a8, a2, 32
 7823253:	7249                	s32i.n	a4, a2, 28
 7823255:	f01d                	retw.n

07823257 <RBUF_UpdateAttr+0xf>:
	...

07823258 <RBUF_UpdateAttr+0x10>:
 7823258:	f01d                	retw.n

0782325a <RBUF_UpdateAttr+0x12>:
 782325a:	00000000 41360000                                ......

07823260 <sampler_to_dB_calc>:
 7823260:	004136               	entry	a1, 32
 7823263:	3c0234               	ae_movda32	aed0, a2
 7823266:	2b0304               	ae_abs32s	aed0, aed0
 7823269:	2520c4               	ae_movad32.l	a2, aed0
 782326c:	f7f681               	l32r	a8, 7821244 <_stext+0x104>
 782326f:	0d400c4180b0126e 	{ blti.w18	a2, 1, 782333b <sampler_to_dB_calc+0xdb>; nop }
 7823277:	400001114503b24e 	{ ae_movda32	aed3, a2; nop; movi	a11, 20 }
 782327f:	2563f4               	ae_nsaz32.l	a6, aed3
 7823282:	991c                	movi.n	a9, 25
 7823284:	23a680               	sext	a10, a6, 15
 7823287:	051a04               	ae_slaa32s	aed1, aed0, a10
 782328a:	822914               	ae_sraa32s	aed2, aed1, a9
 782328d:	2552c4               	ae_movad32.l	a5, aed2
 7823290:	f7ee41               	l32r	a4, 7821248 <_stext+0x108>
 7823293:	a05580               	addx4	a5, a5, a8
 7823296:	7f2552               	l32i	a5, a5, 0x1fc
 7823299:	2521c4               	ae_movad32.l	a2, aed1
 782329c:	104540               	and	a4, a5, a4
 782329f:	0d40094110b0126e 	{ blti.w18	a2, 1, 7823334 <sampler_to_dB_calc+0xd4>; nop }
 78232a7:	238580               	sext	a8, a5, 15
 78232aa:	e49a20               	extui	a9, a2, 10, 15
 78232ad:	400001b54478398e 	{ ae_movda16	aed8, a9; nop; ae_movda16	aed7, a8 }
 78232b5:	eb5cdd080706259f 	{ nop; ae_mulf16ss.00	aed6, aed7, aed8; nop }
 78232bd:	3c5434               	ae_movda32	aed5, a4
 78232c0:	ebf3400605041e4f 	{ movi	a4, 30; ae_sub32s	aed4, aed5, aed6; nop }
 78232c8:	2524c4               	ae_movad32.l	a2, aed4
 78232cb:	c04460               	sub	a4, a4, a6
 78232ce:	312020               	srai	a2, a2, 16

078232d1 <sampler_to_dB_calc+0x71>:
 78232d1:	280c                	movi.n	a8, 2
 78232d3:	239280               	sext	a9, a2, 15
 78232d6:	233480               	sext	a3, a4, 15
 78232d9:	d20c                	movi.n	a2, 13
 78232db:	4000001145f2393e 	{ ae_movda32	aed2, a9; nop; addi	a3, a3, -15 }
 78232e3:	821824               	ae_sraa32s	aed1, aed2, a8
 78232e6:	400001754550f31e 	{ ae_movda32	aed0, a3; nop; ae_movad32.l	a15, aed1 }
 78232ee:	05f204               	ae_slaa32s	aed15, aed0, a2
 78232f1:	25efc4               	ae_movad32.l	a14, aed15
 78232f4:	eefa                	add.n	a14, a14, a15
 78232f6:	b0fee0               	addx8	a15, a14, a14
 78232f9:	90ffe0               	addx2	a15, a15, a14
 78232fc:	a0ffe0               	addx4	a15, a15, a14
 78232ff:	11ffc0               	slli	a15, a15, 4
 7823302:	eefa                	add.n	a14, a14, a15
 7823304:	11eef0               	slli	a14, a14, 1
 7823307:	40000101450edefe 	{ ae_movda32	aed14, a14; nop; movi	a13, 15 }
 782330f:	82dde4               	ae_sraa32s	aed13, aed14, a13
 7823312:	25cd84               	ae_movad16.0	a12, aed13
 7823315:	400001b544cb3bce 	{ ae_movda16	aed11, a11; nop; ae_movda16	aed12, a12 }
 782331d:	eb5cdd0c0b0a259f 	{ nop; ae_mulf16ss.00	aed10, aed11, aed12; nop }
 7823325:	ca0c                	movi.n	a10, 12
 7823327:	0d80194190b0caae 	{ ae_sraa32rs	aed9, aed10, a10; nop }
 782332f:	2529c4               	ae_movad32.l	a2, aed9
 7823332:	f01d                	retw.n

07823334 <sampler_to_dB_calc+0xd4>:
 7823334:	040c                	movi.n	a4, 0
 7823336:	020c                	movi.n	a2, 0
 7823338:	ffe546               	j	78232d1 <sampler_to_dB_calc+0x71>

0782333b <sampler_to_dB_calc+0xdb>:
 782333b:	491c                	movi.n	a9, 20
 782333d:	f7c3a1               	l32r	a10, 782124c <_stext+0x10c>
 7823340:	400001b544563a9e 	{ ae_movda16	aed6, a10; nop; ae_movda16	aed5, a9 }
 7823348:	eb5cdd060504259f 	{ nop; ae_mulf16ss.00	aed4, aed5, aed6; nop }
 7823350:	c80c                	movi.n	a8, 12
 7823352:	0d80194130b0c84e 	{ ae_sraa32rs	aed3, aed4, a8; nop }
 782335a:	2523c4               	ae_movad32.l	a2, aed3
 782335d:	f01d                	retw.n

0782335f <sampler_to_dB_calc+0xff>:
	...

07823360 <UTIL_CalcFrameSize>:
 7823360:	004136               	entry	a1, 32
 7823363:	04b326               	beqi	a3, 16, 782336b <UTIL_CalcFrameSize+0xb>
 7823366:	1122e0               	slli	a2, a2, 2
 7823369:	f01d                	retw.n

0782336b <UTIL_CalcFrameSize+0xb>:
 782336b:	1122f0               	slli	a2, a2, 1
 782336e:	f01d                	retw.n

07823370 <UTIL_LatencyMs2ByteSize>:
 7823370:	004136               	entry	a1, 32
 7823373:	20b440               	or	a11, a4, a4
 7823376:	02ad                	mov.n	a10, a2
 7823378:	0e2a65               	call8	7831620 <__mulsi3>
 782337b:	e8a3b2               	movi	a11, 0x3e8
 782337e:	0e3d25               	call8	7831750 <__udivsi3>
 7823381:	0abd                	mov.n	a11, a10
 7823383:	03ad                	mov.n	a10, a3
 7823385:	bb1b                	addi.n	a11, a11, 1
 7823387:	0e29a5               	call8	7831620 <__mulsi3>
 782338a:	0a2d                	mov.n	a2, a10
 782338c:	f01d                	retw.n

0782338e <UTIL_LatencyMs2ByteSize+0x1e>:
	...

07823390 <UTIL_LatencyMs>:
 7823390:	004136               	entry	a1, 32
 7823393:	20b440               	or	a11, a4, a4
 7823396:	20a330               	or	a10, a3, a3
 7823399:	0e2865               	call8	7831620 <__mulsi3>
 782339c:	20baa0               	or	a11, a10, a10
 782339f:	1182b0               	slli	a8, a2, 5
 78233a2:	c08820               	sub	a8, a8, a2
 78233a5:	a08820               	addx4	a8, a8, a2
 78233a8:	11a8d0               	slli	a10, a8, 3
 78233ab:	0e3a65               	call8	7831750 <__udivsi3>
 78233ae:	0a2d                	mov.n	a2, a10
 78233b0:	f01d                	retw.n

078233b2 <UTIL_LatencyMs+0x22>:
 78233b2:	000000                                        ...

078233b5 <UTIL_LatencyMs+0x25>:
 78233b5:	000000                                        ...

078233b8 <UTIL_LRLinearGainProcess>:
 78233b8:	006136               	entry	a1, 48
 78233bb:	2c9567               	bne	a5, a6, 78233eb <UTIL_LRLinearGainProcess+0x33>
 78233be:	7614a6               	blti	a4, 1, 7823438 <UTIL_LRLinearGainProcess+0x80>
 78233c1:	904420               	addx2	a4, a4, a2
 78233c4:	116500               	slli	a6, a5, 16
 78233c7:	317f60               	srai	a7, a6, 31

078233ca <UTIL_LRLinearGainProcess+0x12>:
 78233ca:	20d770               	or	a13, a7, a7
 78233cd:	0092a2               	l16si	a10, a2, 0
 78233d0:	20c660               	or	a12, a6, a6
 78233d3:	31bfa0               	srai	a11, a10, 31
 78233d6:	0725a5               	call8	782a630 <__muldi3>
 78233d9:	118bf0               	slli	a8, a11, 1
 78233dc:	02c222               	addi	a2, a2, 2
 78233df:	005382               	s16i	a8, a3, 0
 78233e2:	332b                	addi.n	a3, a3, 2
 78233e4:	e29247               	bne	a2, a4, 78233ca <UTIL_LRLinearGainProcess+0x12>
 78233e7:	f01d                	retw.n

078233e9 <UTIL_LRLinearGainProcess+0x31>:
	...

078233eb <UTIL_LRLinearGainProcess+0x33>:
 78233eb:	4914a6               	blti	a4, 1, 7823438 <UTIL_LRLinearGainProcess+0x80>
 78233ee:	119600               	slli	a9, a6, 16
 78233f1:	116500               	slli	a6, a5, 16
 78233f4:	1199                	s32i.n	a9, a1, 4
 78233f6:	050c                	movi.n	a5, 0
 78233f8:	317f60               	srai	a7, a6, 31
 78233fb:	319f90               	srai	a9, a9, 31
 78233fe:	0199                	s32i.n	a9, a1, 0
 7823400:	0092c2               	l16si	a12, a2, 0
 7823403:	31dfc0               	srai	a13, a12, 31
 7823406:	116507               	bbci	a5, 0, 782341b <UTIL_LRLinearGainProcess+0x63>
 7823409:	01b8                	l32i.n	a11, a1, 0
 782340b:	11a8                	l32i.n	a10, a1, 4
 782340d:	072225               	call8	782a630 <__muldi3>
 7823410:	11cbf0               	slli	a12, a11, 1
 7823413:	000546               	j	782342c <UTIL_LRLinearGainProcess+0x74>

07823416 <UTIL_LRLinearGainProcess+0x5e>:
 7823416:	000000                                        ...

07823419 <UTIL_LRLinearGainProcess+0x61>:
	...

0782341b <UTIL_LRLinearGainProcess+0x63>:
 782341b:	20bdd0               	or	a11, a13, a13
 782341e:	20acc0               	or	a10, a12, a12
 7823421:	20d770               	or	a13, a7, a7
 7823424:	06cd                	mov.n	a12, a6
 7823426:	0720a5               	call8	782a630 <__muldi3>
 7823429:	11cbf0               	slli	a12, a11, 1
 782342c:	222b                	addi.n	a2, a2, 2
 782342e:	0053c2               	s16i	a12, a3, 0
 7823431:	551b                	addi.n	a5, a5, 1
 7823433:	332b                	addi.n	a3, a3, 2
 7823435:	c79457               	bne	a4, a5, 7823400 <UTIL_LRLinearGainProcess+0x48>
 7823438:	f01d                	retw.n

0782343a <UTIL_LRLinearGainProcess+0x82>:
	...

0782343c <UTIL_UpmixPcmData>:
 782343c:	004136               	entry	a1, 32
 782343f:	34b8                	l32i.n	a11, a4, 12
 7823441:	881c                	movi.n	a8, 24
 7823443:	511b87               	beq	a11, a8, 7823498 <UTIL_UpmixPcmData+0x5c>
 7823446:	0ebb66               	bnei	a11, 16, 7823458 <UTIL_UpmixPcmData+0x1c>
 7823449:	03dd                	mov.n	a13, a3
 782344b:	2468                	l32i.n	a6, a4, 8
 782344d:	04e8                	l32i.n	a14, a4, 0
 782344f:	06bc                	beqz.n	a6, 7823483 <UTIL_UpmixPcmData+0x47>
 7823451:	050c                	movi.n	a5, 0
 7823453:	0f0c                	movi.n	a15, 0
 7823455:	000106               	j	782345d <UTIL_UpmixPcmData+0x21>

07823458 <UTIL_UpmixPcmData+0x1c>:
 7823458:	f01d                	retw.n

0782345a <UTIL_UpmixPcmData+0x1e>:
 782345a:	251657               	beq	a6, a5, 7823483 <UTIL_UpmixPcmData+0x47>
 782345d:	551b                	addi.n	a5, a5, 1
 782345f:	ff7216               	beqz	a2, 782345a <UTIL_UpmixPcmData+0x1e>
 7823462:	0c0c                	movi.n	a12, 0
 7823464:	44a8                	l32i.n	a10, a4, 16
 7823466:	169276               	loopnez	a2, 7823480 <UTIL_UpmixPcmData+0x44>
 7823469:	0cbca7               	bgeu	a12, a10, 7823479 <UTIL_UpmixPcmData+0x3d>
 782346c:	001ef2               	l16ui	a15, a14, 0
 782346f:	005df2               	s16i	a15, a13, 0
 7823472:	ee2b                	addi.n	a14, a14, 2
 7823474:	dd2b                	addi.n	a13, a13, 2
 7823476:	000106               	j	782347e <UTIL_UpmixPcmData+0x42>

07823479 <UTIL_UpmixPcmData+0x3d>:
 7823479:	005df2               	s16i	a15, a13, 0
 782347c:	dd2b                	addi.n	a13, a13, 2
 782347e:	cc1b                	addi.n	a12, a12, 1

07823480 <UTIL_UpmixPcmData+0x44>:
 7823480:	fff586               	j	782345a <UTIL_UpmixPcmData+0x1e>

07823483 <UTIL_UpmixPcmData+0x47>:
 7823483:	006432               	s32i	a3, a4, 0
 7823486:	046422               	s32i	a2, a4, 16
 7823489:	20a220               	or	a10, a2, a2
 782348c:	ffed25               	call8	7823360 <UTIL_CalcFrameSize>
 782348f:	24b8                	l32i.n	a11, a4, 8
 7823491:	0e18e5               	call8	7831620 <__mulsi3>
 7823494:	14a9                	s32i.n	a10, a4, 4
 7823496:	f01d                	retw.n

07823498 <UTIL_UpmixPcmData+0x5c>:
 7823498:	03ad                	mov.n	a10, a3
 782349a:	24c8                	l32i.n	a12, a4, 8
 782349c:	04d8                	l32i.n	a13, a4, 0
 782349e:	0cbc                	beqz.n	a12, 78234d2 <UTIL_UpmixPcmData+0x96>
 78234a0:	0b0c                	movi.n	a11, 0
 78234a2:	050c                	movi.n	a5, 0
 78234a4:	62cc                	bnez.n	a2, 78234ae <UTIL_UpmixPcmData+0x72>
 78234a6:	551b                	addi.n	a5, a5, 1
 78234a8:	24b5c7               	bgeu	a5, a12, 78234d0 <UTIL_UpmixPcmData+0x94>
 78234ab:	ff7216               	beqz	a2, 78234a6 <UTIL_UpmixPcmData+0x6a>
 78234ae:	0c0c                	movi.n	a12, 0
 78234b0:	169276               	loopnez	a2, 78234ca <UTIL_UpmixPcmData+0x8e>
 78234b3:	4498                	l32i.n	a9, a4, 16
 78234b5:	0bbc97               	bgeu	a12, a9, 78234c4 <UTIL_UpmixPcmData+0x88>
 78234b8:	0db8                	l32i.n	a11, a13, 0
 78234ba:	0ab9                	s32i.n	a11, a10, 0
 78234bc:	dd4b                	addi.n	a13, a13, 4
 78234be:	aa4b                	addi.n	a10, a10, 4
 78234c0:	000106               	j	78234c8 <UTIL_UpmixPcmData+0x8c>

078234c3 <UTIL_UpmixPcmData+0x87>:
	...

078234c4 <UTIL_UpmixPcmData+0x88>:
 78234c4:	0ab9                	s32i.n	a11, a10, 0
 78234c6:	aa4b                	addi.n	a10, a10, 4
 78234c8:	cc1b                	addi.n	a12, a12, 1

078234ca <UTIL_UpmixPcmData+0x8e>:
 78234ca:	24c8                	l32i.n	a12, a4, 8
 78234cc:	fff586               	j	78234a6 <UTIL_UpmixPcmData+0x6a>

078234cf <UTIL_UpmixPcmData+0x93>:
	...

078234d0 <UTIL_UpmixPcmData+0x94>:
 78234d0:	34b8                	l32i.n	a11, a4, 12
 78234d2:	20a220               	or	a10, a2, a2
 78234d5:	006432               	s32i	a3, a4, 0
 78234d8:	046422               	s32i	a2, a4, 16
 78234db:	ffe865               	call8	7823360 <UTIL_CalcFrameSize>
 78234de:	24b8                	l32i.n	a11, a4, 8
 78234e0:	0e13e5               	call8	7831620 <__mulsi3>
 78234e3:	14a9                	s32i.n	a10, a4, 4
 78234e5:	f01d                	retw.n

078234e7 <UTIL_UpmixPcmData+0xab>:
	...

078234e8 <UTIL_DownmixPcmData>:
 78234e8:	004136               	entry	a1, 32
 78234eb:	34b8                	l32i.n	a11, a4, 12
 78234ed:	881c                	movi.n	a8, 24
 78234ef:	4a1b87               	beq	a11, a8, 782353d <UTIL_DownmixPcmData+0x55>
 78234f2:	0ebb66               	bnei	a11, 16, 7823504 <UTIL_DownmixPcmData+0x1c>
 78234f5:	03ad                	mov.n	a10, a3
 78234f7:	24f8                	l32i.n	a15, a4, 8
 78234f9:	04d8                	l32i.n	a13, a4, 0
 78234fb:	9fac                	beqz.n	a15, 7823528 <UTIL_DownmixPcmData+0x40>
 78234fd:	0e0c                	movi.n	a14, 0
 78234ff:	0c0c                	movi.n	a12, 0
 7823501:	000106               	j	7823509 <UTIL_DownmixPcmData+0x21>

07823504 <UTIL_DownmixPcmData+0x1c>:
 7823504:	f01d                	retw.n

07823506 <UTIL_DownmixPcmData+0x1e>:
 7823506:	000000                                        ...

07823509 <UTIL_DownmixPcmData+0x21>:
 7823509:	139276               	loopnez	a2, 7823520 <UTIL_DownmixPcmData+0x38>
 782350c:	0cbc27               	bgeu	a12, a2, 782351c <UTIL_DownmixPcmData+0x34>
 782350f:	001d92               	l16ui	a9, a13, 0
 7823512:	005a92               	s16i	a9, a10, 0
 7823515:	dd2b                	addi.n	a13, a13, 2
 7823517:	aa2b                	addi.n	a10, a10, 2
 7823519:	000046               	j	782351e <UTIL_DownmixPcmData+0x36>

0782351c <UTIL_DownmixPcmData+0x34>:
 782351c:	dd2b                	addi.n	a13, a13, 2
 782351e:	cc1b                	addi.n	a12, a12, 1

07823520 <UTIL_DownmixPcmData+0x38>:
 7823520:	0c0c                	movi.n	a12, 0
 7823522:	01cee2               	addi	a14, a14, 1
 7823525:	e09fe7               	bne	a15, a14, 7823509 <UTIL_DownmixPcmData+0x21>

07823528 <UTIL_DownmixPcmData+0x40>:
 7823528:	006432               	s32i	a3, a4, 0
 782352b:	046422               	s32i	a2, a4, 16
 782352e:	20a220               	or	a10, a2, a2
 7823531:	ffe2e5               	call8	7823360 <UTIL_CalcFrameSize>
 7823534:	24b8                	l32i.n	a11, a4, 8
 7823536:	0e0ea5               	call8	7831620 <__mulsi3>
 7823539:	14a9                	s32i.n	a10, a4, 4
 782353b:	f01d                	retw.n

0782353d <UTIL_DownmixPcmData+0x55>:
 782353d:	03dd                	mov.n	a13, a3
 782353f:	24c8                	l32i.n	a12, a4, 8
 7823541:	04a8                	l32i.n	a10, a4, 0
 7823543:	bcac                	beqz.n	a12, 7823572 <UTIL_DownmixPcmData+0x8a>
 7823545:	00a0e2               	movi	a14, 0
 7823548:	007256               	bnez	a2, 7823553 <UTIL_DownmixPcmData+0x6b>
 782354b:	ee1b                	addi.n	a14, a14, 1
 782354d:	1fbec7               	bgeu	a14, a12, 7823570 <UTIL_DownmixPcmData+0x88>
 7823550:	ff7216               	beqz	a2, 782354b <UTIL_DownmixPcmData+0x63>
 7823553:	0c0c                	movi.n	a12, 0
 7823555:	119276               	loopnez	a2, 782356a <UTIL_DownmixPcmData+0x82>
 7823558:	0abc27               	bgeu	a12, a2, 7823566 <UTIL_DownmixPcmData+0x7e>
 782355b:	0ab8                	l32i.n	a11, a10, 0
 782355d:	0db9                	s32i.n	a11, a13, 0
 782355f:	aa4b                	addi.n	a10, a10, 4
 7823561:	dd4b                	addi.n	a13, a13, 4
 7823563:	000046               	j	7823568 <UTIL_DownmixPcmData+0x80>

07823566 <UTIL_DownmixPcmData+0x7e>:
 7823566:	aa4b                	addi.n	a10, a10, 4
 7823568:	cc1b                	addi.n	a12, a12, 1

0782356a <UTIL_DownmixPcmData+0x82>:
 782356a:	24c8                	l32i.n	a12, a4, 8
 782356c:	fff6c6               	j	782354b <UTIL_DownmixPcmData+0x63>

0782356f <UTIL_DownmixPcmData+0x87>:
	...

07823570 <UTIL_DownmixPcmData+0x88>:
 7823570:	34b8                	l32i.n	a11, a4, 12
 7823572:	20a220               	or	a10, a2, a2
 7823575:	006432               	s32i	a3, a4, 0
 7823578:	046422               	s32i	a2, a4, 16
 782357b:	ffde65               	call8	7823360 <UTIL_CalcFrameSize>
 782357e:	24b8                	l32i.n	a11, a4, 8
 7823580:	0e09e5               	call8	7831620 <__mulsi3>
 7823583:	14a9                	s32i.n	a10, a4, 4
 7823585:	f01d                	retw.n

07823587 <UTIL_DownmixPcmData+0x9f>:
	...

07823588 <UTIL_UnifyBitDepthPcmData>:
 7823588:	004136               	entry	a1, 32
 782358b:	036d                	mov.n	a6, a3
 782358d:	24a8                	l32i.n	a10, a4, 8
 782358f:	025d                	mov.n	a5, a2
 7823591:	44b8                	l32i.n	a11, a4, 16
 7823593:	821c                	movi.n	a2, 24
 7823595:	0e08a5               	call8	7831620 <__mulsi3>
 7823598:	0d400841a0b0b50e 	{ beqi.w18	a5, 16, 7823626 <UTIL_UnifyBitDepthPcmData+0x9e>; nop }

078235a0 <UTIL_UnifyBitDepthPcmData+0x18>:
 78235a0:	0d000741f0b0b52e 	{ bne.w18	a5, a2, 7823623 <UTIL_UnifyBitDepthPcmData+0x9b>; nop }
 78235a8:	3488                	l32i.n	a8, a4, 12
 78235aa:	06bd                	mov.n	a11, a6
 78235ac:	73b866               	bnei	a8, 16, 7823623 <UTIL_UnifyBitDepthPcmData+0x9b>
 78235af:	0488                	l32i.n	a8, a4, 0
 78235b1:	061a16               	beqz	a10, 7823616 <UTIL_UnifyBitDepthPcmData+0x8e>
 78235b4:	4123a0               	srli	a2, a10, 3
 78235b7:	2490a0               	extui	a9, a10, 0, 3
 78235ba:	0b9976               	loopnez	a9, 78235c9 <UTIL_UnifyBitDepthPcmData+0x41>
 78235bd:	0018c2               	l16ui	a12, a8, 0
 78235c0:	882b                	addi.n	a8, a8, 2
 78235c2:	11cc00               	slli	a12, a12, 16
 78235c5:	0bc9                	s32i.n	a12, a11, 0
 78235c7:	bb4b                	addi.n	a11, a11, 4

078235c9 <UTIL_UnifyBitDepthPcmData+0x41>:
 78235c9:	0bad                	mov.n	a10, a11
 78235cb:	f03d                	nop.n
 78235cd:	459276               	loopnez	a2, 7823616 <UTIL_UnifyBitDepthPcmData+0x8e>
 78235d0:	001892               	l16ui	a9, a8, 0
 78235d3:	0118b2               	l16ui	a11, a8, 2
 78235d6:	0218c2               	l16ui	a12, a8, 4
 78235d9:	0318d2               	l16ui	a13, a8, 6
 78235dc:	0418e2               	l16ui	a14, a8, 8
 78235df:	0518f2               	l16ui	a15, a8, 10
 78235e2:	061822               	l16ui	a2, a8, 12
 78235e5:	071832               	l16ui	a3, a8, 14
 78235e8:	119900               	slli	a9, a9, 16
 78235eb:	11bb00               	slli	a11, a11, 16
 78235ee:	11cc00               	slli	a12, a12, 16
 78235f1:	11dd00               	slli	a13, a13, 16
 78235f4:	11ee00               	slli	a14, a14, 16
 78235f7:	11ff00               	slli	a15, a15, 16
 78235fa:	112200               	slli	a2, a2, 16
 78235fd:	113300               	slli	a3, a3, 16
 7823600:	10c882               	addi	a8, a8, 16
 7823603:	0a99                	s32i.n	a9, a10, 0
 7823605:	1ab9                	s32i.n	a11, a10, 4
 7823607:	2ac9                	s32i.n	a12, a10, 8
 7823609:	3ad9                	s32i.n	a13, a10, 12
 782360b:	4ae9                	s32i.n	a14, a10, 16
 782360d:	5af9                	s32i.n	a15, a10, 20
 782360f:	6a29                	s32i.n	a2, a10, 24
 7823611:	7a39                	s32i.n	a3, a10, 28
 7823613:	20caa2               	addi	a10, a10, 32

07823616 <UTIL_UnifyBitDepthPcmData+0x8e>:
 7823616:	0469                	s32i.n	a6, a4, 0
 7823618:	14d8                	l32i.n	a13, a4, 4
 782361a:	3459                	s32i.n	a5, a4, 12
 782361c:	11ddf0               	slli	a13, a13, 1
 782361f:	14d9                	s32i.n	a13, a4, 4
 7823621:	f01d                	retw.n

07823623 <UTIL_UnifyBitDepthPcmData+0x9b>:
 7823623:	f01d                	retw.n

07823625 <UTIL_UnifyBitDepthPcmData+0x9d>:
	...

07823626 <UTIL_UnifyBitDepthPcmData+0x9e>:
 7823626:	34e8                	l32i.n	a14, a4, 12
 7823628:	03bd                	mov.n	a11, a3
 782362a:	0d3ff74120b0be2e 	{ bne.w18	a14, a2, 78235a0 <UTIL_UnifyBitDepthPcmData+0x18>; nop }
 7823632:	0488                	l32i.n	a8, a4, 0
 7823634:	05fa16               	beqz	a10, 7823697 <UTIL_UnifyBitDepthPcmData+0x10f>
 7823637:	4123a0               	srli	a2, a10, 3
 782363a:	24f0a0               	extui	a15, a10, 0, 3
 782363d:	0b9f76               	loopnez	a15, 782364c <UTIL_UnifyBitDepthPcmData+0xc4>
 7823640:	0898                	l32i.n	a9, a8, 0
 7823642:	884b                	addi.n	a8, a8, 4
 7823644:	f59090               	extui	a9, a9, 16, 16
 7823647:	005b92               	s16i	a9, a11, 0
 782364a:	bb2b                	addi.n	a11, a11, 2

0782364c <UTIL_UnifyBitDepthPcmData+0xc4>:
 782364c:	0bad                	mov.n	a10, a11
 782364e:	459276               	loopnez	a2, 7823697 <UTIL_UnifyBitDepthPcmData+0x10f>
 7823651:	0898                	l32i.n	a9, a8, 0
 7823653:	18b8                	l32i.n	a11, a8, 4
 7823655:	28c8                	l32i.n	a12, a8, 8
 7823657:	38d8                	l32i.n	a13, a8, 12
 7823659:	48e8                	l32i.n	a14, a8, 16
 782365b:	58f8                	l32i.n	a15, a8, 20
 782365d:	6828                	l32i.n	a2, a8, 24
 782365f:	7838                	l32i.n	a3, a8, 28
 7823661:	f59090               	extui	a9, a9, 16, 16
 7823664:	f5b0b0               	extui	a11, a11, 16, 16
 7823667:	f5c0c0               	extui	a12, a12, 16, 16
 782366a:	f5d0d0               	extui	a13, a13, 16, 16
 782366d:	f5e0e0               	extui	a14, a14, 16, 16
 7823670:	f5f0f0               	extui	a15, a15, 16, 16
 7823673:	f52020               	extui	a2, a2, 16, 16
 7823676:	f53030               	extui	a3, a3, 16, 16
 7823679:	20c882               	addi	a8, a8, 32
 782367c:	005a92               	s16i	a9, a10, 0
 782367f:	015ab2               	s16i	a11, a10, 2
 7823682:	025ac2               	s16i	a12, a10, 4
 7823685:	035ad2               	s16i	a13, a10, 6
 7823688:	045ae2               	s16i	a14, a10, 8
 782368b:	055af2               	s16i	a15, a10, 10
 782368e:	065a22               	s16i	a2, a10, 12
 7823691:	075a32               	s16i	a3, a10, 14
 7823694:	10caa2               	addi	a10, a10, 16

07823697 <UTIL_UnifyBitDepthPcmData+0x10f>:
 7823697:	0469                	s32i.n	a6, a4, 0
 7823699:	14a8                	l32i.n	a10, a4, 4
 782369b:	3459                	s32i.n	a5, a4, 12
 782369d:	41a1a0               	srli	a10, a10, 1
 78236a0:	14a9                	s32i.n	a10, a4, 4
 78236a2:	f01d                	retw.n

078236a4 <UTILS_GainBalanceCoef>:
 78236a4:	004136               	entry	a1, 32
 78236a7:	01a416               	beqz	a4, 78236c5 <UTILS_GainBalanceCoef+0x21>
 78236aa:	01a496               	bltz	a4, 78236c8 <UTILS_GainBalanceCoef+0x24>
 78236ad:	0022a2               	l32i	a10, a2, 0
 78236b0:	32a0b2               	movi	a11, 50
 78236b3:	c0bb40               	sub	a11, a11, a4
 78236b6:	0df6a5               	call8	7831620 <__mulsi3>
 78236b9:	32a0b2               	movi	a11, 50
 78236bc:	0e0925               	call8	7831750 <__udivsi3>
 78236bf:	0062a2               	s32i	a10, a2, 0
 78236c2:	000090               	retw

078236c5 <UTILS_GainBalanceCoef+0x21>:
 78236c5:	f01d                	retw.n

078236c7 <UTILS_GainBalanceCoef+0x23>:
	...

078236c8 <UTILS_GainBalanceCoef+0x24>:
 78236c8:	32c4b2               	addi	a11, a4, 50
 78236cb:	0023a2               	l32i	a10, a3, 0
 78236ce:	0df525               	call8	7831620 <__mulsi3>
 78236d1:	32a0b2               	movi	a11, 50
 78236d4:	0e07a5               	call8	7831750 <__udivsi3>
 78236d7:	0063a2               	s32i	a10, a3, 0
 78236da:	f01d                	retw.n

078236dc <UTILS_GainBalanceCoef+0x38>:
 78236dc:	000000                                        ...

078236df <UTILS_GainBalanceCoef+0x3b>:
	...

078236e0 <UTIL_LRGainProcess>:
 78236e0:	006136               	entry	a1, 48
 78236e3:	18a062               	movi	a6, 24
 78236e6:	0222a2               	l32i	a10, a2, 8
 78236e9:	0422b2               	l32i	a11, a2, 16
 78236ec:	0df325               	call8	7831620 <__mulsi3>
 78236ef:	002482               	l32i	a8, a4, 0
 78236f2:	0a5d                	mov.n	a5, a10
 78236f4:	0d40144150b0180e 	{ beqi.w18	a8, 1, 782383d <UTIL_LRGainProcess+0x15d>; nop }
 78236fc:	34a8                	l32i.n	a10, a4, 12
 78236fe:	62a072               	movi	a7, 98
 7823701:	8ba0b2               	movi	a11, 139
 7823704:	1d1c                	movi.n	a13, 17
 7823706:	79a0c2               	movi	a12, 121
 7823709:	f6d161               	l32r	a6, 7821250 <_stext+0x110>
 782370c:	0404e2               	l8ui	a14, a4, 4
 782370f:	f8c6f2               	addi	a15, a6, -8
 7823712:	0cbce7               	bgeu	a12, a14, 7823722 <UTIL_LRGainProcess+0x42>
 7823715:	87ce92               	addi	a9, a14, -121
 7823718:	06bd97               	bgeu	a13, a9, 7823722 <UTIL_LRGainProcess+0x42>
 782371b:	7d26a2               	l32i	a10, a6, 0x1f4
 782371e:	000386               	j	7823730 <UTIL_LRGainProcess+0x50>

07823721 <UTIL_LRGainProcess+0x41>:
	...

07823722 <UTIL_LRGainProcess+0x42>:
 7823722:	c0ebe0               	sub	a14, a11, a14
 7823725:	0d000b41a0b0c7ee 	{ bgeu.w18	a7, a14, 78237e3 <UTIL_LRGainProcess+0x103>; nop }
 782372d:	e026a2               	l32i	a10, a6, 0x380

07823730 <UTIL_LRGainProcess+0x50>:
 7823730:	01a9                	s32i.n	a10, a1, 0
 7823732:	0804e2               	l8ui	a14, a4, 8
 7823735:	44a8                	l32i.n	a10, a4, 16
 7823737:	0dbce7               	bgeu	a12, a14, 7823748 <UTIL_LRGainProcess+0x68>
 782373a:	87cec2               	addi	a12, a14, -121
 782373d:	07bdc7               	bgeu	a13, a12, 7823748 <UTIL_LRGainProcess+0x68>
 7823740:	7d26a2               	l32i	a10, a6, 0x1f4
 7823743:	0003c6               	j	7823756 <UTIL_LRGainProcess+0x76>

07823746 <UTIL_LRGainProcess+0x66>:
	...

07823748 <UTIL_LRGainProcess+0x68>:
 7823748:	c0bbe0               	sub	a11, a11, a14
 782374b:	0d000c4190b0c7be 	{ bgeu.w18	a7, a11, 7823818 <UTIL_LRGainProcess+0x138>; nop }
 7823753:	e026a2               	l32i	a10, a6, 0x380

07823756 <UTIL_LRGainProcess+0x76>:
 7823756:	b14b                	addi.n	a11, a1, 4
 7823758:	11a9                	s32i.n	a10, a1, 4
 782375a:	03cd                	mov.n	a12, a3
 782375c:	01ad                	mov.n	a10, a1
 782375e:	fff465               	call8	78236a4 <UTILS_GainBalanceCoef>
 7823761:	8f26d2               	l32i	a13, a6, 0x23c
 7823764:	01a8                	l32i.n	a10, a1, 0
 7823766:	11e8                	l32i.n	a14, a1, 4
 7823768:	029ad7               	bne	a10, a13, 782376e <UTIL_LRGainProcess+0x8e>
 782376b:	721ed7               	beq	a14, a13, 78237e1 <UTIL_LRGainProcess+0x101>
 782376e:	32b8                	l32i.n	a11, a2, 12
 7823770:	7e1c                	movi.n	a14, 23
 7823772:	0d401041b0b0bb0e 	{ beqi.w18	a11, 16, 7823881 <UTIL_LRGainProcess+0x1a1>; nop }
 782377a:	8f1c                	movi.n	a15, 24
 782377c:	619bf7               	bne	a11, a15, 78237e1 <UTIL_LRGainProcess+0x101>
 782377f:	f6b531               	l32r	a3, 7821254 <_stext+0x114>
 7823782:	02b8                	l32i.n	a11, a2, 0
 7823784:	1128                	l32i.n	a2, a1, 4
 7823786:	c50b                	addi.n	a12, a5, -1
 7823788:	0d00154140b0b2ae 	{ bne.w18	a2, a10, 78238e0 <UTIL_LRGainProcess+0x200>; nop }
 7823790:	3c0a34               	ae_movda32	aed0, a10
 7823793:	489576               	loopnez	a5, 78237df <UTIL_LRGainProcess+0xff>
 7823796:	0bc8                	l32i.n	a12, a11, 0
 7823798:	5a9c                	beqz.n	a10, 78237b1 <UTIL_LRGainProcess+0xd1>
 782379a:	1a3da7               	bltu	a13, a10, 78237b8 <UTIL_LRGainProcess+0xd8>
 782379d:	3c1c34               	ae_movda32	aed1, a12
 78237a0:	eb0fdd000101259f 	{ nop; ae_mul32.ll	aed1, aed1, aed0; nop }
 78237a8:	811e14               	ae_sraa64	aed1, aed1, a14
 78237ab:	2591c4               	ae_movad32.l	a9, aed1
 78237ae:	000a46               	j	78237db <UTIL_LRGainProcess+0xfb>

078237b1 <UTIL_LRGainProcess+0xd1>:
 78237b1:	090c                	movi.n	a9, 0
 78237b3:	000906               	j	78237db <UTIL_LRGainProcess+0xfb>

078237b6 <UTIL_LRGainProcess+0xd6>:
	...

078237b8 <UTIL_LRGainProcess+0xd8>:
 78237b8:	2198c0               	srai	a9, a12, 8
 78237bb:	3c2934               	ae_movda32	aed2, a9
 78237be:	eb0fdd000202259f 	{ nop; ae_mul32.ll	aed2, aed2, aed0; nop }
 78237c6:	812e24               	ae_sraa64	aed2, aed2, a14
 78237c9:	25c2c4               	ae_movad32.l	a12, aed2
 78237cc:	3187c0               	srai	a8, a12, 23
 78237cf:	31ffc0               	srai	a15, a12, 31
 78237d2:	021f87               	beq	a15, a8, 78237d8 <UTIL_LRGainProcess+0xf8>
 78237d5:	30cf30               	xor	a12, a15, a3
 78237d8:	119c80               	slli	a9, a12, 8
 78237db:	0b99                	s32i.n	a9, a11, 0
 78237dd:	bb4b                	addi.n	a11, a11, 4

078237df <UTIL_LRGainProcess+0xff>:
 78237df:	f01d                	retw.n

078237e1 <UTIL_LRGainProcess+0x101>:
 78237e1:	f01d                	retw.n

078237e3 <UTIL_LRGainProcess+0x103>:
 78237e3:	a0eef0               	addx4	a14, a14, a15
 78237e6:	7f2e92               	l32i	a9, a14, 0x1fc
 78237e9:	22ea16               	beqz	a10, 7823a1b <UTIL_LRGainProcess+0x33b>
 78237ec:	026192               	s32i	a9, a1, 8
 78237ef:	0d40234120b01a6e 	{ blti.w18	a10, 1, 7823a25 <UTIL_LRGainProcess+0x345>; nop }
 78237f7:	7e2eb2               	l32i	a11, a14, 0x1f8
 78237fa:	c0bb90               	sub	a11, a11, a9
 78237fd:	0de225               	call8	7831620 <__mulsi3>
 7823800:	8ba0b2               	movi	a11, 139
 7823803:	79a0c2               	movi	a12, 121
 7823806:	41e3a0               	srli	a14, a10, 3
 7823809:	11a0d2               	movi	a13, 17
 782380c:	0221a2               	l32i	a10, a1, 8
 782380f:	f692f1               	l32r	a15, 7821258 <_stext+0x118>
 7823812:	aaea                	add.n	a10, a10, a14
 7823814:	ffc606               	j	7823730 <UTIL_LRGainProcess+0x50>

07823817 <UTIL_LRGainProcess+0x137>:
	...

07823818 <UTIL_LRGainProcess+0x138>:
 7823818:	a0bbf0               	addx4	a11, a11, a15
 782381b:	7f2b42               	l32i	a4, a11, 0x1fc
 782381e:	1fea16               	beqz	a10, 7823a20 <UTIL_LRGainProcess+0x340>
 7823821:	0d40224170b01a6e 	{ blti.w18	a10, 1, 7823a4c <UTIL_LRGainProcess+0x36c>; nop }
 7823829:	7e2bb2               	l32i	a11, a11, 0x1f8
 782382c:	c0bb40               	sub	a11, a11, a4
 782382f:	0ddf25               	call8	7831620 <__mulsi3>
 7823832:	41a3a0               	srli	a10, a10, 3
 7823835:	a4aa                	add.n	a10, a4, a10
 7823837:	ffc6c6               	j	7823756 <UTIL_LRGainProcess+0x76>

0782383a <UTIL_LRGainProcess+0x15a>:
 782383a:	000000                                        ...

0782383d <UTIL_LRGainProcess+0x15d>:
 782383d:	32a8                	l32i.n	a10, a2, 12
 782383f:	0d40224110b0ba0e 	{ beqi.w18	a10, 16, 7823a64 <UTIL_LRGainProcess+0x384>; nop }
 7823847:	969a67               	bne	a10, a6, 78237e1 <UTIL_LRGainProcess+0x101>
 782384a:	0294a2               	l16si	a10, a4, 4
 782384d:	0494b2               	l16si	a11, a4, 8
 7823850:	0228                	l32i.n	a2, a2, 0
 7823852:	0d002441a0b0bbae 	{ bne.w18	a11, a10, 7823aa0 <UTIL_LRGainProcess+0x3c0>; nop }
 782385a:	8315a6               	blti	a5, 1, 78237e1 <UTIL_LRGainProcess+0x101>
 782385d:	a03520               	addx4	a3, a5, a2
 7823860:	114a00               	slli	a4, a10, 16
 7823863:	316f40               	srai	a6, a4, 31
 7823866:	20d660               	or	a13, a6, a6
 7823869:	0022a2               	l32i	a10, a2, 0
 782386c:	20c440               	or	a12, a4, a4
 782386f:	31bfa0               	srai	a11, a10, 31
 7823872:	06dbe5               	call8	782a630 <__muldi3>
 7823875:	11bbf0               	slli	a11, a11, 1
 7823878:	02b9                	s32i.n	a11, a2, 0
 782387a:	224b                	addi.n	a2, a2, 4
 782387c:	e69237               	bne	a2, a3, 7823866 <UTIL_LRGainProcess+0x186>
 782387f:	f01d                	retw.n

07823881 <UTIL_LRGainProcess+0x1a1>:
 7823881:	f66931               	l32r	a3, 7821228 <_stext+0xe8>
 7823884:	02b8                	l32i.n	a11, a2, 0
 7823886:	1128                	l32i.n	a2, a1, 4
 7823888:	c50b                	addi.n	a12, a5, -1
 782388a:	0d000f41a0b0b2ae 	{ bne.w18	a2, a10, 7823988 <UTIL_LRGainProcess+0x2a8>; nop }
 7823892:	3c0a34               	ae_movda32	aed0, a10
 7823895:	409576               	loopnez	a5, 78238d9 <UTIL_LRGainProcess+0x1f9>
 7823898:	009bc2               	l16si	a12, a11, 0
 782389b:	2a9c                	beqz.n	a10, 78238b1 <UTIL_LRGainProcess+0x1d1>
 782389d:	3c1c24               	ae_movda16	aed1, a12
 78238a0:	0c0001b140a3edae 	{ bltu.w18	a13, a10, 78238b8 <UTIL_LRGainProcess+0x1d8>; ae_mul32x16.l0	aed3, aed0, aed1 }
 78238a8:	813e34               	ae_sraa64	aed3, aed3, a14
 78238ab:	259384               	ae_movad16.0	a9, aed3
 78238ae:	000886               	j	78238d4 <UTIL_LRGainProcess+0x1f4>

078238b1 <UTIL_LRGainProcess+0x1d1>:
 78238b1:	090c                	movi.n	a9, 0
 78238b3:	000746               	j	78238d4 <UTIL_LRGainProcess+0x1f4>

078238b6 <UTIL_LRGainProcess+0x1d6>:
	...

078238b8 <UTIL_LRGainProcess+0x1d8>:
 78238b8:	eb09dd010004259f 	{ nop; ae_mul32x16.l0	aed4, aed0, aed1; nop }
 78238c0:	814e44               	ae_sraa64	aed4, aed4, a14
 78238c3:	25c4c4               	ae_movad32.l	a12, aed4
 78238c6:	218fc0               	srai	a8, a12, 15
 78238c9:	31ffc0               	srai	a15, a12, 31
 78238cc:	021f87               	beq	a15, a8, 78238d2 <UTIL_LRGainProcess+0x1f2>
 78238cf:	30cf30               	xor	a12, a15, a3
 78238d2:	0c9d                	mov.n	a9, a12
 78238d4:	005b92               	s16i	a9, a11, 0
 78238d7:	bb2b                	addi.n	a11, a11, 2

078238d9 <UTIL_LRGainProcess+0x1f9>:
 78238d9:	f01d                	retw.n

078238db <UTIL_LRGainProcess+0x1fb>:
 78238db:	00000000 0242ae00                                .....

078238e0 <UTIL_LRGainProcess+0x200>:
 78238e0:	400001b5450242ae 	{ ae_movda32	aed2, a2; nop; ae_movda32	aed0, a10 }
 78238e8:	959576               	loopnez	a5, 7823981 <UTIL_LRGainProcess+0x2a1>
 78238eb:	0bf8                	l32i.n	a15, a11, 0
 78238ed:	476c07               	bbci	a12, 0, 7823938 <UTIL_LRGainProcess+0x258>
 78238f0:	5a9c                	beqz.n	a10, 7823909 <UTIL_LRGainProcess+0x229>
 78238f2:	1a3da7               	bltu	a13, a10, 7823910 <UTIL_LRGainProcess+0x230>
 78238f5:	3c5f34               	ae_movda32	aed5, a15
 78238f8:	eb0fdd000505259f 	{ nop; ae_mul32.ll	aed5, aed5, aed0; nop }
 7823900:	815e54               	ae_sraa64	aed5, aed5, a14
 7823903:	2595c4               	ae_movad32.l	a9, aed5
 7823906:	000a46               	j	7823933 <UTIL_LRGainProcess+0x253>

07823909 <UTIL_LRGainProcess+0x229>:
 7823909:	090c                	movi.n	a9, 0
 782390b:	000906               	j	7823933 <UTIL_LRGainProcess+0x253>

0782390e <UTIL_LRGainProcess+0x22e>:
	...

07823910 <UTIL_LRGainProcess+0x230>:
 7823910:	21f8f0               	srai	a15, a15, 8
 7823913:	3c6f34               	ae_movda32	aed6, a15
 7823916:	eb0fdd000606259f 	{ nop; ae_mul32.ll	aed6, aed6, aed0; nop }
 782391e:	816e64               	ae_sraa64	aed6, aed6, a14
 7823921:	25f6c4               	ae_movad32.l	a15, aed6
 7823924:	3197f0               	srai	a9, a15, 23
 7823927:	314ff0               	srai	a4, a15, 31
 782392a:	021497               	beq	a4, a9, 7823930 <UTIL_LRGainProcess+0x250>
 782392d:	30f430               	xor	a15, a4, a3
 7823930:	119f80               	slli	a9, a15, 8
 7823933:	0b99                	s32i.n	a9, a11, 0
 7823935:	001106               	j	782397d <UTIL_LRGainProcess+0x29d>

07823938 <UTIL_LRGainProcess+0x258>:
 7823938:	529c                	beqz.n	a2, 7823951 <UTIL_LRGainProcess+0x271>
 782393a:	1a3d27               	bltu	a13, a2, 7823958 <UTIL_LRGainProcess+0x278>
 782393d:	3c7f34               	ae_movda32	aed7, a15
 7823940:	eb0fdd020707259f 	{ nop; ae_mul32.ll	aed7, aed7, aed2; nop }
 7823948:	817e74               	ae_sraa64	aed7, aed7, a14
 782394b:	2597c4               	ae_movad32.l	a9, aed7
 782394e:	000a46               	j	782397b <UTIL_LRGainProcess+0x29b>

07823951 <UTIL_LRGainProcess+0x271>:
 7823951:	090c                	movi.n	a9, 0
 7823953:	000906               	j	782397b <UTIL_LRGainProcess+0x29b>

07823956 <UTIL_LRGainProcess+0x276>:
	...

07823958 <UTIL_LRGainProcess+0x278>:
 7823958:	2198f0               	srai	a9, a15, 8
 782395b:	3c8934               	ae_movda32	aed8, a9
 782395e:	eb0fdd020808259f 	{ nop; ae_mul32.ll	aed8, aed8, aed2; nop }
 7823966:	818e84               	ae_sraa64	aed8, aed8, a14
 7823969:	25f8c4               	ae_movad32.l	a15, aed8
 782396c:	3187f0               	srai	a8, a15, 23
 782396f:	314ff0               	srai	a4, a15, 31
 7823972:	021487               	beq	a4, a8, 7823978 <UTIL_LRGainProcess+0x298>
 7823975:	30f430               	xor	a15, a4, a3
 7823978:	119f80               	slli	a9, a15, 8
 782397b:	0b99                	s32i.n	a9, a11, 0
 782397d:	bb4b                	addi.n	a11, a11, 4
 782397f:	cc0b                	addi.n	a12, a12, -1

07823981 <UTIL_LRGainProcess+0x2a1>:
 7823981:	f01d                	retw.n

07823983 <UTIL_LRGainProcess+0x2a3>:
 7823983:	00000000 0242ae00                                .....

07823988 <UTIL_LRGainProcess+0x2a8>:
 7823988:	400001b5450242ae 	{ ae_movda32	aed2, a2; nop; ae_movda32	aed0, a10 }
 7823990:	859576               	loopnez	a5, 7823a19 <UTIL_LRGainProcess+0x339>
 7823993:	009bf2               	l16si	a15, a11, 0
 7823996:	3e6c07               	bbci	a12, 0, 78239d8 <UTIL_LRGainProcess+0x2f8>
 7823999:	3a9c                	beqz.n	a10, 78239b0 <UTIL_LRGainProcess+0x2d0>
 782399b:	3c1f24               	ae_movda16	aed1, a15
 782399e:	0c0001b160a9edae 	{ bltu.w18	a13, a10, 78239b8 <UTIL_LRGainProcess+0x2d8>; ae_mul32x16.l0	aed9, aed0, aed1 }
 78239a6:	819e94               	ae_sraa64	aed9, aed9, a14
 78239a9:	25f984               	ae_movad16.0	a15, aed9
 78239ac:	000886               	j	78239d2 <UTIL_LRGainProcess+0x2f2>

078239af <UTIL_LRGainProcess+0x2cf>:
	...

078239b0 <UTIL_LRGainProcess+0x2d0>:
 78239b0:	0f0c                	movi.n	a15, 0
 78239b2:	000706               	j	78239d2 <UTIL_LRGainProcess+0x2f2>

078239b5 <UTIL_LRGainProcess+0x2d5>:
 78239b5:	000000                                        ...

078239b8 <UTIL_LRGainProcess+0x2d8>:
 78239b8:	eb09dd01000a259f 	{ nop; ae_mul32x16.l0	aed10, aed0, aed1; nop }
 78239c0:	81aea4               	ae_sraa64	aed10, aed10, a14
 78239c3:	25fac4               	ae_movad32.l	a15, aed10
 78239c6:	218ff0               	srai	a8, a15, 15
 78239c9:	314ff0               	srai	a4, a15, 31
 78239cc:	021487               	beq	a4, a8, 78239d2 <UTIL_LRGainProcess+0x2f2>
 78239cf:	30f430               	xor	a15, a4, a3
 78239d2:	005bf2               	s16i	a15, a11, 0
 78239d5:	000f06               	j	7823a15 <UTIL_LRGainProcess+0x335>

078239d8 <UTIL_LRGainProcess+0x2f8>:
 78239d8:	229c                	beqz.n	a2, 78239ee <UTIL_LRGainProcess+0x30e>
 78239da:	3c1f24               	ae_movda16	aed1, a15
 78239dd:	0c0001b172abed2e 	{ bltu.w18	a13, a2, 78239f8 <UTIL_LRGainProcess+0x318>; ae_mul32x16.l0	aed11, aed2, aed1 }
 78239e5:	81beb4               	ae_sraa64	aed11, aed11, a14
 78239e8:	25fb84               	ae_movad16.0	a15, aed11
 78239eb:	0008c6               	j	7823a12 <UTIL_LRGainProcess+0x332>

078239ee <UTIL_LRGainProcess+0x30e>:
 78239ee:	0f0c                	movi.n	a15, 0
 78239f0:	000786               	j	7823a12 <UTIL_LRGainProcess+0x332>

078239f3 <UTIL_LRGainProcess+0x313>:
 78239f3:	00000000 0c259f00                                .....

078239f8 <UTIL_LRGainProcess+0x318>:
 78239f8:	eb09dd01020c259f 	{ nop; ae_mul32x16.l0	aed12, aed2, aed1; nop }
 7823a00:	81cec4               	ae_sraa64	aed12, aed12, a14
 7823a03:	25fcc4               	ae_movad32.l	a15, aed12
 7823a06:	219ff0               	srai	a9, a15, 15
 7823a09:	314ff0               	srai	a4, a15, 31
 7823a0c:	021497               	beq	a4, a9, 7823a12 <UTIL_LRGainProcess+0x332>
 7823a0f:	30f430               	xor	a15, a4, a3
 7823a12:	005bf2               	s16i	a15, a11, 0
 7823a15:	bb2b                	addi.n	a11, a11, 2
 7823a17:	cc0b                	addi.n	a12, a12, -1

07823a19 <UTIL_LRGainProcess+0x339>:
 7823a19:	f01d                	retw.n

07823a1b <UTIL_LRGainProcess+0x33b>:
 7823a1b:	09ad                	mov.n	a10, a9
 7823a1d:	ff43c6               	j	7823730 <UTIL_LRGainProcess+0x50>

07823a20 <UTIL_LRGainProcess+0x340>:
 7823a20:	04ad                	mov.n	a10, a4
 7823a22:	ff4c06               	j	7823756 <UTIL_LRGainProcess+0x76>

07823a25 <UTIL_LRGainProcess+0x345>:
 7823a25:	802ec2               	l32i	a12, a14, 0x200
 7823a28:	c0b9c0               	sub	a11, a9, a12
 7823a2b:	0dbf65               	call8	7831620 <__mulsi3>
 7823a2e:	8ba0b2               	movi	a11, 139
 7823a31:	79a0c2               	movi	a12, 121
 7823a34:	1d1c                	movi.n	a13, 17
 7823a36:	60e0a0               	neg	a14, a10
 7823a39:	f607f1               	l32r	a15, 7821258 <_stext+0x118>
 7823a3c:	21a8                	l32i.n	a10, a1, 8
 7823a3e:	41e3e0               	srli	a14, a14, 3
 7823a41:	c0aae0               	sub	a10, a10, a14
 7823a44:	ff3a06               	j	7823730 <UTIL_LRGainProcess+0x50>

07823a47 <UTIL_LRGainProcess+0x367>:
 7823a47:	000000                                        ...

07823a4a <UTIL_LRGainProcess+0x36a>:
	...

07823a4c <UTIL_LRGainProcess+0x36c>:
 7823a4c:	802bb2               	l32i	a11, a11, 0x200
 7823a4f:	c0b4b0               	sub	a11, a4, a11
 7823a52:	0dbce5               	call8	7831620 <__mulsi3>
 7823a55:	60a0a0               	neg	a10, a10
 7823a58:	41a3a0               	srli	a10, a10, 3
 7823a5b:	c0a4a0               	sub	a10, a4, a10
 7823a5e:	ff3d06               	j	7823756 <UTIL_LRGainProcess+0x76>

07823a61 <UTIL_LRGainProcess+0x381>:
 7823a61:	000000                                        ...

07823a64 <UTIL_LRGainProcess+0x384>:
 7823a64:	0294a2               	l16si	a10, a4, 4
 7823a67:	0494b2               	l16si	a11, a4, 8
 7823a6a:	0228                	l32i.n	a2, a2, 0
 7823a6c:	789ba7               	bne	a11, a10, 7823ae8 <UTIL_LRGainProcess+0x408>
 7823a6f:	0d7fd641e0b0156e 	{ blti.w18	a5, 1, 78237e1 <UTIL_LRGainProcess+0x101>; nop }
 7823a77:	903520               	addx2	a3, a5, a2
 7823a7a:	114a00               	slli	a4, a10, 16
 7823a7d:	316f40               	srai	a6, a4, 31
 7823a80:	20d660               	or	a13, a6, a6
 7823a83:	0092a2               	l16si	a10, a2, 0
 7823a86:	20c440               	or	a12, a4, a4
 7823a89:	31bfa0               	srai	a11, a10, 31
 7823a8c:	06ba25               	call8	782a630 <__muldi3>
 7823a8f:	11bbf0               	slli	a11, a11, 1
 7823a92:	0052b2               	s16i	a11, a2, 0
 7823a95:	02c222               	addi	a2, a2, 2
 7823a98:	e49237               	bne	a2, a3, 7823a80 <UTIL_LRGainProcess+0x3a0>
 7823a9b:	f01d                	retw.n

07823a9d <UTIL_LRGainProcess+0x3bd>:
 7823a9d:	000000                                        ...

07823aa0 <UTIL_LRGainProcess+0x3c0>:
 7823aa0:	0d7fd341d0b0156e 	{ blti.w18	a5, 1, 78237e1 <UTIL_LRGainProcess+0x101>; nop }
 7823aa8:	030c                	movi.n	a3, 0
 7823aaa:	117b00               	slli	a7, a11, 16
 7823aad:	114a00               	slli	a4, a10, 16
 7823ab0:	316f40               	srai	a6, a4, 31
 7823ab3:	31cf70               	srai	a12, a7, 31
 7823ab6:	31c9                	s32i.n	a12, a1, 12
 7823ab8:	0022a2               	l32i	a10, a2, 0
 7823abb:	31bfa0               	srai	a11, a10, 31
 7823abe:	0e6307               	bbci	a3, 0, 7823ad0 <UTIL_LRGainProcess+0x3f0>
 7823ac1:	0321d2               	l32i	a13, a1, 12
 7823ac4:	20c770               	or	a12, a7, a7
 7823ac7:	06b6a5               	call8	782a630 <__muldi3>
 7823aca:	11abf0               	slli	a10, a11, 1
 7823acd:	000246               	j	7823ada <UTIL_LRGainProcess+0x3fa>

07823ad0 <UTIL_LRGainProcess+0x3f0>:
 7823ad0:	06dd                	mov.n	a13, a6
 7823ad2:	04cd                	mov.n	a12, a4
 7823ad4:	06b5a5               	call8	782a630 <__muldi3>
 7823ad7:	11abf0               	slli	a10, a11, 1
 7823ada:	02a9                	s32i.n	a10, a2, 0
 7823adc:	331b                	addi.n	a3, a3, 1
 7823ade:	224b                	addi.n	a2, a2, 4
 7823ae0:	d49357               	bne	a3, a5, 7823ab8 <UTIL_LRGainProcess+0x3d8>
 7823ae3:	f01d                	retw.n

07823ae5 <UTIL_LRGainProcess+0x405>:
 7823ae5:	000000                                        ...

07823ae8 <UTIL_LRGainProcess+0x408>:
 7823ae8:	0d7fcf4150b0156e 	{ blti.w18	a5, 1, 78237e1 <UTIL_LRGainProcess+0x101>; nop }
 7823af0:	030c                	movi.n	a3, 0
 7823af2:	117b00               	slli	a7, a11, 16
 7823af5:	114a00               	slli	a4, a10, 16
 7823af8:	316f40               	srai	a6, a4, 31
 7823afb:	31df70               	srai	a13, a7, 31
 7823afe:	31d9                	s32i.n	a13, a1, 12
 7823b00:	0092a2               	l16si	a10, a2, 0
 7823b03:	31bfa0               	srai	a11, a10, 31
 7823b06:	116307               	bbci	a3, 0, 7823b1b <UTIL_LRGainProcess+0x43b>
 7823b09:	07cd                	mov.n	a12, a7
 7823b0b:	31d8                	l32i.n	a13, a1, 12
 7823b0d:	06b225               	call8	782a630 <__muldi3>
 7823b10:	11abf0               	slli	a10, a11, 1
 7823b13:	000386               	j	7823b25 <UTIL_LRGainProcess+0x445>

07823b16 <UTIL_LRGainProcess+0x436>:
 7823b16:	000000                                        ...

07823b19 <UTIL_LRGainProcess+0x439>:
	...

07823b1b <UTIL_LRGainProcess+0x43b>:
 7823b1b:	04cd                	mov.n	a12, a4
 7823b1d:	06dd                	mov.n	a13, a6
 7823b1f:	06b125               	call8	782a630 <__muldi3>
 7823b22:	11abf0               	slli	a10, a11, 1
 7823b25:	0052a2               	s16i	a10, a2, 0
 7823b28:	331b                	addi.n	a3, a3, 1
 7823b2a:	222b                	addi.n	a2, a2, 2
 7823b2c:	d09357               	bne	a3, a5, 7823b00 <UTIL_LRGainProcess+0x420>
 7823b2f:	f01d                	retw.n

07823b31 <UTIL_LRGainProcess+0x451>:
 7823b31:	000000                                        ...

07823b34 <UTIL_LRFadeGainProcess>:
 7823b34:	006136               	entry	a1, 48
 7823b37:	34a8                	l32i.n	a10, a4, 12
 7823b39:	1e1c                	movi.n	a14, 17
 7823b3b:	8ba0b2               	movi	a11, 139
 7823b3e:	62a062               	movi	a6, 98
 7823b41:	0404d2               	l8ui	a13, a4, 4
 7823b44:	79a0c2               	movi	a12, 121
 7823b47:	f5c2f1               	l32r	a15, 7821250 <_stext+0x110>
 7823b4a:	0278                	l32i.n	a7, a2, 0
 7823b4c:	2179                	s32i.n	a7, a1, 8
 7823b4e:	f8cff2               	addi	a15, a15, -8
 7823b51:	0ebcd7               	bgeu	a12, a13, 7823b63 <UTIL_LRFadeGainProcess+0x2f>
 7823b54:	87cd82               	addi	a8, a13, -121
 7823b57:	08be87               	bgeu	a14, a8, 7823b63 <UTIL_LRFadeGainProcess+0x2f>
 7823b5a:	f5bd41               	l32r	a4, 7821250 <_stext+0x110>
 7823b5d:	7d2442               	l32i	a4, a4, 0x1f4
 7823b60:	000406               	j	7823b74 <UTIL_LRFadeGainProcess+0x40>

07823b63 <UTIL_LRFadeGainProcess+0x2f>:
 7823b63:	c0dbd0               	sub	a13, a11, a13
 7823b66:	0d001e4130b0c6de 	{ bgeu.w18	a6, a13, 7823d4d <UTIL_LRFadeGainProcess+0x219>; nop }
 7823b6e:	f5b841               	l32r	a4, 7821250 <_stext+0x110>
 7823b71:	e02442               	l32i	a4, a4, 0x380

07823b74 <UTIL_LRFadeGainProcess+0x40>:
 7823b74:	0405d2               	l8ui	a13, a5, 4
 7823b77:	35a8                	l32i.n	a10, a5, 12
 7823b79:	0ebcd7               	bgeu	a12, a13, 7823b8b <UTIL_LRFadeGainProcess+0x57>
 7823b7c:	87cd82               	addi	a8, a13, -121
 7823b7f:	08be87               	bgeu	a14, a8, 7823b8b <UTIL_LRFadeGainProcess+0x57>
 7823b82:	f5b3a1               	l32r	a10, 7821250 <_stext+0x110>
 7823b85:	7d2aa2               	l32i	a10, a10, 0x1f4
 7823b88:	000406               	j	7823b9c <UTIL_LRFadeGainProcess+0x68>

07823b8b <UTIL_LRFadeGainProcess+0x57>:
 7823b8b:	c0bbd0               	sub	a11, a11, a13
 7823b8e:	0d001e4170b0c6be 	{ bgeu.w18	a6, a11, 7823d79 <UTIL_LRFadeGainProcess+0x245>; nop }
 7823b96:	f5aea1               	l32r	a10, 7821250 <_stext+0x110>
 7823b99:	e02aa2               	l32i	a10, a10, 0x380

07823b9c <UTIL_LRFadeGainProcess+0x68>:
 7823b9c:	022252               	l32i	a5, a2, 8
 7823b9f:	c0aa40               	sub	a10, a10, a4
 7823ba2:	20b550               	or	a11, a5, a5
 7823ba5:	0dafa5               	call8	78316a0 <__divsi3>
 7823ba8:	206aa0               	or	a6, a10, a10
 7823bab:	0149                	s32i.n	a4, a1, 0
 7823bad:	1149                	s32i.n	a4, a1, 4
 7823baf:	198516               	beqz	a5, 7823d4b <UTIL_LRFadeGainProcess+0x217>
 7823bb2:	050c                	movi.n	a5, 0
 7823bb4:	000406               	j	7823bc8 <UTIL_LRFadeGainProcess+0x94>

07823bb7 <UTIL_LRFadeGainProcess+0x83>:
	...

07823bb8 <UTIL_LRFadeGainProcess+0x84>:
 7823bb8:	1149                	s32i.n	a4, a1, 4
 7823bba:	0149                	s32i.n	a4, a1, 0
 7823bbc:	22f8                	l32i.n	a15, a2, 8
 7823bbe:	551b                	addi.n	a5, a5, 1
 7823bc0:	0d00184170b0c5fe 	{ bgeu.w18	a5, a15, 7823d4b <UTIL_LRFadeGainProcess+0x217>; nop }
 7823bc8:	03cd                	mov.n	a12, a3
 7823bca:	1149                	s32i.n	a4, a1, 4
 7823bcc:	0149                	s32i.n	a4, a1, 0
 7823bce:	01ad                	mov.n	a10, a1
 7823bd0:	b14b                	addi.n	a11, a1, 4
 7823bd2:	ffad25               	call8	78236a4 <UTILS_GainBalanceCoef>
 7823bd5:	32a8                	l32i.n	a10, a2, 12
 7823bd7:	446a                	add.n	a4, a4, a6
 7823bd9:	3bba26               	beqi	a10, 16, 7823c18 <UTIL_LRFadeGainProcess+0xe4>
 7823bdc:	881c                	movi.n	a8, 24
 7823bde:	d69a87               	bne	a10, a8, 7823bb8 <UTIL_LRFadeGainProcess+0x84>
 7823be1:	21a8                	l32i.n	a10, a1, 8
 7823be3:	01b8                	l32i.n	a11, a1, 0
 7823be5:	0aa8                	l32i.n	a10, a10, 0
 7823be7:	0cdb16               	beqz	a11, 7823cb8 <UTIL_LRFadeGainProcess+0x184>
 7823bea:	f599c1               	l32r	a12, 7821250 <_stext+0x110>
 7823bed:	21e8a0               	srai	a14, a10, 8
 7823bf0:	8f2cc2               	l32i	a12, a12, 0x23c
 7823bf3:	400001114501db7e 	{ ae_movda32	aed1, a11; nop; movi	a13, 23 }
 7823bfb:	0d000b41e0b0ecbe 	{ bltu.w18	a12, a11, 7823cbd <UTIL_LRFadeGainProcess+0x189>; nop }
 7823c03:	3c0a34               	ae_movda32	aed0, a10
 7823c06:	eb0fdd010000259f 	{ nop; ae_mul32.ll	aed0, aed0, aed1; nop }
 7823c0e:	810d04               	ae_sraa64	aed0, aed0, a13
 7823c11:	2590c4               	ae_movad32.l	a9, aed0
 7823c14:	0032c6               	j	7823ce3 <UTIL_LRFadeGainProcess+0x1af>

07823c17 <UTIL_LRFadeGainProcess+0xe3>:
	...

07823c18 <UTIL_LRFadeGainProcess+0xe4>:
 7823c18:	01b8                	l32i.n	a11, a1, 0
 7823c1a:	0097a2               	l16si	a10, a7, 0
 7823c1d:	5bac                	beqz.n	a11, 7823c46 <UTIL_LRFadeGainProcess+0x112>
 7823c1f:	f58ce1               	l32r	a14, 7821250 <_stext+0x110>
 7823c22:	400001b544104abe 	{ ae_movda16	aed0, a10; nop; ae_movda32	aed1, a11 }
 7823c2a:	8f2ee2               	l32i	a14, a14, 0x23c
 7823c2d:	eb094000010217ff 	{ movi	a15, 23; ae_mul32x16.l0	aed2, aed1, aed0; nop }
 7823c35:	0c0001b021a3eebe 	{ bltu.w18	a14, a11, 7823c4b <UTIL_LRFadeGainProcess+0x117>; ae_mul32x16.l0	aed3, aed1, aed0 }
 7823c3d:	812f24               	ae_sraa64	aed2, aed2, a15
 7823c40:	25a284               	ae_movad16.0	a10, aed2
 7823c43:	0006c6               	j	7823c62 <UTIL_LRFadeGainProcess+0x12e>

07823c46 <UTIL_LRFadeGainProcess+0x112>:
 7823c46:	0a0c                	movi.n	a10, 0
 7823c48:	000586               	j	7823c62 <UTIL_LRFadeGainProcess+0x12e>

07823c4b <UTIL_LRFadeGainProcess+0x117>:
 7823c4b:	791c                	movi.n	a9, 23
 7823c4d:	813934               	ae_sraa64	aed3, aed3, a9
 7823c50:	25a3c4               	ae_movad32.l	a10, aed3
 7823c53:	218fa0               	srai	a8, a10, 15
 7823c56:	31bfa0               	srai	a11, a10, 31
 7823c59:	051b87               	beq	a11, a8, 7823c62 <UTIL_LRFadeGainProcess+0x12e>
 7823c5c:	f573a1               	l32r	a10, 7821228 <_stext+0xe8>
 7823c5f:	30aba0               	xor	a10, a11, a10
 7823c62:	0057a2               	s16i	a10, a7, 0
 7823c65:	11b8                	l32i.n	a11, a1, 4
 7823c67:	0197a2               	l16si	a10, a7, 2
 7823c6a:	5bac                	beqz.n	a11, 7823c93 <UTIL_LRFadeGainProcess+0x15f>
 7823c6c:	f579c1               	l32r	a12, 7821250 <_stext+0x110>
 7823c6f:	400001b544104abe 	{ ae_movda16	aed0, a10; nop; ae_movda32	aed1, a11 }
 7823c77:	8f2cc2               	l32i	a12, a12, 0x23c
 7823c7a:	eb094000010417df 	{ movi	a13, 23; ae_mul32x16.l0	aed4, aed1, aed0; nop }
 7823c82:	0c0001b031a5ecbe 	{ bltu.w18	a12, a11, 7823c99 <UTIL_LRFadeGainProcess+0x165>; ae_mul32x16.l0	aed5, aed1, aed0 }
 7823c8a:	814d44               	ae_sraa64	aed4, aed4, a13
 7823c8d:	25a484               	ae_movad16.0	a10, aed4
 7823c90:	000706               	j	7823cb0 <UTIL_LRFadeGainProcess+0x17c>

07823c93 <UTIL_LRFadeGainProcess+0x15f>:
 7823c93:	0a0c                	movi.n	a10, 0
 7823c95:	0005c6               	j	7823cb0 <UTIL_LRFadeGainProcess+0x17c>

07823c98 <UTIL_LRFadeGainProcess+0x164>:
	...

07823c99 <UTIL_LRFadeGainProcess+0x165>:
 7823c99:	7f1c                	movi.n	a15, 23
 7823c9b:	815f54               	ae_sraa64	aed5, aed5, a15
 7823c9e:	25a5c4               	ae_movad32.l	a10, aed5
 7823ca1:	21efa0               	srai	a14, a10, 15
 7823ca4:	31bfa0               	srai	a11, a10, 31
 7823ca7:	051be7               	beq	a11, a14, 7823cb0 <UTIL_LRFadeGainProcess+0x17c>
 7823caa:	f55fa1               	l32r	a10, 7821228 <_stext+0xe8>
 7823cad:	30aba0               	xor	a10, a11, a10
 7823cb0:	0157a2               	s16i	a10, a7, 2
 7823cb3:	774b                	addi.n	a7, a7, 4
 7823cb5:	ffbfc6               	j	7823bb8 <UTIL_LRFadeGainProcess+0x84>

07823cb8 <UTIL_LRFadeGainProcess+0x184>:
 7823cb8:	090c                	movi.n	a9, 0
 7823cba:	000946               	j	7823ce3 <UTIL_LRFadeGainProcess+0x1af>

07823cbd <UTIL_LRFadeGainProcess+0x189>:
 7823cbd:	3c6e34               	ae_movda32	aed6, a14
 7823cc0:	eb0fdd010606259f 	{ nop; ae_mul32.ll	aed6, aed6, aed1; nop }
 7823cc8:	17a0d2               	movi	a13, 23
 7823ccb:	816d64               	ae_sraa64	aed6, aed6, a13
 7823cce:	25a6c4               	ae_movad32.l	a10, aed6
 7823cd1:	31c7a0               	srai	a12, a10, 23
 7823cd4:	31bfa0               	srai	a11, a10, 31
 7823cd7:	051bc7               	beq	a11, a12, 7823ce0 <UTIL_LRFadeGainProcess+0x1ac>
 7823cda:	f55ea1               	l32r	a10, 7821254 <_stext+0x114>
 7823cdd:	30aba0               	xor	a10, a11, a10
 7823ce0:	119a80               	slli	a9, a10, 8
 7823ce3:	21a8                	l32i.n	a10, a1, 8
 7823ce5:	f55ac1               	l32r	a12, 7821250 <_stext+0x110>
 7823ce8:	0a99                	s32i.n	a9, a10, 0
 7823cea:	11b8                	l32i.n	a11, a1, 4
 7823cec:	1aa8                	l32i.n	a10, a10, 4
 7823cee:	0bac                	beqz.n	a11, 7823d12 <UTIL_LRFadeGainProcess+0x1de>
 7823cf0:	8f2cc2               	l32i	a12, a12, 0x23c
 7823cf3:	400001114501db7e 	{ ae_movda32	aed1, a11; nop; movi	a13, 23 }
 7823cfb:	193cb7               	bltu	a12, a11, 7823d18 <UTIL_LRFadeGainProcess+0x1e4>
 7823cfe:	3c7a34               	ae_movda32	aed7, a10
 7823d01:	eb0fdd010707259f 	{ nop; ae_mul32.ll	aed7, aed7, aed1; nop }
 7823d09:	817d74               	ae_sraa64	aed7, aed7, a13
 7823d0c:	2597c4               	ae_movad32.l	a9, aed7
 7823d0f:	000b46               	j	7823d40 <UTIL_LRFadeGainProcess+0x20c>

07823d12 <UTIL_LRFadeGainProcess+0x1de>:
 7823d12:	090c                	movi.n	a9, 0
 7823d14:	000a06               	j	7823d40 <UTIL_LRFadeGainProcess+0x20c>

07823d17 <UTIL_LRFadeGainProcess+0x1e3>:
	...

07823d18 <UTIL_LRFadeGainProcess+0x1e4>:
 7823d18:	2188a0               	srai	a8, a10, 8
 7823d1b:	3c8834               	ae_movda32	aed8, a8
 7823d1e:	eb0fdd010808259f 	{ nop; ae_mul32.ll	aed8, aed8, aed1; nop }
 7823d26:	7f1c                	movi.n	a15, 23
 7823d28:	818f84               	ae_sraa64	aed8, aed8, a15
 7823d2b:	25a8c4               	ae_movad32.l	a10, aed8
 7823d2e:	31e7a0               	srai	a14, a10, 23
 7823d31:	31bfa0               	srai	a11, a10, 31
 7823d34:	051be7               	beq	a11, a14, 7823d3d <UTIL_LRFadeGainProcess+0x209>
 7823d37:	f547a1               	l32r	a10, 7821254 <_stext+0x114>
 7823d3a:	30aba0               	xor	a10, a11, a10
 7823d3d:	119a80               	slli	a9, a10, 8
 7823d40:	21b8                	l32i.n	a11, a1, 8
 7823d42:	1b99                	s32i.n	a9, a11, 4
 7823d44:	bb8b                	addi.n	a11, a11, 8
 7823d46:	21b9                	s32i.n	a11, a1, 8
 7823d48:	ff9b06               	j	7823bb8 <UTIL_LRFadeGainProcess+0x84>

07823d4b <UTIL_LRFadeGainProcess+0x217>:
 7823d4b:	f01d                	retw.n

07823d4d <UTIL_LRFadeGainProcess+0x219>:
 7823d4d:	a0ddf0               	addx4	a13, a13, a15
 7823d50:	7f2d42               	l32i	a4, a13, 0x1fc
 7823d53:	e1da16               	beqz	a10, 7823b74 <UTIL_LRFadeGainProcess+0x40>
 7823d56:	431aa6               	blti	a10, 1, 7823d9d <UTIL_LRFadeGainProcess+0x269>
 7823d59:	7e2db2               	l32i	a11, a13, 0x1f8
 7823d5c:	c0bb40               	sub	a11, a11, a4
 7823d5f:	0d8c25               	call8	7831620 <__mulsi3>
 7823d62:	8ba0b2               	movi	a11, 139
 7823d65:	79a0c2               	movi	a12, 121
 7823d68:	1e1c                	movi.n	a14, 17
 7823d6a:	f53bf1               	l32r	a15, 7821258 <_stext+0x118>
 7823d6d:	41d3a0               	srli	a13, a10, 3
 7823d70:	44da                	add.n	a4, a4, a13
 7823d72:	ff7f86               	j	7823b74 <UTIL_LRFadeGainProcess+0x40>

07823d75 <UTIL_LRFadeGainProcess+0x241>:
 7823d75:	000000                                        ...

07823d78 <UTIL_LRFadeGainProcess+0x244>:
	...

07823d79 <UTIL_LRFadeGainProcess+0x245>:
 7823d79:	a0bbf0               	addx4	a11, a11, a15
 7823d7c:	7f2b52               	l32i	a5, a11, 0x1fc
 7823d7f:	5a9c                	beqz.n	a10, 7823d98 <UTIL_LRFadeGainProcess+0x264>
 7823d81:	3b1aa6               	blti	a10, 1, 7823dc0 <UTIL_LRFadeGainProcess+0x28c>
 7823d84:	7e2bb2               	l32i	a11, a11, 0x1f8
 7823d87:	c0bb50               	sub	a11, a11, a5
 7823d8a:	0d8965               	call8	7831620 <__mulsi3>
 7823d8d:	41a3a0               	srli	a10, a10, 3
 7823d90:	a5aa                	add.n	a10, a5, a10
 7823d92:	ff8186               	j	7823b9c <UTIL_LRFadeGainProcess+0x68>

07823d95 <UTIL_LRFadeGainProcess+0x261>:
 7823d95:	000000                                        ...

07823d98 <UTIL_LRFadeGainProcess+0x264>:
 7823d98:	05ad                	mov.n	a10, a5
 7823d9a:	ff7f86               	j	7823b9c <UTIL_LRFadeGainProcess+0x68>

07823d9d <UTIL_LRFadeGainProcess+0x269>:
 7823d9d:	802db2               	l32i	a11, a13, 0x200
 7823da0:	c0b4b0               	sub	a11, a4, a11
 7823da3:	0d87e5               	call8	7831620 <__mulsi3>
 7823da6:	8ba0b2               	movi	a11, 139
 7823da9:	79a0c2               	movi	a12, 121
 7823dac:	1e1c                	movi.n	a14, 17
 7823dae:	f52af1               	l32r	a15, 7821258 <_stext+0x118>
 7823db1:	60d0a0               	neg	a13, a10
 7823db4:	41d3d0               	srli	a13, a13, 3
 7823db7:	c044d0               	sub	a4, a4, a13
 7823dba:	ff6d86               	j	7823b74 <UTIL_LRFadeGainProcess+0x40>

07823dbd <UTIL_LRFadeGainProcess+0x289>:
 7823dbd:	000000                                        ...

07823dc0 <UTIL_LRFadeGainProcess+0x28c>:
 7823dc0:	802bb2               	l32i	a11, a11, 0x200
 7823dc3:	c0b5b0               	sub	a11, a5, a11
 7823dc6:	0d85a5               	call8	7831620 <__mulsi3>
 7823dc9:	60a0a0               	neg	a10, a10
 7823dcc:	41a3a0               	srli	a10, a10, 3
 7823dcf:	c0a5a0               	sub	a10, a5, a10
 7823dd2:	ff7186               	j	7823b9c <UTIL_LRFadeGainProcess+0x68>

07823dd5 <UTIL_LRFadeGainProcess+0x2a1>:
 7823dd5:	000000                                        ...

07823dd8 <UTIL_MixerPro>:
 7823dd8:	004136               	entry	a1, 32
 7823ddb:	74ac                	beqz.n	a4, 7823e06 <UTIL_MixerPro+0x2e>
 7823ddd:	33b526               	beqi	a5, 16, 7823e14 <UTIL_MixerPro+0x3c>
 7823de0:	861c                	movi.n	a6, 24
 7823de2:	209567               	bne	a5, a6, 7823e06 <UTIL_MixerPro+0x2e>
 7823de5:	f4f171               	l32r	a7, 78211ac <_stext+0x6c>
 7823de8:	f51d81               	l32r	a8, 782125c <_stext+0x11c>
 7823deb:	179476               	loopnez	a4, 7823e06 <UTIL_MixerPro+0x2e>
 7823dee:	0258                	l32i.n	a5, a2, 0
 7823df0:	0398                	l32i.n	a9, a3, 0
 7823df2:	334b                	addi.n	a3, a3, 4
 7823df4:	459a                	add.n	a4, a5, a9
 7823df6:	309590               	xor	a9, a5, a9
 7823df9:	005996               	bltz	a9, 7823e02 <UTIL_MixerPro+0x2a>
 7823dfc:	30a540               	xor	a10, a5, a4
 7823dff:	005a96               	bltz	a10, 7823e08 <UTIL_MixerPro+0x30>

07823e02 <UTIL_MixerPro+0x2a>:
 7823e02:	0249                	s32i.n	a4, a2, 0
 7823e04:	224b                	addi.n	a2, a2, 4
 7823e06:	f01d                	retw.n

07823e08 <UTIL_MixerPro+0x30>:
 7823e08:	084d                	mov.n	a4, a8
 7823e0a:	a34750               	movltz	a4, a7, a5
 7823e0d:	fffc46               	j	7823e02 <UTIL_MixerPro+0x2a>

07823e10 <UTIL_MixerPro+0x38>:
 7823e10:	00000000                                ....

07823e14 <UTIL_MixerPro+0x3c>:
 7823e14:	f50581               	l32r	a8, 7821228 <_stext+0xe8>
 7823e17:	1a9476               	loopnez	a4, 7823e35 <UTIL_MixerPro+0x5d>
 7823e1a:	009252               	l16si	a5, a2, 0
 7823e1d:	009342               	l16si	a4, a3, 0
 7823e20:	332b                	addi.n	a3, a3, 2
 7823e22:	445a                	add.n	a4, a4, a5
 7823e24:	21bf40               	srai	a11, a4, 15
 7823e27:	315f40               	srai	a5, a4, 31
 7823e2a:	0215b7               	beq	a5, a11, 7823e30 <UTIL_MixerPro+0x58>
 7823e2d:	304580               	xor	a4, a5, a8
 7823e30:	005242               	s16i	a4, a2, 0
 7823e33:	222b                	addi.n	a2, a2, 2

07823e35 <UTIL_MixerPro+0x5d>:
 7823e35:	f01d                	retw.n

07823e37 <UTIL_MixerPro+0x5f>:
	...

07823e38 <UTIL_ChannelModeProcess>:
 7823e38:	006136               	entry	a1, 48
 7823e3b:	0222a2               	l32i	a10, a2, 8
 7823e3e:	0422b2               	l32i	a11, a2, 16
 7823e41:	0d7de5               	call8	7831620 <__mulsi3>
 7823e44:	0a1316               	beqz	a3, 7823ee9 <UTIL_ChannelModeProcess+0xb1>
 7823e47:	18a0d2               	movi	a13, 24
 7823e4a:	681326               	beqi	a3, 1, 7823eb6 <UTIL_ChannelModeProcess+0x7e>
 7823e4d:	0d400a4130b0230e 	{ beqi.w18	a3, 2, 7823ef4 <UTIL_ChannelModeProcess+0xbc>; nop }
 7823e55:	0d400e4180b0330e 	{ beqi.w18	a3, 3, 7823f41 <UTIL_ChannelModeProcess+0x109>; nop }
 7823e5d:	0d401241d0b0430e 	{ beqi.w18	a3, 4, 7823f8e <UTIL_ChannelModeProcess+0x156>; nop }
 7823e65:	090c                	movi.n	a9, 0
 7823e67:	0d401741b0b0530e 	{ beqi.w18	a3, 5, 7823fe6 <UTIL_ChannelModeProcess+0x1ae>; nop }
 7823e6f:	0d401b4150b0630e 	{ beqi.w18	a3, 6, 7824028 <UTIL_ChannelModeProcess+0x1f0>; nop }
 7823e77:	6e7366               	bnei	a3, 7, 7823ee9 <UTIL_ChannelModeProcess+0xb1>
 7823e7a:	0288                	l32i.n	a8, a2, 0
 7823e7c:	069a16               	beqz	a10, 7823ee9 <UTIL_ChannelModeProcess+0xb1>
 7823e7f:	0d402541e0b0b40e 	{ beqi.w18	a4, 16, 78240e1 <UTIL_ChannelModeProcess+0x2a9>; nop }
 7823e87:	5e94d7               	bne	a4, a13, 7823ee9 <UTIL_ChannelModeProcess+0xb1>
 7823e8a:	05ba16               	beqz	a10, 7823ee9 <UTIL_ChannelModeProcess+0xb1>
 7823e8d:	0acd                	mov.n	a12, a10
 7823e8f:	24b0a0               	extui	a11, a10, 0, 3
 7823e92:	039b76               	loopnez	a11, 7823e99 <UTIL_ChannelModeProcess+0x61>
 7823e95:	0899                	s32i.n	a9, a8, 0
 7823e97:	884b                	addi.n	a8, a8, 4

07823e99 <UTIL_ChannelModeProcess+0x61>:
 7823e99:	41a3c0               	srli	a10, a12, 3
 7823e9c:	f03d                	nop.n
 7823e9e:	129a76               	loopnez	a10, 7823eb4 <UTIL_ChannelModeProcess+0x7c>
 7823ea1:	0899                	s32i.n	a9, a8, 0
 7823ea3:	1899                	s32i.n	a9, a8, 4
 7823ea5:	2899                	s32i.n	a9, a8, 8
 7823ea7:	3899                	s32i.n	a9, a8, 12
 7823ea9:	4899                	s32i.n	a9, a8, 16
 7823eab:	5899                	s32i.n	a9, a8, 20
 7823ead:	6899                	s32i.n	a9, a8, 24
 7823eaf:	7899                	s32i.n	a9, a8, 28
 7823eb1:	20c882               	addi	a8, a8, 32
 7823eb4:	f01d                	retw.n

07823eb6 <UTIL_ChannelModeProcess+0x7e>:
 7823eb6:	0288                	l32i.n	a8, a2, 0
 7823eb8:	daac                	beqz.n	a10, 7823ee9 <UTIL_ChannelModeProcess+0xb1>
 7823eba:	0d401a41a0b0b40e 	{ beqi.w18	a4, 16, 7824068 <UTIL_ChannelModeProcess+0x230>; nop }
 7823ec2:	2394d7               	bne	a4, a13, 7823ee9 <UTIL_ChannelModeProcess+0xb1>
 7823ec5:	f4e5d1               	l32r	a13, 782125c <_stext+0x11c>
 7823ec8:	f4b9c1               	l32r	a12, 78211ac <_stext+0x6c>
 7823ecb:	41e1a0               	srli	a14, a10, 1
 7823ece:	179e76               	loopnez	a14, 7823ee9 <UTIL_ChannelModeProcess+0xb1>
 7823ed1:	18f8                	l32i.n	a15, a8, 4
 7823ed3:	08a8                	l32i.n	a10, a8, 0
 7823ed5:	9afa                	add.n	a9, a10, a15
 7823ed7:	30faf0               	xor	a15, a10, a15
 7823eda:	005f96               	bltz	a15, 7823ee3 <UTIL_ChannelModeProcess+0xab>
 7823edd:	30ba90               	xor	a11, a10, a9
 7823ee0:	007b96               	bltz	a11, 7823eeb <UTIL_ChannelModeProcess+0xb3>
 7823ee3:	0899                	s32i.n	a9, a8, 0
 7823ee5:	1899                	s32i.n	a9, a8, 4
 7823ee7:	888b                	addi.n	a8, a8, 8
 7823ee9:	f01d                	retw.n

07823eeb <UTIL_ChannelModeProcess+0xb3>:
 7823eeb:	0d9d                	mov.n	a9, a13
 7823eed:	a39ca0               	movltz	a9, a12, a10
 7823ef0:	fffbc6               	j	7823ee3 <UTIL_ChannelModeProcess+0xab>

07823ef3 <UTIL_ChannelModeProcess+0xbb>:
	...

07823ef4 <UTIL_ChannelModeProcess+0xbc>:
 7823ef4:	0288                	l32i.n	a8, a2, 0
 7823ef6:	fefa16               	beqz	a10, 7823ee9 <UTIL_ChannelModeProcess+0xb1>
 7823ef9:	0d40194130b0b40e 	{ beqi.w18	a4, 16, 7824090 <UTIL_ChannelModeProcess+0x258>; nop }
 7823f01:	e494d7               	bne	a4, a13, 7823ee9 <UTIL_ChannelModeProcess+0xb1>
 7823f04:	41c1a0               	srli	a12, a10, 1
 7823f07:	fdec16               	beqz	a12, 7823ee9 <UTIL_ChannelModeProcess+0xb1>
 7823f0a:	24d1a0               	extui	a13, a10, 1, 3
 7823f0d:	059d76               	loopnez	a13, 7823f16 <UTIL_ChannelModeProcess+0xde>
 7823f10:	08e8                	l32i.n	a14, a8, 0
 7823f12:	18e9                	s32i.n	a14, a8, 4
 7823f14:	888b                	addi.n	a8, a8, 8

07823f16 <UTIL_ChannelModeProcess+0xde>:
 7823f16:	4123c0               	srli	a2, a12, 3
 7823f19:	229276               	loopnez	a2, 7823f3f <UTIL_ChannelModeProcess+0x107>
 7823f1c:	0898                	l32i.n	a9, a8, 0
 7823f1e:	28a8                	l32i.n	a10, a8, 8
 7823f20:	48b8                	l32i.n	a11, a8, 16
 7823f22:	68c8                	l32i.n	a12, a8, 24
 7823f24:	88d8                	l32i.n	a13, a8, 32
 7823f26:	a8e8                	l32i.n	a14, a8, 40
 7823f28:	c8f8                	l32i.n	a15, a8, 48
 7823f2a:	e828                	l32i.n	a2, a8, 56
 7823f2c:	1899                	s32i.n	a9, a8, 4
 7823f2e:	38a9                	s32i.n	a10, a8, 12
 7823f30:	58b9                	s32i.n	a11, a8, 20
 7823f32:	78c9                	s32i.n	a12, a8, 28
 7823f34:	98d9                	s32i.n	a13, a8, 36
 7823f36:	b8e9                	s32i.n	a14, a8, 44
 7823f38:	d8f9                	s32i.n	a15, a8, 52
 7823f3a:	f829                	s32i.n	a2, a8, 60
 7823f3c:	40c882               	addi	a8, a8, 64
 7823f3f:	f01d                	retw.n

07823f41 <UTIL_ChannelModeProcess+0x109>:
 7823f41:	0288                	l32i.n	a8, a2, 0
 7823f43:	fa2a16               	beqz	a10, 7823ee9 <UTIL_ChannelModeProcess+0xb1>
 7823f46:	0d401c41e0b0b40e 	{ beqi.w18	a4, 16, 7824118 <UTIL_ChannelModeProcess+0x2e0>; nop }
 7823f4e:	9794d7               	bne	a4, a13, 7823ee9 <UTIL_ChannelModeProcess+0xb1>
 7823f51:	41c1a0               	srli	a12, a10, 1
 7823f54:	f91c16               	beqz	a12, 7823ee9 <UTIL_ChannelModeProcess+0xb1>
 7823f57:	24f1a0               	extui	a15, a10, 1, 3
 7823f5a:	059f76               	loopnez	a15, 7823f63 <UTIL_ChannelModeProcess+0x12b>
 7823f5d:	1898                	l32i.n	a9, a8, 4
 7823f5f:	0899                	s32i.n	a9, a8, 0
 7823f61:	888b                	addi.n	a8, a8, 8

07823f63 <UTIL_ChannelModeProcess+0x12b>:
 7823f63:	4123c0               	srli	a2, a12, 3
 7823f66:	229276               	loopnez	a2, 7823f8c <UTIL_ChannelModeProcess+0x154>
 7823f69:	1898                	l32i.n	a9, a8, 4
 7823f6b:	38a8                	l32i.n	a10, a8, 12
 7823f6d:	58b8                	l32i.n	a11, a8, 20
 7823f6f:	78c8                	l32i.n	a12, a8, 28
 7823f71:	98d8                	l32i.n	a13, a8, 36
 7823f73:	b8e8                	l32i.n	a14, a8, 44
 7823f75:	d8f8                	l32i.n	a15, a8, 52
 7823f77:	f828                	l32i.n	a2, a8, 60
 7823f79:	0899                	s32i.n	a9, a8, 0
 7823f7b:	28a9                	s32i.n	a10, a8, 8
 7823f7d:	48b9                	s32i.n	a11, a8, 16
 7823f7f:	68c9                	s32i.n	a12, a8, 24
 7823f81:	88d9                	s32i.n	a13, a8, 32
 7823f83:	a8e9                	s32i.n	a14, a8, 40
 7823f85:	c8f9                	s32i.n	a15, a8, 48
 7823f87:	e829                	s32i.n	a2, a8, 56
 7823f89:	40c882               	addi	a8, a8, 64
 7823f8c:	f01d                	retw.n

07823f8e <UTIL_ChannelModeProcess+0x156>:
 7823f8e:	0288                	l32i.n	a8, a2, 0
 7823f90:	f55a16               	beqz	a10, 7823ee9 <UTIL_ChannelModeProcess+0xb1>
 7823f93:	0d401d4110b0b40e 	{ beqi.w18	a4, 16, 7824168 <UTIL_ChannelModeProcess+0x330>; nop }
 7823f9b:	0d3ff441a0b0b4de 	{ bne.w18	a4, a13, 7823ee9 <UTIL_ChannelModeProcess+0xb1>; nop }
 7823fa3:	41c1a0               	srli	a12, a10, 1
 7823fa6:	f3fc16               	beqz	a12, 7823ee9 <UTIL_ChannelModeProcess+0xb1>
 7823fa9:	14b1a0               	extui	a11, a10, 1, 2
 7823fac:	f03d                	nop.n
 7823fae:	099b76               	loopnez	a11, 7823fbb <UTIL_ChannelModeProcess+0x183>
 7823fb1:	08d8                	l32i.n	a13, a8, 0
 7823fb3:	18e8                	l32i.n	a14, a8, 4
 7823fb5:	08e9                	s32i.n	a14, a8, 0
 7823fb7:	18d9                	s32i.n	a13, a8, 4
 7823fb9:	888b                	addi.n	a8, a8, 8

07823fbb <UTIL_ChannelModeProcess+0x183>:
 7823fbb:	4122c0               	srli	a2, a12, 2
 7823fbe:	229276               	loopnez	a2, 7823fe4 <UTIL_ChannelModeProcess+0x1ac>
 7823fc1:	0898                	l32i.n	a9, a8, 0
 7823fc3:	18a8                	l32i.n	a10, a8, 4
 7823fc5:	28b8                	l32i.n	a11, a8, 8
 7823fc7:	38c8                	l32i.n	a12, a8, 12
 7823fc9:	48d8                	l32i.n	a13, a8, 16
 7823fcb:	58e8                	l32i.n	a14, a8, 20
 7823fcd:	68f8                	l32i.n	a15, a8, 24
 7823fcf:	7828                	l32i.n	a2, a8, 28
 7823fd1:	08a9                	s32i.n	a10, a8, 0
 7823fd3:	1899                	s32i.n	a9, a8, 4
 7823fd5:	28c9                	s32i.n	a12, a8, 8
 7823fd7:	38b9                	s32i.n	a11, a8, 12
 7823fd9:	48e9                	s32i.n	a14, a8, 16
 7823fdb:	58d9                	s32i.n	a13, a8, 20
 7823fdd:	6829                	s32i.n	a2, a8, 24
 7823fdf:	78f9                	s32i.n	a15, a8, 28
 7823fe1:	20c882               	addi	a8, a8, 32
 7823fe4:	f01d                	retw.n

07823fe6 <UTIL_ChannelModeProcess+0x1ae>:
 7823fe6:	0288                	l32i.n	a8, a2, 0
 7823fe8:	efda16               	beqz	a10, 7823ee9 <UTIL_ChannelModeProcess+0xb1>
 7823feb:	0d401c41e0b0b40e 	{ beqi.w18	a4, 16, 78241bd <UTIL_ChannelModeProcess+0x385>; nop }
 7823ff3:	0d3fef4120b0b4de 	{ bne.w18	a4, a13, 7823ee9 <UTIL_ChannelModeProcess+0xb1>; nop }
 7823ffb:	41c1a0               	srli	a12, a10, 1
 7823ffe:	ee7c16               	beqz	a12, 7823ee9 <UTIL_ChannelModeProcess+0xb1>
 7824001:	24f1a0               	extui	a15, a10, 1, 3
 7824004:	f03d                	nop.n
 7824006:	039f76               	loopnez	a15, 782400d <UTIL_ChannelModeProcess+0x1d5>
 7824009:	0899                	s32i.n	a9, a8, 0
 782400b:	888b                	addi.n	a8, a8, 8

0782400d <UTIL_ChannelModeProcess+0x1d5>:
 782400d:	41a3c0               	srli	a10, a12, 3
 7824010:	129a76               	loopnez	a10, 7824026 <UTIL_ChannelModeProcess+0x1ee>
 7824013:	0899                	s32i.n	a9, a8, 0
 7824015:	2899                	s32i.n	a9, a8, 8
 7824017:	4899                	s32i.n	a9, a8, 16
 7824019:	6899                	s32i.n	a9, a8, 24
 782401b:	8899                	s32i.n	a9, a8, 32
 782401d:	a899                	s32i.n	a9, a8, 40
 782401f:	c899                	s32i.n	a9, a8, 48
 7824021:	e899                	s32i.n	a9, a8, 56
 7824023:	40c882               	addi	a8, a8, 64
 7824026:	f01d                	retw.n

07824028 <UTIL_ChannelModeProcess+0x1f0>:
 7824028:	0288                	l32i.n	a8, a2, 0
 782402a:	ebba16               	beqz	a10, 7823ee9 <UTIL_ChannelModeProcess+0xb1>
 782402d:	0d401c4100b0b40e 	{ beqi.w18	a4, 16, 78241f1 <UTIL_ChannelModeProcess+0x3b9>; nop }
 7824035:	0d3feb4100b0b4de 	{ bne.w18	a4, a13, 7823ee9 <UTIL_ChannelModeProcess+0xb1>; nop }
 782403d:	41c1a0               	srli	a12, a10, 1
 7824040:	ea5c16               	beqz	a12, 7823ee9 <UTIL_ChannelModeProcess+0xb1>
 7824043:	24b1a0               	extui	a11, a10, 1, 3
 7824046:	039b76               	loopnez	a11, 782404d <UTIL_ChannelModeProcess+0x215>
 7824049:	1899                	s32i.n	a9, a8, 4
 782404b:	888b                	addi.n	a8, a8, 8

0782404d <UTIL_ChannelModeProcess+0x215>:
 782404d:	41a3c0               	srli	a10, a12, 3
 7824050:	129a76               	loopnez	a10, 7824066 <UTIL_ChannelModeProcess+0x22e>
 7824053:	1899                	s32i.n	a9, a8, 4
 7824055:	3899                	s32i.n	a9, a8, 12
 7824057:	5899                	s32i.n	a9, a8, 20
 7824059:	7899                	s32i.n	a9, a8, 28
 782405b:	9899                	s32i.n	a9, a8, 36
 782405d:	b899                	s32i.n	a9, a8, 44
 782405f:	d899                	s32i.n	a9, a8, 52
 7824061:	f899                	s32i.n	a9, a8, 60
 7824063:	40c882               	addi	a8, a8, 64
 7824066:	f01d                	retw.n

07824068 <UTIL_ChannelModeProcess+0x230>:
 7824068:	f470d1               	l32r	a13, 7821228 <_stext+0xe8>
 782406b:	41c1a0               	srli	a12, a10, 1
 782406e:	1b9c76               	loopnez	a12, 782408d <UTIL_ChannelModeProcess+0x255>
 7824071:	0198a2               	l16si	a10, a8, 2
 7824074:	009892               	l16si	a9, a8, 0
 7824077:	99aa                	add.n	a9, a9, a10
 7824079:	21ef90               	srai	a14, a9, 15
 782407c:	31af90               	srai	a10, a9, 31
 782407f:	021ae7               	beq	a10, a14, 7824085 <UTIL_ChannelModeProcess+0x24d>
 7824082:	309ad0               	xor	a9, a10, a13
 7824085:	005892               	s16i	a9, a8, 0
 7824088:	015892               	s16i	a9, a8, 2
 782408b:	884b                	addi.n	a8, a8, 4

0782408d <UTIL_ChannelModeProcess+0x255>:
 782408d:	f01d                	retw.n

0782408f <UTIL_ChannelModeProcess+0x257>:
	...

