#include "hi_asm_define.h"
	.arch armv7-a
	.fpu softvfp
	.eabi_attribute 20, 1
	.eabi_attribute 21, 1
	.eabi_attribute 23, 3
	.eabi_attribute 24, 1
	.eabi_attribute 25, 1
	.eabi_attribute 26, 2
	.eabi_attribute 30, 2
	.eabi_attribute 34, 0
	.eabi_attribute 18, 4
	.file	"hevc.c"
	.text
	.align	2
	.type	HEVC_ComparePicByPocAsc, %function
HEVC_ComparePicByPocAsc:
	UNWIND(.fnstart)
	@ args = 0, pretend = 0, frame = 0
	@ frame_needed = 1, uses_anonymous_args = 0
	UNWIND(.movsp ip)
	mov	ip, sp
	stmfd	sp!, {fp, ip, lr, pc}
	UNWIND(.pad #4)
	UNWIND(.save {fp, ip, lr})
	UNWIND(.setfp fp, ip, #-4)
	sub	fp, ip, #4
	ldr	r2, [r0]
	ldr	r3, [r1]
	ldr	r2, [r2, #8]
	ldr	r3, [r3, #8]
	cmp	r2, r3
	blt	.L3
	movgt	r0, #1
	movle	r0, #0
	ldmfd	sp, {fp, sp, pc}
.L3:
	mvn	r0, #0
	ldmfd	sp, {fp, sp, pc}
	UNWIND(.fnend)
	.size	HEVC_ComparePicByPocAsc, .-HEVC_ComparePicByPocAsc
	.global	__aeabi_idivmod
	.align	2
	.type	HEVC_CheckThatAllRefPicsAreAvailable.part.8, %function
HEVC_CheckThatAllRefPicsAreAvailable.part.8:
	UNWIND(.fnstart)
	@ args = 0, pretend = 0, frame = 40
	@ frame_needed = 1, uses_anonymous_args = 0
	UNWIND(.movsp ip)
	mov	ip, sp
	stmfd	sp!, {r4, r5, r6, r7, r8, r9, r10, fp, ip, lr, pc}
	UNWIND(.pad #4)
	UNWIND(.save {r4, r5, r6, r7, r8, r9, r10, fp, ip, lr})
	UNWIND(.setfp fp, ip, #-4)
	sub	fp, ip, #4
	UNWIND(.pad #44)
	sub	sp, sp, #44
	add	r3, r0, #4096
	ldr	ip, [r0, #2336]
	mov	r6, #1888
	ldr	r2, [r3, #108]
	movw	r4, #12660
	ldr	r5, [r3, #1008]
	mov	r7, r0
	str	r1, [fp, #-84]
	mla	ip, r6, r2, ip
	ldr	r1, [r3, #1004]
	ldr	lr, [r0, #2332]
	add	r1, r5, r1
	ldr	r2, [r3, #1012]
	str	r1, [fp, #-80]
	mov	r5, r1
	cmp	r1, r2
	ldr	ip, [ip, #32]
	str	r0, [fp, #-60]
	mov	r0, #1
	mla	r1, r4, ip, lr
	ldr	r10, [r1, #116]
	mov	r10, r0, asl r10
	bcs	.L6
	add	r9, r5, #1296
	ldr	r6, [r7, #2556]
	add	r9, r9, #4
	mov	r0, #0
	add	r2, r2, #5056
	add	r1, r5, #5056
	add	r9, r7, r9, lsl #2
	mov	ip, r0
	add	r2, r2, #56
	add	r1, r1, #56
	str	r0, [fp, #-64]
	mov	r0, r7
	add	r2, r7, r2
	str	ip, [fp, #-72]
	str	r2, [fp, #-68]
	add	r2, r7, r1
	str	r3, [fp, #-76]
	str	r2, [fp, #-56]
.L7:
	cmp	r6, #0
	beq	.L13
	ldr	r3, [fp, #-60]
	mov	r2, #0
	ldr	r8, [r9, #-944]
	mov	r5, r2
	add	r4, r3, #2576
	str	r2, [fp, #-52]
	b	.L10
.L50:
	ldr	r3, [r4]
	ldr	r1, [r3, #60]
	cmp	r1, #0
	beq	.L9
	ldr	r0, [r3, #8]
	ldr	r1, [r9]
	cmp	r0, r1
	ldreqb	r3, [r3, #1]	@ zero_extendqisi2
	beq	.L48
.L9:
	add	r5, r5, #1
	add	r4, r4, #4
	cmp	r5, r6
	beq	.L49
.L10:
	cmp	r8, #0
	bne	.L50
	ldr	r7, [r4]
	mov	r1, r10
	ldr	r3, [r7, #60]
	cmp	r3, #0
	beq	.L9
	ldr	r0, [r7, #8]
	bl	__aeabi_idivmod
	ldr	r0, [r9]
	str	r1, [fp, #-48]
	mov	r1, r10
	bl	__aeabi_idivmod
	ldr	r3, [fp, #-48]
	cmp	r3, r1
	bne	.L9
	ldrb	r3, [r7, #1]	@ zero_extendqisi2
.L48:
	cmp	r3, #0
	add	r5, r5, #1
	ldr	r3, [fp, #-52]
	add	r4, r4, #4
	movne	r3, #1
	cmp	r5, r6
	str	r3, [fp, #-52]
	bne	.L10
.L49:
	ldr	r2, [fp, #-52]
	cmp	r2, #0
	beq	.L13
.L11:
	ldr	r3, [fp, #-56]
	add	r9, r9, #4
	ldr	r2, [fp, #-68]
	add	r3, r3, #1
	str	r3, [fp, #-56]
	cmp	r3, r2
	bne	.L7
	ldr	r2, [fp, #-80]
	ldr	r3, [fp, #-76]
	cmp	r2, #0
	beq	.L15
.L14:
	ldr	r2, [fp, #-60]
	mov	r7, #0
	ldr	r10, [fp, #-80]
	add	r4, r2, #5120
	add	r8, r2, #5056
	ldr	r0, [fp, #-72]
	add	r4, r4, #12
	add	r8, r8, #56
	mov	r9, r2
.L19:
	cmp	r6, #0
	beq	.L20
	add	lr, r9, #2560
	mov	r5, #0
	add	lr, lr, #12
	mov	r2, r5
	str	r0, [fp, #-48]
	b	.L17
.L16:
	cmp	r2, r6
	beq	.L51
.L17:
	ldr	r1, [lr, #4]!
	add	r2, r2, #1
	ldr	ip, [r1, #60]
	cmp	ip, #0
	bne	.L16
	ldr	r0, [r4]
	ldr	ip, [r3, #84]
	add	ip, ip, r0
	ldr	r0, [r1, #8]
	cmp	r0, ip
	bne	.L16
	ldrb	r1, [r1, #1]	@ zero_extendqisi2
	cmp	r1, #0
	movne	r5, #1
	cmp	r2, r6
	bne	.L17
.L51:
	cmp	r5, #0
	ldr	r0, [fp, #-48]
	beq	.L20
.L18:
	add	r7, r7, #1
	add	r4, r4, #4
	cmp	r10, r7
	add	r8, r8, #1
	bhi	.L19
	str	r0, [fp, #-72]
.L15:
	ldr	r3, [fp, #-72]
	cmp	r3, #0
	ldrne	r3, [fp, #-84]
	movne	r0, #0
	ldrne	r2, [fp, #-64]
	moveq	r0, #1
	strne	r2, [r3]
.L47:
	sub	sp, fp, #40
	ldmfd	sp, {r4, r5, r6, r7, r8, r9, r10, fp, sp, pc}
.L20:
	ldr	r1, [r3, #104]
	ldr	r2, [r3, #84]
	ldr	ip, [r4]
	add	r1, r9, r1, lsl #2
	add	r2, r2, ip
	ldr	r1, [r1, #228]
	cmp	r2, r1
	blt	.L18
	ldrb	r1, [r8]	@ zero_extendqisi2
	cmp	r1, #0
	ldr	r1, [fp, #-64]
	movne	r0, #1
	movne	r1, r2
	str	r1, [fp, #-64]
	b	.L18
.L13:
	ldr	r3, [fp, #-76]
	ldr	r0, [r9, #-68]
	ldr	r1, [r3, #104]
	ldr	r2, [r3, #84]
	ldr	r3, [fp, #-60]
	add	r2, r2, r0
	add	r1, r3, r1, lsl #2
	ldr	r1, [r1, #228]
	cmp	r2, r1
	blt	.L11
	ldr	r3, [fp, #-56]
	ldrb	r1, [r3]	@ zero_extendqisi2
	ldr	r3, [fp, #-64]
	cmp	r1, #0
	movne	r3, r2
	str	r3, [fp, #-64]
	ldr	r3, [fp, #-72]
	movne	r3, #1
	str	r3, [fp, #-72]
	b	.L11
.L6:
	ldr	r2, [fp, #-80]
	cmp	r2, #0
	beq	.L47
	ldr	r1, [fp, #-60]
	mov	r2, #0
	str	r2, [fp, #-64]
	str	r2, [fp, #-72]
	ldr	r6, [r1, #2556]
	b	.L14
	UNWIND(.fnend)
	.size	HEVC_CheckThatAllRefPicsAreAvailable.part.8, .-HEVC_CheckThatAllRefPicsAreAvailable.part.8
	.align	2
	.type	HEVC_SetFrmRepeatCount.part.9, %function
HEVC_SetFrmRepeatCount.part.9:
	UNWIND(.fnstart)
	@ args = 0, pretend = 0, frame = 0
	@ frame_needed = 1, uses_anonymous_args = 0
	UNWIND(.movsp ip)
	mov	ip, sp
	stmfd	sp!, {fp, ip, lr, pc}
	UNWIND(.pad #4)
	UNWIND(.save {fp, ip, lr})
	UNWIND(.setfp fp, ip, #-4)
	sub	fp, ip, #4
	ldr	ip, [r0, #284]
	ldr	r2, [r0, #2552]
	ldr	r3, [r0, #280]
	add	r2, r2, ip
	add	ip, r2, #1
	cmp	r3, ip
	movcc	r3, #0
	strcc	r3, [r1, #16]
	ldmccfd	sp, {fp, sp, pc}
	sub	r3, r3, #1
	rsb	r3, r2, r3
	cmp	r3, #1
	movhi	r3, #2
	movls	r3, #1
	strhi	r3, [r1, #16]
	strls	r3, [r1, #16]
	ldrhi	r3, [r0, #284]
	ldrls	r3, [r0, #284]
	addhi	r3, r3, #2
	addls	r3, r3, #1
	str	r3, [r0, #284]
	ldmfd	sp, {fp, sp, pc}
	UNWIND(.fnend)
	.size	HEVC_SetFrmRepeatCount.part.9, .-HEVC_SetFrmRepeatCount.part.9
	.align	2
	.type	HEVC_OutputFrame.isra.10, %function
HEVC_OutputFrame.isra.10:
	UNWIND(.fnstart)
	@ args = 0, pretend = 0, frame = 0
	@ frame_needed = 1, uses_anonymous_args = 0
	UNWIND(.movsp ip)
	mov	ip, sp
	stmfd	sp!, {r4, r5, r6, fp, ip, lr, pc}
	UNWIND(.pad #4)
	UNWIND(.save {r4, r5, r6, fp, ip, lr})
	UNWIND(.setfp fp, ip, #-4)
	sub	fp, ip, #4
	UNWIND(.pad #12)
	sub	sp, sp, #12
	mov	r4, r0
	mov	r5, r1
	ldr	r0, [r0, #252]
	ldr	r1, [r1]
	bl	FSP_GetFsImagePtr
	subs	r6, r0, #0
	beq	.L62
	mov	r2, #1
	ldr	r1, [r5]
	ldr	r0, [r4, #252]
	bl	FSP_SetDisplay
	add	r3, r4, #5504
	ldr	r0, [r4, #252]
	add	r3, r3, #24
	str	r6, [sp]
	mov	r2, r4
	mov	r1, #16
	bl	InsertImgToVoQueue
	cmp	r0, #1
	bne	.L63
	ldr	r3, [r4, #2372]
	ldr	r3, [r3, #612]
	add	r3, r3, #2032
	add	r3, r3, #15
	cmp	r3, #4096
	movcc	r3, #0
	strcc	r3, [r6, #16]
	bcs	.L64
.L61:
	ldr	r2, [r4, #292]
	mov	r0, #0
	ldr	r3, [r4, #284]
	add	r2, r2, #1
	str	r2, [r4, #292]
	add	r3, r3, #1
	str	r3, [r4, #284]
.L58:
	sub	sp, fp, #24
	ldmfd	sp, {r4, r5, r6, fp, sp, pc}
.L64:
	mov	r1, r6
	mov	r0, r4
	bl	HEVC_SetFrmRepeatCount.part.9
	b	.L61
.L63:
	ldr	r2, .L65
	mov	r0, #1
	ldr	r1, .L65+4
	bl	dprint_vfmw
	ldr	r0, [r4, #252]
	ldr	r1, [r5]
	mov	r2, #0
	bl	FSP_SetDisplay
	mvn	r0, #0
	b	.L58
.L62:
	ldr	r2, .L65
	ldr	r1, .L65+8
	bl	dprint_vfmw
	mvn	r0, #0
	b	.L58
.L66:
	.align	2
.L65:
	.word	.LANCHOR0
	.word	.LC3
	.word	.LC2
	UNWIND(.fnend)
	.size	HEVC_OutputFrame.isra.10, .-HEVC_OutputFrame.isra.10
	.align	2
	.global	HEVC_Sei_ParsePts_Init
	.type	HEVC_Sei_ParsePts_Init, %function
HEVC_Sei_ParsePts_Init:
	UNWIND(.fnstart)
	@ args = 0, pretend = 0, frame = 0
	@ frame_needed = 1, uses_anonymous_args = 0
	UNWIND(.movsp ip)
	mov	ip, sp
	stmfd	sp!, {r4, r5, r6, r7, fp, ip, lr, pc}
	UNWIND(.pad #4)
	UNWIND(.save {r4, r5, r6, r7, fp, ip, lr})
	UNWIND(.setfp fp, ip, #-4)
	sub	fp, ip, #4
	ldr	r3, .L68
	mov	r6, r0
	mov	r2, #56
	add	r0, r0, #11072
	mov	r1, #0
	mov	r4, #0
	ldr	r3, [r3, #48]
	mov	r5, #0
	blx	r3
	add	r3, r6, #2864
	mov	r2, #0
	strd	r4, [r3, #32]
	strd	r4, [r3, #8]
	strd	r4, [r3, #16]
	strd	r4, [r3, #24]
	str	r2, [r6, #2852]
	ldmfd	sp, {r4, r5, r6, r7, fp, sp, pc}
.L69:
	.align	2
.L68:
	.word	vfmw_Osal_Func_Ptr_S
	UNWIND(.fnend)
	.size	HEVC_Sei_ParsePts_Init, .-HEVC_Sei_ParsePts_Init
	.align	2
	.global	HEVC_Sei_Get_Dpb_Output_Time
	.type	HEVC_Sei_Get_Dpb_Output_Time, %function
HEVC_Sei_Get_Dpb_Output_Time:
	UNWIND(.fnstart)
	@ args = 0, pretend = 0, frame = 0
	@ frame_needed = 1, uses_anonymous_args = 0
	UNWIND(.movsp ip)
	mov	ip, sp
	stmfd	sp!, {r4, r5, r6, r7, r8, r9, fp, ip, lr, pc}
	UNWIND(.pad #4)
	UNWIND(.save {r4, r5, r6, r7, r8, r9, fp, ip, lr})
	UNWIND(.setfp fp, ip, #-4)
	sub	fp, ip, #4
	add	r3, r0, #4096
	ldr	r5, [r0, #2336]
	mov	r6, #1888
	ldr	r1, [r0, #2332]
	ldr	ip, [r3, #108]
	movw	r4, #12660
	ldr	lr, [r2, #36]
	add	r3, r0, #8192
	mla	ip, r6, ip, r5
	ldr	r5, [r3, #2884]
	cmp	r5, #1
	ldr	ip, [ip, #32]
	str	lr, [r3, #2892]
	ldr	lr, [r2, #40]
	mla	r1, r4, ip, r1
	str	lr, [r3, #2896]
	ldr	ip, [r1, #52]
	add	ip, ip, #90
	ldrb	ip, [r1, ip, asl #2]	@ zero_extendqisi2
	beq	.L78
	ldrb	r1, [r3, #2881]	@ zero_extendqisi2
	cmp	r1, #0
	bne	.L79
	add	r1, r0, #2864
	ldr	lr, [r0, #2864]
	ldrd	r4, [r1, #8]
	adds	r4, r4, lr
	adc	r5, r5, #0
	strd	r4, [r1, #32]
.L72:
	add	lr, r0, #11072
	strd	r4, [r1, #24]
	mov	r1, #0
	strb	r1, [r3, #2881]
	ldrd	r6, [lr, #32]
	strd	r6, [lr, #48]
	ldrb	r3, [r2, #2]	@ zero_extendqisi2
	cmp	r3, r1
	ldr	r3, [r0, #2868]
	bne	.L80
	adds	r4, r4, r3
	adc	r5, r5, #0
	subs	r4, r4, ip
	sbc	r5, r5, #0
	strd	r4, [lr, #32]
	ldmfd	sp, {r4, r5, r6, r7, r8, r9, fp, sp, pc}
.L79:
	ldrb	r1, [r0, #2848]	@ zero_extendqisi2
	cmp	r1, #0
	add	r1, r0, #2864
	bne	.L81
	ldrd	r4, [r1, #8]
	ldrd	r8, [r1, #16]
.L75:
	ldr	r6, [r0, #2864]
	mov	r7, #0
	adds	r4, r4, r6
	adc	r5, r5, r7
	cmp	r4, r8
	sbcs	lr, r5, r9
	strd	r4, [r1, #32]
	strd	r4, [r1, #8]
	bge	.L72
	adds	r4, r6, r8
	adc	r5, r7, r9
	strd	r4, [r1, #32]
	strd	r4, [r1, #8]
	b	.L72
.L80:
	adds	r4, r4, r3
	adc	r5, r5, #0
	movs	r5, r5, asr #1
	mov	r4, r4, rrx
	subs	r4, r4, ip
	sbc	r5, r5, #0
	strd	r4, [lr, #32]
	ldmfd	sp, {r4, r5, r6, r7, r8, r9, fp, sp, pc}
.L78:
	ldr	r4, [r0, #2852]
	add	r1, r0, #2864
	mov	r5, r4, asr #31
	strd	r4, [r1, #32]
	strd	r4, [r1, #8]
	b	.L72
.L81:
	ldrd	r4, [r1, #16]
	mov	r8, r4
	mov	r9, r5
	b	.L75
	UNWIND(.fnend)
	.size	HEVC_Sei_Get_Dpb_Output_Time, .-HEVC_Sei_Get_Dpb_Output_Time
	.align	2
	.global	HEVC_Get_Last_IDR_Frame_Info
	.type	HEVC_Get_Last_IDR_Frame_Info, %function
HEVC_Get_Last_IDR_Frame_Info:
	UNWIND(.fnstart)
	@ args = 0, pretend = 0, frame = 0
	@ frame_needed = 1, uses_anonymous_args = 0
	UNWIND(.movsp ip)
	mov	ip, sp
	stmfd	sp!, {r4, r5, fp, ip, lr, pc}
	UNWIND(.pad #4)
	UNWIND(.save {r4, r5, fp, ip, lr})
	UNWIND(.setfp fp, ip, #-4)
	sub	fp, ip, #4
	sub	r3, r1, #19
	cmp	r3, #1
	bls	.L86
.L83:
	sub	r1, r1, #6
	cmp	r1, #3
	addhi	r0, r0, #2864
	ldrhid	r2, [r0, #32]
	strhid	r2, [r0, #16]
	ldmfd	sp, {r4, r5, fp, sp, pc}
.L86:
	ldr	ip, [r0, #2372]
	mvn	r3, #0
	mvn	r2, #0
	ldrd	r4, [ip, #56]
	cmp	r5, r3
	cmpeq	r4, r2
	beq	.L84
	add	r3, r0, #11072
	movw	r2, #11104
	add	r3, r3, #32
	add	ip, r0, #11072
	strd	r4, [r3, #-8]
	ldrd	r2, [r2, r0]
	strd	r2, [ip, #40]
.L84:
	add	r3, r0, #8192
	mov	r2, #1
	strb	r2, [r3, #2880]
	b	.L83
	UNWIND(.fnend)
	.size	HEVC_Get_Last_IDR_Frame_Info, .-HEVC_Get_Last_IDR_Frame_Info
	.global	__aeabi_uidivmod
	.global	__aeabi_uidiv
	.align	2
	.global	HEVC_Sei_Get_Frame_Pts
	.type	HEVC_Sei_Get_Frame_Pts, %function
HEVC_Sei_Get_Frame_Pts:
	UNWIND(.fnstart)
	@ args = 0, pretend = 0, frame = 16
	@ frame_needed = 1, uses_anonymous_args = 0
	UNWIND(.movsp ip)
	mov	ip, sp
	stmfd	sp!, {r4, r5, r6, r7, r8, r9, r10, fp, ip, lr, pc}
	UNWIND(.pad #4)
	UNWIND(.save {r4, r5, r6, r7, r8, r9, r10, fp, ip, lr})
	UNWIND(.setfp fp, ip, #-4)
	sub	fp, ip, #4
	UNWIND(.pad #20)
	sub	sp, sp, #20
	add	r2, r0, #11072
	add	r1, r0, #8192
	add	r3, r2, #48
	ldrd	r6, [r2, #24]
	mov	r4, r0
	ldr	r5, [r1, #2892]
	movw	r0, #11104
	ldrd	r2, [r3, #-8]
	cmp	r5, #0
	strd	r6, [fp, #-52]
	ldr	r10, [r1, #2896]
	strd	r2, [fp, #-60]
	ldrd	r6, [r4, r0]
	beq	.L90
	mov	r9, r5
	mov	r0, r10
	b	.L89
.L91:
	mov	r9, r1
.L89:
	mov	r1, r9
	bl	__aeabi_uidivmod
	mov	r0, r9
	cmp	r1, #0
	bne	.L91
.L88:
	ldrd	r2, [fp, #-60]
	mov	r1, r9
	mov	r0, r5
	mov	r8, #1000
	subs	r2, r6, r2
	add	r4, r4, #4096
	mul	r6, r8, r2
	bl	__aeabi_uidiv
	mov	r1, r9
	mul	r6, r0, r6
	mov	r0, r10
	bl	__aeabi_uidiv
	mov	r1, r0
	mov	r0, r6
	bl	__aeabi_uidiv
	ldrd	r2, [fp, #-52]
	adds	r2, r2, r0
	adc	r3, r3, #0
	mov	r0, r2
	mov	r1, r3
	strd	r0, [r4, #24]
	sub	sp, fp, #40
	ldmfd	sp, {r4, r5, r6, r7, r8, r9, r10, fp, sp, pc}
.L90:
	mov	r9, r10
	b	.L88
	UNWIND(.fnend)
	.size	HEVC_Sei_Get_Frame_Pts, .-HEVC_Sei_Get_Frame_Pts
	.align	2
	.global	HEVC_InitSigLastScan
	.type	HEVC_InitSigLastScan, %function
HEVC_InitSigLastScan:
	UNWIND(.fnstart)
	@ args = 16, pretend = 0, frame = 24
	@ frame_needed = 1, uses_anonymous_args = 0
	UNWIND(.movsp ip)
	mov	ip, sp
	stmfd	sp!, {r4, r5, r6, r7, r8, r9, r10, fp, ip, lr, pc}
	UNWIND(.pad #4)
	UNWIND(.save {r4, r5, r6, r7, r8, r9, r10, fp, ip, lr})
	UNWIND(.setfp fp, ip, #-4)
	sub	fp, ip, #4
	UNWIND(.pad #28)
	sub	sp, sp, #28
	ldr	r4, [fp, #8]
	str	r0, [fp, #-48]
	cmp	r4, #15
	ldr	r6, [fp, #4]
	bgt	.L93
	cmp	r4, #8
	mul	r9, r4, r4
	beq	.L126
	cmp	r9, #0
	movne	r10, r6
	beq	.L93
.L95:
	mov	r5, #0
	rsb	r7, r4, #1
	mov	r8, r5
.L101:
	cmp	r4, r8
	bgt	.L113
	rsb	lr, r4, r8
	sub	r2, r4, #1
	add	lr, lr, #1
.L102:
	cmp	r2, #0
	cmpge	r4, lr
	ble	.L99
	mla	r0, r2, r4, lr
	add	ip, r10, r5, lsl #2
	mov	r1, r5
.L100:
	add	r1, r1, #1
	sub	r2, r2, #1
	rsb	r3, r5, r1
	str	r0, [ip], #4
	add	r3, r3, lr
	add	r0, r0, r7
	cmp	r2, #0
	cmpge	r4, r3
	bgt	.L100
	mov	r5, r1
.L99:
	cmp	r9, r5
	add	r8, r8, #1
	bhi	.L101
.L93:
	cmp	r4, #4
	ble	.L92
	mov	r3, r4, asr #2
	ldr	r1, [fp, #-48]
	str	r3, [fp, #-64]
	mov	r2, r3
	add	r3, r1, r3
	mul	r2, r2, r2
	mov	r0, r2
	str	r2, [fp, #-60]
	cmp	r0, #0
	ldrsb	r2, [r3, #12]
	add	r2, r2, #1
	beq	.L92
	add	r3, r1, #340
.L97:
	ldr	r1, .L127
	rsb	r7, r4, #1
	str	r3, [fp, #-52]
	mov	r3, #0
	add	r2, r1, r2, lsl #16
	str	r3, [fp, #-48]
	sub	r3, r2, #4
	str	r3, [fp, #-56]
.L111:
	ldr	r3, [fp, #-56]
	cmp	r4, #32
	ldr	r9, [fp, #-64]
	mov	r8, #0
	ldr	r5, [r3, #4]!
	mov	r1, r9
	str	r3, [fp, #-56]
	ldreq	r3, [fp, #-52]
	ldreq	r5, [r3]
	mov	r0, r5
	bl	__aeabi_uidiv
	ldr	ip, [fp, #-48]
	mov	r3, r8
	mov	r2, r8
	mov	lr, r8
	mov	r10, ip, asl #4
	mla	r1, r4, r0, r5
	mls	r1, r9, r0, r1
	mov	r9, r1, asl #2
.L105:
	cmp	lr, #3
	mvn	r1, r2
	mov	r1, r1, lsr #31
	movgt	r1, #0
	cmp	r1, #0
	beq	.L106
	mla	r1, r2, r4, lr
	add	r0, r3, r10
	rsb	lr, r3, lr
	add	r0, r6, r0, lsl #2
	add	r1, r1, r9
.L107:
	add	r3, r3, #1
	sub	r2, r2, #1
	add	r5, lr, r3
	str	r1, [r0], #4
	cmp	r5, #3
	mvn	ip, r2
	mov	ip, ip, lsr #31
	add	r1, r1, r7
	movgt	ip, #0
	cmp	ip, #0
	bne	.L107
.L106:
	cmp	r3, #15
	add	r8, r8, #1
	bhi	.L108
	cmp	r8, #3
	movle	r2, r8
	movle	lr, #0
	subgt	lr, r8, #3
	movgt	r2, #3
	b	.L105
.L108:
	ldr	r2, [fp, #-52]
	ldr	r3, [fp, #-48]
	add	r2, r2, #4
	str	r2, [fp, #-52]
	ldr	r2, [fp, #-60]
	add	r3, r3, #1
	str	r3, [fp, #-48]
	cmp	r3, r2
	bne	.L111
.L92:
	sub	sp, fp, #40
	ldmfd	sp, {r4, r5, r6, r7, r8, r9, r10, fp, sp, pc}
.L113:
	mov	r2, r8
	mov	lr, #0
	b	.L102
.L126:
	add	r3, r0, #340
	cmp	r9, #0
	mov	r10, r3
	bne	.L95
	ldr	r2, [fp, #-48]
	mov	r1, #2
	str	r1, [fp, #-64]
	mov	r1, #4
	str	r1, [fp, #-60]
	ldrsb	r2, [r2, #14]
	add	r2, r2, #1
	b	.L97
.L128:
	.align	2
.L127:
	.word	.LANCHOR1
	UNWIND(.fnend)
	.size	HEVC_InitSigLastScan, .-HEVC_InitSigLastScan
	.align	2
	.global	HEVC_InitScalingOrderTable
	.type	HEVC_InitScalingOrderTable, %function
HEVC_InitScalingOrderTable:
	UNWIND(.fnstart)
	@ args = 0, pretend = 0, frame = 0
	@ frame_needed = 1, uses_anonymous_args = 0
	UNWIND(.movsp ip)
	mov	ip, sp
	stmfd	sp!, {r4, r5, r6, r7, fp, ip, lr, pc}
	UNWIND(.pad #4)
	UNWIND(.save {r4, r5, r6, r7, fp, ip, lr})
	UNWIND(.setfp fp, ip, #-4)
	sub	fp, ip, #4
	UNWIND(.pad #16)
	sub	sp, sp, #16
	add	r3, r0, #11
	add	r1, r0, #140
	mov	r7, r0
	mvn	r2, #0
.L130:
	strb	r2, [r3, #1]!
	cmp	r3, r1
	bne	.L130
	ldr	r6, .L134
	mov	r2, #0
	mov	r3, #2
	mov	r5, r2
	mov	r4, r3
	strb	r2, [r7, #16]
	strb	r3, [r7, #28]
	mov	r2, #1
	mov	r3, #3
	strb	r2, [r7, #20]
	strb	r3, [r7, #44]
	mov	r3, #4
	strb	r3, [r7, #76]
.L131:
	mov	r3, #0
	str	r5, [sp, #12]
	str	r4, [sp, #8]
	add	r5, r5, #1
	str	r4, [sp, #4]
	mov	r2, r3
	str	r6, [sp]
	mov	r1, r3
	mov	r0, r7
	mov	r4, r4, asl #1
	bl	HEVC_InitSigLastScan
	cmp	r5, #7
	add	r6, r6, #65536
	bne	.L131
	sub	sp, fp, #28
	ldmfd	sp, {r4, r5, r6, r7, fp, sp, pc}
.L135:
	.align	2
.L134:
	.word	.LANCHOR1
	UNWIND(.fnend)
	.size	HEVC_InitScalingOrderTable, .-HEVC_InitScalingOrderTable
	.global	__aeabi_idiv
	.align	2
	.global	HEVC_GetDar
	.type	HEVC_GetDar, %function
HEVC_GetDar:
	UNWIND(.fnstart)
	@ args = 4, pretend = 0, frame = 8
	@ frame_needed = 1, uses_anonymous_args = 0
	UNWIND(.movsp ip)
	mov	ip, sp
	stmfd	sp!, {r4, fp, ip, lr, pc}
	UNWIND(.pad #4)
	UNWIND(.save {r4, fp, ip, lr})
	UNWIND(.setfp fp, ip, #-4)
	sub	fp, ip, #4
	UNWIND(.pad #12)
	sub	sp, sp, #12
	cmp	r0, #0
	mov	ip, r1
	moveq	r4, r0
	beq	.L137
	subs	lr, r0, #255
	movne	lr, #1
	cmp	r0, #16
	movle	r4, #0
	andgt	r4, lr, #1
	cmp	r4, #0
	movne	r4, #0
	bne	.L137
	cmp	r2, #0
	cmpne	r1, #0
	moveq	r1, #1
	movne	r1, #0
	cmp	r0, #255
	movne	r1, #0
	andeq	r1, r1, #1
	cmp	r1, #0
	bne	.L137
	cmp	r0, #1
	moveq	r4, #5
	beq	.L137
	cmp	lr, #0
	str	r3, [fp, #-24]
	ldrne	r2, .L159
	addne	r0, r2, r0, lsl #3
	ldrne	r2, [r0, #24]
	ldrne	ip, [r0, #20]
	mov	r1, r2
	mov	r0, ip, asl #10
	bl	__aeabi_idiv
	ldr	r3, [fp, #-24]
	ldr	r1, [fp, #4]
	mov	r4, r0
	mov	r0, r3, asl #10
	bl	__aeabi_idiv
	movw	r3, #2405
	movw	r2, #2262
	mul	r0, r0, r4
	add	r4, r0, #1020
	cmp	r0, #0
	add	r4, r4, #3
	movlt	r0, r4
	mov	r0, r0, asr #10
	cmp	r0, r3
	rsble	r3, r0, #2400
	subgt	r3, r0, #2400
	addle	r3, r3, #6
	subgt	r3, r3, #6
	cmp	r0, r2
	bgt	.L141
	rsb	r2, r0, #2256
	add	r2, r2, #7
	cmp	r3, r2
	bge	.L142
.L152:
	mov	r4, #4
.L137:
	mov	r2, r4
	ldr	r1, .L159+4
	mov	r0, #22
	bl	dprint_vfmw
	mov	r0, r4
	sub	sp, fp, #16
	ldmfd	sp, {r4, fp, sp, pc}
.L141:
	sub	r2, r0, #2256
	sub	r2, r2, #7
	cmp	r3, r2
	blt	.L152
.L142:
	movw	r3, #1819
	cmp	r0, r3
	bgt	.L143
	rsb	r3, r0, #1808
	add	r3, r3, #12
	cmp	r2, r3
	blt	.L154
.L144:
	movw	r2, #1364
	cmp	r0, r2
	rsble	r0, r0, #1360
	subgt	r0, r0, #1360
	addle	r0, r0, #5
	subgt	r0, r0, #5
	cmp	r3, r0
	movlt	r4, #2
	movge	r4, #1
	b	.L137
.L143:
	sub	r3, r0, #1808
	sub	r3, r3, #12
	cmp	r2, r3
	bge	.L144
.L154:
	mov	r4, #3
	b	.L137
.L160:
	.align	2
.L159:
	.word	.LANCHOR0
	.word	.LC4
	UNWIND(.fnend)
	.size	HEVC_GetDar, .-HEVC_GetDar
	.align	2
	.global	HEVC_PrintNaluArraySlot
	.type	HEVC_PrintNaluArraySlot, %function
HEVC_PrintNaluArraySlot:
	UNWIND(.fnstart)
	@ args = 0, pretend = 0, frame = 0
	@ frame_needed = 1, uses_anonymous_args = 0
	UNWIND(.movsp ip)
	mov	ip, sp
	stmfd	sp!, {r4, r5, r6, r7, fp, ip, lr, pc}
	UNWIND(.pad #4)
	UNWIND(.save {r4, r5, r6, r7, fp, ip, lr})
	UNWIND(.setfp fp, ip, #-4)
	sub	fp, ip, #4
	UNWIND(.pad #8)
	sub	sp, sp, #8
	ldr	r1, .L167
	mov	r7, r0
	mov	r0, #1
	bl	dprint_vfmw
	ldr	r3, [r7, #168]
	cmn	r3, #1
	movne	r5, #0
	movwne	r6, #52429
	movne	r4, r5
	movtne	r6, 52428
	bne	.L164
	b	.L165
.L163:
	ldr	r3, [r7, #168]
	add	r3, r3, #1
	cmp	r3, r4
	bls	.L165
.L164:
	ldr	r3, [r7, #2368]
	mov	r2, r4
	ldr	r1, .L167+4
	mov	r0, #1
	add	r3, r3, r5
	add	r5, r5, #96
	ldr	ip, [r3, #32]
	str	ip, [sp]
	bl	dprint_vfmw
	umull	r2, r3, r4, r6
	mov	r2, r3, lsr #3
	mov	r3, r2, asl #3
	add	r3, r3, r2, lsl #1
	cmp	r4, r3
	add	r4, r4, #1
	bne	.L163
	ldr	r1, .L167+8
	mov	r0, #1
	bl	dprint_vfmw
	ldr	r3, [r7, #168]
	add	r3, r3, #1
	cmp	r3, r4
	bhi	.L164
.L165:
	ldr	r1, .L167+8
	mov	r0, #1
	bl	dprint_vfmw
	ldr	r1, .L167+12
	mov	r0, #1
	sub	sp, fp, #28
	ldmfd	sp, {r4, r5, r6, r7, fp, sp, lr}
	b	dprint_vfmw
.L168:
	.align	2
.L167:
	.word	.LC5
	.word	.LC8
	.word	.LC6
	.word	.LC7
	UNWIND(.fnend)
	.size	HEVC_PrintNaluArraySlot, .-HEVC_PrintNaluArraySlot
	.align	2
	.global	HEVC_PrintCurrSlicelistX
	.type	HEVC_PrintCurrSlicelistX, %function
HEVC_PrintCurrSlicelistX:
	UNWIND(.fnstart)
	@ args = 0, pretend = 0, frame = 0
	@ frame_needed = 1, uses_anonymous_args = 0
	UNWIND(.movsp ip)
	mov	ip, sp
	stmfd	sp!, {r4, r5, r6, r7, fp, ip, lr, pc}
	UNWIND(.pad #4)
	UNWIND(.save {r4, r5, r6, r7, fp, ip, lr})
	UNWIND(.setfp fp, ip, #-4)
	sub	fp, ip, #4
	add	r6, r0, #4096
	mov	r7, r0
	ldr	r1, .L190
	mov	r0, #1
	bl	dprint_vfmw
	ldr	r2, [r6, #140]
	ldr	r1, .L190+4
	mov	r0, #1
	bl	dprint_vfmw
	ldr	r3, [r6, #140]
	cmp	r3, #0
	addne	r5, r7, #2368
	movne	r4, #0
	addne	r5, r5, #12
	beq	.L177
.L176:
	ldr	r3, [r5, #4]!
	mov	r2, r4
	ldr	r1, .L190+8
	mov	r0, #1
	bl	dprint_vfmw
	mov	r0, #1
	ldr	r3, [r5]
	add	r4, r4, r0
	ldr	r1, .L190+12
	cmp	r3, #0
	beq	.L174
	ldr	r2, [r3, #16]
	bl	dprint_vfmw
	ldr	r3, [r5]
	ldr	r3, [r3, #16]
	cmp	r3, #0
	beq	.L174
	ldr	r1, [r3, #28]
	ldr	r0, [r7, #252]
	bl	FSP_GetLogicFs
	ldr	r1, .L190+16
	mov	r2, r0
	mov	r0, #1
	bl	dprint_vfmw
.L174:
	ldr	r1, .L190+20
	mov	r0, #1
	bl	dprint_vfmw
	ldr	r3, [r6, #140]
	cmp	r3, r4
	bhi	.L176
.L177:
	ldr	r2, [r6, #144]
	mov	r0, #1
	ldr	r1, .L190+24
	bl	dprint_vfmw
	ldr	r3, [r6, #144]
	cmp	r3, #0
	addne	r5, r7, #2448
	movne	r4, #0
	beq	.L172
.L181:
	ldr	r3, [r5, #4]!
	mov	r2, r4
	ldr	r1, .L190+28
	mov	r0, #1
	bl	dprint_vfmw
	mov	r0, #1
	ldr	r3, [r5]
	add	r4, r4, r0
	ldr	r1, .L190+12
	cmp	r3, #0
	beq	.L179
	ldr	r2, [r3, #16]
	bl	dprint_vfmw
	ldr	r3, [r5]
	ldr	r3, [r3, #16]
	cmp	r3, #0
	beq	.L179
	ldr	r1, [r3, #28]
	ldr	r0, [r7, #252]
	bl	FSP_GetLogicFs
	ldr	r1, .L190+16
	mov	r2, r0
	mov	r0, #1
	bl	dprint_vfmw
.L179:
	ldr	r1, .L190+20
	mov	r0, #1
	bl	dprint_vfmw
	ldr	r3, [r6, #144]
	cmp	r3, r4
	bhi	.L181
.L172:
	ldr	r1, .L190+32
	mov	r0, #1
	sub	sp, fp, #28
	ldmfd	sp, {r4, r5, r6, r7, fp, sp, lr}
	b	dprint_vfmw
.L191:
	.align	2
.L190:
	.word	.LC9
	.word	.LC10
	.word	.LC12
	.word	.LC13
	.word	.LC14
	.word	.LC6
	.word	.LC11
	.word	.LC16
	.word	.LC15
	UNWIND(.fnend)
	.size	HEVC_PrintCurrSlicelistX, .-HEVC_PrintCurrSlicelistX
	.align	2
	.global	HEVC_PrintFrameStoreState
	.type	HEVC_PrintFrameStoreState, %function
HEVC_PrintFrameStoreState:
	UNWIND(.fnstart)
	@ args = 0, pretend = 0, frame = 0
	@ frame_needed = 1, uses_anonymous_args = 0
	UNWIND(.movsp ip)
	mov	ip, sp
	stmfd	sp!, {r4, r5, r6, r7, r8, r9, r10, fp, ip, lr, pc}
	UNWIND(.pad #4)
	UNWIND(.save {r4, r5, r6, r7, r8, r9, r10, fp, ip, lr})
	UNWIND(.setfp fp, ip, #-4)
	sub	fp, ip, #4
	UNWIND(.pad #20)
	sub	sp, sp, #20
	ldr	r1, .L199
	mov	r10, r0
	mov	r0, #1
	bl	dprint_vfmw
	ldr	r3, [r10, #180]
	cmp	r3, #0
	addne	r8, r10, #12672
	movne	r9, #0
	addne	r8, r8, #16
	beq	.L196
.L195:
	ldrb	ip, [r8, #2]	@ zero_extendqisi2
	mov	r3, r8
	mov	r2, r9
	ldr	r1, .L199+4
	mov	r0, #1
	add	r5, r8, #616
	str	ip, [sp, #8]
	mov	r4, #0
	ldrb	ip, [r8, #1]	@ zero_extendqisi2
	str	ip, [sp, #4]
	ldr	ip, [r8, #48]
	str	ip, [sp]
	bl	dprint_vfmw
.L194:
	ldrd	r6, [r5, #8]!
	mov	r2, r4
	ldr	r1, .L199+8
	add	r4, r4, #1
	mov	r0, #1
	strd	r6, [sp]
	bl	dprint_vfmw
	cmp	r4, #4
	bne	.L194
	ldr	r1, .L199+12
	mov	r0, #1
	bl	dprint_vfmw
	ldr	r3, [r10, #180]
	add	r9, r9, #1
	add	r8, r8, #712
	cmp	r3, r9
	bhi	.L195
.L196:
	ldr	r1, .L199+16
	mov	r0, #1
	sub	sp, fp, #40
	ldmfd	sp, {r4, r5, r6, r7, r8, r9, r10, fp, sp, lr}
	b	dprint_vfmw
.L200:
	.align	2
.L199:
	.word	.LC17
	.word	.LC19
	.word	.LC20
	.word	.LC6
	.word	.LC18
	UNWIND(.fnend)
	.size	HEVC_PrintFrameStoreState, .-HEVC_PrintFrameStoreState
	.align	2
	.global	HEVC_PrintAPCState
	.type	HEVC_PrintAPCState, %function
HEVC_PrintAPCState:
	UNWIND(.fnstart)
	@ args = 0, pretend = 0, frame = 0
	@ frame_needed = 1, uses_anonymous_args = 0
	UNWIND(.movsp ip)
	mov	ip, sp
	stmfd	sp!, {r4, r5, r6, r7, fp, ip, lr, pc}
	UNWIND(.pad #4)
	UNWIND(.save {r4, r5, r6, r7, fp, ip, lr})
	UNWIND(.setfp fp, ip, #-4)
	sub	fp, ip, #4
	UNWIND(.pad #8)
	sub	sp, sp, #8
	ldr	r1, .L204
	mov	r5, r0
	mov	r0, #1
	bl	dprint_vfmw
	add	ip, r5, #12288
	mov	r2, #0
	ldr	r1, .L204+4
	ldr	r3, [ip, #204]
	mov	r0, #1
	ldr	ip, [ip, #200]
	add	r6, r5, #12480
	add	r7, r5, #12544
	add	r5, r5, #12608
	add	r6, r6, #12
	add	r7, r7, #12
	str	ip, [sp]
	add	r5, r5, #12
	bl	dprint_vfmw
	mov	r4, #0
.L202:
	ldr	lr, [r5, #4]!
	mov	r2, r4
	ldr	ip, [r7, #4]!
	add	r4, r4, #1
	ldr	r3, [r6, #4]!
	mov	r0, #1
	ldr	r1, .L204+8
	stmia	sp, {ip, lr}
	bl	dprint_vfmw
	cmp	r4, #16
	bne	.L202
	ldr	r1, .L204+12
	mov	r0, #1
	sub	sp, fp, #28
	ldmfd	sp, {r4, r5, r6, r7, fp, sp, lr}
	b	dprint_vfmw
.L205:
	.align	2
.L204:
	.word	.LC21
	.word	.LC22
	.word	.LC23
	.word	.LC24
	UNWIND(.fnend)
	.size	HEVC_PrintAPCState, .-HEVC_PrintAPCState
	.align	2
	.global	HEVC_PrintDPBState
	.type	HEVC_PrintDPBState, %function
HEVC_PrintDPBState:
	UNWIND(.fnstart)
	@ args = 0, pretend = 0, frame = 24
	@ frame_needed = 1, uses_anonymous_args = 0
	UNWIND(.movsp ip)
	mov	ip, sp
	stmfd	sp!, {r4, r5, r6, r7, r8, r9, r10, fp, ip, lr, pc}
	UNWIND(.pad #4)
	UNWIND(.save {r4, r5, r6, r7, r8, r9, r10, fp, ip, lr})
	UNWIND(.setfp fp, ip, #-4)
	sub	fp, ip, #4
	UNWIND(.pad #76)
	sub	sp, sp, #76
	ldr	r1, .L222
	mov	r9, r0
	mov	r0, #1
	bl	dprint_vfmw
	ldr	r1, [r9, #2568]
	ldr	lr, [r9, #2564]
	mov	r0, #1
	ldr	ip, [r9, #2572]
	ldr	r3, [r9, #2556]
	ldr	r2, [r9, #2552]
	stmia	sp, {r1, ip, lr}
	ldr	r1, .L222+4
	bl	dprint_vfmw
	ldr	r3, [r9, #2556]
	cmp	r3, #0
	addne	r4, r9, #2560
	movne	r5, #0
	addne	r4, r4, #12
	beq	.L211
.L210:
	ldr	r3, [r4, #4]!
	ldr	r0, [r9, #252]
	ldrb	ip, [r3]	@ zero_extendqisi2
	ldr	r2, [r3, #32]
	ldr	lr, [r3, #48]
	ldrb	r6, [r3, #1]	@ zero_extendqisi2
	str	ip, [fp, #-52]
	ldr	ip, [r3, #60]
	ldr	r1, [r3, #28]
	str	r2, [fp, #-48]
	str	lr, [fp, #-56]
	ldrb	r8, [r3, #2]	@ zero_extendqisi2
	str	ip, [fp, #-64]
	ldr	r10, [r3, #8]
	str	r6, [fp, #-60]
	bl	FSP_GetLogicFs
	ldr	r3, [r4]
	ldr	r1, [r3, #28]
	mov	r6, r0
	ldr	r0, [r9, #252]
	bl	FSP_GetRef
	ldr	r3, [r4]
	ldr	r1, [r3, #28]
	mov	r7, r0
	ldr	r0, [r9, #252]
	bl	FSP_GetDisplay
	ldr	r1, [r4]
	ldr	ip, [fp, #-64]
	mov	r2, r5
	add	r5, r5, #1
	ldr	lr, [r1, #228]
	mov	r3, r1
	str	lr, [sp, #44]
	ldr	r1, [r1, #28]
	ldr	lr, [fp, #-56]
	str	ip, [sp, #24]
	str	r1, [sp, #40]
	str	r8, [sp, #16]
	ldr	r1, [fp, #-48]
	ldr	r8, [fp, #-60]
	ldr	ip, [fp, #-52]
	str	r1, [sp]
	str	r10, [sp, #20]
	str	r8, [sp, #12]
	str	lr, [sp, #8]
	str	ip, [sp, #4]
	str	r7, [sp, #32]
	str	r6, [sp, #28]
	ldr	r1, .L222+8
	str	r0, [sp, #36]
	mov	r0, #1
	bl	dprint_vfmw
	ldr	r3, [r9, #2556]
	cmp	r3, r5
	bhi	.L210
.L211:
	ldr	r1, .L222+12
	mov	r0, #1
	bl	dprint_vfmw
	ldr	r3, [r9, #2556]
	cmp	r3, #0
	addne	r5, r9, #2560
	movne	r6, #0
	addne	r5, r5, #12
	bne	.L218
	b	.L209
.L221:
	bl	dprint_vfmw
	ldr	r2, [r4, #20]
	ldr	r1, .L222+16
	mov	r0, #1
	bl	dprint_vfmw
	ldrsb	r2, [r4]
	ldr	r1, .L222+20
	mov	r0, #1
	bl	dprint_vfmw
	ldrsb	r2, [r4, #1]
	ldr	r1, .L222+24
	mov	r0, #1
	bl	dprint_vfmw
.L213:
	cmp	r8, #0
	mov	r2, r8
	ldr	r1, .L222+28
	mov	r0, #1
	beq	.L214
	bl	dprint_vfmw
	ldr	r2, [r8, #72]
	ldr	r1, .L222+32
	mov	r0, #1
	bl	dprint_vfmw
.L215:
	cmp	r7, #0
	mov	r2, r7
	ldr	r1, .L222+36
	mov	r0, #1
	beq	.L216
	bl	dprint_vfmw
	ldr	r2, [r7, #72]
	ldr	r1, .L222+40
	mov	r0, #1
	bl	dprint_vfmw
.L217:
	ldr	r1, .L222+12
	mov	r0, #1
	bl	dprint_vfmw
	ldr	r3, [r9, #2556]
	add	r6, r6, #1
	cmp	r3, r6
	bls	.L209
.L218:
	ldr	r3, [r5, #4]!
	ldr	r0, [r9, #252]
	ldr	r1, [r3, #28]
	bl	FSP_GetLogicFs
	ldr	r3, [r5]
	ldr	r1, [r3, #28]
	mov	r4, r0
	ldr	r0, [r9, #252]
	bl	FSP_GetDecPhyFs
	ldr	r3, [r5]
	ldr	r1, [r3, #28]
	mov	r8, r0
	ldr	r0, [r9, #252]
	bl	FSP_GetDispPhyFs
	mov	r2, r6
	ldr	r1, .L222+44
	mov	r7, r0
	mov	r0, #1
	bl	dprint_vfmw
	cmp	r4, #0
	mov	r2, r4
	ldr	r1, .L222+48
	mov	r0, #1
	bne	.L221
	ldr	r1, .L222+52
	mov	r0, #1
	bl	dprint_vfmw
	b	.L213
.L216:
	ldr	r1, .L222+56
	mov	r0, #1
	bl	dprint_vfmw
	b	.L217
.L214:
	ldr	r1, .L222+60
	mov	r0, #1
	bl	dprint_vfmw
	b	.L215
.L209:
	ldr	r1, .L222+64
	mov	r0, #1
	sub	sp, fp, #40
	ldmfd	sp, {r4, r5, r6, r7, r8, r9, r10, fp, sp, lr}
	b	dprint_vfmw
.L223:
	.align	2
.L222:
	.word	.LC25
	.word	.LC26
	.word	.LC27
	.word	.LC6
	.word	.LC31
	.word	.LC32
	.word	.LC33
	.word	.LC35
	.word	.LC36
	.word	.LC38
	.word	.LC39
	.word	.LC29
	.word	.LC30
	.word	.LC34
	.word	.LC40
	.word	.LC37
	.word	.LC28
	UNWIND(.fnend)
	.size	HEVC_PrintDPBState, .-HEVC_PrintDPBState
	.align	2
	.global	HEVC_IsSliceUnit
	.type	HEVC_IsSliceUnit, %function
HEVC_IsSliceUnit:
	UNWIND(.fnstart)
	@ args = 0, pretend = 0, frame = 0
	@ frame_needed = 1, uses_anonymous_args = 0
	UNWIND(.movsp ip)
	mov	ip, sp
	stmfd	sp!, {fp, ip, lr, pc}
	UNWIND(.pad #4)
	UNWIND(.save {fp, ip, lr})
	UNWIND(.setfp fp, ip, #-4)
	sub	fp, ip, #4
	cmp	r0, #9
	bls	.L226
	sub	r0, r0, #16
	cmp	r0, #5
	movhi	r0, #0
	movls	r0, #1
	ldmfd	sp, {fp, sp, pc}
.L226:
	mov	r0, #1
	ldmfd	sp, {fp, sp, pc}
	UNWIND(.fnend)
	.size	HEVC_IsSliceUnit, .-HEVC_IsSliceUnit
	.align	2
	.global	HEVC_IsIUnit
	.type	HEVC_IsIUnit, %function
HEVC_IsIUnit:
	UNWIND(.fnstart)
	@ args = 0, pretend = 0, frame = 0
	@ frame_needed = 1, uses_anonymous_args = 0
	UNWIND(.movsp ip)
	mov	ip, sp
	stmfd	sp!, {fp, ip, lr, pc}
	UNWIND(.pad #4)
	UNWIND(.save {fp, ip, lr})
	UNWIND(.setfp fp, ip, #-4)
	sub	fp, ip, #4
	sub	r0, r0, #16
	cmp	r0, #5
	movhi	r0, #0
	movls	r0, #1
	ldmfd	sp, {fp, sp, pc}
	UNWIND(.fnend)
	.size	HEVC_IsIUnit, .-HEVC_IsIUnit
	.align	2
	.global	HEVC_IsNonRefPic
	.type	HEVC_IsNonRefPic, %function
HEVC_IsNonRefPic:
	UNWIND(.fnstart)
	@ args = 0, pretend = 0, frame = 0
	@ frame_needed = 1, uses_anonymous_args = 0
	UNWIND(.movsp ip)
	mov	ip, sp
	stmfd	sp!, {fp, ip, lr, pc}
	UNWIND(.pad #4)
	UNWIND(.save {fp, ip, lr})
	UNWIND(.setfp fp, ip, #-4)
	sub	fp, ip, #4
	bics	r0, r0, #6
	subne	r0, r0, #8
	clzne	r0, r0
	movne	r0, r0, lsr #5
	moveq	r0, #1
	ldmfd	sp, {fp, sp, pc}
	UNWIND(.fnend)
	.size	HEVC_IsNonRefPic, .-HEVC_IsNonRefPic
	.align	2
	.global	HEVC_IsFlushUnit
	.type	HEVC_IsFlushUnit, %function
HEVC_IsFlushUnit:
	UNWIND(.fnstart)
	@ args = 0, pretend = 0, frame = 0
	@ frame_needed = 1, uses_anonymous_args = 0
	UNWIND(.movsp ip)
	mov	ip, sp
	stmfd	sp!, {fp, ip, lr, pc}
	UNWIND(.pad #4)
	UNWIND(.save {fp, ip, lr})
	UNWIND(.setfp fp, ip, #-4)
	sub	fp, ip, #4
	sub	r0, r0, #16
	cmp	r0, #4
	movhi	r0, #0
	movls	r0, #1
	ldmfd	sp, {fp, sp, pc}
	UNWIND(.fnend)
	.size	HEVC_IsFlushUnit, .-HEVC_IsFlushUnit
	.align	2
	.global	HEVC_IsPVRFlushPic
	.type	HEVC_IsPVRFlushPic, %function
HEVC_IsPVRFlushPic:
	UNWIND(.fnstart)
	@ args = 0, pretend = 0, frame = 0
	@ frame_needed = 1, uses_anonymous_args = 0
	UNWIND(.movsp ip)
	mov	ip, sp
	stmfd	sp!, {fp, ip, lr, pc}
	UNWIND(.pad #4)
	UNWIND(.save {fp, ip, lr})
	UNWIND(.setfp fp, ip, #-4)
	sub	fp, ip, #4
	ldr	r3, [r0, #3488]
	cmp	r3, #0
	bne	.L234
	ldr	r2, [r0, #2372]
	ldr	r1, [r2, #652]
	cmp	r1, #1
	beq	.L238
.L236:
	mov	r0, r3
	ldmfd	sp, {fp, sp, pc}
.L234:
	mov	r0, #0
	ldmfd	sp, {fp, sp, pc}
.L238:
	ldr	r0, [r2, #648]
	cmp	r0, #0
	bne	.L236
	ldr	r3, [r2, #656]
	cmp	r3, #0
	ldmnefd	sp, {fp, sp, pc}
	ldr	r3, [r2, #612]
	add	r3, r3, #1024
	cmp	r3, #2048
	movls	r0, #0
	movhi	r0, #1
	ldmfd	sp, {fp, sp, pc}
	UNWIND(.fnend)
	.size	HEVC_IsPVRFlushPic, .-HEVC_IsPVRFlushPic
	.align	2
	.global	HEVC_IsEosNal
	.type	HEVC_IsEosNal, %function
HEVC_IsEosNal:
	UNWIND(.fnstart)
	@ args = 0, pretend = 0, frame = 0
	@ frame_needed = 1, uses_anonymous_args = 0
	UNWIND(.movsp ip)
	mov	ip, sp
	stmfd	sp!, {r4, r5, fp, ip, lr, pc}
	UNWIND(.pad #4)
	UNWIND(.save {r4, r5, fp, ip, lr})
	UNWIND(.setfp fp, ip, #-4)
	sub	fp, ip, #4
	mov	r1, #32
	mov	r4, r0
	ldr	r0, [r0, #2324]
	bl	BsGet
	mov	r1, #32
	mov	r5, r0
	ldr	r0, [r4, #2324]
	bl	BsGet
	movw	r2, #20036
	movw	r3, #20553
	movt	r2, 17221
	movt	r3, 18515
	cmp	r0, r2
	cmpeq	r5, r3
	moveq	r0, #1
	movne	r0, #0
	ldmfd	sp, {r4, r5, fp, sp, pc}
	UNWIND(.fnend)
	.size	HEVC_IsEosNal, .-HEVC_IsEosNal
	.align	2
	.global	HEVC_CalcTileInfo
	.type	HEVC_CalcTileInfo, %function
HEVC_CalcTileInfo:
	UNWIND(.fnstart)
	@ args = 0, pretend = 0, frame = 8
	@ frame_needed = 1, uses_anonymous_args = 0
	UNWIND(.movsp ip)
	mov	ip, sp
	stmfd	sp!, {r4, r5, r6, r7, r8, r9, r10, fp, ip, lr, pc}
	UNWIND(.pad #4)
	UNWIND(.save {r4, r5, r6, r7, r8, r9, r10, fp, ip, lr})
	UNWIND(.setfp fp, ip, #-4)
	sub	fp, ip, #4
	UNWIND(.pad #20)
	sub	sp, sp, #20
	mov	r8, r1
	ldr	r1, [r0, #2360]
	mov	r6, r2
	ldr	r2, [r0, #2356]
	mov	r5, r0
	str	r3, [fp, #-48]
	ldr	r7, [r1, #68]
	ldr	r2, [r2, #128]
	sub	r3, r7, #1
	ldr	r9, [r1, #72]
	cmp	r3, #9
	str	r2, [fp, #-52]
	bhi	.L268
	sub	r3, r9, #1
	cmp	r3, #10
	bhi	.L269
	ldr	r4, .L270
	mov	r2, #512
	mov	r1, #0
	mov	r0, r8
	ldr	r3, [r4, #48]
	blx	r3
	ldr	r3, [r4, #48]
	mov	r2, #80
	mov	r1, #0
	mov	r0, r6
	blx	r3
	ldr	r3, [r4, #48]
	mov	r2, #88
	mov	r1, #0
	ldr	r0, [fp, #-48]
	blx	r3
	cmp	r7, #0
	ble	.L249
	ldr	r3, [fp, #-52]
	mov	r2, #0
	mov	r1, r2
	mov	r0, r6
	sub	r10, r3, #4
.L248:
	str	r2, [r6, r1, asl #3]
	mov	r3, r2, asl r10
	ldr	ip, [r5, #2360]
	add	ip, ip, r1, lsl #1
	ldrsh	ip, [ip, #172]
	add	r2, ip, r2
	sub	ip, r2, #1
	str	ip, [r0, #4]
	mov	lr, r2, asl r10
	cmp	r3, lr
	bge	.L254
	cmp	r3, #255
	bhi	.L250
	uxtb	r4, r1
	add	ip, r8, r3
	b	.L252
.L253:
	cmp	r3, #256
	beq	.L250
.L252:
	add	r3, r3, #1
	strb	r4, [ip], #1
	cmp	r3, lr
	bne	.L253
.L254:
	add	r1, r1, #1
	add	r0, r0, #8
	cmp	r1, r7
	bne	.L248
.L249:
	cmp	r9, #0
	ble	.L246
	ldr	r3, [fp, #-52]
	mov	ip, #0
	ldr	r7, [fp, #-48]
	mov	lr, ip
	sub	r4, r3, #4
	mov	r6, r7
.L256:
	str	ip, [r7, lr, asl #3]
	mov	r3, ip, asl r4
	ldr	r2, [r5, #2360]
	add	r2, r2, lr, lsl #1
	ldrsh	r2, [r2, #212]
	add	ip, r2, ip
	sub	r2, ip, #1
	str	r2, [r6, #4]
	mov	r1, ip, asl r4
	cmp	r3, r1
	bge	.L261
	cmp	r3, #255
	bhi	.L257
	add	r2, r3, #255
	uxtb	r0, lr
	add	r2, r8, r2
	b	.L259
.L260:
	cmp	r3, #256
	beq	.L257
.L259:
	add	r3, r3, #1
	strb	r0, [r2, #1]!
	cmp	r3, r1
	bne	.L260
.L261:
	add	lr, lr, #1
	add	r6, r6, #8
	cmp	lr, r9
	bne	.L256
.L246:
	mov	r0, #0
	b	.L242
.L250:
	ldr	r2, .L270+4
	mov	r0, #1
	ldr	r1, .L270+8
	bl	dprint_vfmw
	mvn	r0, #0
.L242:
	sub	sp, fp, #40
	ldmfd	sp, {r4, r5, r6, r7, r8, r9, r10, fp, sp, pc}
.L257:
	ldr	r2, .L270+4
	mov	r0, #1
	ldr	r1, .L270+12
	bl	dprint_vfmw
	mvn	r0, #0
	b	.L242
.L269:
	mov	r1, #11
	mov	r3, r9
	str	r1, [sp]
	mov	r0, #1
	ldr	r2, .L270+4
	ldr	r1, .L270+16
	bl	dprint_vfmw
	mvn	r0, #0
	b	.L242
.L268:
	mov	r1, #10
	mov	r3, r7
	str	r1, [sp]
	mov	r0, #1
	ldr	r2, .L270+4
	ldr	r1, .L270+20
	bl	dprint_vfmw
	mvn	r0, #0
	b	.L242
.L271:
	.align	2
.L270:
	.word	vfmw_Osal_Func_Ptr_S
	.word	.LANCHOR0+156
	.word	.LC43
	.word	.LC44
	.word	.LC42
	.word	.LC41
	UNWIND(.fnend)
	.size	HEVC_CalcTileInfo, .-HEVC_CalcTileInfo
	.align	2
	.global	HEVC_Sei_More_Data_In_Payload
	.type	HEVC_Sei_More_Data_In_Payload, %function
HEVC_Sei_More_Data_In_Payload:
	UNWIND(.fnstart)
	@ args = 0, pretend = 0, frame = 0
	@ frame_needed = 1, uses_anonymous_args = 0
	UNWIND(.movsp ip)
	mov	ip, sp
	stmfd	sp!, {r4, r5, fp, ip, lr, pc}
	UNWIND(.pad #4)
	UNWIND(.save {r4, r5, fp, ip, lr})
	UNWIND(.setfp fp, ip, #-4)
	sub	fp, ip, #4
	ldr	r2, [r0, #2324]
	mov	r5, r1
	ldr	r3, [r2, #24]
	mov	r0, r2
	ldr	r4, [r2, #28]
	rsb	r4, r4, r3
	bl	BsIsByteAligned
	cmp	r4, r5, asl #3
	movne	r3, #1
	moveq	r3, #0
	cmp	r0, #0
	moveq	r0, #0
	andne	r0, r3, #1
	eor	r0, r0, #1
	ldmfd	sp, {r4, r5, fp, sp, pc}
	UNWIND(.fnend)
	.size	HEVC_Sei_More_Data_In_Payload, .-HEVC_Sei_More_Data_In_Payload
	.align	2
	.global	HEVC_Sei_Payload_Extension_Present
	.type	HEVC_Sei_Payload_Extension_Present, %function
HEVC_Sei_Payload_Extension_Present:
	UNWIND(.fnstart)
	@ args = 0, pretend = 0, frame = 32
	@ frame_needed = 1, uses_anonymous_args = 0
	UNWIND(.movsp ip)
	mov	ip, sp
	stmfd	sp!, {r4, r5, fp, ip, lr, pc}
	UNWIND(.pad #4)
	UNWIND(.save {r4, r5, fp, ip, lr})
	UNWIND(.setfp fp, ip, #-4)
	sub	fp, ip, #4
	UNWIND(.pad #32)
	sub	sp, sp, #32
	ldr	r3, .L280
	mov	r5, r1
	mov	r2, #32
	ldr	r1, [r0, #2324]
	sub	r0, fp, #52
	ldr	r3, [r3, #52]
	mov	r5, r5, asl #3
	blx	r3
	ldr	r3, [fp, #-28]
	ldr	r2, [fp, #-24]
	rsb	r3, r2, r3
	cmp	r3, r5
	movcs	r0, #0
	bcc	.L279
.L274:
	sub	sp, fp, #20
	ldmfd	sp, {r4, r5, fp, sp, pc}
.L279:
	mov	r1, #1
	sub	r0, fp, #52
	bl	BsShow
	cmp	r0, #0
	moveq	r0, #1
	beq	.L274
	mov	r1, #1
	sub	r0, fp, #52
	bl	BsSkip
	ldr	r3, [fp, #-28]
	ldr	r4, [fp, #-24]
	rsb	r4, r4, r3
	b	.L275
.L276:
	bl	BsSkip
	ldr	r3, [fp, #-28]
	ldr	r4, [fp, #-24]
	rsb	r4, r4, r3
.L275:
	mov	r1, #1
	sub	r0, fp, #52
	bl	BsShow
	cmp	r4, r5
	mov	r1, #1
	movcs	r3, #0
	movcc	r3, #1
	cmp	r0, #0
	movne	r2, #0
	andeq	r2, r3, #1
	sub	r0, fp, #52
	cmp	r2, #0
	bne	.L276
	mov	r0, r3
	sub	sp, fp, #20
	ldmfd	sp, {r4, r5, fp, sp, pc}
.L281:
	.align	2
.L280:
	.word	vfmw_Osal_Func_Ptr_S
	UNWIND(.fnend)
	.size	HEVC_Sei_Payload_Extension_Present, .-HEVC_Sei_Payload_Extension_Present
	.align	2
	.global	HEVC_Sei_Decoded_Picture_Hash
	.type	HEVC_Sei_Decoded_Picture_Hash, %function
HEVC_Sei_Decoded_Picture_Hash:
	UNWIND(.fnstart)
	@ args = 0, pretend = 0, frame = 0
	@ frame_needed = 1, uses_anonymous_args = 0
	UNWIND(.movsp ip)
	mov	ip, sp
	stmfd	sp!, {r4, r5, r6, r7, fp, ip, lr, pc}
	UNWIND(.pad #4)
	UNWIND(.save {r4, r5, r6, r7, fp, ip, lr})
	UNWIND(.setfp fp, ip, #-4)
	sub	fp, ip, #4
	cmp	r1, #0
	cmpne	r0, #0
	mov	r5, r0
	beq	.L290
	mov	r1, #8
	ldr	r0, [r0, #2324]
	bl	BsGet
	mov	r6, #3
	mov	r7, r0
.L289:
	cmp	r7, #0
	bne	.L284
	mov	r4, #16
.L285:
	mov	r1, #8
	ldr	r0, [r5, #2324]
	bl	BsGet
	subs	r4, r4, #1
	bne	.L285
.L286:
	subs	r6, r6, #1
	bne	.L289
.L294:
	mov	r0, r6
	ldmfd	sp, {r4, r5, r6, r7, fp, sp, pc}
.L284:
	cmp	r7, #1
	beq	.L293
	cmp	r7, #2
	bne	.L286
	mov	r1, #32
	ldr	r0, [r5, #2324]
	bl	BsGet
	subs	r6, r6, #1
	bne	.L289
	b	.L294
.L293:
	mov	r1, #16
	ldr	r0, [r5, #2324]
	bl	BsGet
	subs	r6, r6, #1
	bne	.L289
	b	.L294
.L290:
	mvn	r0, #0
	ldmfd	sp, {r4, r5, r6, r7, fp, sp, pc}
	UNWIND(.fnend)
	.size	HEVC_Sei_Decoded_Picture_Hash, .-HEVC_Sei_Decoded_Picture_Hash
	.align	2
	.global	HEVC_Sei_Region_Refresh_Info
	.type	HEVC_Sei_Region_Refresh_Info, %function
HEVC_Sei_Region_Refresh_Info:
	UNWIND(.fnstart)
	@ args = 0, pretend = 0, frame = 0
	@ frame_needed = 1, uses_anonymous_args = 0
	UNWIND(.movsp ip)
	mov	ip, sp
	stmfd	sp!, {r4, r5, fp, ip, lr, pc}
	UNWIND(.pad #4)
	UNWIND(.save {r4, r5, fp, ip, lr})
	UNWIND(.setfp fp, ip, #-4)
	sub	fp, ip, #4
	cmp	r1, #0
	cmpne	r0, #0
	moveq	r4, #1
	movne	r4, #0
	beq	.L297
	mov	r1, #1
	ldr	r0, [r0, #2324]
	bl	BsGet
	mov	r0, r4
	ldmfd	sp, {r4, r5, fp, sp, pc}
.L297:
	mvn	r0, #0
	ldmfd	sp, {r4, r5, fp, sp, pc}
	UNWIND(.fnend)
	.size	HEVC_Sei_Region_Refresh_Info, .-HEVC_Sei_Region_Refresh_Info
	.align	2
	.global	HEVC_Sei_Mastering_Display_Colour_Volume
	.type	HEVC_Sei_Mastering_Display_Colour_Volume, %function
HEVC_Sei_Mastering_Display_Colour_Volume:
	UNWIND(.fnstart)
	@ args = 0, pretend = 0, frame = 0
	@ frame_needed = 1, uses_anonymous_args = 0
	UNWIND(.movsp ip)
	mov	ip, sp
	stmfd	sp!, {r4, r5, r6, r7, fp, ip, lr, pc}
	UNWIND(.pad #4)
	UNWIND(.save {r4, r5, r6, r7, fp, ip, lr})
	UNWIND(.setfp fp, ip, #-4)
	sub	fp, ip, #4
	cmp	r1, #0
	cmpne	r0, #0
	mov	r5, r0
	mov	r6, r1
	beq	.L301
	add	r7, r1, #12
	mov	r4, r1
	mov	r3, #1
	strb	r3, [r1]
.L300:
	mov	r1, #16
	ldr	r0, [r5, #2324]
	bl	BsGet
	mov	r1, #16
	str	r0, [r4, #4]!
	ldr	r0, [r5, #2324]
	bl	BsGet
	cmp	r4, r7
	str	r0, [r4, #12]
	bne	.L300
	mov	r1, #16
	ldr	r0, [r5, #2324]
	bl	BsGet
	mov	r1, #16
	str	r0, [r6, #28]
	ldr	r0, [r5, #2324]
	bl	BsGet
	mov	r1, #32
	str	r0, [r6, #32]
	ldr	r0, [r5, #2324]
	bl	BsGet
	mov	r1, #32
	str	r0, [r6, #36]
	ldr	r0, [r5, #2324]
	bl	BsGet
	mov	r3, #0
	str	r0, [r6, #40]
.L299:
	mov	r0, r3
	ldmfd	sp, {r4, r5, r6, r7, fp, sp, pc}
.L301:
	mvn	r3, #0
	b	.L299
	UNWIND(.fnend)
	.size	HEVC_Sei_Mastering_Display_Colour_Volume, .-HEVC_Sei_Mastering_Display_Colour_Volume
	.align	2
	.global	HEVC_Sei_Content_Light_Level_Information
	.type	HEVC_Sei_Content_Light_Level_Information, %function
HEVC_Sei_Content_Light_Level_Information:
	UNWIND(.fnstart)
	@ args = 0, pretend = 0, frame = 0
	@ frame_needed = 1, uses_anonymous_args = 0
	UNWIND(.movsp ip)
	mov	ip, sp
	stmfd	sp!, {r4, r5, r6, r7, fp, ip, lr, pc}
	UNWIND(.pad #4)
	UNWIND(.save {r4, r5, r6, r7, fp, ip, lr})
	UNWIND(.setfp fp, ip, #-4)
	sub	fp, ip, #4
	cmp	r1, #0
	cmpne	r0, #0
	mov	r6, r0
	mov	r5, r1
	moveq	r4, #1
	movne	r4, #0
	beq	.L305
	mov	r3, #1
	mov	r1, #16
	strb	r3, [r5]
	ldr	r0, [r0, #2324]
	bl	BsGet
	mov	r1, #16
	strh	r0, [r5, #2]	@ movhi
	ldr	r0, [r6, #2324]
	bl	BsGet
	mov	r3, r4
	strh	r0, [r5, #4]	@ movhi
.L304:
	mov	r0, r3
	ldmfd	sp, {r4, r5, r6, r7, fp, sp, pc}
.L305:
	mvn	r3, #0
	b	.L304
	UNWIND(.fnend)
	.size	HEVC_Sei_Content_Light_Level_Information, .-HEVC_Sei_Content_Light_Level_Information
	.align	2
	.global	HEVC_Sei_HLGHDR_Comapitibility_Info
	.type	HEVC_Sei_HLGHDR_Comapitibility_Info, %function
HEVC_Sei_HLGHDR_Comapitibility_Info:
	UNWIND(.fnstart)
	@ args = 0, pretend = 0, frame = 0
	@ frame_needed = 1, uses_anonymous_args = 0
	UNWIND(.movsp ip)
	mov	ip, sp
	stmfd	sp!, {r4, r5, fp, ip, lr, pc}
	UNWIND(.pad #4)
	UNWIND(.save {r4, r5, fp, ip, lr})
	UNWIND(.setfp fp, ip, #-4)
	sub	fp, ip, #4
	cmp	r1, #0
	cmpne	r0, #0
	mov	r5, r1
	moveq	r4, #1
	movne	r4, #0
	beq	.L308
	ldr	r0, [r0, #2324]
	mov	r1, #8
	bl	BsGet
	mov	r3, r4
	strb	r0, [r5]
.L307:
	mov	r0, r3
	ldmfd	sp, {r4, r5, fp, sp, pc}
.L308:
	mvn	r3, #0
	b	.L307
	UNWIND(.fnend)
	.size	HEVC_Sei_HLGHDR_Comapitibility_Info, .-HEVC_Sei_HLGHDR_Comapitibility_Info
	.align	2
	.global	HEVC_Sei_Temporal_Sub_Layer_Zero_Index
	.type	HEVC_Sei_Temporal_Sub_Layer_Zero_Index, %function
HEVC_Sei_Temporal_Sub_Layer_Zero_Index:
	UNWIND(.fnstart)
	@ args = 0, pretend = 0, frame = 0
	@ frame_needed = 1, uses_anonymous_args = 0
	UNWIND(.movsp ip)
	mov	ip, sp
	stmfd	sp!, {r4, r5, fp, ip, lr, pc}
	UNWIND(.pad #4)
	UNWIND(.save {r4, r5, fp, ip, lr})
	UNWIND(.setfp fp, ip, #-4)
	sub	fp, ip, #4
	cmp	r1, #0
	cmpne	r0, #0
	mov	r5, r0
	moveq	r4, #1
	movne	r4, #0
	beq	.L311
	mov	r1, #1
	ldr	r0, [r0, #2324]
	bl	BsGet
	mov	r1, #1
	ldr	r0, [r5, #2324]
	bl	BsGet
	ldr	r0, [r5, #2324]
	bl	BsToNextByte
	mov	r0, r4
	ldmfd	sp, {r4, r5, fp, sp, pc}
.L311:
	mvn	r0, #0
	ldmfd	sp, {r4, r5, fp, sp, pc}
	UNWIND(.fnend)
	.size	HEVC_Sei_Temporal_Sub_Layer_Zero_Index, .-HEVC_Sei_Temporal_Sub_Layer_Zero_Index
	.align	2
	.global	HEVC_Sei_Display_Orientation
	.type	HEVC_Sei_Display_Orientation, %function
HEVC_Sei_Display_Orientation:
	UNWIND(.fnstart)
	@ args = 0, pretend = 0, frame = 0
	@ frame_needed = 1, uses_anonymous_args = 0
	UNWIND(.movsp ip)
	mov	ip, sp
	stmfd	sp!, {r4, r5, fp, ip, lr, pc}
	UNWIND(.pad #4)
	UNWIND(.save {r4, r5, fp, ip, lr})
	UNWIND(.setfp fp, ip, #-4)
	sub	fp, ip, #4
	cmp	r1, #0
	cmpne	r0, #0
	mov	r4, r0
	beq	.L315
	mov	r1, #1
	ldr	r0, [r0, #2324]
	bl	BsGet
	tst	r0, #255
	beq	.L316
.L314:
	ldr	r0, [r4, #2324]
	bl	BsToNextByte
	mov	r0, #0
	ldmfd	sp, {r4, r5, fp, sp, pc}
.L316:
	mov	r1, #1
	ldr	r0, [r4, #2324]
	bl	BsGet
	mov	r1, #1
	ldr	r0, [r4, #2324]
	bl	BsGet
	mov	r1, #16
	ldr	r0, [r4, #2324]
	bl	BsGet
	mov	r1, #1
	ldr	r0, [r4, #2324]
	bl	BsGet
	b	.L314
.L315:
	mvn	r0, #0
	ldmfd	sp, {r4, r5, fp, sp, pc}
	UNWIND(.fnend)
	.size	HEVC_Sei_Display_Orientation, .-HEVC_Sei_Display_Orientation
	.align	2
	.global	HEVC_Sei_TSI
	.type	HEVC_Sei_TSI, %function
HEVC_Sei_TSI:
	UNWIND(.fnstart)
	@ args = 0, pretend = 0, frame = 0
	@ frame_needed = 1, uses_anonymous_args = 0
	UNWIND(.movsp ip)
	mov	ip, sp
	stmfd	sp!, {r4, r5, r6, r7, fp, ip, lr, pc}
	UNWIND(.pad #4)
	UNWIND(.save {r4, r5, r6, r7, fp, ip, lr})
	UNWIND(.setfp fp, ip, #-4)
	sub	fp, ip, #4
	cmp	r1, #0
	cmpne	r0, #0
	mov	r6, r0
	mov	r5, r1
	moveq	r4, #1
	movne	r4, #0
	beq	.L319
	mov	r1, #4
	ldr	r0, [r0, #2324]
	bl	BsGet
	mov	r1, #4
	strb	r0, [r5, #1]
	ldr	r0, [r6, #2324]
	bl	BsGet
	mov	r3, r4
	mov	r2, #1
	strb	r2, [r5]
	strb	r0, [r5, #2]
.L318:
	mov	r0, r3
	ldmfd	sp, {r4, r5, r6, r7, fp, sp, pc}
.L319:
	mvn	r3, #0
	b	.L318
	UNWIND(.fnend)
	.size	HEVC_Sei_TSI, .-HEVC_Sei_TSI
	.align	2
	.global	HEVC_Sei_User_Data_Unregistered
	.type	HEVC_Sei_User_Data_Unregistered, %function
HEVC_Sei_User_Data_Unregistered:
	UNWIND(.fnstart)
	@ args = 0, pretend = 0, frame = 0
	@ frame_needed = 1, uses_anonymous_args = 0
	UNWIND(.movsp ip)
	mov	ip, sp
	stmfd	sp!, {r4, r5, r6, r7, fp, ip, lr, pc}
	UNWIND(.pad #4)
	UNWIND(.save {r4, r5, r6, r7, fp, ip, lr})
	UNWIND(.setfp fp, ip, #-4)
	sub	fp, ip, #4
	cmp	r2, #15
	mov	r6, r2
	mov	r5, r0
	movhi	r4, #16
	bls	.L329
.L323:
	mov	r1, #8
	ldr	r0, [r5, #2324]
	bl	BsGet
	subs	r4, r4, #1
	bne	.L323
	subs	r6, r6, #16
	beq	.L325
.L324:
	add	r4, r4, #1
	mov	r1, #8
	ldr	r0, [r5, #2324]
	bl	BsGet
	cmp	r6, r4
	bne	.L324
.L325:
	mov	r0, #0
	ldmfd	sp, {r4, r5, r6, r7, fp, sp, pc}
.L329:
	ldr	r1, .L330
	mov	r0, #1
	bl	dprint_vfmw
	mvn	r0, #0
	ldmfd	sp, {r4, r5, r6, r7, fp, sp, pc}
.L331:
	.align	2
.L330:
	.word	.LC45
	UNWIND(.fnend)
	.size	HEVC_Sei_User_Data_Unregistered, .-HEVC_Sei_User_Data_Unregistered
	.align	2
	.global	HEVC_IsRefListWrong
	.type	HEVC_IsRefListWrong, %function
HEVC_IsRefListWrong:
	UNWIND(.fnstart)
	@ args = 0, pretend = 0, frame = 0
	@ frame_needed = 1, uses_anonymous_args = 0
	UNWIND(.movsp ip)
	mov	ip, sp
	stmfd	sp!, {r4, r5, r6, r7, fp, ip, lr, pc}
	UNWIND(.pad #4)
	UNWIND(.save {r4, r5, r6, r7, fp, ip, lr})
	UNWIND(.setfp fp, ip, #-4)
	sub	fp, ip, #4
	UNWIND(.pad #8)
	sub	sp, sp, #8
	add	r7, r0, #4096
	mov	r5, r0
	ldr	r3, [r7, #140]
	cmp	r3, #0
	beq	.L333
	ldr	r4, [r0, #2384]
	cmp	r4, #0
	beq	.L334
	ldr	r2, [r4, #16]
	cmp	r2, #0
	addne	r6, r0, #2384
	movne	r4, #0
	bne	.L339
	b	.L377
.L340:
	ldr	r3, [ip, #28]
	cmp	r3, #0
	beq	.L341
	ldr	r3, [r7, #140]
	add	r4, r4, #1
	cmp	r4, r3
	bcs	.L378
	ldr	r2, [r6, #4]!
	cmp	r2, #0
	beq	.L334
	ldr	r2, [r2, #16]
	cmp	r2, #0
	beq	.L335
.L339:
	ldr	r1, [r2, #28]
	ldr	r0, [r5, #252]
	bl	FSP_GetLogicFs
	subs	ip, r0, #0
	bne	.L340
.L341:
	add	r3, r4, #596
	mov	r2, r4
	ldr	r1, .L382
	mov	r0, #1
	ldr	r3, [r5, r3, asl #2]
	ldr	r3, [r3, #16]
	str	ip, [sp]
	bl	dprint_vfmw
.L338:
	mvn	r0, #0
	sub	sp, fp, #28
	ldmfd	sp, {r4, r5, r6, r7, fp, sp, pc}
.L378:
	cmp	r3, #0
	beq	.L333
	ldr	r2, [r7, #144]
	cmp	r2, #0
	beq	.L333
	ldr	r4, [r5, #2452]
	cmp	r4, #0
	beq	.L346
	ldr	r2, [r4, #16]
	cmp	r2, #0
	addne	r6, r5, #2448
	movne	r4, #0
	addne	r6, r6, #4
	bne	.L350
	b	.L379
.L351:
	ldr	r3, [r0, #28]
	cmp	r3, #0
	beq	.L352
	ldr	r3, [r7, #144]
	add	r4, r4, #1
	cmp	r4, r3
	bcs	.L333
	ldr	r3, [r6, #4]!
	cmp	r3, #0
	beq	.L380
	ldr	r2, [r3, #16]
	cmp	r2, #0
	beq	.L381
.L350:
	ldr	r1, [r2, #28]
	ldr	r0, [r5, #252]
	bl	FSP_GetLogicFs
	cmp	r0, #0
	bne	.L351
.L352:
	mov	r3, r0
	mov	r2, r4
	ldr	r1, .L382+4
	mov	r0, #1
	bl	dprint_vfmw
	mvn	r0, #0
	b	.L372
.L333:
	mov	r0, #0
.L372:
	sub	sp, fp, #28
	ldmfd	sp, {r4, r5, r6, r7, fp, sp, pc}
.L334:
	mov	r2, r4
	ldr	r1, .L382+8
	mov	r0, #1
	bl	dprint_vfmw
	b	.L338
.L377:
	mov	r4, r2
.L335:
	mov	r2, r4
	ldr	r1, .L382+12
	mov	r0, #1
	bl	dprint_vfmw
	b	.L338
.L380:
	ldr	r3, [r7, #140]
.L346:
	mov	r2, r4
	ldr	r1, .L382+16
	mov	r0, #1
	bl	dprint_vfmw
	mvn	r0, #0
	b	.L372
.L381:
	ldr	r3, [r7, #140]
.L347:
	mov	r2, r4
	ldr	r1, .L382+20
	mov	r0, #1
	bl	dprint_vfmw
	mvn	r0, #0
	b	.L372
.L379:
	mov	r4, r2
	b	.L347
.L383:
	.align	2
.L382:
	.word	.LC48
	.word	.LC51
	.word	.LC46
	.word	.LC47
	.word	.LC49
	.word	.LC50
	UNWIND(.fnend)
	.size	HEVC_IsRefListWrong, .-HEVC_IsRefListWrong
	.align	2
	.global	HEVC_GetUnRefPicWithMinPoc
	.type	HEVC_GetUnRefPicWithMinPoc, %function
HEVC_GetUnRefPicWithMinPoc:
	UNWIND(.fnstart)
	@ args = 0, pretend = 0, frame = 0
	@ frame_needed = 1, uses_anonymous_args = 0
	UNWIND(.movsp ip)
	mov	ip, sp
	stmfd	sp!, {r4, fp, ip, lr, pc}
	UNWIND(.pad #4)
	UNWIND(.save {r4, fp, ip, lr})
	UNWIND(.setfp fp, ip, #-4)
	sub	fp, ip, #4
	UNWIND(.pad #12)
	sub	sp, sp, #12
	mvn	r4, #0
	str	r4, [r1]
	ldr	r3, [r0, #2556]
	cmp	r3, #16
	bhi	.L385
	cmp	r3, #0
	addne	ip, r0, #2560
	mvnne	r4, #-2147483648
	addne	ip, ip, #12
	movne	r3, #0
	beq	.L387
.L390:
	ldr	r2, [ip, #4]!
	ldr	lr, [r2, #8]
	cmp	lr, r4
	bge	.L389
	ldr	r2, [r2]
	bic	r2, r2, #-16777216
	bic	r2, r2, #255
	cmp	r2, #0
	streq	r3, [r1]
	moveq	r4, lr
.L389:
	ldr	r2, [r0, #2556]
	add	r3, r3, #1
	cmp	r2, r3
	bhi	.L390
	ldr	r3, [r1]
	cmn	r3, #1
	beq	.L387
	str	r4, [sp]
	mov	r0, #1
	ldr	r2, .L393
	ldr	r1, .L393+4
	bl	dprint_vfmw
	mov	r0, #0
.L388:
	sub	sp, fp, #16
	ldmfd	sp, {r4, fp, sp, pc}
.L385:
	ldr	r2, .L393
	mov	r0, #1
	ldr	r1, .L393+8
	bl	dprint_vfmw
	mov	r0, r4
	b	.L388
.L387:
	ldr	r2, .L393
	mov	r0, #1
	ldr	r1, .L393+12
	bl	dprint_vfmw
	mvn	r0, #0
	b	.L388
.L394:
	.align	2
.L393:
	.word	.LANCHOR0+176
	.word	.LC54
	.word	.LC52
	.word	.LC53
	UNWIND(.fnend)
	.size	HEVC_GetUnRefPicWithMinPoc, .-HEVC_GetUnRefPicWithMinPoc
	.align	2
	.global	HEVC_IncreaseDPBSize
	.type	HEVC_IncreaseDPBSize, %function
HEVC_IncreaseDPBSize:
	UNWIND(.fnstart)
	@ args = 0, pretend = 0, frame = 0
	@ frame_needed = 1, uses_anonymous_args = 0
	UNWIND(.movsp ip)
	mov	ip, sp
	stmfd	sp!, {r4, r5, fp, ip, lr, pc}
	UNWIND(.pad #4)
	UNWIND(.save {r4, r5, fp, ip, lr})
	UNWIND(.setfp fp, ip, #-4)
	sub	fp, ip, #4
	UNWIND(.pad #8)
	sub	sp, sp, #8
	ldr	r3, [r0, #2552]
	mov	r4, r0
	cmp	r3, #16
	bhi	.L399
	ldr	r0, [r0, #252]
	bl	FSP_GetTotalValidFsNum
	ldr	r2, [r4, #252]
	ldr	r1, [r4, #3496]
	mov	r5, r0
	ldr	r0, [r4, #3492]
	bl	FSP_GetOccupiedNum
	rsb	r0, r0, r5
	bic	r0, r0, r0, asr #31
	cmp	r0, #0
	ble	.L398
	ldr	r3, [r4, #2552]
	add	r3, r3, #1
	cmp	r0, r3
	bcc	.L398
	str	r3, [r4, #2552]
	mov	r0, #13
	ldr	r2, .L400
	ldr	r1, .L400+4
	bl	dprint_vfmw
	mov	r0, #0
.L397:
	sub	sp, fp, #20
	ldmfd	sp, {r4, r5, fp, sp, pc}
.L398:
	mov	r3, r0
	ldr	r2, .L400
	ldr	r1, .L400+8
	mov	r0, #1
	bl	dprint_vfmw
	mvn	r0, #0
	b	.L397
.L399:
	mov	r5, #17
	ldr	r2, .L400
	mov	r0, #1
	str	r5, [sp]
	ldr	r1, .L400+12
	bl	dprint_vfmw
	str	r5, [r4, #2552]
	mvn	r0, #0
	b	.L397
.L401:
	.align	2
.L400:
	.word	.LANCHOR0+204
	.word	.LC56
	.word	.LC57
	.word	.LC55
	UNWIND(.fnend)
	.size	HEVC_IncreaseDPBSize, .-HEVC_IncreaseDPBSize
	.align	2
	.global	HEVC_PicTypeStatistic
	.type	HEVC_PicTypeStatistic, %function
HEVC_PicTypeStatistic:
	UNWIND(.fnstart)
	@ args = 0, pretend = 0, frame = 0
	@ frame_needed = 1, uses_anonymous_args = 0
	UNWIND(.movsp ip)
	mov	ip, sp
	stmfd	sp!, {fp, ip, lr, pc}
	UNWIND(.pad #4)
	UNWIND(.save {fp, ip, lr})
	UNWIND(.setfp fp, ip, #-4)
	sub	fp, ip, #4
	add	r3, r0, #4096
	ldr	r2, [r3, #100]
	sub	r1, r2, #16
	cmp	r1, #5
	bls	.L403
	ldr	r2, [r0, #3476]
	sub	r2, r2, #16
	cmp	r2, #5
	bls	.L414
	ldr	r3, [r3, #92]
	cmp	r3, #1
	beq	.L406
	cmp	r3, #2
	beq	.L407
	cmp	r3, #0
	moveq	r3, #2
	streq	r3, [r0, #3488]
	ldmfd	sp, {fp, sp, pc}
.L403:
	mov	r3, #0
	str	r2, [r0, #3476]
	str	r3, [r0, #3488]
	ldmfd	sp, {fp, sp, pc}
.L406:
	ldr	r2, [r0, #3488]
	cmp	r2, #2
	beq	.L415
	str	r3, [r0, #3488]
	ldmfd	sp, {fp, sp, pc}
.L407:
	ldr	r3, [r0, #3488]
	sub	r3, r3, #1
	cmp	r3, #1
	movhi	r3, #0
	strhi	r3, [r0, #3488]
	ldmfd	sp, {fp, sp, pc}
.L415:
	ldmfd	sp, {fp, sp, pc}
.L414:
	ldmfd	sp, {fp, sp, pc}
	UNWIND(.fnend)
	.size	HEVC_PicTypeStatistic, .-HEVC_PicTypeStatistic
	.align	2
	.global	HEVC_IsReferenceNalu
	.type	HEVC_IsReferenceNalu, %function
HEVC_IsReferenceNalu:
	UNWIND(.fnstart)
	@ args = 0, pretend = 0, frame = 0
	@ frame_needed = 1, uses_anonymous_args = 0
	UNWIND(.movsp ip)
	mov	ip, sp
	stmfd	sp!, {fp, ip, lr, pc}
	UNWIND(.pad #4)
	UNWIND(.save {fp, ip, lr})
	UNWIND(.setfp fp, ip, #-4)
	sub	fp, ip, #4
	add	r0, r0, #4096
	ldr	r0, [r0, #100]
	cmp	r0, #15
	bhi	.L417
	tst	r0, #1
	bne	.L419
.L417:
	sub	r0, r0, #16
	cmp	r0, #7
	movhi	r0, #0
	movls	r0, #1
	ldmfd	sp, {fp, sp, pc}
.L419:
	mov	r0, #1
	ldmfd	sp, {fp, sp, pc}
	UNWIND(.fnend)
	.size	HEVC_IsReferenceNalu, .-HEVC_IsReferenceNalu
	.align	2
	.global	HEVC_WriteQmatrix_4x4
	.type	HEVC_WriteQmatrix_4x4, %function
HEVC_WriteQmatrix_4x4:
	UNWIND(.fnstart)
	@ args = 0, pretend = 0, frame = 0
	@ frame_needed = 1, uses_anonymous_args = 0
	UNWIND(.movsp ip)
	mov	ip, sp
	stmfd	sp!, {fp, ip, lr, pc}
	UNWIND(.pad #4)
	UNWIND(.save {fp, ip, lr})
	UNWIND(.setfp fp, ip, #-4)
	sub	fp, ip, #4
	add	r1, r1, r0, lsl #6
	ldr	r0, [r1, #604]
	ldr	r3, [r1, #608]
	ldrb	ip, [r1, #596]	@ zero_extendqisi2
	ldrb	lr, [r1, #600]	@ zero_extendqisi2
	mov	r0, r0, asl #8
	orr	r3, ip, r3, asl #24
	uxth	r0, r0
	orr	r3, r3, lr, asl #16
	orr	r3, r3, r0
	str	r3, [r2]
	ldr	r0, [r1, #604]
	ldrb	lr, [r1, #597]	@ zero_extendqisi2
	ldrb	r3, [r1, #609]	@ zero_extendqisi2
	and	r0, r0, #65280
	ldrb	ip, [r1, #601]	@ zero_extendqisi2
	orr	r0, lr, r0
	orr	r3, r0, r3, asl #24
	orr	r3, r3, ip, asl #16
	str	r3, [r2, #4]
	ldr	r0, [r1, #600]
	ldrb	lr, [r1, #598]	@ zero_extendqisi2
	ldrb	r3, [r1, #610]	@ zero_extendqisi2
	and	r0, r0, #16711680
	ldrb	ip, [r1, #606]	@ zero_extendqisi2
	orr	r0, lr, r0
	orr	r3, r0, r3, asl #24
	orr	r3, r3, ip, asl #8
	str	r3, [r2, #8]
	ldr	r0, [r1, #608]
	ldrb	r3, [r1, #603]	@ zero_extendqisi2
	ldrb	lr, [r1, #599]	@ zero_extendqisi2
	and	r0, r0, #-16777216
	ldrb	ip, [r1, #607]	@ zero_extendqisi2
	orr	r1, lr, r0
	orr	r3, r1, r3, asl #16
	orr	r3, r3, ip, asl #8
	str	r3, [r2, #12]
	ldmfd	sp, {fp, sp, pc}
	UNWIND(.fnend)
	.size	HEVC_WriteQmatrix_4x4, .-HEVC_WriteQmatrix_4x4
	.align	2
	.global	HEVC_WriteQmatrix_32x32
	.type	HEVC_WriteQmatrix_32x32, %function
HEVC_WriteQmatrix_32x32:
	UNWIND(.fnstart)
	@ args = 0, pretend = 0, frame = 0
	@ frame_needed = 1, uses_anonymous_args = 0
	UNWIND(.movsp ip)
	mov	ip, sp
	stmfd	sp!, {r4, fp, ip, lr, pc}
	UNWIND(.pad #4)
	UNWIND(.save {r4, fp, ip, lr})
	UNWIND(.setfp fp, ip, #-4)
	sub	fp, ip, #4
	add	lr, r0, #18
	add	r0, r1, r0, lsl #6
	add	lr, r1, lr, lsl #6
	ldr	r1, [r0, #1756]
	ldr	r3, [r0, #1772]
	ldrb	ip, [lr, #596]	@ zero_extendqisi2
	ldrb	r4, [r0, #1764]	@ zero_extendqisi2
	mov	r1, r1, asl #8
	orr	r3, ip, r3, asl #24
	uxth	r1, r1
	orr	r3, r3, r4, asl #16
	orr	r3, r3, r1
	str	r3, [r2]
	ldr	r1, [r0, #1788]
	ldr	r3, [r0, #1804]
	ldrb	ip, [r0, #1780]	@ zero_extendqisi2
	ldrb	r4, [r0, #1796]	@ zero_extendqisi2
	mov	r1, r1, asl #8
	orr	r3, ip, r3, asl #24
	uxth	r1, r1
	orr	r3, r3, r4, asl #16
	orr	r3, r3, r1
	str	r3, [r2, #4]
	ldr	r1, [r0, #1756]
	ldrb	r4, [lr, #597]	@ zero_extendqisi2
	ldrb	r3, [r0, #1773]	@ zero_extendqisi2
	and	r1, r1, #65280
	ldrb	ip, [r0, #1765]	@ zero_extendqisi2
	orr	r1, r4, r1
	orr	r3, r1, r3, asl #24
	orr	r3, r3, ip, asl #16
	str	r3, [r2, #8]
	ldr	r1, [r0, #1788]
	ldrb	r4, [r0, #1781]	@ zero_extendqisi2
	ldrb	r3, [r0, #1805]	@ zero_extendqisi2
	and	r1, r1, #65280
	ldrb	ip, [r0, #1797]	@ zero_extendqisi2
	orr	r1, r4, r1
	orr	r3, r1, r3, asl #24
	orr	r3, r3, ip, asl #16
	str	r3, [r2, #12]
	ldr	ip, [r0, #1764]
	ldrb	r4, [lr, #598]	@ zero_extendqisi2
	ldrb	r3, [r0, #1774]	@ zero_extendqisi2
	and	ip, ip, #16711680
	ldrb	r1, [r0, #1758]	@ zero_extendqisi2
	orr	ip, r4, ip
	orr	r3, ip, r3, asl #24
	orr	r3, r3, r1, asl #8
	str	r3, [r2, #16]
	ldr	ip, [r0, #1796]
	ldrb	r4, [r0, #1782]	@ zero_extendqisi2
	ldrb	r3, [r0, #1806]	@ zero_extendqisi2
	and	ip, ip, #16711680
	ldrb	r1, [r0, #1790]	@ zero_extendqisi2
	orr	ip, r4, ip
	orr	r3, ip, r3, asl #24
	orr	r3, r3, r1, asl #8
	str	r3, [r2, #20]
	ldr	r1, [r0, #1772]
	ldrb	lr, [lr, #599]	@ zero_extendqisi2
	ldrb	r3, [r0, #1767]	@ zero_extendqisi2
	and	r1, r1, #-16777216
	ldrb	ip, [r0, #1759]	@ zero_extendqisi2
	orr	r1, lr, r1
	orr	r3, r1, r3, asl #16
	orr	r3, r3, ip, asl #8
	str	r3, [r2, #24]
	ldr	r1, [r0, #1804]
	ldrb	lr, [r0, #1783]	@ zero_extendqisi2
	ldrb	r3, [r0, #1799]	@ zero_extendqisi2
	and	r1, r1, #-16777216
	ldrb	ip, [r0, #1791]	@ zero_extendqisi2
	orr	r1, lr, r1
	orr	r3, r1, r3, asl #16
	orr	r3, r3, ip, asl #8
	str	r3, [r2, #28]
	ldr	r1, [r0, #1760]
	ldr	r3, [r0, #1776]
	ldrb	ip, [r0, #1752]	@ zero_extendqisi2
	ldrb	lr, [r0, #1768]	@ zero_extendqisi2
	mov	r1, r1, asl #8
	orr	r3, ip, r3, asl #24
	uxth	r1, r1
	orr	r3, r3, lr, asl #16
	orr	r3, r3, r1
	str	r3, [r2, #32]
	ldr	r1, [r0, #1792]
	ldr	r3, [r0, #1808]
	ldrb	ip, [r0, #1784]	@ zero_extendqisi2
	ldrb	lr, [r0, #1800]	@ zero_extendqisi2
	mov	r1, r1, asl #8
	orr	r3, ip, r3, asl #24
	uxth	r1, r1
	orr	r3, r3, lr, asl #16
	orr	r3, r3, r1
	str	r3, [r2, #36]
	ldr	r1, [r0, #1760]
	ldrb	lr, [r0, #1753]	@ zero_extendqisi2
	ldrb	r3, [r0, #1777]	@ zero_extendqisi2
	and	r1, r1, #65280
	ldrb	ip, [r0, #1769]	@ zero_extendqisi2
	orr	r1, lr, r1
	orr	r3, r1, r3, asl #24
	orr	r3, r3, ip, asl #16
	str	r3, [r2, #40]
	ldr	r1, [r0, #1792]
	ldrb	lr, [r0, #1785]	@ zero_extendqisi2
	ldrb	r3, [r0, #1809]	@ zero_extendqisi2
	and	r1, r1, #65280
	ldrb	ip, [r0, #1801]	@ zero_extendqisi2
	orr	r1, lr, r1
	orr	r3, r1, r3, asl #24
	orr	r3, r3, ip, asl #16
	str	r3, [r2, #44]
	ldr	r1, [r0, #1768]
	ldrb	lr, [r0, #1754]	@ zero_extendqisi2
	ldrb	r3, [r0, #1778]	@ zero_extendqisi2
	and	r1, r1, #16711680
	ldrb	ip, [r0, #1762]	@ zero_extendqisi2
	orr	r1, lr, r1
	orr	r3, r1, r3, asl #24
	orr	r3, r3, ip, asl #8
	str	r3, [r2, #48]
	ldrb	lr, [r0, #1786]	@ zero_extendqisi2
	ldr	r1, [r0, #1800]
	ldrb	r3, [r0, #1810]	@ zero_extendqisi2
	ldrb	ip, [r0, #1794]	@ zero_extendqisi2
	and	r1, r1, #16711680
	orr	r1, lr, r1
	orr	r3, r1, r3, asl #24
	orr	r3, r3, ip, asl #8
	str	r3, [r2, #52]
	ldr	r1, [r0, #1776]
	ldrb	lr, [r0, #1755]	@ zero_extendqisi2
	ldrb	r3, [r0, #1771]	@ zero_extendqisi2
	and	r1, r1, #-16777216
	ldrb	ip, [r0, #1763]	@ zero_extendqisi2
	orr	r1, lr, r1
	orr	r3, r1, r3, asl #16
	orr	r3, r3, ip, asl #8
	str	r3, [r2, #56]
	ldr	r1, [r0, #1808]
	ldrb	ip, [r0, #1787]	@ zero_extendqisi2
	ldrb	r3, [r0, #1803]	@ zero_extendqisi2
	and	r1, r1, #-16777216
	ldrb	r0, [r0, #1795]	@ zero_extendqisi2
	orr	r1, ip, r1
	orr	r3, r1, r3, asl #16
	orr	r3, r3, r0, asl #8
	str	r3, [r2, #60]
	ldmfd	sp, {r4, fp, sp, pc}
	UNWIND(.fnend)
	.size	HEVC_WriteQmatrix_32x32, .-HEVC_WriteQmatrix_32x32
	.align	2
	.global	HEVC_WriteQmatrix_8x8
	.type	HEVC_WriteQmatrix_8x8, %function
HEVC_WriteQmatrix_8x8:
	UNWIND(.fnstart)
	@ args = 0, pretend = 0, frame = 0
	@ frame_needed = 1, uses_anonymous_args = 0
	UNWIND(.movsp ip)
	mov	ip, sp
	stmfd	sp!, {r4, fp, ip, lr, pc}
	UNWIND(.pad #4)
	UNWIND(.save {r4, fp, ip, lr})
	UNWIND(.setfp fp, ip, #-4)
	sub	fp, ip, #4
	add	lr, r0, #6
	add	r0, r1, r0, lsl #6
	add	lr, r1, lr, lsl #6
	ldr	r1, [r0, #996]
	ldr	r3, [r0, #1028]
	ldrb	ip, [lr, #596]	@ zero_extendqisi2
	ldrb	r4, [r0, #1012]	@ zero_extendqisi2
	mov	r1, r1, asl #8
	orr	r3, ip, r3, asl #24
	uxth	r1, r1
	orr	r3, r3, r4, asl #16
	orr	r3, r3, r1
	str	r3, [r2]
	ldr	r1, [r0, #1004]
	ldr	r3, [r0, #1036]
	ldrb	ip, [r0, #988]	@ zero_extendqisi2
	ldrb	r4, [r0, #1020]	@ zero_extendqisi2
	mov	r1, r1, asl #8
	orr	r3, ip, r3, asl #24
	uxth	r1, r1
	orr	r3, r3, r4, asl #16
	orr	r3, r3, r1
	str	r3, [r2, #4]
	ldr	r1, [r0, #996]
	ldrb	r4, [lr, #597]	@ zero_extendqisi2
	ldrb	r3, [r0, #1029]	@ zero_extendqisi2
	and	r1, r1, #65280
	ldrb	ip, [r0, #1013]	@ zero_extendqisi2
	orr	r1, r4, r1
	orr	r3, r1, r3, asl #24
	orr	r3, r3, ip, asl #16
	str	r3, [r2, #8]
	ldr	r1, [r0, #1004]
	ldrb	r4, [r0, #989]	@ zero_extendqisi2
	ldrb	r3, [r0, #1037]	@ zero_extendqisi2
	and	r1, r1, #65280
	ldrb	ip, [r0, #1021]	@ zero_extendqisi2
	orr	r1, r4, r1
	orr	r3, r1, r3, asl #24
	orr	r3, r3, ip, asl #16
	str	r3, [r2, #12]
	ldr	ip, [r0, #1012]
	ldrb	r4, [lr, #598]	@ zero_extendqisi2
	ldrb	r3, [r0, #1030]	@ zero_extendqisi2
	and	ip, ip, #16711680
	ldrb	r1, [r0, #998]	@ zero_extendqisi2
	orr	ip, r4, ip
	orr	r3, ip, r3, asl #24
	orr	r3, r3, r1, asl #8
	str	r3, [r2, #16]
	ldr	ip, [r0, #1020]
	ldrb	r4, [r0, #990]	@ zero_extendqisi2
	ldrb	r3, [r0, #1038]	@ zero_extendqisi2
	and	ip, ip, #16711680
	ldrb	r1, [r0, #1006]	@ zero_extendqisi2
	orr	ip, r4, ip
	orr	r3, ip, r3, asl #24
	orr	r3, r3, r1, asl #8
	str	r3, [r2, #20]
	ldr	r1, [r0, #1028]
	ldrb	lr, [lr, #599]	@ zero_extendqisi2
	ldrb	r3, [r0, #1015]	@ zero_extendqisi2
	and	r1, r1, #-16777216
	ldrb	ip, [r0, #999]	@ zero_extendqisi2
	orr	r1, lr, r1
	orr	r3, r1, r3, asl #16
	orr	r3, r3, ip, asl #8
	str	r3, [r2, #24]
	ldr	r1, [r0, #1036]
	ldrb	lr, [r0, #991]	@ zero_extendqisi2
	ldrb	r3, [r0, #1023]	@ zero_extendqisi2
	and	r1, r1, #-16777216
	ldrb	ip, [r0, #1007]	@ zero_extendqisi2
	orr	r1, lr, r1
	orr	r3, r1, r3, asl #16
	orr	r3, r3, ip, asl #8
	str	r3, [r2, #28]
	ldr	r1, [r0, #1000]
	ldr	r3, [r0, #1032]
	ldrb	ip, [r0, #984]	@ zero_extendqisi2
	ldrb	lr, [r0, #1016]	@ zero_extendqisi2
	mov	r1, r1, asl #8
	orr	r3, ip, r3, asl #24
	uxth	r1, r1
	orr	r3, r3, lr, asl #16
	orr	r3, r3, r1
	str	r3, [r2, #32]
	ldr	r1, [r0, #1008]
	ldr	r3, [r0, #1040]
	ldrb	ip, [r0, #992]	@ zero_extendqisi2
	ldrb	lr, [r0, #1024]	@ zero_extendqisi2
	mov	r1, r1, asl #8
	orr	r3, ip, r3, asl #24
	uxth	r1, r1
	orr	r3, r3, lr, asl #16
	orr	r3, r3, r1
	str	r3, [r2, #36]
	ldr	r1, [r0, #1000]
	ldrb	lr, [r0, #985]	@ zero_extendqisi2
	ldrb	r3, [r0, #1033]	@ zero_extendqisi2
	and	r1, r1, #65280
	ldrb	ip, [r0, #1017]	@ zero_extendqisi2
	orr	r1, lr, r1
	orr	r3, r1, r3, asl #24
	orr	r3, r3, ip, asl #16
	str	r3, [r2, #40]
	ldr	r1, [r0, #1008]
	ldrb	lr, [r0, #993]	@ zero_extendqisi2
	ldrb	r3, [r0, #1041]	@ zero_extendqisi2
	and	r1, r1, #65280
	ldrb	ip, [r0, #1025]	@ zero_extendqisi2
	orr	r1, lr, r1
	orr	r3, r1, r3, asl #24
	orr	r3, r3, ip, asl #16
	str	r3, [r2, #44]
	ldr	r1, [r0, #1016]
	ldrb	lr, [r0, #986]	@ zero_extendqisi2
	ldrb	r3, [r0, #1034]	@ zero_extendqisi2
	and	r1, r1, #16711680
	ldrb	ip, [r0, #1002]	@ zero_extendqisi2
	orr	r1, lr, r1
	orr	r3, r1, r3, asl #24
	orr	r3, r3, ip, asl #8
	str	r3, [r2, #48]
	ldrb	lr, [r0, #994]	@ zero_extendqisi2
	ldr	r1, [r0, #1024]
	ldrb	r3, [r0, #1042]	@ zero_extendqisi2
	ldrb	ip, [r0, #1010]	@ zero_extendqisi2
	and	r1, r1, #16711680
	orr	r1, lr, r1
	orr	r3, r1, r3, asl #24
	orr	r3, r3, ip, asl #8
	str	r3, [r2, #52]
	ldr	r1, [r0, #1032]
	ldrb	lr, [r0, #987]	@ zero_extendqisi2
	ldrb	r3, [r0, #1019]	@ zero_extendqisi2
	and	r1, r1, #-16777216
	ldrb	ip, [r0, #1003]	@ zero_extendqisi2
	orr	r1, lr, r1
	orr	r3, r1, r3, asl #16
	orr	r3, r3, ip, asl #8
	str	r3, [r2, #56]
	ldr	r1, [r0, #1040]
	ldrb	ip, [r0, #995]	@ zero_extendqisi2
	ldrb	r3, [r0, #1027]	@ zero_extendqisi2
	and	r1, r1, #-16777216
	ldrb	r0, [r0, #1011]	@ zero_extendqisi2
	orr	r1, ip, r1
	orr	r3, r1, r3, asl #16
	orr	r3, r3, r0, asl #8
	str	r3, [r2, #60]
	ldmfd	sp, {r4, fp, sp, pc}
	UNWIND(.fnend)
	.size	HEVC_WriteQmatrix_8x8, .-HEVC_WriteQmatrix_8x8
	.align	2
	.global	HEVC_WriteQmatrix_16x16
	.type	HEVC_WriteQmatrix_16x16, %function
HEVC_WriteQmatrix_16x16:
	UNWIND(.fnstart)
	@ args = 0, pretend = 0, frame = 0
	@ frame_needed = 1, uses_anonymous_args = 0
	UNWIND(.movsp ip)
	mov	ip, sp
	stmfd	sp!, {r4, fp, ip, lr, pc}
	UNWIND(.pad #4)
	UNWIND(.save {r4, fp, ip, lr})
	UNWIND(.setfp fp, ip, #-4)
	sub	fp, ip, #4
	add	lr, r0, #12
	add	r0, r1, r0, lsl #6
	add	lr, r1, lr, lsl #6
	ldr	r1, [r0, #1372]
	ldr	r3, [r0, #1388]
	ldrb	ip, [lr, #596]	@ zero_extendqisi2
	ldrb	r4, [r0, #1380]	@ zero_extendqisi2
	mov	r1, r1, asl #8
	orr	r3, ip, r3, asl #24
	uxth	r1, r1
	orr	r3, r3, r4, asl #16
	orr	r3, r3, r1
	str	r3, [r2]
	ldr	r1, [r0, #1404]
	ldr	r3, [r0, #1420]
	ldrb	ip, [r0, #1396]	@ zero_extendqisi2
	ldrb	r4, [r0, #1412]	@ zero_extendqisi2
	mov	r1, r1, asl #8
	orr	r3, ip, r3, asl #24
	uxth	r1, r1
	orr	r3, r3, r4, asl #16
	orr	r3, r3, r1
	str	r3, [r2, #4]
	ldr	r1, [r0, #1372]
	ldrb	r4, [lr, #597]	@ zero_extendqisi2
	ldrb	r3, [r0, #1389]	@ zero_extendqisi2
	and	r1, r1, #65280
	ldrb	ip, [r0, #1381]	@ zero_extendqisi2
	orr	r1, r4, r1
	orr	r3, r1, r3, asl #24
	orr	r3, r3, ip, asl #16
	str	r3, [r2, #8]
	ldr	r1, [r0, #1404]
	ldrb	r4, [r0, #1397]	@ zero_extendqisi2
	ldrb	r3, [r0, #1421]	@ zero_extendqisi2
	and	r1, r1, #65280
	ldrb	ip, [r0, #1413]	@ zero_extendqisi2
	orr	r1, r4, r1
	orr	r3, r1, r3, asl #24
	orr	r3, r3, ip, asl #16
	str	r3, [r2, #12]
	ldr	ip, [r0, #1380]
	ldrb	r4, [lr, #598]	@ zero_extendqisi2
	ldrb	r3, [r0, #1390]	@ zero_extendqisi2
	and	ip, ip, #16711680
	ldrb	r1, [r0, #1374]	@ zero_extendqisi2
	orr	ip, r4, ip
	orr	r3, ip, r3, asl #24
	orr	r3, r3, r1, asl #8
	str	r3, [r2, #16]
	ldr	ip, [r0, #1412]
	ldrb	r4, [r0, #1398]	@ zero_extendqisi2
	ldrb	r3, [r0, #1422]	@ zero_extendqisi2
	and	ip, ip, #16711680
	ldrb	r1, [r0, #1406]	@ zero_extendqisi2
	orr	ip, r4, ip
	orr	r3, ip, r3, asl #24
	orr	r3, r3, r1, asl #8
	str	r3, [r2, #20]
	ldr	r1, [r0, #1388]
	ldrb	lr, [lr, #599]	@ zero_extendqisi2
	ldrb	r3, [r0, #1383]	@ zero_extendqisi2
	and	r1, r1, #-16777216
	ldrb	ip, [r0, #1375]	@ zero_extendqisi2
	orr	r1, lr, r1
	orr	r3, r1, r3, asl #16
	orr	r3, r3, ip, asl #8
	str	r3, [r2, #24]
	ldr	r1, [r0, #1420]
	ldrb	lr, [r0, #1399]	@ zero_extendqisi2
	ldrb	r3, [r0, #1415]	@ zero_extendqisi2
	and	r1, r1, #-16777216
	ldrb	ip, [r0, #1407]	@ zero_extendqisi2
	orr	r1, lr, r1
	orr	r3, r1, r3, asl #16
	orr	r3, r3, ip, asl #8
	str	r3, [r2, #28]
	ldr	r1, [r0, #1376]
	ldr	r3, [r0, #1392]
	ldrb	ip, [r0, #1368]	@ zero_extendqisi2
	ldrb	lr, [r0, #1384]	@ zero_extendqisi2
	mov	r1, r1, asl #8
	orr	r3, ip, r3, asl #24
	uxth	r1, r1
	orr	r3, r3, lr, asl #16
	orr	r3, r3, r1
	str	r3, [r2, #32]
	ldr	r1, [r0, #1408]
	ldr	r3, [r0, #1424]
	ldrb	ip, [r0, #1400]	@ zero_extendqisi2
	ldrb	lr, [r0, #1416]	@ zero_extendqisi2
	mov	r1, r1, asl #8
	orr	r3, ip, r3, asl #24
	uxth	r1, r1
	orr	r3, r3, lr, asl #16
	orr	r3, r3, r1
	str	r3, [r2, #36]
	ldr	r1, [r0, #1376]
	ldrb	lr, [r0, #1369]	@ zero_extendqisi2
	ldrb	r3, [r0, #1393]	@ zero_extendqisi2
	and	r1, r1, #65280
	ldrb	ip, [r0, #1385]	@ zero_extendqisi2
	orr	r1, lr, r1
	orr	r3, r1, r3, asl #24
	orr	r3, r3, ip, asl #16
	str	r3, [r2, #40]
	ldr	r1, [r0, #1408]
	ldrb	lr, [r0, #1401]	@ zero_extendqisi2
	ldrb	r3, [r0, #1425]	@ zero_extendqisi2
	and	r1, r1, #65280
	ldrb	ip, [r0, #1417]	@ zero_extendqisi2
	orr	r1, lr, r1
	orr	r3, r1, r3, asl #24
	orr	r3, r3, ip, asl #16
	str	r3, [r2, #44]
	ldr	r1, [r0, #1384]
	ldrb	lr, [r0, #1370]	@ zero_extendqisi2
	ldrb	r3, [r0, #1394]	@ zero_extendqisi2
	and	r1, r1, #16711680
	ldrb	ip, [r0, #1378]	@ zero_extendqisi2
	orr	r1, lr, r1
	orr	r3, r1, r3, asl #24
	orr	r3, r3, ip, asl #8
	str	r3, [r2, #48]
	ldrb	lr, [r0, #1402]	@ zero_extendqisi2
	ldr	r1, [r0, #1416]
	ldrb	r3, [r0, #1426]	@ zero_extendqisi2
	ldrb	ip, [r0, #1410]	@ zero_extendqisi2
	and	r1, r1, #16711680
	orr	r1, lr, r1
	orr	r3, r1, r3, asl #24
	orr	r3, r3, ip, asl #8
	str	r3, [r2, #52]
	ldr	r1, [r0, #1392]
	ldrb	lr, [r0, #1371]	@ zero_extendqisi2
	ldrb	r3, [r0, #1387]	@ zero_extendqisi2
	and	r1, r1, #-16777216
	ldrb	ip, [r0, #1379]	@ zero_extendqisi2
	orr	r1, lr, r1
	orr	r3, r1, r3, asl #16
	orr	r3, r3, ip, asl #8
	str	r3, [r2, #56]
	ldr	r1, [r0, #1424]
	ldrb	ip, [r0, #1403]	@ zero_extendqisi2
	ldrb	r3, [r0, #1419]	@ zero_extendqisi2
	and	r1, r1, #-16777216
	ldrb	r0, [r0, #1411]	@ zero_extendqisi2
	orr	r1, ip, r1
	orr	r3, r1, r3, asl #16
	orr	r3, r3, r0, asl #8
	str	r3, [r2, #60]
	ldmfd	sp, {r4, fp, sp, pc}
	UNWIND(.fnend)
	.size	HEVC_WriteQmatrix_16x16, .-HEVC_WriteQmatrix_16x16
	.align	2
	.global	HEVC_CtbRsAddrToTsAddr
	.type	HEVC_CtbRsAddrToTsAddr, %function
HEVC_CtbRsAddrToTsAddr:
	UNWIND(.fnstart)
	@ args = 0, pretend = 0, frame = 200
	@ frame_needed = 1, uses_anonymous_args = 0
	UNWIND(.movsp ip)
	mov	ip, sp
	stmfd	sp!, {r4, r5, r6, r7, r8, r9, r10, fp, ip, lr, pc}
	UNWIND(.pad #4)
	UNWIND(.save {r4, r5, r6, r7, r8, r9, r10, fp, ip, lr})
	UNWIND(.setfp fp, ip, #-4)
	sub	fp, ip, #4
	UNWIND(.pad #204)
	sub	sp, sp, #204
	ldr	ip, [r0, #2360]
	mov	r6, r1
	ldrb	r3, [ip, #13]	@ zero_extendqisi2
	cmp	r3, #0
	beq	.L459
	ldr	r3, [ip, #72]
	ldr	r7, [ip, #68]
	ldrb	r4, [ip, #15]	@ zero_extendqisi2
	mov	r2, r3
	str	r3, [fp, #-236]
	ldr	r3, [r0, #2356]
	cmp	r2, #0
	sub	r8, r2, #1
	sub	r2, r7, #1
	str	r2, [fp, #-240]
	ldr	r5, [r3, #64]
	ldr	r1, [r3, #128]
	ble	.L430
	ldr	r3, [fp, #-236]
	add	r2, ip, #210
	sub	r0, fp, #216
	add	lr, r3, #105
	add	lr, ip, lr, lsl #1
.L429:
	ldrsh	r3, [r2, #2]!
	cmp	r2, lr
	sub	r3, r3, #1
	str	r3, [r0, #4]!
	bne	.L429
.L430:
	cmp	r7, #0
	ble	.L428
	add	r3, r7, #85
	add	r2, ip, #170
	sub	r0, fp, #128
	add	ip, ip, r3, lsl #1
.L433:
	ldrsh	r3, [r2, #2]!
	cmp	r2, ip
	sub	r3, r3, #1
	str	r3, [r0, #4]!
	bne	.L433
.L428:
	mov	r10, #1
	mov	r0, r5
	mov	r10, r10, asl r1
	mov	r1, r10
	bl	__aeabi_idiv
	mov	r1, r10
	mov	r9, r0
	mov	r0, r5
	bl	__aeabi_idivmod
	mov	r0, r6
	cmp	r1, #0
	addne	r9, r9, #1
	mov	r1, r9
	bl	__aeabi_idivmod
	mov	r0, r6
	mov	r5, r1
	mov	r1, r9
	bl	__aeabi_idiv
	cmp	r4, #0
	beq	.L471
	cmp	r8, #0
	mov	r3, #0
	blt	.L450
	sub	r10, fp, #212
	mov	r4, r3
	mov	r6, r3
	mov	r8, r3
	str	r3, [fp, #-232]
	str	r3, [fp, #-244]
.L436:
	ldr	r2, [fp, #-240]
	cmp	r2, #0
	blt	.L453
	ldr	r8, [r10]
	mov	r2, #0
	ldr	r3, [fp, #-232]
	mov	r1, r2
	add	r8, r8, #1
	sub	lr, fp, #128
	mov	r6, r4
	add	r9, r3, r8
	b	.L439
.L451:
	mov	r6, r4
.L439:
	ldr	r3, [lr, #4]!
	add	r1, r1, #1
	add	r3, r3, #1
	add	ip, r2, r3
	cmp	r5, ip
	mla	r4, r8, r3, r4
	bge	.L437
	cmp	r0, r9
	blt	.L469
.L437:
	cmp	r1, r7
	mov	r2, ip
	bne	.L451
.L442:
	add	r2, ip, r3
	cmp	r5, r2
	bge	.L452
	cmp	r0, r9
	blt	.L472
.L452:
	ldr	r2, [fp, #-244]
	add	r10, r10, #4
	ldr	r1, [fp, #-236]
	add	r2, r2, #1
	str	r9, [fp, #-232]
	cmp	r2, r1
	str	r2, [fp, #-244]
	bne	.L436
	rsb	r0, r9, r0
	mov	r2, ip
	rsb	r2, r2, r5
	mul	r3, r0, r3
	add	r3, r2, r3
	add	r6, r3, r6
.L459:
	mov	r0, r6
	sub	sp, fp, #40
	ldmfd	sp, {r4, r5, r6, r7, r8, r9, r10, fp, sp, pc}
.L471:
	cmp	r8, #0
	mov	r3, r4
	blt	.L450
	sub	r10, fp, #212
	mov	lr, r4
	mov	r6, r4
	mov	r8, r4
	str	r4, [fp, #-232]
	str	r4, [fp, #-244]
.L435:
	ldr	r2, [fp, #-240]
	cmp	r2, #0
	blt	.L456
	ldr	r8, [r10]
	mov	r2, #0
	ldr	r3, [fp, #-232]
	mov	ip, r2
	add	r8, r8, #1
	sub	r4, fp, #128
	mov	r6, lr
	add	r9, r3, r8
	b	.L445
.L454:
	mov	r6, lr
.L445:
	ldr	r3, [r4, #4]!
	add	ip, ip, #1
	add	r3, r3, #1
	add	r1, r2, r3
	cmp	r5, r1
	mla	lr, r8, r3, lr
	bge	.L443
	cmp	r0, r9
	blt	.L444
.L443:
	cmp	ip, r7
	mov	r2, r1
	bne	.L454
.L448:
	add	r2, r1, r3
	cmp	r5, r2
	bge	.L468
	cmp	r0, r9
	blt	.L473
.L468:
	ldr	r2, [fp, #-244]
	add	r10, r10, #4
	ldr	ip, [fp, #-236]
	add	r2, r2, #1
	str	r9, [fp, #-232]
	cmp	r2, ip
	str	r2, [fp, #-244]
	bne	.L435
	rsb	r0, r9, r0
	mov	r2, r1
	mul	r3, r0, r3
	b	.L434
.L469:
	ldr	r1, [fp, #-232]
	rsb	r0, r1, r0
	mul	r3, r0, r3
.L434:
	rsb	r2, r2, r5
	add	r3, r2, r3
	add	r6, r3, r6
	mov	r0, r6
	sub	sp, fp, #40
	ldmfd	sp, {r4, r5, r6, r7, r8, r9, r10, fp, sp, pc}
.L444:
	cmp	r1, r5
	bgt	.L469
	mov	r1, r2
	b	.L468
.L453:
	ldr	r2, [fp, #-232]
	mov	ip, #0
	add	r9, r2, r8
	b	.L442
.L456:
	ldr	r2, [fp, #-232]
	mov	r1, #0
	add	r9, r2, r8
	b	.L448
.L472:
	ldr	r2, [fp, #-232]
	rsb	r0, r2, r0
	mov	r2, ip
	mul	r3, r0, r3
	b	.L434
.L473:
	ldr	r2, [fp, #-232]
	rsb	r0, r2, r0
	mov	r2, r1
	mul	r3, r0, r3
	b	.L434
.L450:
	mov	r2, r3
	mov	r6, r3
	b	.L434
	UNWIND(.fnend)
	.size	HEVC_CtbRsAddrToTsAddr, .-HEVC_CtbRsAddrToTsAddr
	.align	2
	.global	HEVC_CtbTsAddrToRsAddr
	.type	HEVC_CtbTsAddrToRsAddr, %function
HEVC_CtbTsAddrToRsAddr:
	UNWIND(.fnstart)
	@ args = 0, pretend = 0, frame = 200
	@ frame_needed = 1, uses_anonymous_args = 0
	UNWIND(.movsp ip)
	mov	ip, sp
	stmfd	sp!, {r4, r5, r6, r7, r8, r9, r10, fp, ip, lr, pc}
	UNWIND(.pad #4)
	UNWIND(.save {r4, r5, r6, r7, r8, r9, r10, fp, ip, lr})
	UNWIND(.setfp fp, ip, #-4)
	sub	fp, ip, #4
	UNWIND(.pad #204)
	sub	sp, sp, #204
	ldr	lr, [r0, #2360]
	mov	r7, r1
	ldrb	r3, [lr, #13]	@ zero_extendqisi2
	cmp	r3, #0
	moveq	r0, r1
	beq	.L498
	ldr	r3, [lr, #72]
	ldr	r8, [lr, #68]
	mov	r2, r3
	str	r3, [fp, #-232]
	ldr	r3, [r0, #2356]
	cmp	r2, #0
	ldr	r4, [r3, #64]
	ldr	ip, [r3, #128]
	ble	.L480
	ldr	r3, [fp, #-232]
	add	r2, lr, #210
	sub	r1, fp, #216
	add	r0, r3, #105
	add	r0, lr, r0, lsl #1
.L479:
	ldrsh	r3, [r2, #2]!
	cmp	r2, r0
	sub	r3, r3, #1
	str	r3, [r1, #4]!
	bne	.L479
.L480:
	cmp	r8, #0
	ble	.L478
	add	r0, r8, #85
	add	r2, lr, #170
	sub	r1, fp, #128
	add	r0, lr, r0, lsl #1
.L483:
	ldrsh	r3, [r2, #2]!
	cmp	r2, r0
	sub	r3, r3, #1
	str	r3, [r1, #4]!
	bne	.L483
.L478:
	mov	r5, #1
	mov	r0, r4
	mov	r5, r5, asl ip
	mov	r1, r5
	bl	__aeabi_idiv
	mov	r1, r5
	mov	r6, r0
	mov	r0, r4
	bl	__aeabi_idivmod
	ldr	r3, [fp, #-232]
	cmp	r1, #0
	addne	r6, r6, #1
	cmp	r3, #0
	str	r6, [fp, #-240]
	ble	.L482
	mov	r9, #0
	ldr	r2, [fp, #-124]
	sub	r0, fp, #212
	mov	r10, r9
	mov	r3, r9
	mov	r1, r9
	mov	r6, r9
	mov	r4, r9
	add	r2, r2, #1
	str	r2, [fp, #-236]
.L484:
	cmp	r8, #0
	ble	.L494
	ldr	r6, [r0]
	ldr	r4, [fp, #-236]
	add	r6, r6, #1
	mla	ip, r6, r4, r3
	cmp	r7, ip
	blt	.L495
	mov	r5, #0
	mov	r1, r3
	mov	r2, r5
	mov	r3, ip
	sub	lr, fp, #124
	b	.L489
.L486:
	ldr	r4, [lr, #4]!
	mov	r1, r3
	add	r4, r4, #1
	mla	ip, r6, r4, r3
	cmp	ip, r7
	bgt	.L487
	mov	r3, ip
.L489:
	add	r2, r2, #1
	add	r5, r5, r4
	cmp	r2, r8
	bne	.L486
.L488:
	cmp	r3, r7
	bgt	.L493
	ldr	r2, [fp, #-232]
	add	r10, r10, #1
	add	r9, r9, r6
	add	r0, r0, #4
	cmp	r10, r2
	bne	.L484
.L493:
	mov	r3, r1
.L487:
	cmp	r4, #0
	beq	.L482
	rsb	r7, r3, r7
	mov	r1, r4
	mov	r0, r7
	bl	__aeabi_idiv
	ldr	r3, [fp, #-240]
	mov	r1, r4
	add	r4, r0, r9
	mov	r0, r7
	mul	r4, r4, r3
	bl	__aeabi_idivmod
	add	r1, r1, r5
	add	r0, r4, r1
.L498:
	sub	sp, fp, #40
	ldmfd	sp, {r4, r5, r6, r7, r8, r9, r10, fp, sp, pc}
.L494:
	mov	r5, #0
	b	.L488
.L495:
	ldr	r4, [fp, #-236]
	mov	r5, #0
	b	.L487
.L482:
	ldr	r1, .L500
	mov	r0, #1
	bl	dprint_vfmw
	mvn	r0, #0
	b	.L498
.L501:
	.align	2
.L500:
	.word	.LC58
	UNWIND(.fnend)
	.size	HEVC_CtbTsAddrToRsAddr, .-HEVC_CtbTsAddrToRsAddr
	.align	2
	.global	HEVC_CalcTileMap
	.type	HEVC_CalcTileMap, %function
HEVC_CalcTileMap:
	UNWIND(.fnstart)
	@ args = 0, pretend = 0, frame = 32
	@ frame_needed = 1, uses_anonymous_args = 0
	UNWIND(.movsp ip)
	mov	ip, sp
	stmfd	sp!, {r4, r5, r6, r7, r8, r9, r10, fp, ip, lr, pc}
	UNWIND(.pad #4)
	UNWIND(.save {r4, r5, r6, r7, r8, r9, r10, fp, ip, lr})
	UNWIND(.setfp fp, ip, #-4)
	sub	fp, ip, #4
	UNWIND(.pad #36)
	sub	sp, sp, #36
	ldr	r4, .L525
	mov	r10, r0
	mov	r2, #147456
	mov	r1, #0
	ldr	r0, .L525+4
	ldr	r3, [r4, #48]
	blx	r3
	ldr	r3, [r4, #48]
	mov	r2, #36864
	mov	r1, #0
	ldr	r0, .L525+8
	blx	r3
	add	r0, r10, #8576
	ldr	r3, [r4, #48]
	mov	r2, #880
	mov	r1, #0
	add	r0, r0, #4
	blx	r3
	add	r3, r10, #8192
	str	r3, [fp, #-56]
	mov	r2, r3
	mov	r3, #0
	str	r3, [r2, #384]
	ldr	r9, [r10, #2360]
	ldr	r1, [r10, #2356]
	ldr	r2, [r9, #72]
	ldr	r8, [r1, #188]
	cmp	r2, r3
	strne	r3, [fp, #-68]
	strne	r3, [fp, #-72]
	beq	.L502
.L510:
	ldr	r2, [r9, #68]
	cmp	r2, #0
	ldr	r2, [fp, #-68]
	add	r2, r2, #104
	streq	r2, [fp, #-76]
	beq	.L511
	mov	r1, r2
	str	r2, [fp, #-76]
	mov	r7, r1, asl #1
	ldr	r1, [fp, #-72]
	mov	r2, #0
	str	r2, [fp, #-48]
	str	r2, [fp, #-52]
	mul	r1, r8, r1
	ldr	r2, [fp, #-56]
	ldr	r2, [r2, #384]
	str	r1, [fp, #-64]
.L509:
	add	r1, r2, #1072
	add	r0, r9, r7
	add	r1, r10, r1, lsl #3
	str	r3, [r1, #4]
	ldrsh	r1, [r0, #4]
	cmp	r1, #0
	ldreq	r1, [fp, #-48]
	addeq	r1, r1, #84
	streq	r1, [fp, #-60]
	beq	.L505
	ldr	r2, [fp, #-48]
	mov	r5, #0
	ldr	r1, [fp, #-52]
	add	r2, r2, #84
	ldr	r0, [fp, #-64]
	str	r2, [fp, #-60]
	add	r6, r1, r0
	mov	ip, r2, asl #1
.L506:
	add	r2, r9, ip
	ldrsh	r2, [r2, #4]
	cmp	r2, #0
	beq	.L508
	ldr	r2, .L525+4
	rsb	lr, r3, r6
	mov	r4, r3
	add	r2, r2, r3, lsl #2
.L507:
	add	r1, lr, r3
	str	r1, [r2], #4
	ldr	r9, [r10, #2360]
	add	r3, r3, #1
	rsb	r1, r4, r3
	add	r0, r9, ip
	ldrsh	r0, [r0, #4]
	cmp	r0, r1
	bhi	.L507
.L508:
	add	r2, r9, r7
	add	r5, r5, #1
	add	r6, r6, r8
	ldrsh	r2, [r2, #4]
	cmp	r2, r5
	bhi	.L506
	ldr	r2, [fp, #-56]
	ldr	r2, [r2, #384]
.L505:
	add	r1, r10, r2, lsl #3
	sub	ip, r3, #1
	add	r1, r1, #8576
	ldr	r0, [fp, #-60]
	ldr	lr, [fp, #-48]
	add	r2, r2, #1
	str	ip, [r1, #8]
	ldr	r1, [fp, #-56]
	add	r0, r9, r0, lsl #1
	add	lr, lr, #1
	str	lr, [fp, #-48]
	str	r2, [r1, #384]
	ldr	ip, [r9, #68]
	ldrsh	r1, [r0, #4]
	cmp	ip, lr
	ldr	r0, [fp, #-52]
	add	r1, r0, r1
	str	r1, [fp, #-52]
	bhi	.L509
.L511:
	ldr	r2, [fp, #-76]
	ldr	r0, [fp, #-68]
	ldr	r1, [r9, #72]
	add	r2, r9, r2, lsl #1
	add	r0, r0, #1
	cmp	r1, r0
	ldr	r1, [fp, #-72]
	ldrsh	r2, [r2, #4]
	str	r0, [fp, #-68]
	add	r2, r1, r2
	str	r2, [fp, #-72]
	bhi	.L510
.L502:
	sub	sp, fp, #40
	ldmfd	sp, {r4, r5, r6, r7, r8, r9, r10, fp, sp, pc}
.L526:
	.align	2
.L525:
	.word	vfmw_Osal_Func_Ptr_S
	.word	.LANCHOR2+448
	.word	.LANCHOR3+592
	UNWIND(.fnend)
	.size	HEVC_CalcTileMap, .-HEVC_CalcTileMap
	.align	2
	.global	HEVC_WritePicMsg
	.type	HEVC_WritePicMsg, %function
HEVC_WritePicMsg:
	UNWIND(.fnstart)
	@ args = 0, pretend = 0, frame = 0
	@ frame_needed = 1, uses_anonymous_args = 0
	UNWIND(.movsp ip)
	mov	ip, sp
	stmfd	sp!, {r4, r5, r6, r7, r8, r9, fp, ip, lr, pc}
	UNWIND(.pad #4)
	UNWIND(.save {r4, r5, r6, r7, r8, r9, fp, ip, lr})
	UNWIND(.setfp fp, ip, #-4)
	sub	fp, ip, #4
	mov	r4, r0
	ldr	r3, [r0, #3508]
	ldr	r2, [r4, #3684]
	mov	r0, #2
	ldr	r1, .L549
	add	r5, r4, #4096
	bl	dprint_vfmw
	ldr	r1, .L549+4
	mov	r0, #4
	mov	r7, #200
	bl	dprint_vfmw
	ldr	r3, [r4, #3480]
	add	r8, r4, #8192
	mov	ip, #0
	ldr	r6, .L549+8
	add	r0, r4, #5952
	str	r3, [r5, #1816]
	mov	r2, #64
	ldr	r1, [r4, #3648]
	add	r0, r0, #56
	mul	r7, r7, r3
	str	r1, [r5, #3080]
	ldr	r3, [r4, #3652]
	add	r1, r7, #12608
	add	r1, r1, #16
	str	r3, [r5, #3084]
	add	r1, r4, r1
	ldr	r3, [r4, #3572]
	ldr	lr, [r4, #3576]
	rsb	lr, r3, lr
	str	lr, [r5, #3088]
	ldr	lr, [r4, #3684]
	str	lr, [r5, #3072]
	ldr	lr, [r4, #3508]
	str	lr, [r5, #3076]
	ldr	lr, [r4, #3672]
	str	lr, [r5, #3092]
	ldr	lr, [r4, #3676]
	str	lr, [r5, #3096]
	ldr	lr, [r4, #3680]
	str	lr, [r5, #3100]
	ldr	lr, [r4, #3580]
	rsb	r3, r3, lr
	str	r3, [r5, #3104]
	ldr	r3, [r4, #3584]
	rsb	r3, lr, r3
	str	r3, [r5, #3108]
	ldr	r3, [r4, #2376]
	str	ip, [r4, #204]
	str	r3, [r8, #180]
	ldr	r3, [r4, #2356]
	ldrb	ip, [r3, #10]	@ zero_extendqisi2
	strb	ip, [r5, #1790]
	ldrb	ip, [r3, #3]	@ zero_extendqisi2
	strb	ip, [r5, #1791]
	ldrb	ip, [r3, #7]	@ zero_extendqisi2
	strb	ip, [r5, #1792]
	ldrb	ip, [r3, #6]	@ zero_extendqisi2
	strb	ip, [r5, #1793]
	ldrb	ip, [r3, #5]	@ zero_extendqisi2
	strb	ip, [r5, #1794]
	ldr	ip, [r3, #60]
	str	ip, [r5, #1796]
	ldr	ip, [r3, #104]
	strb	ip, [r5, #1800]
	ldr	ip, [r3, #192]
	sub	ip, ip, #1
	str	ip, [r5, #1804]
	ldr	ip, [r3, #188]
	sub	ip, ip, #1
	str	ip, [r5, #1808]
	ldr	ip, [r4, #3484]
	str	ip, [r5, #1812]
	ldr	ip, [r4, #2360]
	ldr	lr, [ip, #84]
	sub	lr, lr, #2
	str	lr, [r5, #1820]
	ldrb	lr, [ip, #11]	@ zero_extendqisi2
	strb	lr, [r5, #1824]
	ldrb	ip, [ip, #10]	@ zero_extendqisi2
	strb	ip, [r5, #1825]
	ldr	ip, [r3, #164]
	str	ip, [r5, #1828]
	ldr	ip, [r3, #168]
	str	ip, [r5, #1832]
	ldr	ip, [r3, #156]
	str	ip, [r5, #1836]
	ldr	ip, [r3, #160]
	str	ip, [r5, #1840]
	ldr	ip, [r3, #148]
	str	ip, [r5, #1844]
	ldr	ip, [r3, #152]
	str	ip, [r5, #1848]
	ldr	lr, [r3, #172]
	ldr	ip, [r6, #52]
	str	lr, [r5, #1852]
	ldr	lr, [r3, #124]
	str	lr, [r5, #1856]
	ldr	lr, [r3, #128]
	str	lr, [r5, #1860]
	ldr	lr, [r3, #100]
	str	lr, [r5, #1864]
	ldr	lr, [r3, #92]
	str	lr, [r5, #1868]
	ldr	lr, [r3, #112]
	str	lr, [r5, #1872]
	ldr	lr, [r3, #108]
	str	lr, [r5, #1876]
	ldr	lr, [r3, #96]
	str	lr, [r5, #1880]
	ldr	r3, [r3, #88]
	str	r3, [r5, #1884]
	blx	ip
	ldr	ip, [r4, #2356]
	add	r2, r4, #8128
	add	r1, r4, #7616
	add	r3, r8, #20
	add	r2, r2, #4
	ldr	lr, [ip, #68]
	add	r1, r1, #4
	mov	r0, r4
	str	lr, [r5, #1976]
	ldr	ip, [ip, #64]
	str	ip, [r5, #1980]
	bl	HEVC_CalcTileInfo
	subs	r6, r0, #0
	bne	.L547
	ldr	r3, [r4, #2360]
	ldrb	r2, [r3, #16]	@ zero_extendqisi2
	strb	r2, [r5, #2004]
	ldrb	r2, [r3, #7]	@ zero_extendqisi2
	strb	r2, [r5, #2005]
	ldrb	r2, [r3, #3]	@ zero_extendqisi2
	strb	r2, [r5, #2006]
	ldrb	r2, [r3, #14]	@ zero_extendqisi2
	strb	r2, [r5, #2007]
	ldrb	r2, [r3, #15]	@ zero_extendqisi2
	strb	r2, [r5, #2008]
	ldrb	r2, [r3, #13]	@ zero_extendqisi2
	strb	r2, [r5, #2009]
	ldr	r2, [r4, #2356]
	ldr	r1, [r3, #56]
	ldr	r2, [r2, #128]
	rsb	r2, r1, r2
	str	r2, [r5, #2012]
	ldr	r2, [r3, #52]
	str	r2, [r5, #2016]
	ldrb	r2, [r3, #8]	@ zero_extendqisi2
	strb	r2, [r5, #2020]
	ldrb	r2, [r3, #12]	@ zero_extendqisi2
	strb	r2, [r5, #2021]
	ldrb	r2, [r3, #6]	@ zero_extendqisi2
	strb	r2, [r5, #2022]
	ldr	r2, [r3, #60]
	str	r2, [r5, #2024]
	ldr	r2, [r3, #64]
	str	r2, [r5, #2028]
	ldr	r2, [r3, #72]
	sub	r2, r2, #1
	str	r2, [r5, #2032]
	ldr	r2, [r3, #68]
	sub	r2, r2, #1
	str	r2, [r5, #2036]
	ldrb	r2, [r3, #10]	@ zero_extendqisi2
	strb	r2, [r5, #1825]
	ldrb	r3, [r3, #11]	@ zero_extendqisi2
	strb	r3, [r5, #1824]
	ldr	r3, [r4, #3532]
	ldr	r0, [r4, #252]
	ldr	r1, [r3, #28]
	bl	FSP_GetLogicFs
	subs	r9, r0, #0
	beq	.L548
	ldr	r2, [r9, #28]
	ldr	r3, [r9, #32]
	cmp	r2, #0
	beq	.L532
	cmp	r3, #0
	beq	.L532
	add	r3, r4, #7488
	add	r2, r4, #7168
	add	r1, r4, #7296
	add	r3, r3, #4
	add	r2, r2, #56
	add	r1, r1, #56
	ldr	r0, [r4, #252]
	bl	FSP_GetDecFsAddrTab
	ldr	r3, [r9, #28]
	add	r2, r4, #7296
	add	r1, r4, #7424
	add	r2, r2, #60
	add	r1, r1, #60
	ldr	r3, [r3, #4]
	str	r3, [r5, #3072]
	ldr	r0, [r4, #252]
	bl	FSP_GetPmvAddrTab
	ldr	r1, [r4, #3508]
	add	r2, r4, r7
	movw	r3, #12488
	str	r1, [r5, #3076]
	ldr	r1, [r9, #12]
	str	r1, [r5, #3392]
	ldr	r1, [r9, #32]
	ldr	r1, [r1, #8]
	str	r1, [r8, #376]
	ldr	r1, [r9, #32]
	ldr	r1, [r1, #60]
	str	r1, [r8, #380]
	ldr	ip, [r2, r3]
	cmp	ip, #0
	str	ip, [r8, #172]
	beq	.L534
	add	r3, r7, #12544
	add	r2, r4, #8256
	add	r3, r3, #12
	add	r2, r2, #40
	add	r3, r4, r3
	mov	r0, r6
.L535:
	add	r0, r0, #1
	ldr	r1, [r3, #4]!
	cmp	r0, ip
	str	r1, [r2, #4]!
	bne	.L535
.L534:
	add	r7, r4, #6080
	mov	r6, #0
	add	r7, r7, #60
.L536:
	mov	r2, r7
	mov	r0, r6
	mov	r1, r4
	add	r6, r6, #1
	bl	HEVC_WriteQmatrix_8x8
	cmp	r6, #4
	add	r7, r7, #64
	bne	.L536
	add	r2, r4, #6336
	mov	r0, r6
	add	r2, r2, #60
	mov	r1, r4
	bl	HEVC_WriteQmatrix_8x8
	add	r2, r4, #6400
	add	r2, r2, #60
	mov	r1, r4
	mov	r0, #5
	add	r7, r4, #6592
	bl	HEVC_WriteQmatrix_8x8
	add	r2, r4, #6464
	add	r2, r2, #60
	mov	r1, r4
	mov	r0, #0
	add	r7, r7, #60
	bl	HEVC_WriteQmatrix_16x16
	add	r2, r4, #6528
	add	r2, r2, #60
	mov	r1, r4
	mov	r0, #1
	mov	r6, #2
	bl	HEVC_WriteQmatrix_16x16
.L537:
	mov	r2, r7
	mov	r0, r6
	mov	r1, r4
	add	r6, r6, #1
	bl	HEVC_WriteQmatrix_16x16
	cmp	r6, #6
	add	r7, r7, #64
	bne	.L537
	add	r2, r4, #6848
	mov	r1, r4
	add	r2, r2, #60
	mov	r0, #0
	bl	HEVC_WriteQmatrix_32x32
	add	r2, r4, #6912
	add	r2, r2, #60
	mov	r1, r4
	mov	r0, #1
	add	r7, r4, #6976
	bl	HEVC_WriteQmatrix_32x32
	add	r7, r7, #60
	mov	r6, #0
.L538:
	mov	r2, r7
	mov	r0, r6
	mov	r1, r4
	add	r6, r6, #1
	bl	HEVC_WriteQmatrix_4x4
	cmp	r6, #6
	add	r7, r7, #16
	bne	.L538
	ldr	r1, [r4, #2284]
	mov	r0, #0
	ldr	r3, [r4, #2288]
	ldr	r2, [r4, #2276]
	ldr	ip, [r4, #2280]
	mov	r1, r1, asl #16
	orr	r3, r1, r3, asl #24
	orr	r3, r3, r2
	orr	r3, r3, ip, asl #8
	str	r3, [r5, #3036]
	ldr	r1, [r4, #2300]
	ldr	r3, [r4, #2304]
	ldr	r2, [r4, #2292]
	ldr	ip, [r4, #2296]
	mov	r1, r1, asl #16
	orr	r3, r1, r3, asl #24
	orr	r3, r3, r2
	orr	r3, r3, ip, asl #8
	str	r3, [r5, #3040]
	ldr	r3, [r4, #3508]
	str	r3, [r5, #3068]
	ldmfd	sp, {r4, r5, r6, r7, r8, r9, fp, sp, pc}
.L547:
	ldr	r2, .L549+12
	mov	r0, #1
	ldr	r1, .L549+16
	bl	dprint_vfmw
	mvn	r0, #0
	ldmfd	sp, {r4, r5, r6, r7, r8, r9, fp, sp, pc}
.L532:
	ldr	r1, .L549+20
	mov	r0, #1
	bl	dprint_vfmw
	mvn	r0, #0
	ldmfd	sp, {r4, r5, r6, r7, r8, r9, fp, sp, pc}
.L548:
	ldr	r3, [r4, #3532]
	mov	r0, #1
	ldr	r1, .L549+24
	ldr	r2, [r3, #28]
	bl	dprint_vfmw
	mvn	r0, #0
	ldmfd	sp, {r4, r5, r6, r7, r8, r9, fp, sp, pc}
.L550:
	.align	2
.L549:
	.word	.LC59
	.word	.LC60
	.word	vfmw_Osal_Func_Ptr_S
	.word	.LANCHOR0+228
	.word	.LC61
	.word	.LC63
	.word	.LC62
	UNWIND(.fnend)
	.size	HEVC_WritePicMsg, .-HEVC_WritePicMsg
	.align	2
	.global	HEVC_CheckListX
	.type	HEVC_CheckListX, %function
HEVC_CheckListX:
	UNWIND(.fnstart)
	@ args = 0, pretend = 0, frame = 0
	@ frame_needed = 1, uses_anonymous_args = 0
	UNWIND(.movsp ip)
	mov	ip, sp
	stmfd	sp!, {fp, ip, lr, pc}
	UNWIND(.pad #4)
	UNWIND(.save {fp, ip, lr})
	UNWIND(.setfp fp, ip, #-4)
	sub	fp, ip, #4
	add	r3, r0, #4096
	ldrb	r3, [r3, #73]	@ zero_extendqisi2
	cmp	r3, #0
	addeq	r3, r0, #4160
	addeq	r3, r3, #8
	beq	.L553
	ldrsb	r3, [r0, #11]
	cmp	r3, #0
	addne	r3, r0, #11072
	addne	r3, r3, #60
	beq	.L586
.L553:
	ldr	ip, [r3, #68]
	ldr	lr, [r3, #72]
	cmp	ip, #16
	bhi	.L587
	cmp	lr, #16
	bhi	.L557
	cmp	ip, #0
	beq	.L558
	ldr	r3, [r0, #2384]
	cmp	r3, #0
	beq	.L571
	ldr	r3, [r3, #16]
	cmp	r3, #0
	addne	r1, r0, #2384
	movne	r2, #0
	bne	.L563
	b	.L588
.L564:
	ldr	r3, [r1, #4]!
	cmp	r3, #0
	beq	.L559
	ldr	r3, [r3, #16]
	cmp	r3, #0
	beq	.L560
.L563:
	add	r2, r2, #1
	cmp	r2, ip
	bne	.L564
.L558:
	cmp	lr, #0
	beq	.L583
	ldr	r3, [r0, #2452]
	cmp	r3, #0
	beq	.L574
	ldr	r3, [r3, #16]
	cmp	r3, #0
	addne	r0, r0, #2448
	movne	r2, #0
	addne	r0, r0, #4
	bne	.L569
	b	.L589
.L570:
	ldr	r3, [r0, #4]!
	cmp	r3, #0
	beq	.L565
	ldr	r3, [r3, #16]
	cmp	r3, #0
	beq	.L566
.L569:
	add	r2, r2, #1
	cmp	r2, lr
	bne	.L570
.L583:
	mov	r0, #0
	ldmfd	sp, {fp, sp, pc}
.L571:
	mov	r2, r3
.L559:
	ldr	r1, .L590
	mov	r0, #0
	bl	dprint_vfmw
	mvn	r0, #0
	ldmfd	sp, {fp, sp, pc}
.L588:
	mov	r2, r3
.L560:
	ldr	r1, .L590+4
	mov	r0, #0
	bl	dprint_vfmw
	mvn	r0, #0
	ldmfd	sp, {fp, sp, pc}
.L574:
	mov	r2, r3
.L565:
	ldr	r1, .L590+8
	mov	r0, #0
	bl	dprint_vfmw
	mvn	r0, #0
	ldmfd	sp, {fp, sp, pc}
.L589:
	mov	r2, r3
.L566:
	ldr	r1, .L590+12
	mov	r0, #0
	bl	dprint_vfmw
	mvn	r0, #0
	ldmfd	sp, {fp, sp, pc}
.L586:
	mov	r0, r3
	ldr	r2, .L590+16
	ldr	r1, .L590+20
	bl	dprint_vfmw
	mvn	r0, #0
	ldmfd	sp, {fp, sp, pc}
.L557:
	mov	r2, lr
	mov	r3, #17
	ldr	r1, .L590+24
	mov	r0, #0
	bl	dprint_vfmw
	mvn	r0, #0
	ldmfd	sp, {fp, sp, pc}
.L587:
	mov	r2, ip
	mov	r3, #17
	ldr	r1, .L590+28
	mov	r0, #0
	bl	dprint_vfmw
	mvn	r0, #0
	ldmfd	sp, {fp, sp, pc}
.L591:
	.align	2
.L590:
	.word	.LC67
	.word	.LC68
	.word	.LC69
	.word	.LC70
	.word	.LANCHOR0+248
	.word	.LC64
	.word	.LC66
	.word	.LC65
	UNWIND(.fnend)
	.size	HEVC_CheckListX, .-HEVC_CheckListX
	.align	2
	.global	HEVC_WriteSliceMsg
	.type	HEVC_WriteSliceMsg, %function
HEVC_WriteSliceMsg:
	UNWIND(.fnstart)
	@ args = 0, pretend = 0, frame = 80
	@ frame_needed = 1, uses_anonymous_args = 0
	UNWIND(.movsp ip)
	mov	ip, sp
	stmfd	sp!, {r4, r5, r6, r7, r8, r9, r10, fp, ip, lr, pc}
	UNWIND(.pad #4)
	UNWIND(.save {r4, r5, r6, r7, r8, r9, r10, fp, ip, lr})
	UNWIND(.setfp fp, ip, #-4)
	sub	fp, ip, #4
	UNWIND(.pad #84)
	sub	sp, sp, #84
	ldr	r3, [r0, #3480]
	mov	r4, r0
	str	r3, [fp, #-116]
	bl	HEVC_CheckListX
	subs	r3, r0, #0
	str	r3, [fp, #-112]
	bne	.L631
	ldr	r0, [r4, #204]
	ldr	r3, [r4, #152]
	cmp	r0, r3
	bcs	.L664
	ldr	r6, [r4, #2376]
	mov	r5, #1360
	ldr	r7, [fp, #-112]
	mov	r2, r5
	ldr	r8, .L667
	mla	r6, r5, r0, r6
	mov	r1, r7
	ldr	r3, [r8, #48]
	mov	r0, r6
	blx	r3
	mov	r1, r7
	ldr	r3, [r8, #48]
	mov	r2, #64
	sub	r0, fp, #108
	add	r7, r4, #4096
	blx	r3
	ldr	r3, [r4, #204]
	ldr	r2, [r4, #152]
	add	r3, r3, #1
	str	r3, [r4, #204]
	cmp	r3, r2
	ldrcc	r2, [r4, #2376]
	ldrcs	r3, [fp, #-112]
	mlacc	r3, r5, r3, r2
	str	r3, [r6, #1356]
	ldr	r1, [r7, #108]
	ldr	r2, [r4, #2344]
	ldr	r0, [r4, #176]
	ldr	r3, [r4, #236]
	add	r0, r0, #1
	str	r1, [r4, #208]
	str	r0, [r4, #176]
	add	r3, r3, #1
	str	r3, [r4, #236]
	ldrb	r1, [r2]	@ zero_extendqisi2
	ldr	r3, [r2, #8]
	str	r0, [fp, #-120]
	cmp	r1, #1
	cmpls	r1, r3
	bcs	.L597
	add	r0, r6, r1, lsl #2
.L598:
	mov	r3, r1, asl #5
	sub	r3, r3, r1, asl #2
	add	r1, r1, #1
	add	r2, r2, r3
	ldr	r2, [r2, #56]
	str	r2, [r0, #8]
	ldr	r2, [r4, #2344]
	add	r2, r2, r3
	ldr	r2, [r2, #52]
	str	r2, [r0], #4
	ldr	r2, [r4, #2344]
	add	r3, r2, r3
	ldr	r3, [r3, #60]
	str	r3, [r0, #12]
	ldr	r2, [r4, #2344]
	ldr	r3, [r2, #8]
	cmp	r3, r1
	movhi	ip, #1
	movls	ip, #0
	cmp	r1, #1
	movhi	ip, #0
	cmp	ip, #0
	bne	.L598
.L597:
	cmp	r3, #1
	addls	r3, r6, r3, lsl #2
	addls	r1, r6, #8
	movls	r2, #0
	bhi	.L603
.L602:
	str	r2, [r3, #8]
	str	r2, [r3], #4
	cmp	r3, r1
	str	r2, [r3, #12]
	bne	.L602
.L603:
	ldrb	r3, [r7, #73]	@ zero_extendqisi2
	cmp	r3, #0
	beq	.L665
.L601:
	add	r5, r4, #8192
	ldr	r3, [r5, #3008]
	cmp	r3, #0
	beq	.L604
	add	r0, r4, #2384
	add	r9, r6, #112
	add	lr, r6, #368
	mov	r1, #0
.L605:
	ldr	r3, [r0]
	sub	r10, fp, #44
	add	r1, r1, #1
	ldr	r3, [r3, #4]
	str	r3, [r9, #4]!
	ldr	r2, [r0], #4
	ldr	ip, [r2, #16]
	ldr	r3, [ip, #20]
	ldr	ip, [ip, #24]
	add	r3, r3, #1824
	add	r3, r3, #14
	add	ip, r10, ip, lsl #2
	add	r3, r4, r3, lsl #2
	ldr	r3, [r3, #4]
	str	r3, [ip, #-64]
	ldr	r3, [r2, #16]
	ldr	r3, [r3, #24]
	str	r3, [lr, #4]!
	ldr	r2, [r5, #3008]
	cmp	r2, r1
	bhi	.L605
	ldr	r0, [r5, #3012]
	cmp	r0, #0
	beq	.L606
.L630:
	add	r1, r4, #2448
	add	r10, r6, #176
	add	r1, r1, #4
	add	r9, r6, #432
	mov	lr, #0
.L607:
	ldr	r3, [r1]
	sub	ip, fp, #44
	add	lr, lr, #1
	ldr	r3, [r3, #4]
	str	r3, [r10, #4]!
	ldr	r2, [r1], #4
	ldr	r0, [r2, #16]
	ldr	r3, [r0, #20]
	ldr	r0, [r0, #24]
	add	r3, r3, #1824
	add	r3, r3, #14
	add	r0, ip, r0, lsl #2
	add	r3, r4, r3, lsl #2
	ldr	r3, [r3, #4]
	str	r3, [r0, #-64]
	ldr	r3, [r2, #16]
	ldr	r3, [r3, #24]
	str	r3, [r9, #4]!
	ldr	r0, [r5, #3012]
	cmp	r0, lr
	bhi	.L607
	ldr	r2, [r5, #3008]
.L606:
	cmp	r2, #0
	beq	.L608
	ldr	r1, [fp, #-116]
	mov	r9, #50
	ldr	r3, [r6, #372]
	ldr	r10, [r4, #3484]
	mul	r9, r9, r1
	add	r3, r9, r3
	add	r3, r3, #3152
	add	r3, r3, #4
	ldr	r3, [r4, r3, asl #2]
	cmp	r10, r3
	blt	.L637
	add	lr, r6, #372
	mov	r1, #0
	b	.L610
.L611:
	ldr	r3, [lr, #4]!
	add	r3, r9, r3
	add	r3, r3, #3152
	add	r3, r3, #4
	ldr	r3, [r4, r3, asl #2]
	cmp	r3, r10
	bgt	.L637
.L610:
	add	r1, r1, #1
	cmp	r1, r2
	bne	.L611
.L608:
	ldr	r2, [r5, #2960]
	cmp	r2, #0
	bne	.L662
	cmp	r0, #0
	beq	.L662
	ldr	r1, [fp, #-116]
	mov	lr, #50
	ldr	r3, [r6, #436]
	ldr	r9, [r4, #3484]
	mul	lr, lr, r1
	add	r3, lr, r3
	add	r3, r3, #3152
	add	r3, r3, #4
	ldr	r3, [r4, r3, asl #2]
	cmp	r9, r3
	blt	.L609
	add	r1, r6, #436
	b	.L612
.L613:
	ldr	r3, [r1, #4]!
	add	r3, lr, r3
	add	r3, r3, #3152
	add	r3, r3, #4
	ldr	r3, [r4, r3, asl #2]
	cmp	r3, r9
	bgt	.L637
.L612:
	add	r2, r2, #1
	cmp	r2, r0
	bne	.L613
.L662:
	mov	r2, #1
.L609:
	strb	r2, [r6, #24]
	ldrb	r3, [r7, #73]	@ zero_extendqisi2
	strb	r3, [r6, #25]
	ldr	r3, [r5, #2956]
	str	r3, [r6, #28]
	ldrb	r2, [r5, #2947]	@ zero_extendqisi2
	strb	r2, [r6, #32]
	ldr	r2, [r5, #2980]
	str	r2, [r6, #36]
	ldr	r9, [r4, #3532]
	ldr	r1, [r4, #204]
	ldr	r0, [r9, #316]
	sub	r2, r1, #1
	mla	r0, r0, r2, r3
	bl	__aeabi_uidiv
	str	r0, [r9, #68]
	ldr	r3, [r5, #2960]
	cmp	r3, #0
	bne	.L614
	ldrb	r3, [r5, #2948]	@ zero_extendqisi2
	cmp	r3, #0
	bne	.L615
	ldr	r3, [r5, #2984]
	add	r3, r6, r3, lsl #2
	ldr	r9, [r3, #436]
.L616:
	str	r9, [r6, #40]
	ldr	r3, [r5, #2984]
	str	r3, [r6, #48]
	ldrb	r3, [r5, #2948]	@ zero_extendqisi2
	strb	r3, [r6, #52]
	ldr	r3, [r5, #2988]
	str	r3, [r6, #44]
	ldr	r3, [r5, #3016]
	cmp	r3, #0
	subne	r3, r3, #1
	str	r3, [r6, #60]
	ldr	r3, [r5, #3020]
	cmp	r3, #0
	subne	r3, r3, #1
	str	r3, [r6, #56]
	ldrb	r3, [r5, #2944]	@ zero_extendqisi2
	strb	r3, [r6, #64]
	ldrb	r3, [r5, #2946]	@ zero_extendqisi2
	strb	r3, [r6, #65]
	ldr	r3, [r5, #3008]
	str	r3, [r6, #68]
	ldr	r3, [r5, #3012]
	str	r3, [r6, #72]
	ldr	r3, [r5, #2960]
	str	r3, [r6, #76]
	ldr	r3, [r7, #112]
	str	r3, [r6, #80]
	ldr	r3, [r4, #2356]
	ldr	r0, [r7, #112]
	ldr	r1, [r3, #188]
	bl	__aeabi_uidivmod
	str	r1, [r6, #84]
	ldr	r3, [r4, #2356]
	ldr	r0, [r7, #112]
	ldr	r1, [r3, #188]
	bl	__aeabi_uidiv
	str	r0, [r6, #88]
	mov	r0, r4
	ldr	r1, [r7, #112]
	bl	HEVC_CtbRsAddrToTsAddr
	str	r0, [r6, #92]
	ldr	r3, [r5, #2992]
	str	r3, [r6, #96]
	ldr	r3, [r5, #2996]
	str	r3, [r6, #100]
	ldr	r3, [r5, #3004]
	str	r3, [r6, #104]
	ldr	r3, [r5, #3000]
	str	r3, [r6, #108]
	ldrb	r3, [r5, #2943]	@ zero_extendqisi2
	strb	r3, [r6, #112]
	ldrb	r3, [r5, #2942]	@ zero_extendqisi2
	strb	r3, [r6, #113]
	ldrb	r3, [r5, #2949]	@ zero_extendqisi2
	strb	r3, [r6, #114]
	ldrb	r3, [r5, #2950]	@ zero_extendqisi2
	strb	r3, [r6, #115]
	ldr	r3, [r4, #2360]
	ldrb	r2, [r3, #10]	@ zero_extendqisi2
	cmp	r2, #0
	beq	.L621
	ldr	r2, [r5, #2960]
	cmp	r2, #1
	beq	.L622
.L621:
	ldrb	r3, [r3, #11]	@ zero_extendqisi2
	cmp	r3, #1
	beq	.L666
.L624:
	ldrb	r3, [r5, #2944]	@ zero_extendqisi2
	ldr	r0, [fp, #-120]
	cmp	r3, #0
	subne	r3, fp, #44
	addne	r9, r3, r9, lsl #2
	ldreq	r3, [r7, #3260]
	ldrne	r3, [r9, #-64]
	str	r3, [r6, #564]
	mov	r3, #0
	ldr	r1, [r4, #2344]
	ldr	r2, [r4, #2364]
	str	r1, [r2, r0, asl #2]
	str	r3, [r4, #2344]
	ldrb	r2, [r7, #2009]	@ zero_extendqisi2
	cmp	r2, r3
	beq	.L645
	ldr	r0, [r4, #236]
	cmp	r0, #1
	ldreq	r2, [r6, #92]
	streq	r2, [r5, #1268]
	beq	.L629
	add	r1, r4, r0, lsl #3
	ldr	lr, [r6, #92]
	add	r1, r1, #9408
	add	r2, r0, #1168
	add	r2, r2, #13
	sub	lr, lr, #1
	str	lr, [r1, #40]
	sub	r3, r0, #1
	ldr	r1, [r6, #92]
	add	r2, r4, r2, lsl #3
	str	r1, [r2, #4]
.L629:
	ldr	r1, [r7, #1808]
	add	r3, r4, r3, lsl #3
	ldr	r2, [r7, #1804]
	add	r3, r3, #9408
	mla	r2, r1, r2, r2
	add	r2, r2, r1
	str	r2, [r3, #56]
	ldr	r1, [r6, #92]
	sub	r1, r1, #1
	cmp	r1, #36864
	bcs	.L645
	mov	r0, r4
	bl	HEVC_CtbTsAddrToRsAddr
	str	r0, [r6, #568]
.L645:
	ldr	r0, [fp, #-112]
	sub	sp, fp, #40
	ldmfd	sp, {r4, r5, r6, r7, r8, r9, r10, fp, sp, pc}
.L637:
	mov	r2, #0
	b	.L609
.L614:
	cmp	r3, #1
	movne	r9, #0
	bne	.L616
.L615:
	ldr	r3, [r5, #2984]
	add	r3, r6, r3, lsl #2
	ldr	r9, [r3, #372]
	b	.L616
.L665:
	add	r1, r4, #4160
	add	r0, r4, #11072
	ldr	r3, [r8, #52]
	add	r1, r1, #8
	add	r0, r0, #60
	movw	r2, #1356
	blx	r3
	mov	r3, #1
	strb	r3, [r4, #11]
	b	.L601
.L666:
	ldr	r3, [r5, #2960]
	cmp	r3, #0
	bne	.L624
.L622:
	ldr	lr, [r5, #3096]
	add	r1, r4, #11392
	add	r1, r1, #32
	ldr	r3, [r8, #52]
	mov	r2, #64
	add	r0, r6, #588
	str	lr, [r6, #580]
	ldr	lr, [r5, #3228]
	ldr	r10, .L667
	str	lr, [r6, #584]
	blx	r3
	add	r1, r4, #11264
	add	r1, r1, #28
	ldr	r3, [r8, #52]
	mov	r2, #64
	add	r0, r6, #716
	blx	r3
	add	r1, r4, #11456
	add	r1, r1, #32
	ldr	r3, [r8, #52]
	mov	r2, #128
	add	r0, r6, #844
	blx	r3
	add	r1, r4, #11584
	add	r0, r6, #1088
	ldr	r3, [r8, #52]
	add	r1, r1, #32
	add	r0, r0, #12
	mov	r2, #128
	blx	r3
	ldr	r3, [r5, #2960]
	cmp	r3, #0
	bne	.L624
	add	r1, r4, #11712
	ldr	r3, [r10, #52]
	add	r1, r1, #32
	mov	r2, #64
	add	r0, r6, #652
	blx	r3
	add	r1, r4, #11328
	ldr	r3, [r10, #52]
	add	r1, r1, #28
	mov	r2, #64
	add	r0, r6, #780
	blx	r3
	add	r1, r4, #11776
	ldr	r3, [r10, #52]
	add	r1, r1, #32
	mov	r2, #128
	add	r0, r6, #972
	blx	r3
	add	r1, r4, #11904
	add	r0, r6, #1216
	ldr	r3, [r10, #52]
	add	r1, r1, #32
	mov	r2, #128
	add	r0, r0, #12
	blx	r3
	b	.L624
.L604:
	ldr	r3, [r5, #3012]
	cmp	r3, #0
	bne	.L630
	b	.L662
.L631:
	mvn	r3, #0
	str	r3, [fp, #-112]
	b	.L645
.L664:
	mov	r2, r0
	ldr	r1, .L667+4
	mov	r0, #1
	bl	dprint_vfmw
	mvn	r3, #0
	str	r3, [fp, #-112]
	b	.L645
.L668:
	.align	2
.L667:
	.word	vfmw_Osal_Func_Ptr_S
	.word	.LC71
	UNWIND(.fnend)
	.size	HEVC_WriteSliceMsg, .-HEVC_WriteSliceMsg
	.align	2
	.global	HEVC_GetVirAddr
	.type	HEVC_GetVirAddr, %function
HEVC_GetVirAddr:
	UNWIND(.fnstart)
	@ args = 0, pretend = 0, frame = 0
	@ frame_needed = 1, uses_anonymous_args = 0
	UNWIND(.movsp ip)
	mov	ip, sp
	stmfd	sp!, {fp, ip, lr, pc}
	UNWIND(.pad #4)
	UNWIND(.save {fp, ip, lr})
	UNWIND(.setfp fp, ip, #-4)
	sub	fp, ip, #4
	add	r0, r1, r0, lsl #2
	ldmfd	sp, {fp, sp, pc}
	UNWIND(.fnend)
	.size	HEVC_GetVirAddr, .-HEVC_GetVirAddr
	.align	2
	.global	HEVC_GetPhyAddr
	.type	HEVC_GetPhyAddr, %function
HEVC_GetPhyAddr:
	UNWIND(.fnstart)
	@ args = 0, pretend = 0, frame = 0
	@ frame_needed = 1, uses_anonymous_args = 0
	UNWIND(.movsp ip)
	mov	ip, sp
	stmfd	sp!, {fp, ip, lr, pc}
	UNWIND(.pad #4)
	UNWIND(.save {fp, ip, lr})
	UNWIND(.setfp fp, ip, #-4)
	sub	fp, ip, #4
	add	r0, r1, r0, lsl #2
	ldmfd	sp, {fp, sp, pc}
	UNWIND(.fnend)
	.size	HEVC_GetPhyAddr, .-HEVC_GetPhyAddr
	.align	2
	.global	HEVC_CfgVDMReg
	.type	HEVC_CfgVDMReg, %function
HEVC_CfgVDMReg:
	UNWIND(.fnstart)
	@ args = 0, pretend = 0, frame = 0
	@ frame_needed = 1, uses_anonymous_args = 0
	UNWIND(.movsp ip)
	mov	ip, sp
	stmfd	sp!, {fp, ip, lr, pc}
	UNWIND(.pad #4)
	UNWIND(.save {fp, ip, lr})
	UNWIND(.setfp fp, ip, #-4)
	sub	fp, ip, #4
	ldr	r2, [r0, #3500]
	add	r1, r0, #4096
	mov	r3, r0
	add	ip, r0, #8192
	clz	r2, r2
	mov	r0, #0
	mov	r2, r2, lsr #5
	str	r2, [r1, #3124]
	ldr	r2, [r3, #3504]
	str	r2, [r1, #3116]
	ldr	r3, [r3, #204]
	str	r3, [ip, #176]
	ldmfd	sp, {fp, sp, pc}
	UNWIND(.fnend)
	.size	HEVC_CfgVDMReg, .-HEVC_CfgVDMReg
	.align	2
	.global	HEVC_IsRefForCurrPic
	.type	HEVC_IsRefForCurrPic, %function
HEVC_IsRefForCurrPic:
	UNWIND(.fnstart)
	@ args = 0, pretend = 0, frame = 24
	@ frame_needed = 1, uses_anonymous_args = 0
	UNWIND(.movsp ip)
	mov	ip, sp
	stmfd	sp!, {r4, r5, r6, r7, r8, r9, r10, fp, ip, lr, pc}
	UNWIND(.pad #4)
	UNWIND(.save {r4, r5, r6, r7, r8, r9, r10, fp, ip, lr})
	UNWIND(.setfp fp, ip, #-4)
	sub	fp, ip, #4
	UNWIND(.pad #44)
	sub	sp, sp, #44
	add	ip, r0, #4096
	mov	r6, r0
	ldr	r2, [r0, #164]
	ldr	r3, [ip, #108]
	cmp	r3, #0
	blt	.L674
	cmp	r3, r2
	bge	.L674
	ldr	r2, [r0, #2336]
	mov	r1, #1888
	mla	r3, r1, r3, r2
	ldr	r2, [r0, #160]
	ldr	r3, [r3, #32]
	cmp	r3, #0
	blt	.L678
	cmp	r3, r2
	bge	.L678
	ldr	r2, [r0, #2332]
	movw	r1, #12660
	ldr	r0, [ip, #1004]
	mov	r10, #1
	ldr	lr, [ip, #1008]
	mla	r1, r1, r3, r2
	ldr	r3, [ip, #1012]
	add	r2, lr, r0
	str	r0, [fp, #-56]
	cmp	r2, r3
	str	lr, [fp, #-60]
	mov	r4, r2
	ldr	r1, [r1, #116]
	mov	r10, r10, asl r1
	bcs	.L689
	cmp	r2, #15
	bgt	.L681
	ldr	r9, [r6, #3484]
	add	r5, r2, #1296
	add	r5, r5, #3
	str	r6, [fp, #-48]
	str	r2, [fp, #-64]
	add	r5, r6, r5, lsl #2
	mov	r8, r9
	mov	r6, r3
	str	ip, [fp, #-52]
	b	.L683
.L701:
	cmp	r6, r4
	bls	.L699
	cmp	r4, #16
	beq	.L700
.L683:
	ldr	r7, [r5, #4]!
	mov	r1, r10
	mov	r0, r8
	mov	r9, r8
	ldr	lr, [r5, #-944]
	cmp	lr, #0
	bne	.L684
	bl	__aeabi_idivmod
	mov	r0, r7
	mov	r9, r1
	mov	r1, r10
	bl	__aeabi_idivmod
	mov	r7, r1
.L684:
	cmp	r9, r7
	add	r4, r4, #1
	bne	.L701
	ldr	r2, [fp, #-64]
	mov	r4, #1
	ldr	r6, [fp, #-48]
	ldr	ip, [fp, #-52]
.L680:
	cmp	r2, #0
	beq	.L676
	ldr	lr, [ip, #84]
	ldr	r3, [ip, #1036]
	ldr	r0, [r6, #3484]
	add	r3, lr, r3
	cmp	r0, r3
	beq	.L693
	add	r6, r6, #5120
	mov	r1, #0
	add	r6, r6, #12
	b	.L686
.L687:
	ldr	r3, [r6, #4]!
	add	r3, lr, r3
	cmp	r3, r0
	beq	.L693
.L686:
	add	r1, r1, #1
	cmp	r1, r2
	beq	.L676
	cmp	r1, #17
	bne	.L687
	ldr	r3, [fp, #-60]
	mov	r0, #0
	ldr	r2, [fp, #-56]
	str	r1, [sp]
	str	r3, [sp, #8]
	mov	r3, r1
	str	r2, [sp, #4]
	movw	r2, #8976
	ldr	r1, .L702
	bl	dprint_vfmw
	mov	r0, r4
	sub	sp, fp, #40
	ldmfd	sp, {r4, r5, r6, r7, r8, r9, r10, fp, sp, pc}
.L678:
	str	r2, [sp]
	mov	r0, #0
	movw	r2, #8927
	ldr	r1, .L702+4
	mov	r4, r0
	bl	dprint_vfmw
.L676:
	mov	r0, r4
	sub	sp, fp, #40
	ldmfd	sp, {r4, r5, r6, r7, r8, r9, r10, fp, sp, pc}
.L674:
	str	r2, [sp]
	mov	r0, #0
	movw	r2, #8915
	ldr	r1, .L702+8
	mov	r4, r0
	bl	dprint_vfmw
	mov	r0, r4
	sub	sp, fp, #40
	ldmfd	sp, {r4, r5, r6, r7, r8, r9, r10, fp, sp, pc}
.L700:
	mov	r3, r6
	ldr	ip, [fp, #-52]
	ldr	r6, [fp, #-48]
.L681:
	str	r3, [sp, #4]
	mov	r1, #16
	mov	r3, r4
	movw	r2, #8947
	str	r1, [sp]
	mov	r0, #0
	ldr	r1, .L702+12
	mov	r4, r0
	str	ip, [fp, #-48]
	bl	dprint_vfmw
	ldr	ip, [fp, #-48]
	ldr	r3, [ip, #1004]
	ldr	r2, [ip, #1008]
	str	r3, [fp, #-56]
	str	r2, [fp, #-60]
	add	r2, r2, r3
	b	.L680
.L699:
	ldr	r2, [fp, #-64]
	mov	r4, #0
	ldr	r6, [fp, #-48]
	ldr	ip, [fp, #-52]
	b	.L680
.L693:
	mov	r4, #1
	b	.L676
.L689:
	mov	r4, #0
	b	.L680
.L703:
	.align	2
.L702:
	.word	.LC75
	.word	.LC73
	.word	.LC72
	.word	.LC74
	UNWIND(.fnend)
	.size	HEVC_IsRefForCurrPic, .-HEVC_IsRefForCurrPic
	.align	2
	.global	HEVC_IsPicVPSRefresh
	.type	HEVC_IsPicVPSRefresh, %function
HEVC_IsPicVPSRefresh:
	UNWIND(.fnstart)
	@ args = 0, pretend = 0, frame = 0
	@ frame_needed = 1, uses_anonymous_args = 0
	UNWIND(.movsp ip)
	mov	ip, sp
	stmfd	sp!, {fp, ip, lr, pc}
	UNWIND(.pad #4)
	UNWIND(.save {fp, ip, lr})
	UNWIND(.setfp fp, ip, #-4)
	sub	fp, ip, #4
	ldr	r2, [r0, #2352]
	ldr	r3, [r1, #4]
	ldr	r2, [r2, #4]
	cmp	r2, r3
	beq	.L707
	mov	r0, #1
	ldmfd	sp, {fp, sp, pc}
.L707:
	ldrb	r0, [r1, #2]	@ zero_extendqisi2
	adds	r0, r0, #0
	movne	r0, #1
	ldmfd	sp, {fp, sp, pc}
	UNWIND(.fnend)
	.size	HEVC_IsPicVPSRefresh, .-HEVC_IsPicVPSRefresh
	.align	2
	.global	HEVC_UpdatePicVPS
	.type	HEVC_UpdatePicVPS, %function
HEVC_UpdatePicVPS:
	UNWIND(.fnstart)
	@ args = 0, pretend = 0, frame = 0
	@ frame_needed = 1, uses_anonymous_args = 0
	UNWIND(.movsp ip)
	mov	ip, sp
	stmfd	sp!, {r4, r5, fp, ip, lr, pc}
	UNWIND(.pad #4)
	UNWIND(.save {r4, r5, fp, ip, lr})
	UNWIND(.setfp fp, ip, #-4)
	sub	fp, ip, #4
	mov	r2, #0
	strb	r2, [r1, #2]
	ldr	ip, [r0, #156]
	mov	r4, r0
	ldr	lr, .L709
	mov	r2, #132
	ldr	r0, [r0, #2328]
	mov	r3, ip, asl #7
	add	r3, r3, ip, lsl #2
	ldr	ip, [lr, #52]
	sub	r3, r3, #132
	add	r0, r0, r3
	blx	ip
	ldr	r3, [r4, #156]
	ldr	r1, [r4, #2328]
	mov	r2, r3, asl #7
	add	r3, r2, r3, lsl #2
	sub	r3, r3, #132
	add	r3, r1, r3
	str	r3, [r4, #2352]
	ldmfd	sp, {r4, r5, fp, sp, pc}
.L710:
	.align	2
.L709:
	.word	vfmw_Osal_Func_Ptr_S
	UNWIND(.fnend)
	.size	HEVC_UpdatePicVPS, .-HEVC_UpdatePicVPS
	.align	2
	.global	HEVC_IsPicSPSRefresh
	.type	HEVC_IsPicSPSRefresh, %function
HEVC_IsPicSPSRefresh:
	UNWIND(.fnstart)
	@ args = 0, pretend = 0, frame = 0
	@ frame_needed = 1, uses_anonymous_args = 0
	UNWIND(.movsp ip)
	mov	ip, sp
	stmfd	sp!, {fp, ip, lr, pc}
	UNWIND(.pad #4)
	UNWIND(.save {fp, ip, lr})
	UNWIND(.setfp fp, ip, #-4)
	sub	fp, ip, #4
	ldr	r2, [r0, #2356]
	ldr	r3, [r1, #56]
	ldr	r2, [r2, #56]
	cmp	r2, r3
	beq	.L714
	mov	r0, #1
	ldmfd	sp, {fp, sp, pc}
.L714:
	ldrb	r0, [r1]	@ zero_extendqisi2
	adds	r0, r0, #0
	movne	r0, #1
	ldmfd	sp, {fp, sp, pc}
	UNWIND(.fnend)
	.size	HEVC_IsPicSPSRefresh, .-HEVC_IsPicSPSRefresh
	.align	2
	.global	HEVC_UpdatePicSPS
	.type	HEVC_UpdatePicSPS, %function
HEVC_UpdatePicSPS:
	UNWIND(.fnstart)
	@ args = 0, pretend = 0, frame = 0
	@ frame_needed = 1, uses_anonymous_args = 0
	UNWIND(.movsp ip)
	mov	ip, sp
	stmfd	sp!, {r4, r5, fp, ip, lr, pc}
	UNWIND(.pad #4)
	UNWIND(.save {r4, r5, fp, ip, lr})
	UNWIND(.setfp fp, ip, #-4)
	sub	fp, ip, #4
	mov	r2, #0
	strb	r2, [r1]
	ldr	r3, [r0, #160]
	movw	r5, #12660
	ldr	ip, .L716
	mov	r4, r0
	ldr	r0, [r0, #2332]
	mov	r2, r5
	mul	r3, r5, r3
	ldr	ip, [ip, #52]
	sub	r3, r3, #12608
	sub	r3, r3, #52
	add	r0, r0, r3
	blx	ip
	ldr	r2, [r4, #160]
	ldr	r3, [r4, #2332]
	mul	r5, r5, r2
	sub	r5, r5, #12608
	sub	r5, r5, #52
	add	r5, r3, r5
	str	r5, [r4, #2356]
	ldr	r3, [r5, #56]
	str	r3, [r4, #264]
	ldr	r3, [r5, #64]
	str	r3, [r4, #268]
	ldr	r3, [r5, #68]
	str	r3, [r4, #272]
	ldr	r3, [r5, #128]
	str	r3, [r4, #276]
	ldmfd	sp, {r4, r5, fp, sp, pc}
.L717:
	.align	2
.L716:
	.word	vfmw_Osal_Func_Ptr_S
	UNWIND(.fnend)
	.size	HEVC_UpdatePicSPS, .-HEVC_UpdatePicSPS
	.align	2
	.global	HEVC_IsPicPPSRefresh
	.type	HEVC_IsPicPPSRefresh, %function
HEVC_IsPicPPSRefresh:
	UNWIND(.fnstart)
	@ args = 0, pretend = 0, frame = 0
	@ frame_needed = 1, uses_anonymous_args = 0
	UNWIND(.movsp ip)
	mov	ip, sp
	stmfd	sp!, {fp, ip, lr, pc}
	UNWIND(.pad #4)
	UNWIND(.save {fp, ip, lr})
	UNWIND(.setfp fp, ip, #-4)
	sub	fp, ip, #4
	ldr	r2, [r0, #2360]
	ldr	r3, [r1, #28]
	ldr	r2, [r2, #28]
	cmp	r2, r3
	beq	.L721
	mov	r0, #1
	ldmfd	sp, {fp, sp, pc}
.L721:
	ldrb	r0, [r1, #1]	@ zero_extendqisi2
	adds	r0, r0, #0
	movne	r0, #1
	ldmfd	sp, {fp, sp, pc}
	UNWIND(.fnend)
	.size	HEVC_IsPicPPSRefresh, .-HEVC_IsPicPPSRefresh
	.align	2
	.global	HEVC_UpdatePicPPS
	.type	HEVC_UpdatePicPPS, %function
HEVC_UpdatePicPPS:
	UNWIND(.fnstart)
	@ args = 0, pretend = 0, frame = 8
	@ frame_needed = 1, uses_anonymous_args = 0
	UNWIND(.movsp ip)
	mov	ip, sp
	stmfd	sp!, {r4, r5, r6, r7, r8, r9, r10, fp, ip, lr, pc}
	UNWIND(.pad #4)
	UNWIND(.save {r4, r5, r6, r7, r8, r9, r10, fp, ip, lr})
	UNWIND(.setfp fp, ip, #-4)
	sub	fp, ip, #4
	UNWIND(.pad #12)
	sub	sp, sp, #12
	ldrb	r3, [r2, #13]	@ zero_extendqisi2
	mov	r4, #0
	mov	r5, r2
	cmp	r3, r4
	mov	r6, r0
	mov	r7, r1
	strb	r4, [r2, #1]
	beq	.L723
	ldrb	r3, [r2, #15]	@ zero_extendqisi2
	cmp	r3, r4
	bne	.L741
	ldr	lr, [r2, #68]
	ldr	r3, [r1, #188]
	cmp	lr, #1
	add	r0, r2, lr, lsl #1
	strh	r3, [r0, #170]	@ movhi
	ble	.L735
	add	lr, lr, #42
	add	r2, r2, #86
	add	ip, r5, #170
	add	lr, r5, lr, lsl #1
.L734:
	ldrh	r1, [r2, #2]!
	cmp	r2, lr
	strh	r1, [ip, #2]!	@ movhi
	ldrh	r3, [r0, #170]
	rsb	r3, r1, r3
	strh	r3, [r0, #170]	@ movhi
	bne	.L734
.L735:
	ldr	lr, [r5, #72]
	ldr	r3, [r7, #192]
	cmp	lr, #1
	add	r0, r5, lr, lsl #1
	strh	r3, [r0, #210]	@ movhi
	ble	.L730
	add	lr, lr, #62
	add	r2, r5, #126
	add	ip, r5, #210
	add	lr, r5, lr, lsl #1
.L736:
	ldrh	r1, [r2, #2]!
	cmp	r2, lr
	strh	r1, [ip, #2]!	@ movhi
	ldrh	r3, [r0, #210]
	rsb	r3, r1, r3
	strh	r3, [r0, #210]	@ movhi
	bne	.L736
	b	.L730
.L723:
	ldr	r3, [r1, #188]
	strh	r3, [r2, #172]	@ movhi
	ldr	r3, [r1, #192]
	strh	r3, [r2, #212]	@ movhi
.L730:
	ldr	r3, [r6, #164]
	mov	r4, #1888
	ldr	ip, .L742
	mov	r2, r4
	ldr	r0, [r6, #2336]
	mov	r1, r5
	mul	r3, r4, r3
	ldr	ip, [ip, #52]
	sub	r3, r3, #1888
	add	r0, r0, r3
	blx	ip
	ldr	r2, [r6, #164]
	ldr	r3, [r6, #2336]
	mul	r4, r4, r2
	sub	r4, r4, #1888
	add	r4, r3, r4
	str	r4, [r6, #2360]
	sub	sp, fp, #40
	ldmfd	sp, {r4, r5, r6, r7, r8, r9, r10, fp, sp, pc}
.L741:
	ldr	r9, [r2, #68]
	cmp	r9, r4
	addgt	r3, r2, #170
	ble	.L729
.L728:
	ldr	r10, [r7, #188]
	add	r4, r4, #1
	mov	r1, r9
	str	r3, [fp, #-48]
	mul	r0, r10, r4
	bl	__aeabi_uidiv
	mov	r1, r9
	mov	r8, r0
	sub	r0, r4, #1
	mul	r0, r0, r10
	bl	__aeabi_uidiv
	ldr	r3, [fp, #-48]
	cmp	r4, r9
	rsb	r0, r0, r8
	strh	r0, [r3, #2]!	@ movhi
	bne	.L728
.L729:
	ldr	r9, [r5, #72]
	cmp	r9, #0
	addgt	r3, r5, #210
	movgt	r4, #0
	ble	.L730
.L731:
	ldr	r10, [r7, #192]
	add	r4, r4, #1
	mov	r1, r9
	str	r3, [fp, #-48]
	mul	r0, r10, r4
	bl	__aeabi_uidiv
	mov	r1, r9
	mov	r8, r0
	sub	r0, r4, #1
	mul	r0, r0, r10
	bl	__aeabi_uidiv
	ldr	r3, [fp, #-48]
	cmp	r4, r9
	rsb	r0, r0, r8
	strh	r0, [r3, #2]!	@ movhi
	bne	.L731
	b	.L730
.L743:
	.align	2
.L742:
	.word	vfmw_Osal_Func_Ptr_S
	UNWIND(.fnend)
	.size	HEVC_UpdatePicPPS, .-HEVC_UpdatePicPPS
	.align	2
	.global	HEVC_InitPicInfo
	.type	HEVC_InitPicInfo, %function
HEVC_InitPicInfo:
	UNWIND(.fnstart)
	@ args = 0, pretend = 0, frame = 0
	@ frame_needed = 1, uses_anonymous_args = 0
	UNWIND(.movsp ip)
	mov	ip, sp
	stmfd	sp!, {r4, r5, r6, r7, r8, r9, fp, ip, lr, pc}
	UNWIND(.pad #4)
	UNWIND(.save {r4, r5, r6, r7, r8, r9, fp, ip, lr})
	UNWIND(.setfp fp, ip, #-4)
	sub	fp, ip, #4
	add	r5, r0, #4096
	mov	r3, #1
	strb	r3, [r0, #3473]
	mov	r4, r0
	ldr	r2, [r5, #100]
	mvn	r0, #0
	ldr	r3, [r4, #2356]
	mov	r1, #0
	ldr	lr, [r4, #252]
	str	r2, [r4, #3476]
	ldr	ip, [r5, #84]
	ldr	r2, .L753
	str	r0, [r4, #3504]
	str	ip, [r4, #3484]
	ldr	r0, [r3, #64]
	ldr	r2, [r2, lr, asl #2]
	str	r0, [r4, #3492]
	ldr	r3, [r3, #68]
	str	r1, [r4, #3500]
	str	r3, [r4, #3496]
	ldrsb	r3, [r2, #44]
	cmp	r3, #1
	beq	.L752
.L745:
	ldr	ip, [r4, #2372]
	add	r9, r4, #4096
	movw	lr, #4128
	mvn	r6, #0
	mov	r1, r9
	mvn	r7, #0
	ldrd	r2, [ip, #56]
	mov	r8, #0
	add	r0, r4, #3536
	add	r9, r9, #32
	strd	r2, [r9, #-8]
	ldrd	r2, [ip, #72]
	strd	r2, [r4, lr]
	ldrd	r2, [ip, #88]
	strd	r2, [r1, #40]
	ldr	r3, [ip, #104]
	str	r3, [r4, #3536]
	ldr	r3, [ip, #108]
	str	r3, [r4, #3540]
	ldr	r3, [ip, #112]
	str	r3, [r4, #3544]
	ldr	r3, [ip, #128]
	str	r3, [r4, #3548]
	strd	r6, [ip, #56]
	ldr	r3, [r4, #2356]
	ldrb	r2, [r4, #3600]	@ zero_extendqisi2
	ldr	r1, [r3, #64]
	str	r1, [r4, #3604]
	ldr	r1, [r3, #68]
	str	r8, [r4, #3588]
	str	r1, [r4, #3608]
	ldr	r1, [r3, #60]
	ldr	ip, [r3, #2084]
	subs	r1, r1, #1
	bfi	r2, ip, #5, #3
	movne	r1, #1
	bfi	r2, r1, #2, #3
	strb	r2, [r4, #3600]
	ldr	r1, [r3, #2068]
	and	r1, r1, #7
	bl	SetAspectRatio
	ldr	r2, [r5, #84]
	ldr	r3, [r4, #3532]
	str	r2, [r3, #8]
	ldr	r3, [r4, #3532]
	ldr	r2, [r4, #3600]
	str	r2, [r3, #144]
	ldr	r3, [r4, #3532]
	ldr	r2, [r4, #3588]
	str	r2, [r3, #132]
	ldr	r3, [r4, #3532]
	ldr	r2, [r4, #3640]
	str	r2, [r3, #184]
	ldr	r3, [r4, #3532]
	ldr	r2, [r4, #3636]
	str	r2, [r3, #180]
	ldr	r3, [r4, #3532]
	ldr	r2, [r4, #3604]
	str	r2, [r3, #148]
	ldr	r3, [r4, #3532]
	ldr	r2, [r4, #3608]
	str	r2, [r3, #152]
	ldr	r3, [r4, #3532]
	ldr	r0, [r4, #252]
	ldr	r1, [r3, #28]
	bl	FSP_GetDispPhyFs
	cmp	r0, #0
	beq	.L748
	ldr	r3, [r4, #3588]
	mov	r1, r8
	ldr	r2, [r0, #4]
	subs	r3, r3, r8
	ldr	r0, [r4, #252]
	movne	r3, #1
	bl	FSP_SetStoreType
.L748:
	ldr	r3, [r4, #2356]
	mov	r6, #0
	ldr	ip, [r4, #3532]
	ldr	r2, [r3, #72]
	str	r2, [r4, #3756]
	ldr	r5, [r3, #76]
	str	r5, [r4, #3760]
	ldr	r1, [r3, #80]
	str	r1, [r4, #3764]
	ldr	lr, [r3, #84]
	str	lr, [r4, #3768]
	ldr	r0, [r3, #64]
	rsb	r2, r2, r0
	rsb	r2, r5, r2
	str	r2, [r4, #3612]
	ldr	r0, [r3, #68]
	rsb	r1, r1, r0
	rsb	r1, lr, r1
	str	r1, [r4, #3616]
	ldr	r1, [r3, #60]
	str	r1, [r4, #3700]
	ldr	r1, [r3, #88]
	str	r1, [r4, #3704]
	ldr	r3, [r3, #96]
	str	r3, [r4, #3708]
	ldr	r3, [ip, #164]
	str	r3, [r4, #3620]
	ldr	r3, [ip, #168]
	str	r3, [r4, #3624]
	str	r2, [ip, #156]
	ldr	r2, [r4, #3616]
	ldr	r3, [r4, #3532]
	str	r2, [r3, #160]
	ldr	r2, [r4, #3620]
	ldr	r3, [r4, #3532]
	str	r2, [r3, #164]
	ldr	r2, [r4, #3624]
	ldr	r3, [r4, #3532]
	str	r2, [r3, #168]
	ldr	r3, [r4, #3532]
	ldr	r2, [r4, #3704]
	str	r2, [r3, #248]
	ldr	r3, [r4, #3532]
	ldr	r2, [r4, #3708]
	str	r2, [r3, #252]
	str	r6, [r4, #3488]
	ldmfd	sp, {r4, r5, r6, r7, r8, r9, fp, sp, pc}
.L752:
	ldr	r3, [r2, #156]
	cmp	r3, r1
	bne	.L745
	ldr	r3, [r2, #160]
	cmp	r3, #1
	bne	.L745
	add	r3, r4, #8192
	ldrb	r3, [r3, #2880]	@ zero_extendqisi2
	cmp	r3, #1
	bne	.L745
	movw	r2, #11104
	movw	r3, #11120
	ldrd	r0, [r4, r2]
	ldrd	r2, [r3, r4]
	cmp	r1, r3
	cmpeq	r0, r2
	bls	.L746
	subs	r6, r0, r2
	sbc	r7, r1, r3
	cmp	r7, #0
	cmpeq	r6, #16
	bls	.L746
.L747:
	ldr	r0, [r4, #260]
	movw	r1, #11104
	rsb	ip, r0, ip
	adds	r2, r2, ip
	adc	r3, r3, ip, asr #31
	strd	r2, [r4, r1]
	b	.L745
.L746:
	cmp	r1, r3
	cmpeq	r0, r2
	bcs	.L745
	subs	r0, r2, r0
	sbc	r1, r3, r1
	cmp	r1, #0
	cmpeq	r0, #16
	bls	.L745
	b	.L747
.L754:
	.align	2
.L753:
	.word	s_pstVfmwChan
	UNWIND(.fnend)
	.size	HEVC_InitPicInfo, .-HEVC_InitPicInfo
	.align	2
	.global	HEVC_RepairList
	.type	HEVC_RepairList, %function
HEVC_RepairList:
	UNWIND(.fnstart)
	@ args = 0, pretend = 0, frame = 8
	@ frame_needed = 1, uses_anonymous_args = 0
	UNWIND(.movsp ip)
	mov	ip, sp
	stmfd	sp!, {r4, r5, r6, r7, r8, r9, r10, fp, ip, lr, pc}
	UNWIND(.pad #4)
	UNWIND(.save {r4, r5, r6, r7, r8, r9, r10, fp, ip, lr})
	UNWIND(.setfp fp, ip, #-4)
	sub	fp, ip, #4
	UNWIND(.pad #20)
	sub	sp, sp, #20
	add	r3, r0, #4096
	mov	ip, r0
	ldr	r3, [r3, #92]
	cmp	r3, #1
	beq	.L772
	cmp	r3, #2
	beq	.L773
	cmp	r3, #0
	moveq	r3, #2
	streq	r3, [fp, #-48]
	beq	.L757
	ldr	r2, .L782
	mov	r0, #1
	ldr	r1, .L782+4
	bl	dprint_vfmw
	mvn	r0, #0
	sub	sp, fp, #40
	ldmfd	sp, {r4, r5, r6, r7, r8, r9, r10, fp, sp, pc}
.L772:
	str	r3, [fp, #-48]
.L757:
	add	r8, ip, #4224
	add	r9, ip, #2384
	add	r8, r8, #8
	mov	r10, #0
.L770:
	ldr	r1, [r8, #4]!
	cmp	r1, #0
	beq	.L760
	ldr	r3, [r9]
	cmp	r3, #0
	bne	.L774
	mov	r2, r9
	mov	r4, r3
	b	.L762
.L764:
	ldr	r6, [r2, #4]!
	cmp	r6, #0
	bne	.L780
.L762:
	add	r4, r4, #1
	cmp	r4, r1
	bne	.L764
	mov	r4, #255
.L763:
	ldr	r2, [ip, #2372]
	ldr	r2, [r2, #24]
	cmp	r2, #2
	bne	.L765
	ldr	r6, [ip, #3532]
	add	r6, r6, #56
.L761:
	mov	r7, r9
	mov	r5, #0
	b	.L771
.L767:
	ldr	r3, [r7, #4]!
.L771:
	cmp	r3, #0
	beq	.L781
.L766:
	ldr	r3, [r8]
	add	r5, r5, #1
	cmp	r3, r5
	bhi	.L767
.L768:
	ldr	r3, [fp, #-48]
	add	r10, r10, #1
	add	r9, r9, #68
	cmp	r10, r3
	bcc	.L770
.L773:
	mov	r0, #0
	sub	sp, fp, #40
	ldmfd	sp, {r4, r5, r6, r7, r8, r9, r10, fp, sp, pc}
.L760:
	ldr	r3, [ip, #2372]
	ldr	r3, [r3, #24]
	cmp	r3, #2
	moveq	r3, #1
	streq	r3, [r8]
	ldreq	r3, [ip, #3532]
	addeq	r3, r3, #56
	streq	r3, [r9]
	b	.L768
.L781:
	sxtb	r2, r4
	str	r5, [sp]
	str	r2, [sp, #4]
	mov	r3, r10
	ldr	r2, .L782
	mov	r0, #1
	ldr	r1, .L782+8
	str	ip, [fp, #-52]
	bl	dprint_vfmw
	str	r6, [r7]
	ldr	ip, [fp, #-52]
	b	.L766
.L780:
	uxtb	r4, r4
	cmp	r4, #255
	bne	.L761
	b	.L763
.L774:
	mov	r6, r3
	mov	r4, #0
	b	.L761
.L765:
	mov	r3, r10
	ldr	r2, .L782
	ldr	r1, .L782+12
	mov	r0, #1
	bl	dprint_vfmw
	mvn	r0, #0
	sub	sp, fp, #40
	ldmfd	sp, {r4, r5, r6, r7, r8, r9, r10, fp, sp, pc}
.L783:
	.align	2
.L782:
	.word	.LANCHOR0+264
	.word	.LC76
	.word	.LC78
	.word	.LC77
	UNWIND(.fnend)
	.size	HEVC_RepairList, .-HEVC_RepairList
	.align	2
	.global	HEVC_InitListX
	.type	HEVC_InitListX, %function
HEVC_InitListX:
	UNWIND(.fnstart)
	@ args = 0, pretend = 0, frame = 144
	@ frame_needed = 1, uses_anonymous_args = 0
	UNWIND(.movsp ip)
	mov	ip, sp
	stmfd	sp!, {r4, r5, r6, r7, r8, r9, r10, fp, ip, lr, pc}
	UNWIND(.pad #4)
	UNWIND(.save {r4, r5, r6, r7, r8, r9, r10, fp, ip, lr})
	UNWIND(.setfp fp, ip, #-4)
	sub	fp, ip, #4
	UNWIND(.pad #148)
	sub	sp, sp, #148
	subs	r8, r0, #0
	beq	.L820
	ldr	r3, .L852
	mov	r2, #136
	mov	r1, #0
	sub	r0, fp, #180
	ldr	r3, [r3, #48]
	blx	r3
	ldr	lr, [r8, #2568]
	cmp	lr, #0
	beq	.L821
	mov	r1, #0
	add	r0, r8, #2640
	mov	r3, r1
	b	.L788
.L787:
	cmp	r3, lr
	beq	.L786
.L788:
	ldr	r2, [r0, #4]!
	add	r3, r3, #1
	ldrb	ip, [r2, #1]	@ zero_extendqisi2
	cmp	ip, #1
	bne	.L787
	ldr	ip, [r2, #60]
	cmp	ip, #0
	bne	.L787
	ldr	ip, [r2, #64]
	cmp	ip, #1
	subeq	ip, fp, #44
	addeq	r2, r2, #56
	addeq	ip, ip, r1, lsl #2
	addeq	r1, r1, #1
	streq	r2, [ip, #-136]
	cmp	r3, lr
	bne	.L788
.L786:
	ldr	r4, [r8, #2572]
	cmp	r4, #0
	beq	.L822
	add	ip, r8, #2704
	mov	r0, r1
	add	ip, ip, #4
	mov	r3, #0
	b	.L791
.L790:
	cmp	r3, r4
	beq	.L848
.L791:
	ldr	r2, [ip, #4]!
	add	r3, r3, #1
	ldrb	lr, [r2, #1]	@ zero_extendqisi2
	cmp	lr, #1
	bne	.L790
	ldr	lr, [r2, #60]
	cmp	lr, #0
	bne	.L790
	ldr	lr, [r2, #64]
	cmp	lr, #1
	subeq	lr, fp, #44
	addeq	r2, r2, #56
	addeq	lr, lr, r0, lsl #2
	addeq	r0, r0, #1
	streq	r2, [lr, #-136]
	cmp	r3, r4
	bne	.L791
.L848:
	rsb	r4, r1, r0
.L789:
	ldr	r5, [r8, #2564]
	cmp	r5, #0
	beq	.L823
	add	lr, r8, #2768
	mov	r10, r0
	add	lr, lr, #8
	mov	r3, #0
	b	.L794
.L793:
	cmp	r3, r5
	beq	.L849
.L794:
	ldr	r2, [lr, #4]!
	add	r3, r3, #1
	ldrb	r6, [r2, #1]	@ zero_extendqisi2
	cmp	r6, #1
	bne	.L793
	ldr	r6, [r2, #60]
	cmp	r6, #1
	bne	.L793
	ldr	r6, [r2, #64]
	sub	ip, fp, #44
	add	r9, ip, r10, lsl #2
	add	r2, r2, #56
	cmp	r6, #0
	addeq	r10, r10, #1
	streq	r2, [r9, #-136]
	cmp	r3, r5
	bne	.L794
.L849:
	rsb	r5, r1, r10
	rsb	r5, r4, r5
.L792:
	cmp	r10, #0
	beq	.L850
	add	r3, r8, #4096
	str	r3, [fp, #-184]
	ldr	r3, [r3, #92]
	cmp	r3, #0
	str	r3, [fp, #-188]
	beq	.L851
	ldr	r3, [fp, #-184]
	ldr	r4, [r3, #148]
	ldr	r5, [r3, #152]
	cmp	r4, #0
	str	r4, [r3, #140]
	str	r5, [r3, #144]
	beq	.L813
.L819:
	ldr	r3, [fp, #-184]
	add	r7, r8, #2368
	add	r7, r7, #12
	mov	r6, #0
	ldrb	r9, [r3, #1168]	@ zero_extendqisi2
.L806:
	cmp	r9, #0
	mov	r1, r10
	mov	r0, r6
	ldrne	r1, [r7, #2888]
	bne	.L805
	bl	__aeabi_uidivmod
.L805:
	sub	r3, fp, #44
	add	r6, r6, #1
	add	r1, r3, r1, lsl #2
	cmp	r4, r6
	ldr	r1, [r1, #-136]
	str	r1, [r7, #4]!
	bhi	.L806
	ldr	r3, [fp, #-188]
	cmp	r3, #0
	bne	.L847
.L807:
	cmp	r5, #0
	beq	.L809
	ldr	r3, [fp, #-184]
	add	r6, r8, #2448
	mov	r4, #0
	ldrb	r7, [r3, #1169]	@ zero_extendqisi2
.L812:
	cmp	r7, #0
	mov	r1, r10
	mov	r0, r4
	ldrne	r1, [r6, #2948]
	bne	.L811
	bl	__aeabi_uidivmod
.L811:
	sub	r3, fp, #44
	add	r4, r4, #1
	add	r1, r3, r1, lsl #2
	cmp	r4, r5
	ldr	r3, [r1, #-68]
	str	r3, [r6, #4]!
	bne	.L812
.L847:
	ldr	r3, [fp, #-184]
	ldr	r4, [r3, #140]
	ldr	r5, [r3, #144]
.L808:
	cmp	r4, #16
	bhi	.L817
.L813:
	add	r4, r4, #592
	add	r2, r8, #2448
	add	r4, r4, #3
	add	r4, r8, r4, lsl #2
.L816:
	ldr	r3, [r8, #2384]
	str	r3, [r4, #4]!
	cmp	r4, r2
	bne	.L816
.L817:
	cmp	r5, #16
	bhi	.L815
	add	r5, r5, #612
	add	r2, r8, #2512
	add	r2, r2, #4
	add	r5, r8, r5, lsl #2
.L818:
	ldr	r3, [r8, #2452]
	str	r3, [r5, #4]!
	cmp	r5, r2
	bne	.L818
.L815:
	mov	r0, #0
.L846:
	sub	sp, fp, #40
	ldmfd	sp, {r4, r5, r6, r7, r8, r9, r10, fp, sp, pc}
.L851:
	cmp	r4, #0
	beq	.L798
	sub	r3, fp, #180
	sub	r2, fp, #116
	add	lr, r3, r1, lsl #2
	ldr	r3, [fp, #-188]
.L799:
	add	r3, r3, #1
	ldr	r6, [lr], #4
	cmp	r3, r4
	str	r6, [r2, #4]!
	bne	.L799
.L798:
	cmp	r1, #0
	beq	.L800
	add	r2, r4, #16
	sub	lr, fp, #180
	mov	r3, #0
	add	r2, lr, r2, lsl #2
.L801:
	add	r3, r3, #1
	ldr	r6, [lr], #4
	cmp	r3, r1
	str	r6, [r2, #4]!
	bne	.L801
	add	r4, r4, r3
.L800:
	cmp	r5, #0
	beq	.L802
	add	r4, r4, #16
	sub	r2, fp, #180
	sub	r3, fp, #180
	add	r4, r2, r4, lsl #2
	add	r0, r3, r0, lsl #2
	mov	r3, #0
.L803:
	add	r3, r3, #1
	ldr	r2, [r0], #4
	cmp	r3, r5
	str	r2, [r4, #4]!
	bne	.L803
.L802:
	ldr	r3, [fp, #-184]
	ldr	r4, [r3, #148]
	ldr	r5, [r3, #152]
	cmp	r4, #0
	str	r4, [r3, #140]
	str	r5, [r3, #144]
	bne	.L819
	b	.L807
.L850:
	ldr	r3, .L852
	add	r4, r8, #4096
	mov	r2, #136
	mov	r1, r10
	str	r10, [r4, #140]
	add	r0, r8, #2384
	ldr	r3, [r3, #48]
	str	r10, [r4, #144]
	blx	r3
	ldr	r3, [r8, #2372]
	ldr	r3, [r3, #24]
	cmp	r3, #2
	bne	.L815
	mov	r3, #1
	str	r3, [r4, #140]
	ldr	r3, [r8, #3532]
	mov	r0, r10
	add	r3, r3, #56
	str	r3, [r8, #2384]
	b	.L846
.L821:
	mov	r1, lr
	b	.L786
.L822:
	mov	r0, r1
	b	.L789
.L823:
	mov	r10, r0
	b	.L792
.L809:
	ldr	r3, .L852
	add	r0, r8, #2448
	add	r0, r0, #4
	mov	r2, #68
	add	r1, r8, #2384
	ldr	r3, [r3, #52]
	blx	r3
	ldr	r3, [fp, #-184]
	ldr	r4, [r3, #140]
	str	r4, [r3, #144]
	mov	r5, r4
	b	.L808
.L820:
	mvn	r0, #0
	b	.L846
.L853:
	.align	2
.L852:
	.word	vfmw_Osal_Func_Ptr_S
	UNWIND(.fnend)
	.size	HEVC_InitListX, .-HEVC_InitListX
	.align	2
	.global	HEVC_DecList
	.type	HEVC_DecList, %function
HEVC_DecList:
	UNWIND(.fnstart)
	@ args = 0, pretend = 0, frame = 0
	@ frame_needed = 1, uses_anonymous_args = 0
	UNWIND(.movsp ip)
	mov	ip, sp
	stmfd	sp!, {r4, r5, fp, ip, lr, pc}
	UNWIND(.pad #4)
	UNWIND(.save {r4, r5, fp, ip, lr})
	UNWIND(.setfp fp, ip, #-4)
	sub	fp, ip, #4
	add	r3, r0, #4096
	mov	r4, r0
	ldr	r2, [r3, #92]
	cmp	r2, #2
	beq	.L859
	bl	HEVC_InitListX
	cmp	r0, #0
	bne	.L860
	mov	r0, r4
	bl	HEVC_RepairList
	cmp	r0, #0
	ldmeqfd	sp, {r4, r5, fp, sp, pc}
	ldr	r1, .L861
	mov	r0, #1
	bl	dprint_vfmw
	mvn	r0, #0
	ldmfd	sp, {r4, r5, fp, sp, pc}
.L859:
	mov	r0, #0
	str	r0, [r3, #140]
	str	r0, [r3, #144]
	ldmfd	sp, {r4, r5, fp, sp, pc}
.L860:
	ldr	r1, .L861+4
	mov	r0, #1
	bl	dprint_vfmw
	mvn	r0, #0
	ldmfd	sp, {r4, r5, fp, sp, pc}
.L862:
	.align	2
.L861:
	.word	.LC80
	.word	.LC79
	UNWIND(.fnend)
	.size	HEVC_DecList, .-HEVC_DecList
	.align	2
	.global	HEVC_ArrangeMem
	.type	HEVC_ArrangeMem, %function
HEVC_ArrangeMem:
	UNWIND(.fnstart)
	@ args = 0, pretend = 0, frame = 24
	@ frame_needed = 1, uses_anonymous_args = 0
	UNWIND(.movsp ip)
	mov	ip, sp
	stmfd	sp!, {r4, r5, r6, fp, ip, lr, pc}
	UNWIND(.pad #4)
	UNWIND(.save {r4, r5, r6, fp, ip, lr})
	UNWIND(.setfp fp, ip, #-4)
	sub	fp, ip, #4
	UNWIND(.pad #36)
	sub	sp, sp, #36
	ldr	r2, [r0, #2356]
	mov	r4, r0
	movw	r1, #8160
	ldr	r6, [r2, #188]
	ldr	r5, [r2, #192]
	ldr	r2, [r2, #128]
	mov	r5, r5, asl r2
	mov	r6, r6, asl r2
	sub	r0, r5, #32
	sub	r2, r6, #32
	cmp	r2, r1
	cmpls	r0, r1
	movhi	r1, #1
	movls	r1, #0
	bhi	.L870
	ldr	r3, .L872
	mov	r2, #20
	sub	r0, fp, #48
	ldr	r3, [r3, #48]
	blx	r3
	ldr	r3, [r4, #2372]
	str	r6, [fp, #-44]
	str	r5, [fp, #-40]
	ldr	r3, [r3, #28]
	str	r6, [fp, #-36]
	cmp	r3, #24
	str	r5, [fp, #-32]
	beq	.L866
	ldrb	r3, [r4, #2552]	@ zero_extendqisi2
	strb	r3, [fp, #-47]
.L868:
	sub	r1, fp, #48
	ldr	r0, [r4, #252]
	strb	r3, [fp, #-45]
	bl	FSP_ConfigInstance
	cmp	r0, #0
	bne	.L871
	ldr	r1, [r4, #2372]
	sub	r3, fp, #52
	ldr	r0, [r4, #252]
	ldr	r2, [r1, #20]
	ldr	r1, [r1, #16]
	bl	FSP_ConfigFrameBuf
.L869:
	sub	sp, fp, #24
	ldmfd	sp, {r4, r5, r6, fp, sp, pc}
.L866:
	mov	r3, #1
	strb	r3, [fp, #-47]
	b	.L868
.L870:
	str	r5, [sp]
	mov	r3, r6
	ldr	r2, .L872+4
	mov	r0, #0
	ldr	r1, .L872+8
	bl	dprint_vfmw
	mvn	r0, #19
	sub	sp, fp, #24
	ldmfd	sp, {r4, r5, r6, fp, sp, pc}
.L871:
	ldr	r2, .L872+4
	mov	r0, #1
	ldr	r1, .L872+12
	bl	dprint_vfmw
	mvn	r0, #0
	b	.L869
.L873:
	.align	2
.L872:
	.word	vfmw_Osal_Func_Ptr_S
	.word	.LANCHOR0+280
	.word	.LC81
	.word	.LC82
	UNWIND(.fnend)
	.size	HEVC_ArrangeMem, .-HEVC_ArrangeMem
	.align	2
	.global	HEVC_RemoveApcStore
	.type	HEVC_RemoveApcStore, %function
HEVC_RemoveApcStore:
	UNWIND(.fnstart)
	@ args = 0, pretend = 0, frame = 0
	@ frame_needed = 1, uses_anonymous_args = 0
	UNWIND(.movsp ip)
	mov	ip, sp
	stmfd	sp!, {fp, ip, lr, pc}
	UNWIND(.pad #4)
	UNWIND(.save {fp, ip, lr})
	UNWIND(.setfp fp, ip, #-4)
	sub	fp, ip, #4
	UNWIND(.pad #8)
	sub	sp, sp, #8
	add	r3, r1, #644
	ldr	ip, [r0, r3, asl #2]
	ldr	r2, [ip, #32]
	cmp	r2, #0
	bne	.L877
	ldr	r3, [ip, #24]
	cmp	r3, #15
	bhi	.L874
	add	r3, r0, r3, lsl #2
	add	r1, r0, #12288
	add	r3, r3, #12288
	mov	lr, #16
	str	r2, [r3, #208]
	str	r2, [r3, #272]
	str	r2, [r3, #336]
	ldr	r3, [ip, #20]
	add	r0, r0, r3, lsl #2
	str	r2, [r0, #2132]
	str	lr, [ip, #24]
	ldr	r3, [r1, #204]
	sub	r3, r3, #1
	str	r3, [r1, #204]
.L874:
	sub	sp, fp, #12
	ldmfd	sp, {fp, sp, pc}
.L877:
	str	r2, [sp]
	mov	r3, r1
	ldr	r2, .L878
	mov	r0, #1
	ldr	r1, .L878+4
	bl	dprint_vfmw
	sub	sp, fp, #12
	ldmfd	sp, {fp, sp, pc}
.L879:
	.align	2
.L878:
	.word	.LANCHOR0+296
	.word	.LC83
	UNWIND(.fnend)
	.size	HEVC_RemoveApcStore, .-HEVC_RemoveApcStore
	.align	2
	.global	HEVC_RemoveUnusedApcStore
	.type	HEVC_RemoveUnusedApcStore, %function
HEVC_RemoveUnusedApcStore:
	UNWIND(.fnstart)
	@ args = 0, pretend = 0, frame = 0
	@ frame_needed = 1, uses_anonymous_args = 0
	UNWIND(.movsp ip)
	mov	ip, sp
	stmfd	sp!, {r4, r5, r6, r7, fp, ip, lr, pc}
	UNWIND(.pad #4)
	UNWIND(.save {r4, r5, r6, r7, fp, ip, lr})
	UNWIND(.setfp fp, ip, #-4)
	sub	fp, ip, #4
	ldr	r3, [r0, #2556]
	mov	r6, r0
	cmp	r3, #0
	ldmeqfd	sp, {r4, r5, r6, r7, fp, sp, pc}
	add	r5, r0, #2560
	mov	r4, #0
	add	r5, r5, #12
	b	.L883
.L882:
	ldr	r3, [r6, #2556]
	add	r4, r4, #1
	cmp	r4, r3
	bcs	.L886
.L883:
	ldr	r3, [r5, #4]!
	ldrb	r3, [r3, #1]	@ zero_extendqisi2
	cmp	r3, #0
	bne	.L882
	mov	r1, r4
	mov	r0, r6
	bl	HEVC_RemoveApcStore
	ldr	r3, [r6, #2556]
	add	r4, r4, #1
	cmp	r4, r3
	bcc	.L883
.L886:
	ldmfd	sp, {r4, r5, r6, r7, fp, sp, pc}
	UNWIND(.fnend)
	.size	HEVC_RemoveUnusedApcStore, .-HEVC_RemoveUnusedApcStore
	.align	2
	.global	HEVC_ApplyReferencePictureSet
	.type	HEVC_ApplyReferencePictureSet, %function
HEVC_ApplyReferencePictureSet:
	UNWIND(.fnstart)
	@ args = 0, pretend = 0, frame = 24
	@ frame_needed = 1, uses_anonymous_args = 0
	UNWIND(.movsp ip)
	mov	ip, sp
	stmfd	sp!, {r4, r5, r6, r7, r8, r9, r10, fp, ip, lr, pc}
	UNWIND(.pad #4)
	UNWIND(.save {r4, r5, r6, r7, r8, r9, r10, fp, ip, lr})
	UNWIND(.setfp fp, ip, #-4)
	sub	fp, ip, #4
	UNWIND(.pad #28)
	sub	sp, sp, #28
	add	r5, r0, #4096
	ldr	r2, [r0, #2336]
	mov	r6, #1888
	ldr	r1, [r5, #108]
	movw	lr, #12660
	ldr	r3, [r0, #2332]
	mov	ip, r0
	ldr	r4, [ip, #2556]
	mov	r0, #1
	mla	r2, r6, r1, r2
	cmp	r4, #0
	ldr	r2, [r2, #32]
	mla	r3, lr, r2, r3
	ldr	r3, [r3, #116]
	mov	r3, r0, asl r3
	str	r3, [fp, #-48]
	beq	.L887
	add	r3, ip, #2560
	add	r2, ip, #5120
	add	r3, r3, #12
	add	r2, r2, #12
	mov	r10, #0
	str	r2, [fp, #-64]
	mov	r2, r3
	mov	r3, r10
	mov	r10, r2
	b	.L904
.L890:
	ldr	r2, [ip, #2556]
	add	r3, r3, #1
	cmp	r3, r2
	bcs	.L887
.L904:
	ldr	r7, [r10, #4]!
	ldr	r2, [r5, #104]
	ldr	r1, [r7, #32]
	cmp	r1, r2
	bne	.L890
	ldr	r0, [r5, #1004]
	ldr	r2, [r5, #1008]
	ldr	r1, [r5, #1012]
	add	r2, r2, r0
	cmp	r2, r1
	mov	r8, r2
	ldrcs	r0, [r7, #8]
	movcs	r4, #0
	bcs	.L892
	add	r6, r2, #1296
	ldr	r9, [r7, #8]
	add	r6, r6, #4
	str	r3, [fp, #-60]
	mov	r3, r5
	mov	r4, #0
	add	r6, ip, r6, lsl #2
	mov	r5, r10
	mov	r10, r3
	str	ip, [fp, #-56]
.L898:
	ldr	r2, [r6, #-944]
	cmp	r2, #0
	ldr	r2, [r7, #60]
	beq	.L893
	cmp	r2, #0
	beq	.L894
	ldr	r2, [r6]
	cmp	r2, r9
	beq	.L925
.L894:
	cmp	r4, #0
	bne	.L909
	ldr	r1, [r6]
	mov	r4, r9
	b	.L906
.L893:
	cmp	r2, #0
	beq	.L896
	ldr	r1, [fp, #-48]
	mov	r0, r9
	bl	__aeabi_idivmod
	ldr	r0, [r6]
	str	r1, [fp, #-52]
	ldr	r1, [fp, #-48]
	bl	__aeabi_idivmod
	ldr	r2, [fp, #-52]
	cmp	r2, r1
	beq	.L925
.L896:
	cmp	r4, #0
	bne	.L909
	ldr	r2, [r6]
	mov	r0, r9
	ldr	r1, [fp, #-48]
	str	r2, [fp, #-52]
	bl	__aeabi_idivmod
	ldr	r2, [fp, #-52]
	mov	r0, r2
	mov	r4, r1
	ldr	r1, [fp, #-48]
	bl	__aeabi_idivmod
.L906:
	ldrb	r2, [r7, #1]	@ zero_extendqisi2
	rsb	r4, r1, r4
	clz	r4, r4
	cmp	r2, #0
	mov	r4, r4, lsr #5
	moveq	r4, #0
	cmp	r4, #0
	bne	.L926
.L909:
	mov	r0, r9
.L897:
	ldr	r2, [r10, #1012]
	add	r8, r8, #1
	add	r6, r6, #4
	mov	r9, r0
	cmp	r8, r2
	bcc	.L898
	mov	r2, r10
	mov	r10, r5
	mov	r5, r2
	ldr	r2, [r2, #1008]
	ldr	r1, [r5, #1004]
	ldr	r3, [fp, #-60]
	ldr	ip, [fp, #-56]
	add	r2, r2, r1
.L892:
	cmp	r2, #0
	ldr	lr, [r5, #84]
	beq	.L900
	ldr	r8, [fp, #-64]
	mov	r1, r7
	mov	r6, #0
	mov	r9, #1
	mov	r7, ip
.L902:
	ldr	r2, [r1, #60]
	add	r6, r6, #1
	cmp	r2, #0
	bne	.L901
	ldr	r2, [r8]
	add	r2, lr, r2
	cmp	r2, r0
	beq	.L927
.L901:
	ldr	r2, [r5, #1008]
	add	r8, r8, #4
	ldr	ip, [r5, #1004]
	add	r2, r2, ip
	cmp	r6, r2
	bcc	.L902
	mov	ip, r7
	mov	r7, r1
.L900:
	eor	r4, r4, #1
	cmp	r0, lr
	moveq	r0, #0
	andne	r0, r4, #1
	cmp	r0, #0
	beq	.L890
	mov	r2, #0
	strb	r2, [r7, #1]
	ldr	r2, [r10]
	mov	r1, #0
	str	r1, [r2, #60]
	ldr	r2, [r10]
	ldr	r1, [r2, #52]
	cmp	r1, #1
	beq	.L890
	ldr	r1, [r2, #28]
	mov	r2, #0
	ldr	r0, [ip, #252]
	str	r3, [fp, #-56]
	str	ip, [fp, #-52]
	bl	FSP_SetRef
	ldr	ip, [fp, #-52]
	ldr	r3, [fp, #-56]
	ldr	r2, [ip, #2556]
	add	r3, r3, #1
	cmp	r3, r2
	bcc	.L904
.L887:
	sub	sp, fp, #40
	ldmfd	sp, {r4, r5, r6, r7, r8, r9, r10, fp, sp, pc}
.L926:
	mov	r3, #1
	strb	r3, [r7, #1]
	ldr	r1, [r5]
	mov	r2, r3
	mov	r4, r3
	str	r3, [r1, #60]
	ldr	r1, [r5]
	str	r3, [r1, #48]
	ldr	r3, [fp, #-56]
	ldr	r1, [r5]
	ldr	r0, [r3, #252]
	ldr	r1, [r1, #28]
	bl	FSP_SetRef
	ldr	r7, [r5]
	ldr	r0, [r7, #8]
	b	.L897
.L927:
	strb	r9, [r1, #1]
	mov	r2, #1
	ldr	r1, [r10]
	mov	r4, r2
	str	r3, [fp, #-52]
	str	r9, [r1, #48]
	ldr	r1, [r10]
	ldr	r0, [r7, #252]
	ldr	r1, [r1, #28]
	bl	FSP_SetRef
	ldr	r1, [r10]
	ldr	lr, [r5, #84]
	ldr	r3, [fp, #-52]
	ldr	r0, [r1, #8]
	b	.L901
.L925:
	mov	r3, #1
	strb	r3, [r7, #1]
	ldr	r1, [r5]
	mov	r2, r3
	mov	r4, #1
	str	r3, [r1, #48]
	ldr	r3, [fp, #-56]
	ldr	r1, [r5]
	ldr	r0, [r3, #252]
	ldr	r1, [r1, #28]
	bl	FSP_SetRef
	ldr	r7, [r5]
	ldr	r0, [r7, #8]
	b	.L897
	UNWIND(.fnend)
	.size	HEVC_ApplyReferencePictureSet, .-HEVC_ApplyReferencePictureSet
	.align	2
	.global	HEVC_CheckThatAllRefPicsAreAvailable
	.type	HEVC_CheckThatAllRefPicsAreAvailable, %function
HEVC_CheckThatAllRefPicsAreAvailable:
	UNWIND(.fnstart)
	@ args = 0, pretend = 0, frame = 0
	@ frame_needed = 1, uses_anonymous_args = 0
	UNWIND(.movsp ip)
	mov	ip, sp
	stmfd	sp!, {fp, ip, lr, pc}
	UNWIND(.pad #4)
	UNWIND(.save {fp, ip, lr})
	UNWIND(.setfp fp, ip, #-4)
	sub	fp, ip, #4
	add	r3, r0, #4096
	ldr	r3, [r3, #100]
	sub	r3, r3, #19
	cmp	r3, #2
	bls	.L929
	sub	sp, fp, #12
	ldmia	sp, {fp, sp, lr}
	b	HEVC_CheckThatAllRefPicsAreAvailable.part.8
.L929:
	mov	r0, #1
	ldmfd	sp, {fp, sp, pc}
	UNWIND(.fnend)
	.size	HEVC_CheckThatAllRefPicsAreAvailable, .-HEVC_CheckThatAllRefPicsAreAvailable
	.align	2
	.global	HEVC_SetFrmRepeatCount
	.type	HEVC_SetFrmRepeatCount, %function
HEVC_SetFrmRepeatCount:
	UNWIND(.fnstart)
	@ args = 0, pretend = 0, frame = 0
	@ frame_needed = 1, uses_anonymous_args = 0
	UNWIND(.movsp ip)
	mov	ip, sp
	stmfd	sp!, {fp, ip, lr, pc}
	UNWIND(.pad #4)
	UNWIND(.save {fp, ip, lr})
	UNWIND(.setfp fp, ip, #-4)
	sub	fp, ip, #4
	ldr	r3, [r0, #2372]
	ldr	r3, [r3, #612]
	add	r3, r3, #2032
	add	r3, r3, #15
	cmp	r3, #4096
	movcc	r3, #0
	strcc	r3, [r1, #16]
	ldmccfd	sp, {fp, sp, pc}
	sub	sp, fp, #12
	ldmia	sp, {fp, sp, lr}
	b	HEVC_SetFrmRepeatCount.part.9
	UNWIND(.fnend)
	.size	HEVC_SetFrmRepeatCount, .-HEVC_SetFrmRepeatCount
	.align	2
	.global	HEVC_GetFreeFrameStoreNum
	.type	HEVC_GetFreeFrameStoreNum, %function
HEVC_GetFreeFrameStoreNum:
	UNWIND(.fnstart)
	@ args = 0, pretend = 0, frame = 0
	@ frame_needed = 1, uses_anonymous_args = 0
	UNWIND(.movsp ip)
	mov	ip, sp
	stmfd	sp!, {r4, r5, fp, ip, lr, pc}
	UNWIND(.pad #4)
	UNWIND(.save {r4, r5, fp, ip, lr})
	UNWIND(.setfp fp, ip, #-4)
	sub	fp, ip, #4
	add	r2, r0, #12672
	add	r4, r0, #26880
	add	r2, r2, #16
	add	r4, r4, #48
	mov	r5, #0
.L937:
	ldr	r3, [r2, #48]
	cmp	r3, #0
	bne	.L933
	cmp	r2, #0
	beq	.L934
	ldr	lr, [r0, #2556]
	cmp	lr, #0
	beq	.L934
	ldr	r1, [r0, #2576]
	cmp	r1, r2
	beq	.L933
	add	r1, r0, #2576
	b	.L935
.L936:
	ldr	ip, [r1, #4]!
	cmp	ip, r2
	beq	.L933
.L935:
	add	r3, r3, #1
	cmp	r3, lr
	bne	.L936
.L934:
	add	r5, r5, #1
.L933:
	add	r2, r2, #712
	cmp	r2, r4
	bne	.L937
	mov	r0, r5
	ldmfd	sp, {r4, r5, fp, sp, pc}
	UNWIND(.fnend)
	.size	HEVC_GetFreeFrameStoreNum, .-HEVC_GetFreeFrameStoreNum
	.align	2
	.global	HEVC_UpdateReflist
	.type	HEVC_UpdateReflist, %function
HEVC_UpdateReflist:
	UNWIND(.fnstart)
	@ args = 0, pretend = 0, frame = 8
	@ frame_needed = 1, uses_anonymous_args = 0
	UNWIND(.movsp ip)
	mov	ip, sp
	stmfd	sp!, {r4, r5, r6, r7, r8, r9, r10, fp, ip, lr, pc}
	UNWIND(.pad #4)
	UNWIND(.save {r4, r5, r6, r7, r8, r9, r10, fp, ip, lr})
	UNWIND(.setfp fp, ip, #-4)
	sub	fp, ip, #4
	UNWIND(.pad #12)
	sub	sp, sp, #12
	add	r4, r0, #4096
	mov	r6, r0
	ldr	r1, [r4, #1004]
	cmp	r1, #0
	beq	.L967
	add	r9, r0, #5056
	add	r8, r0, #5120
	mov	r7, #0
	add	r9, r9, #55
	add	r8, r8, #12
	mov	r5, r7
.L953:
	ldrb	r3, [r9, #1]!	@ zero_extendqisi2
	cmp	r3, #0
	beq	.L949
	ldr	lr, [r6, #2556]
	ldr	ip, [r4, #84]
	ldr	r3, [r8]
	cmp	lr, #0
	add	ip, ip, r3
	beq	.L949
	add	r1, r6, #2560
	mov	r3, #0
	add	r1, r1, #12
	b	.L952
.L950:
	add	r3, r3, #1
	cmp	r3, lr
	beq	.L949
.L952:
	ldr	r2, [r1, #4]!
	ldr	r0, [r2, #8]
	cmp	r0, ip
	bne	.L950
	ldr	r10, [r4, #104]
	ldr	r0, [r2, #32]
	cmp	r10, r0
	bne	.L950
	add	r10, r6, r3, lsl #2
	mov	r3, #1
	strb	r3, [r2, #1]
	ldr	r3, [r10, #2576]
	ldrb	r2, [r3, #1]	@ zero_extendqisi2
	cmp	r2, #0
	bne	.L993
.L951:
	mov	r2, #1
	str	r2, [r3, #64]
	ldr	r2, [r10, #2576]
	mov	r1, #0
	add	r3, r6, r7, lsl #2
	add	r7, r7, #1
	str	r1, [r2, #60]
	ldr	r2, [r10, #2576]
	str	r2, [r3, #2644]
.L949:
	ldr	r1, [r4, #1004]
	add	r5, r5, #1
	add	r8, r8, #4
	cmp	r1, r5
	bhi	.L953
.L948:
	ldr	r2, [r6, #2552]
	str	r7, [r6, #2568]
	cmp	r2, r7
	addhi	r3, r7, #660
	movhi	r0, #0
	addhi	r3, r6, r3, lsl #2
	bls	.L958
.L957:
	add	r7, r7, #1
	str	r0, [r3, #4]!
	cmp	r7, r2
	bne	.L957
.L958:
	ldr	r3, [r4, #1008]
	add	r10, r1, r3
	cmp	r10, r5
	movls	r7, #0
	bls	.L956
	add	r8, r5, #1280
	add	r9, r5, #5056
	add	r8, r8, #3
	add	r9, r9, #55
	add	r9, r6, r9
	mov	r7, #0
	add	r8, r6, r8, lsl #2
	str	r7, [fp, #-48]
.L963:
	ldrb	r3, [r9, #1]!	@ zero_extendqisi2
	cmp	r3, #0
	beq	.L959
	ldr	ip, [r6, #2556]
	ldr	r0, [r4, #84]
	ldr	r3, [r8]
	cmp	ip, #0
	add	r0, r0, r3
	beq	.L959
	add	r1, r6, #2560
	mov	r3, #0
	add	r1, r1, #12
	b	.L962
.L960:
	add	r3, r3, #1
	cmp	r3, ip
	beq	.L959
.L962:
	ldr	r2, [r1, #4]!
	ldr	lr, [r2, #8]
	cmp	lr, r0
	bne	.L960
	ldr	r7, [r4, #104]
	ldr	lr, [r2, #32]
	cmp	r7, lr
	bne	.L960
	add	r7, r6, r3, lsl #2
	mov	r3, #1
	strb	r3, [r2, #1]
	ldr	r3, [r7, #2576]
	ldrb	r2, [r3, #1]	@ zero_extendqisi2
	cmp	r2, #0
	bne	.L994
.L961:
	mov	r2, #1
	str	r2, [r3, #64]
	ldr	r2, [r7, #2576]
	ldr	r1, [fp, #-48]
	add	r3, r1, #676
	add	r1, r1, #1
	str	r1, [fp, #-48]
	mov	r1, #0
	str	r1, [r2, #60]
	add	r3, r3, #2
	ldr	r2, [r7, #2576]
	str	r2, [r6, r3, asl #2]
.L959:
	add	r5, r5, #1
	add	r8, r8, #4
	cmp	r10, r5
	bhi	.L963
	ldr	r7, [fp, #-48]
	ldr	r2, [r6, #2552]
.L956:
	cmp	r2, r7
	str	r7, [r6, #2572]
	bls	.L947
	add	r1, r7, #676
	mov	r3, #0
	add	r1, r1, #1
	add	r6, r6, r1, lsl #2
.L965:
	add	r7, r7, #1
	str	r3, [r6, #4]!
	cmp	r7, r2
	bne	.L965
.L947:
	sub	sp, fp, #40
	ldmfd	sp, {r4, r5, r6, r7, r8, r9, r10, fp, sp, pc}
.L993:
	ldr	r1, [r3, #28]
	mov	r2, #1
	ldr	r0, [r6, #252]
	bl	FSP_SetRef
	ldr	r3, [r10, #2576]
	b	.L951
.L994:
	ldr	r1, [r3, #28]
	mov	r2, #1
	ldr	r0, [r6, #252]
	bl	FSP_SetRef
	ldr	r3, [r7, #2576]
	b	.L961
.L967:
	mov	r7, r1
	mov	r5, r1
	b	.L948
	UNWIND(.fnend)
	.size	HEVC_UpdateReflist, .-HEVC_UpdateReflist
	.align	2
	.global	HEVC_UpdateLTReflist
	.type	HEVC_UpdateLTReflist, %function
HEVC_UpdateLTReflist:
	UNWIND(.fnstart)
	@ args = 0, pretend = 0, frame = 16
	@ frame_needed = 1, uses_anonymous_args = 0
	UNWIND(.movsp ip)
	mov	ip, sp
	stmfd	sp!, {r4, r5, r6, r7, r8, r9, r10, fp, ip, lr, pc}
	UNWIND(.pad #4)
	UNWIND(.save {r4, r5, r6, r7, r8, r9, r10, fp, ip, lr})
	UNWIND(.setfp fp, ip, #-4)
	sub	fp, ip, #4
	UNWIND(.pad #20)
	sub	sp, sp, #20
	add	r5, r0, #4096
	mov	r7, r0
	ldr	r0, [r0, #2336]
	ldr	r3, [r5, #108]
	mov	r4, #1888
	ldr	r2, [r5, #1004]
	movw	lr, #12660
	ldr	ip, [r7, #2332]
	mov	r1, #1
	mla	r0, r4, r3, r0
	ldr	r4, [r5, #1008]
	ldr	r3, [r5, #1012]
	add	r2, r2, r4
	sub	r2, r2, #1
	sub	r10, r3, #1
	cmp	r10, r2
	ldr	r0, [r0, #32]
	mla	r2, lr, r0, ip
	ldr	r2, [r2, #116]
	mov	r2, r1, asl r2
	ble	.L1006
	add	r9, r3, #1296
	add	r3, r3, #5056
	add	r9, r9, #3
	add	r3, r3, #56
	add	r3, r7, r3
	sub	r4, r2, #1
	add	r9, r7, r9, lsl #2
	mov	r8, #0
	str	r8, [fp, #-52]
	mov	r8, r3
	str	r1, [fp, #-56]
.L1002:
	ldrb	r3, [r8, #-1]!	@ zero_extendqisi2
	cmp	r3, #0
	beq	.L997
	ldrb	r0, [r9, #-944]	@ zero_extendqisi2
	ldr	ip, [r9]
	ldr	lr, [r7, #2556]
	cmp	r0, #0
	andeq	ip, ip, r4
	cmp	lr, #0
	ble	.L997
	add	r1, r7, #2560
	mov	r3, #0
	add	r1, r1, #12
	str	r7, [fp, #-48]
	b	.L1001
.L1000:
	add	r3, r3, #1
	cmp	r3, lr
	beq	.L1013
.L1001:
	ldr	r2, [r1, #4]!
	cmp	r0, #0
	ldr	r6, [r2, #8]
	andeq	r6, r6, r4
	cmp	ip, r6
	bne	.L1000
	ldr	r6, [r5, #104]
	ldr	r7, [r2, #32]
	cmp	r7, r6
	bne	.L1000
	ldr	r7, [fp, #-48]
	mov	ip, #0
	ldr	r1, [fp, #-52]
	ldr	r0, [fp, #-56]
	add	r3, r7, r3, lsl #2
	strb	r0, [r2, #1]
	add	r2, r7, r1, lsl #2
	add	r1, r1, #1
	str	r1, [fp, #-52]
	ldr	r1, [r3, #2576]
	str	ip, [r1, #64]
	ldr	r1, [r3, #2576]
	str	r0, [r1, #60]
	ldr	r3, [r3, #2576]
	str	r3, [r2, #2780]
.L997:
	ldr	r3, [r5, #1004]
	sub	r10, r10, #1
	ldr	r2, [r5, #1008]
	sub	r9, r9, #4
	add	r3, r3, r2
	sub	r3, r3, #1
	cmp	r3, r10
	blt	.L1002
	ldr	r8, [fp, #-52]
	mov	r3, r8
.L996:
	ldr	r2, [r7, #2552]
	str	r3, [r7, #2564]
	cmp	r2, r8
	ble	.L995
	add	r3, r8, #692
	mov	r1, #0
	add	r3, r3, #2
	add	r3, r7, r3, lsl #2
.L1004:
	add	r8, r8, #1
	str	r1, [r3, #4]!
	cmp	r8, r2
	bne	.L1004
.L995:
	sub	sp, fp, #40
	ldmfd	sp, {r4, r5, r6, r7, r8, r9, r10, fp, sp, pc}
.L1013:
	ldr	r7, [fp, #-48]
	b	.L997
.L1006:
	mov	r3, #0
	mov	r8, r3
	b	.L996
	UNWIND(.fnend)
	.size	HEVC_UpdateLTReflist, .-HEVC_UpdateLTReflist
	.align	2
	.global	HEVC_GetAPC
	.type	HEVC_GetAPC, %function
HEVC_GetAPC:
	UNWIND(.fnstart)
	@ args = 0, pretend = 0, frame = 0
	@ frame_needed = 1, uses_anonymous_args = 0
	UNWIND(.movsp ip)
	mov	ip, sp
	stmfd	sp!, {r4, r5, r6, r7, fp, ip, lr, pc}
	UNWIND(.pad #4)
	UNWIND(.save {r4, r5, r6, r7, fp, ip, lr})
	UNWIND(.setfp fp, ip, #-4)
	sub	fp, ip, #4
	UNWIND(.pad #16)
	sub	sp, sp, #16
	subs	r5, r1, #0
	mov	r6, r0
	beq	.L1032
	ldr	r7, [r0, #3480]
	mov	r3, #200
	movw	r1, #12488
	mul	r3, r3, r7
	add	r2, r0, r3
	ldr	ip, [r2, r1]
	cmp	ip, #0
	beq	.L1017
	movw	r1, #12496
	ldr	r4, [r2, r1]
	cmp	r4, #0
	addne	r3, r3, #12480
	addne	r3, r3, #16
	movne	r4, #0
	addne	r3, r0, r3
	bne	.L1020
	b	.L1018
.L1023:
	ldr	r2, [r3, #4]!
	cmp	r2, #0
	beq	.L1018
.L1020:
	add	r4, r4, #1
	cmp	r4, ip
	bne	.L1023
.L1017:
	ldr	r1, .L1033
	mov	r0, #0
	bl	dprint_vfmw
	mvn	r0, #0
.L1030:
	sub	sp, fp, #28
	ldmfd	sp, {r4, r5, r6, r7, fp, sp, pc}
.L1018:
	ldr	r1, [r5, #28]
	ldr	r0, [r6, #252]
	bl	FSP_GetLogicFs
	subs	ip, r0, #0
	beq	.L1021
	ldr	r3, [ip, #28]
	cmp	r3, #0
	beq	.L1021
	mov	r2, #50
	mov	r3, #200
	mla	r2, r2, r7, r4
	mov	lr, #1
	mla	r7, r3, r7, r6
	ldr	r1, .L1033+4
	mov	r3, r4
	mov	r0, #13
	add	r6, r6, r2, lsl #2
	add	r7, r7, #12480
	add	r6, r6, #12288
	str	lr, [r6, #208]
	ldr	r2, [ip, #28]
	ldr	r2, [r2, #4]
	str	r2, [r6, #272]
	ldr	r2, [r5, #8]
	str	r2, [r6, #336]
	ldr	r2, [r7, #12]
	add	r2, r2, lr
	str	r2, [r7, #12]
	ldr	r2, [r5, #228]
	bl	dprint_vfmw
	mov	r0, #0
	str	r4, [r5, #24]
	sub	sp, fp, #28
	ldmfd	sp, {r4, r5, r6, r7, fp, sp, pc}
.L1021:
	ldrb	r1, [r5, #1]	@ zero_extendqisi2
	mov	r0, #0
	ldr	r2, [r5, #28]
	ldr	r3, [r5, #8]
	stmia	sp, {r1, ip}
	str	r0, [sp, #8]
	ldr	r1, .L1033+8
	bl	dprint_vfmw
	mvn	r0, #0
	b	.L1030
.L1032:
	mov	r0, r5
	movw	r3, #11486
	ldr	r2, .L1033+12
	ldr	r1, .L1033+16
	bl	dprint_vfmw
	mvn	r0, #0
	b	.L1030
.L1034:
	.align	2
.L1033:
	.word	.LC88
	.word	.LC86
	.word	.LC87
	.word	.LC84
	.word	.LC85
	UNWIND(.fnend)
	.size	HEVC_GetAPC, .-HEVC_GetAPC
	.align	2
	.global	HEVC_CheckFrameStore
	.type	HEVC_CheckFrameStore, %function
HEVC_CheckFrameStore:
	UNWIND(.fnstart)
	@ args = 0, pretend = 0, frame = 0
	@ frame_needed = 1, uses_anonymous_args = 0
	UNWIND(.movsp ip)
	mov	ip, sp
	stmfd	sp!, {r4, fp, ip, lr, pc}
	UNWIND(.pad #4)
	UNWIND(.save {r4, fp, ip, lr})
	UNWIND(.setfp fp, ip, #-4)
	sub	fp, ip, #4
	UNWIND(.pad #12)
	sub	sp, sp, #12
	mov	r4, r1
	ldr	r0, [r0, #252]
	ldr	r1, [r1, #28]
	bl	FSP_GetLogicFs
	cmp	r0, #0
	beq	.L1036
	ldrsb	r2, [r0, #1]
	cmp	r2, #3
	cmpne	r2, #0
	moveq	r0, #1
	movne	r0, #0
	beq	.L1055
	ldr	r3, [r4, #52]
	cmp	r3, #1
	beq	.L1042
	ldr	r2, [r4, #48]
	ldrb	r3, [r4]	@ zero_extendqisi2
	cmp	r2, #0
	beq	.L1041
	cmp	r3, #1
	beq	.L1041
.L1052:
	sub	sp, fp, #16
	ldmfd	sp, {r4, fp, sp, pc}
.L1055:
	ldr	r3, [r4, #28]
	mov	r0, #13
	str	r2, [sp]
	ldr	r1, .L1056
	ldr	r2, .L1056+4
	bl	dprint_vfmw
.L1038:
	ldr	r3, [r4, #52]
	cmp	r3, #1
	beq	.L1042
	ldr	r3, [r4, #8]
	mov	r0, #1
	ldr	r2, .L1056+4
	ldr	r1, .L1056+8
	bl	dprint_vfmw
	mvn	r0, #2
	b	.L1052
.L1036:
	ldr	lr, [r4, #28]
	mov	r2, r4
	ldr	ip, [r4, #52]
	mov	r0, #1
	ldr	r3, [r4, #8]
	ldr	r1, .L1056+12
	stmia	sp, {ip, lr}
	bl	dprint_vfmw
	b	.L1038
.L1041:
	str	r3, [sp, #4]
	mov	r0, #1
	str	r2, [sp]
	mov	r3, r4
	ldr	r2, .L1056+4
	ldr	r1, .L1056+16
	bl	dprint_vfmw
	mvn	r0, #0
	b	.L1052
.L1042:
	mov	r2, #1
	mov	r3, #2
	strb	r2, [r4, #2]
	mvn	r0, #2
	str	r3, [r4, #52]
	b	.L1052
.L1057:
	.align	2
.L1056:
	.word	.LC89
	.word	.LANCHOR0+316
	.word	.LC91
	.word	.LC90
	.word	.LC92
	UNWIND(.fnend)
	.size	HEVC_CheckFrameStore, .-HEVC_CheckFrameStore
	.align	2
	.global	HEVC_GetImagePara
	.type	HEVC_GetImagePara, %function
HEVC_GetImagePara:
	UNWIND(.fnstart)
	@ args = 0, pretend = 0, frame = 8
	@ frame_needed = 1, uses_anonymous_args = 0
	UNWIND(.movsp ip)
	mov	ip, sp
	stmfd	sp!, {r4, r5, r6, r7, r8, r9, r10, fp, ip, lr, pc}
	UNWIND(.pad #4)
	UNWIND(.save {r4, r5, r6, r7, r8, r9, r10, fp, ip, lr})
	UNWIND(.setfp fp, ip, #-4)
	sub	fp, ip, #4
	UNWIND(.pad #20)
	sub	sp, sp, #20
	add	r8, r1, #672
	mov	r4, r1
	mvn	r7, #0
	ldrd	r2, [r8, #-8]
	mvn	r6, #0
	ldr	r1, [r1, #12]
	mov	r5, r0
	cmp	r3, r7
	cmpeq	r2, r6
	str	r1, [fp, #-52]
	beq	.L1060
	ldr	r3, [r0, #2556]
	cmp	r3, #0
	beq	.L1060
	add	r10, r0, #2560
	mvn	r6, #1
	add	r10, r10, #12
	mvn	r7, #0
	mov	r9, #0
	mvn	r3, #0
	str	r3, [fp, #-48]
.L1063:
	ldr	r2, [r10, #4]!
	cmp	r2, #0
	beq	.L1062
	ldr	r1, [r2, #28]
	ldr	r0, [r5, #252]
	bl	FSP_GetLogicFs
	cmp	r0, #0
	beq	.L1062
	ldrsb	r2, [r0, #1]
	cmp	r2, #3
	cmpne	r2, #0
	beq	.L1062
	ldr	r2, [r10]
	add	r2, r2, #672
	ldrd	r0, [r2, #-8]
	cmp	r1, r7
	cmpeq	r0, r6
	strcc	r9, [fp, #-48]
	movcc	r6, r0
	movcc	r7, r1
.L1062:
	ldr	r2, [r5, #2556]
	add	r9, r9, #1
	cmp	r9, r2
	bcc	.L1063
	ldr	r3, [fp, #-48]
	cmn	r3, #1
	beq	.L1060
	ldrd	r2, [r8, #-8]
	cmp	r3, r7
	cmpeq	r2, r6
	bhi	.L1095
.L1060:
	ldrb	r3, [r4, #145]	@ zero_extendqisi2
	ldrb	r2, [r4, #144]	@ zero_extendqisi2
	and	r3, r3, #195
	bfc	r3, #0, #2
	bfc	r2, #0, #2
	strb	r3, [r4, #145]
	strb	r2, [r4, #144]
	ldr	r3, [r5, #144]
	str	r3, [r4, #188]
	ldr	r3, [r5, #2352]
	ldrh	r3, [r3, #124]
	cmp	r3, #1
	moveq	r2, #0
	beq	.L1064
	movw	r2, #257
	cmp	r3, r2
	movne	r2, #1
	bne	.L1064
	ldr	r2, [r5, #2860]
	subs	r2, r2, #1
	movne	r2, #1
.L1064:
	ldr	r3, [r5, #2356]
	ldrb	r3, [r3, #2066]	@ zero_extendqisi2
	cmp	r3, #0
	moveq	ip, #3
	beq	.L1065
	ldr	r3, [r4, #40]
	cmp	r3, #1
	cmpne	r3, #11
	moveq	ip, #1
	bne	.L1096
.L1066:
	ldr	r2, [r4, #44]
	clz	r2, r2
	mov	r2, r2, lsr #5
.L1065:
	ldrb	r3, [r4, #145]	@ zero_extendqisi2
	mov	r0, #2
	ldr	r1, [r4, #48]
	bfi	r3, r0, #4, #2
	ldr	r6, [fp, #-52]
	cmp	r1, #0
	bfi	r3, ip, #2, #2
	bfi	r3, r2, #0, #2
	ldrb	lr, [r4, #4]	@ zero_extendqisi2
	strb	r3, [r4, #145]
	ldrne	r3, [r4, #16]
	ldrb	r0, [r4, #144]	@ zero_extendqisi2
	ldrb	r1, [r4, #146]	@ zero_extendqisi2
	ldrb	ip, [r4, #3]	@ zero_extendqisi2
	bfi	r0, r6, #0, #2
	strne	r3, [r4, #232]
	str	lr, [r4, #200]
	bfi	r1, ip, #1, #1
	strb	r0, [r4, #144]
	strb	r1, [r4, #146]
	ldr	r3, [r5, #2372]
	ldr	r1, [r4, #28]
	ldr	r3, [r3, #596]
	str	r3, [r4, #204]
	ldr	r3, [r5, #2372]
	ldr	r3, [r3, #600]
	str	r3, [r4, #208]
	ldr	r3, [r5, #2372]
	ldr	r3, [r3, #604]
	str	r3, [r4, #212]
	ldr	r0, [r5, #252]
	bl	FSP_GetFsImagePtr
	subs	r5, r0, #0
	beq	.L1058
	ldr	r3, .L1097
	mov	r2, #632
	add	r1, r4, #80
	ldr	r3, [r3, #52]
	blx	r3
	mov	r3, #16
	str	r3, [r5, #296]
	mov	r3, #1
	ldr	r2, [r4, #56]
	strb	r3, [r5, #291]
	cmp	r2, #0
	strb	r3, [r5, #289]
	moveq	r3, #0
	movne	r3, #4
	strb	r3, [r5, #284]
	ldr	r3, [r4, #68]
	str	r3, [r5, #236]
.L1058:
	sub	sp, fp, #40
	ldmfd	sp, {r4, r5, r6, r7, r8, r9, r10, fp, sp, pc}
.L1096:
	bic	r3, r3, #8
	cmp	r3, #2
	moveq	ip, #2
	movne	ip, #3
	b	.L1066
.L1095:
	ldr	r0, [r5, #252]
	strd	r6, [sp]
	bl	IsPtsRewind
	cmp	r0, #0
	bne	.L1060
	ldrd	r2, [r8, #-8]
	mov	r0, #29
	ldr	r1, .L1097+4
	strd	r6, [sp]
	bl	dprint_vfmw
	ldr	r3, [fp, #-48]
	add	r10, r3, #644
	ldrd	r2, [r8, #-8]
	ldr	r1, [r5, r10, asl #2]
	add	r1, r1, #672
	strd	r2, [r1, #-8]
	strd	r6, [r8, #-8]
	b	.L1060
.L1098:
	.align	2
.L1097:
	.word	vfmw_Osal_Func_Ptr_S
	.word	.LC93
	UNWIND(.fnend)
	.size	HEVC_GetImagePara, .-HEVC_GetImagePara
	.align	2
	.global	HEVC_CheckOutputImage
	.type	HEVC_CheckOutputImage, %function
HEVC_CheckOutputImage:
	UNWIND(.fnstart)
	@ args = 0, pretend = 0, frame = 0
	@ frame_needed = 1, uses_anonymous_args = 0
	UNWIND(.movsp ip)
	mov	ip, sp
	stmfd	sp!, {fp, ip, lr, pc}
	UNWIND(.pad #4)
	UNWIND(.save {fp, ip, lr})
	UNWIND(.setfp fp, ip, #-4)
	sub	fp, ip, #4
	cmp	r1, #19
	bhi	.L1101
	mov	r3, #712
	mla	r1, r3, r1, r0
	add	r1, r1, #12672
	ldrb	r0, [r1, #17]	@ zero_extendqisi2
	adds	r0, r0, #0
	movne	r0, #1
	ldmfd	sp, {fp, sp, pc}
.L1101:
	mvn	r0, #0
	ldmfd	sp, {fp, sp, pc}
	UNWIND(.fnend)
	.size	HEVC_CheckOutputImage, .-HEVC_CheckOutputImage
	.align	2
	.global	HEVC_DECRecycleImage
	.type	HEVC_DECRecycleImage, %function
HEVC_DECRecycleImage:
	UNWIND(.fnstart)
	@ args = 0, pretend = 0, frame = 0
	@ frame_needed = 1, uses_anonymous_args = 0
	UNWIND(.movsp ip)
	mov	ip, sp
	stmfd	sp!, {r4, r5, r6, r7, r8, r9, fp, ip, lr, pc}
	UNWIND(.pad #4)
	UNWIND(.save {r4, r5, r6, r7, r8, r9, fp, ip, lr})
	UNWIND(.setfp fp, ip, #-4)
	sub	fp, ip, #4
	mov	r8, r0
	ldr	r0, [r0, #252]
	mov	r9, r1
	bl	FSP_GetLogicFs
	cmp	r0, #0
	beq	.L1107
	ldrsb	r3, [r0, #1]
	cmp	r3, #0
	addne	r4, r0, #576
	addne	r5, r0, #608
	movne	r6, #0
	movne	r7, #0
	beq	.L1112
.L1106:
	ldr	r1, [r4, #8]!
	cmp	r1, #0
	beq	.L1105
	ldr	r0, [r8, #252]
	bl	FreeUsdByDec
	strd	r6, [r4]
.L1105:
	cmp	r4, r5
	bne	.L1106
	ldr	r0, [r8, #252]
	mov	r1, r9
	mov	r2, #0
	bl	FSP_SetDisplay
	mov	r0, #0
	ldmfd	sp, {r4, r5, r6, r7, r8, r9, fp, sp, pc}
.L1112:
	ldr	r1, .L1113
	mov	r0, #1
	bl	dprint_vfmw
	mvn	r0, #0
	ldmfd	sp, {r4, r5, r6, r7, r8, r9, fp, sp, pc}
.L1107:
	mvn	r0, #0
	ldmfd	sp, {r4, r5, r6, r7, r8, r9, fp, sp, pc}
.L1114:
	.align	2
.L1113:
	.word	.LC94
	UNWIND(.fnend)
	.size	HEVC_DECRecycleImage, .-HEVC_DECRecycleImage
	.align	2
	.global	HEVC_GetSLHDR1MasteringDisplayInfo
	.type	HEVC_GetSLHDR1MasteringDisplayInfo, %function
HEVC_GetSLHDR1MasteringDisplayInfo:
	UNWIND(.fnstart)
	@ args = 0, pretend = 0, frame = 0
	@ frame_needed = 1, uses_anonymous_args = 0
	UNWIND(.movsp ip)
	mov	ip, sp
	stmfd	sp!, {r4, fp, ip, lr, pc}
	UNWIND(.pad #4)
	UNWIND(.save {r4, fp, ip, lr})
	UNWIND(.setfp fp, ip, #-4)
	sub	fp, ip, #4
	ldr	r3, [r1, #572]
	movw	r2, #14999
	cmp	r3, r2
	bhi	.L1119
	sub	r2, r3, #8448
	movw	ip, #4749
	sub	r2, r2, #52
	cmp	r2, ip
	movls	r3, #1
	strlsb	r3, [r0, #3]
	bls	.L1117
	sub	r3, r3, #13248
	movw	r2, #1749
	sub	r3, r3, #2
	cmp	r3, r2
	bhi	.L1119
	mov	r3, #2
	strb	r3, [r0, #3]
.L1117:
	ldr	r3, [r1, #604]
	movw	r2, #56963
	movt	r2, 17179
	mov	ip, #50
	add	r3, r3, #249856
	movw	lr, #10000
	add	r3, r3, #144
	movw	r4, #2063
	movt	r4, 1526
	umull	r2, r3, r3, r2
	mov	r3, r3, lsr #17
	mul	r3, ip, r3
	cmp	r3, lr
	movcs	r3, lr
	strh	r3, [r0, #4]	@ movhi
	ldr	r3, [r1, #608]
	cmp	r3, r4
	movwls	r2, #5977
	movtls	r2, 53687
	umullls	r2, r3, r3, r2
	ubfxls	lr, r3, #13, #16
	strh	lr, [r0, #6]	@ movhi
	ldmfd	sp, {r4, fp, sp, pc}
.L1119:
	mov	r3, #0
	strb	r3, [r0, #3]
	b	.L1117
	UNWIND(.fnend)
	.size	HEVC_GetSLHDR1MasteringDisplayInfo, .-HEVC_GetSLHDR1MasteringDisplayInfo
	.align	2
	.global	HEVC_PrintSLHDR1Info
	.type	HEVC_PrintSLHDR1Info, %function
HEVC_PrintSLHDR1Info:
	UNWIND(.fnstart)
	@ args = 0, pretend = 0, frame = 0
	@ frame_needed = 1, uses_anonymous_args = 0
	UNWIND(.movsp ip)
	mov	ip, sp
	stmfd	sp!, {r4, r5, r6, r7, fp, ip, lr, pc}
	UNWIND(.pad #4)
	UNWIND(.save {r4, r5, r6, r7, fp, ip, lr})
	UNWIND(.setfp fp, ip, #-4)
	sub	fp, ip, #4
	ldr	r1, .L1141
	mov	r4, r0
	ldrb	r2, [r0]	@ zero_extendqisi2
	mov	r0, #32
	bl	dprint_vfmw
	ldrb	r2, [r4, #1]	@ zero_extendqisi2
	ldr	r1, .L1141+4
	mov	r0, #32
	bl	dprint_vfmw
	ldrb	r2, [r4, #2]	@ zero_extendqisi2
	ldr	r1, .L1141+8
	mov	r0, #32
	bl	dprint_vfmw
	ldrb	r2, [r4, #3]	@ zero_extendqisi2
	ldr	r1, .L1141+12
	mov	r0, #32
	bl	dprint_vfmw
	ldrh	r2, [r4, #4]
	ldr	r1, .L1141+16
	mov	r0, #32
	bl	dprint_vfmw
	ldrh	r2, [r4, #6]
	ldr	r1, .L1141+20
	mov	r0, #32
	bl	dprint_vfmw
	ldrb	r2, [r4, #8]	@ zero_extendqisi2
	ldr	r1, .L1141+24
	mov	r0, #32
	bl	dprint_vfmw
	ldrb	r2, [r4, #9]	@ zero_extendqisi2
	ldr	r1, .L1141+28
	mov	r0, #32
	bl	dprint_vfmw
	ldrb	r5, [r4, #1]	@ zero_extendqisi2
	ldrb	r2, [r4, #10]	@ zero_extendqisi2
	mov	r0, #32
	cmp	r5, #0
	bne	.L1123
	ldr	r1, .L1141+32
	bl	dprint_vfmw
	ldrb	r2, [r4, #11]	@ zero_extendqisi2
	ldr	r1, .L1141+36
	mov	r0, #32
	bl	dprint_vfmw
	ldrb	r2, [r4, #12]	@ zero_extendqisi2
	ldr	r1, .L1141+40
	mov	r0, #32
	bl	dprint_vfmw
	ldrb	r2, [r4, #13]	@ zero_extendqisi2
	ldr	r1, .L1141+44
	mov	r0, #32
	bl	dprint_vfmw
	ldrb	r2, [r4, #14]	@ zero_extendqisi2
	ldr	r1, .L1141+48
	mov	r0, #32
	bl	dprint_vfmw
	ldrb	r2, [r4, #15]	@ zero_extendqisi2
	ldr	r1, .L1141+52
	mov	r0, #32
	bl	dprint_vfmw
	ldrb	r3, [r4, #15]	@ zero_extendqisi2
	cmp	r3, #0
	addne	r7, r4, #15
	addne	r6, r4, #26
	beq	.L1128
.L1127:
	mov	r3, r5
	ldrb	r2, [r7, #1]!	@ zero_extendqisi2
	ldr	r1, .L1141+56
	mov	r0, #32
	bl	dprint_vfmw
	mov	r3, r5
	ldrb	r2, [r6, #1]!	@ zero_extendqisi2
	mov	r0, #32
	ldr	r1, .L1141+60
	add	r5, r5, #1
	bl	dprint_vfmw
	ldrb	r3, [r4, #15]	@ zero_extendqisi2
	cmp	r3, r5
	bhi	.L1127
.L1128:
	ldrb	r2, [r4, #38]	@ zero_extendqisi2
	mov	r0, #32
	ldr	r1, .L1141+64
	bl	dprint_vfmw
	ldrb	r3, [r4, #38]	@ zero_extendqisi2
	cmp	r3, #0
	addne	r7, r4, #38
	addne	r6, r4, #45
	movne	r5, #0
	beq	.L1129
.L1130:
	mov	r3, r5
	ldrb	r2, [r7, #1]!	@ zero_extendqisi2
	ldr	r1, .L1141+68
	mov	r0, #32
	bl	dprint_vfmw
	mov	r3, r5
	ldrb	r2, [r6, #1]!	@ zero_extendqisi2
	mov	r0, #32
	ldr	r1, .L1141+72
	add	r5, r5, #1
	bl	dprint_vfmw
	ldrb	r3, [r4, #38]	@ zero_extendqisi2
	cmp	r3, r5
	bhi	.L1130
.L1129:
	movw	r2, #290
	ldr	r1, .L1141+76
	mov	r0, #32
	sub	sp, fp, #28
	ldmfd	sp, {r4, r5, r6, r7, fp, sp, lr}
	b	dprint_vfmw
.L1123:
	ldr	r1, .L1141+80
	bl	dprint_vfmw
	ldrb	r3, [r4, #10]	@ zero_extendqisi2
	cmp	r3, #0
	addne	r7, r4, #10
	addne	r6, r4, #78
	movne	r5, #0
	beq	.L1135
.L1134:
	mov	r2, r5
	ldrh	r3, [r7, #2]!
	ldr	r1, .L1141+84
	mov	r0, #32
	bl	dprint_vfmw
	ldrh	r3, [r6, #2]!
	mov	r2, r5
	ldr	r1, .L1141+88
	mov	r0, #32
	add	r5, r5, #1
	bl	dprint_vfmw
	ldrb	r3, [r4, #10]	@ zero_extendqisi2
	cmp	r3, r5
	bhi	.L1134
.L1135:
	ldrb	r2, [r4, #148]	@ zero_extendqisi2
	mov	r0, #32
	ldr	r1, .L1141+92
	bl	dprint_vfmw
	ldrb	r3, [r4, #148]	@ zero_extendqisi2
	cmp	r3, #0
	addne	r7, r4, #148
	addne	r6, r4, #216
	movne	r5, #0
	beq	.L1133
.L1136:
	mov	r3, r5
	ldrh	r2, [r7, #2]!
	ldr	r1, .L1141+96
	mov	r0, #32
	bl	dprint_vfmw
	mov	r3, r5
	ldrh	r2, [r6, #2]!
	mov	r0, #32
	ldr	r1, .L1141+100
	add	r5, r5, #1
	bl	dprint_vfmw
	ldrb	r3, [r4, #148]	@ zero_extendqisi2
	cmp	r3, r5
	bhi	.L1136
.L1133:
	movw	r3, #286
	ldr	r1, .L1141+104
	ldrh	r2, [r4, r3]
	add	r4, r4, #288
	mov	r0, #32
	bl	dprint_vfmw
	ldr	r1, .L1141+108
	ldrh	r2, [r4]
	mov	r0, #32
	bl	dprint_vfmw
	b	.L1129
.L1142:
	.align	2
.L1141:
	.word	.LC95
	.word	.LC96
	.word	.LC97
	.word	.LC98
	.word	.LC99
	.word	.LC100
	.word	.LC101
	.word	.LC102
	.word	.LC103
	.word	.LC104
	.word	.LC105
	.word	.LC106
	.word	.LC107
	.word	.LC108
	.word	.LC110
	.word	.LC111
	.word	.LC109
	.word	.LC112
	.word	.LC113
	.word	.LC122
	.word	.LC114
	.word	.LC116
	.word	.LC117
	.word	.LC115
	.word	.LC120
	.word	.LC121
	.word	.LC118
	.word	.LC119
	UNWIND(.fnend)
	.size	HEVC_PrintSLHDR1Info, .-HEVC_PrintSLHDR1Info
	.align	2
	.global	HEVC_GetSLHDR1Info
	.type	HEVC_GetSLHDR1Info, %function
HEVC_GetSLHDR1Info:
	UNWIND(.fnstart)
	@ args = 0, pretend = 0, frame = 296
	@ frame_needed = 1, uses_anonymous_args = 0
	UNWIND(.movsp ip)
	mov	ip, sp
	stmfd	sp!, {r4, r5, r6, r7, fp, ip, lr, pc}
	UNWIND(.pad #4)
	UNWIND(.save {r4, r5, r6, r7, fp, ip, lr})
	UNWIND(.setfp fp, ip, #-4)
	sub	fp, ip, #4
	UNWIND(.pad #312)
	sub	sp, sp, #312
	mov	r6, r1
	mov	r5, r0
	mov	r4, r2
	sub	r0, fp, #320
	movw	r2, #290
	mov	r1, #0
	bl	memset
	ldrb	r3, [r6, #1]	@ zero_extendqisi2
	cmp	r3, #0
	beq	.L1146
	ldrb	r2, [r4, #56]	@ zero_extendqisi2
	cmp	r2, #0
	bne	.L1189
.L1146:
	ldrb	r2, [r4, #56]	@ zero_extendqisi2
	ldrb	ip, [r4, #568]	@ zero_extendqisi2
	ldrb	r0, [r4, #59]	@ zero_extendqisi2
	ldrb	r1, [r4, #128]	@ zero_extendqisi2
.L1145:
	str	r1, [sp, #12]
	str	r0, [sp, #8]
	mov	r0, #22
	stmia	sp, {r2, ip}
	ldr	r1, .L1192
	ldr	r2, .L1192+4
	bl	dprint_vfmw
	mov	r3, #0
	strb	r3, [r5, #458]
.L1143:
	sub	sp, fp, #28
	ldmfd	sp, {r4, r5, r6, r7, fp, sp, pc}
.L1189:
	ldrb	ip, [r4, #568]	@ zero_extendqisi2
	cmp	ip, #0
	beq	.L1146
	ldrb	r1, [r4, #59]	@ zero_extendqisi2
	cmp	r1, #0
	bne	.L1147
	ldrb	r1, [r4, #128]	@ zero_extendqisi2
	cmp	r1, #0
	beq	.L1190
.L1147:
	mov	r3, #1
	strb	r3, [r5, #458]
	ldr	r0, [r6, #24]
	ldrb	r1, [r4, #57]	@ zero_extendqisi2
	ldrb	r2, [r4, #58]	@ zero_extendqisi2
	cmp	r0, #9
	strb	r1, [fp, #-320]
	strb	r2, [fp, #-319]
	bne	.L1149
	ldr	r2, [r6, #32]
	cmp	r2, #9
	streqb	r3, [fp, #-312]
.L1149:
	ldrb	r3, [r4, #60]	@ zero_extendqisi2
	cmp	r3, #1
	beq	.L1150
	ldrb	r2, [r4, #129]	@ zero_extendqisi2
	cmp	r2, #1
	beq	.L1150
	cmp	r2, #9
	cmpne	r3, #9
	ldrneb	r3, [fp, #-312]	@ zero_extendqisi2
	moveq	r3, #1
	strb	r3, [fp, #-318]
.L1150:
	mov	r1, r4
	sub	r0, fp, #320
	bl	HEVC_GetSLHDR1MasteringDisplayInfo
	ldrb	r3, [fp, #-318]	@ zero_extendqisi2
	ldrb	r2, [fp, #-312]	@ zero_extendqisi2
	cmp	r2, r3
	ldreqb	r3, [fp, #-317]	@ zero_extendqisi2
	movne	r3, #0
	strb	r3, [fp, #-311]
	ldrb	r3, [fp, #-319]	@ zero_extendqisi2
	cmp	r3, #0
	bne	.L1154
	ldrb	r7, [r4, #66]	@ zero_extendqisi2
	ldrb	lr, [r4, #61]	@ zero_extendqisi2
	ldrb	ip, [r4, #62]	@ zero_extendqisi2
	cmp	r7, #0
	ldrb	r0, [r4, #63]	@ zero_extendqisi2
	ldrb	r1, [r4, #64]	@ zero_extendqisi2
	ldrb	r2, [r4, #65]	@ zero_extendqisi2
	strb	r7, [fp, #-305]
	strb	lr, [fp, #-310]
	strb	ip, [fp, #-309]
	strb	r0, [fp, #-308]
	strb	r1, [fp, #-307]
	strb	r2, [fp, #-306]
	beq	.L1159
	sub	r2, fp, #320
	add	ip, r4, #66
	add	r0, r2, #15
	add	r1, r4, #81
	add	r2, r2, #26
.L1158:
	add	r3, r3, #1
	ldrb	r6, [ip, #1]!	@ zero_extendqisi2
	ldrb	lr, [r1, #1]!	@ zero_extendqisi2
	cmp	r3, r7
	strb	r6, [r0, #1]!
	strb	lr, [r2, #1]!
	bne	.L1158
.L1159:
	ldrb	r6, [r4, #97]	@ zero_extendqisi2
	cmp	r6, #0
	strb	r6, [fp, #-282]
	beq	.L1157
	sub	r1, fp, #280
	sub	r2, fp, #272
	add	r0, r4, #97
	sub	r1, r1, #2
	add	r4, r4, #112
	sub	r2, r2, #3
	mov	r3, #0
.L1162:
	add	r3, r3, #1
	ldrb	lr, [r0, #1]!	@ zero_extendqisi2
	ldrb	ip, [r4, #1]!	@ zero_extendqisi2
	cmp	r3, r6
	strb	lr, [r1, #1]!
	strb	ip, [r2, #1]!
	bne	.L1162
.L1157:
	ldr	r3, [r5, #464]
	cmp	r3, #0
	bne	.L1191
	ldr	r2, .L1192+4
	mov	r0, #1
	ldr	r1, .L1192+8
	bl	dprint_vfmw
	b	.L1143
.L1154:
	ldrb	r6, [r4, #168]	@ zero_extendqisi2
	ldr	r2, [r4, #136]
	add	r6, r6, #1
	ldr	r3, [r4, #140]
	uxtb	r6, r6
	strh	r2, [fp, #-34]	@ movhi
	cmp	r6, #0
	strh	r3, [fp, #-32]	@ movhi
	strb	r6, [fp, #-310]
	addne	r0, r4, #170
	addne	r1, r4, #368
	subne	r3, fp, #320
	movne	r2, #0
	beq	.L1166
.L1165:
	add	r2, r2, #1
	ldrh	lr, [r0, #2]!
	ldrh	ip, [r1, #2]!
	cmp	r2, r6
	add	r3, r3, #2
	strh	lr, [r3, #10]	@ movhi
	strh	ip, [r3, #78]	@ movhi
	bcc	.L1165
.L1166:
	ldrb	lr, [r4, #169]	@ zero_extendqisi2
	add	lr, lr, #1
	uxtb	lr, lr
	strb	lr, [fp, #-172]
	cmp	lr, #0
	beq	.L1157
	add	r1, r4, #432
	sub	r3, fp, #320
	add	r4, r4, #236
	add	r1, r1, #2
	mov	r2, #0
.L1167:
	add	r2, r2, #1
	ldrh	ip, [r4, #2]!
	ldrh	r0, [r1, #2]!
	cmp	r2, lr
	add	r3, r3, #2
	strh	ip, [r3, #148]	@ movhi
	strh	r0, [r3, #216]	@ movhi
	bcc	.L1167
	b	.L1157
.L1191:
	ldr	r3, .L1192+12
	sub	r1, fp, #320
	movw	r2, #290
	ldr	r0, [r5, #472]
	ldr	r3, [r3, #52]
	blx	r3
	movw	r3, #290
	str	r3, [r5, #460]
	b	.L1143
.L1190:
	mov	r0, r1
	b	.L1145
.L1193:
	.align	2
.L1192:
	.word	.LC123
	.word	.LANCHOR0+340
	.word	.LC124
	.word	vfmw_Osal_Func_Ptr_S
	UNWIND(.fnend)
	.size	HEVC_GetSLHDR1Info, .-HEVC_GetSLHDR1Info
	.align	2
	.global	HEVC_ConvertHDRInfo
	.type	HEVC_ConvertHDRInfo, %function
HEVC_ConvertHDRInfo:
	UNWIND(.fnstart)
	@ args = 0, pretend = 0, frame = 0
	@ frame_needed = 1, uses_anonymous_args = 0
	UNWIND(.movsp ip)
	mov	ip, sp
	stmfd	sp!, {r4, r5, r6, fp, ip, lr, pc}
	UNWIND(.pad #4)
	UNWIND(.save {r4, r5, r6, fp, ip, lr})
	UNWIND(.setfp fp, ip, #-4)
	sub	fp, ip, #4
	ldrb	r5, [r1]	@ zero_extendqisi2
	mov	r3, r0
	mov	ip, r2
	add	lr, r0, #484
	add	lr, lr, #2
	add	r4, r0, #492
	strb	r5, [r3, #480]
	mov	r0, r2
	ldr	r5, [r1, #24]
	mov	r2, #0
	strb	r5, [r3, #481]
	ldr	r5, [r1, #32]
	strb	r5, [r3, #482]
	ldr	r5, [r1, #28]
	str	r5, [r3, #484]
	ldrb	r5, [ip, #568]	@ zero_extendqisi2
	strb	r5, [r3, #456]
.L1195:
	ldr	r5, [r0, #572]
	add	r2, r2, #1
	cmp	r2, #3
	add	r0, r0, #4
	strh	r5, [lr, #2]!	@ movhi
	ldr	r5, [r0, #580]
	strh	r5, [r4, #2]!	@ movhi
	bne	.L1195
	ldr	r0, [ip, #596]
	add	lr, r3, #456
	movw	r5, #614
	add	r4, ip, #616
	mov	r2, ip
	strh	r0, [lr, #44]	@ movhi
	mov	r0, r3
	ldr	r6, [ip, #600]
	strh	r6, [lr, #46]	@ movhi
	ldr	lr, [ip, #604]
	str	lr, [r3, #504]
	ldr	lr, [ip, #608]
	str	lr, [r3, #508]
	ldrb	lr, [ip, #612]	@ zero_extendqisi2
	strb	lr, [r3, #457]
	ldrh	lr, [ip, r5]
	str	lr, [r3, #512]
	ldrh	lr, [r4]
	str	lr, [r3, #516]
	ldrb	ip, [ip, #618]	@ zero_extendqisi2
	strb	ip, [r3, #520]
	sub	sp, fp, #24
	ldmfd	sp, {r4, r5, r6, fp, sp, lr}
	b	HEVC_GetSLHDR1Info
	UNWIND(.fnend)
	.size	HEVC_ConvertHDRInfo, .-HEVC_ConvertHDRInfo
	.align	2
	.global	HEVC_AllocFrameStore
	.type	HEVC_AllocFrameStore, %function
HEVC_AllocFrameStore:
	UNWIND(.fnstart)
	@ args = 0, pretend = 0, frame = 0
	@ frame_needed = 1, uses_anonymous_args = 0
	UNWIND(.movsp ip)
	mov	ip, sp
	stmfd	sp!, {r4, r5, r6, r7, r8, r9, fp, ip, lr, pc}
	UNWIND(.pad #4)
	UNWIND(.save {r4, r5, r6, r7, r8, r9, fp, ip, lr})
	UNWIND(.setfp fp, ip, #-4)
	sub	fp, ip, #4
	add	r2, r0, #4096
	ldr	r3, [r0, #2336]
	mov	ip, #1888
	mov	r6, r0
	ldr	r2, [r2, #108]
	movw	r5, #12660
	ldr	r0, [r0, #2332]
	add	lr, r6, #12672
	mov	r1, #0
	add	lr, lr, #16
	mla	r3, ip, r2, r3
	mov	r7, r1
	ldr	r3, [r3, #32]
	strb	r1, [r6, #3473]
	mla	r5, r5, r3, r0
.L1202:
	ldr	r3, [lr, #48]
	cmp	r3, #0
	bne	.L1198
	cmp	lr, #0
	beq	.L1209
	ldr	r1, [r6, #2556]
	cmp	r1, #0
	beq	.L1209
	ldr	r2, [r6, #2576]
	cmp	r2, lr
	beq	.L1198
	add	r2, r6, #2576
	b	.L1200
.L1201:
	ldr	ip, [r2, #4]!
	cmp	ip, lr
	beq	.L1198
.L1200:
	add	r3, r3, #1
	cmp	r3, r1
	bne	.L1201
.L1209:
	mov	r3, #712
	add	r9, r6, #3536
	mla	r7, r3, r7, r6
	mov	r2, #101
	mov	r3, #1
	str	r2, [r6, #3512]
	strb	r3, [r6, #3473]
	mov	r2, #632
	add	r1, r7, #12736
	mov	r0, r9
	add	r1, r1, #32
	mov	r4, lr
	bl	memcpy
	add	r3, r7, #12672
	movw	r2, #12704
	str	r4, [r6, #3532]
	mov	r8, #0
	str	r8, [r6, #3688]
	str	r8, [r7, r2]
	strb	r8, [r3, #18]
	strb	r8, [r4]
	ldr	r3, [r6, #3532]
	str	r8, [r3, #60]
	ldr	r3, [r6, #3532]
	str	r8, [r3, #64]
	ldr	r3, [r6, #3532]
	str	r8, [r3, #52]
	ldrb	r1, [r6, #3473]	@ zero_extendqisi2
	cmp	r1, #1
	bne	.L1206
	ldr	r0, [r6, #252]
	bl	FSP_NewLogicFs
	mov	r7, r0
	mov	r1, r0
	ldr	r0, [r6, #252]
	bl	FSP_GetLogicFs
	mvn	r3, r7
	mov	r3, r3, lsr #31
	cmp	r0, #0
	mov	r4, r0
	moveq	r3, #0
	cmp	r3, #0
	beq	.L1204
	add	r1, r5, #2064
	add	r2, r6, #2848
	bl	HEVC_ConvertHDRInfo
	ldr	r3, [r6, #2372]
	ldr	r3, [r3, #28]
	cmp	r3, #25
	beq	.L1213
.L1205:
	ldr	r5, .L1214
	add	r1, r4, #40
	ldr	r0, [r6, #3532]
	mov	r2, #632
	ldr	r3, [r5, #52]
	add	r0, r0, #80
	blx	r3
	ldr	r1, [r6, #3532]
	ldr	r3, [r5, #52]
	mov	r0, r9
	add	r1, r1, #80
	mov	r2, #632
	blx	r3
	ldr	r3, [r6, #3532]
	mov	r0, #0
	str	r7, [r3, #28]
	ldrsb	r3, [r4, #4]
	str	r3, [r6, #3508]
	ldmfd	sp, {r4, r5, r6, r7, r8, r9, fp, sp, pc}
.L1198:
	add	r7, r7, #1
	add	lr, lr, #712
	cmp	r7, #20
	bne	.L1202
.L1206:
	ldr	r1, .L1214+4
	mov	r0, #0
	bl	dprint_vfmw
	mvn	r0, #0
	ldmfd	sp, {r4, r5, r6, r7, r8, r9, fp, sp, pc}
.L1213:
	ldr	r1, [r6, #2356]
	ldr	r5, [r4, #152]
	ldr	r3, [r4, #76]
	ldr	r2, [r1, #68]
	ldr	r1, [r1, #64]
	str	r8, [r4, #280]
	mul	r5, r5, r2
	str	r2, [r4, #112]
	str	r1, [r4, #108]
	str	r8, [r4, #284]
	add	r3, r5, r3
	str	r8, [r4, #288]
	str	r3, [r4, #80]
	mov	r0, r3
	str	r8, [r4, #292]
	str	r8, [r4, #296]
	bl	MEM_Phy2Vir
	ldr	r2, [r4, #60]
	ldr	r3, [r4, #156]
	add	r5, r5, r2
	str	r8, [r4, #556]
	str	r5, [r4, #64]
	add	r5, r5, r3
	str	r5, [r4, #72]
	str	r0, [r4, #552]
	b	.L1205
.L1204:
	strb	r3, [r6, #3473]
	mov	r0, r3
	ldr	r1, .L1214+8
	bl	dprint_vfmw
	mvn	r0, #0
	ldmfd	sp, {r4, r5, r6, r7, r8, r9, fp, sp, pc}
.L1215:
	.align	2
.L1214:
	.word	vfmw_Osal_Func_Ptr_S
	.word	.LC125
	.word	.LC126
	UNWIND(.fnend)
	.size	HEVC_AllocFrameStore, .-HEVC_AllocFrameStore
	.align	2
	.global	HEVC_IsVoFinish
	.type	HEVC_IsVoFinish, %function
HEVC_IsVoFinish:
	UNWIND(.fnstart)
	@ args = 0, pretend = 0, frame = 0
	@ frame_needed = 1, uses_anonymous_args = 0
	UNWIND(.movsp ip)
	mov	ip, sp
	stmfd	sp!, {r4, r5, fp, ip, lr, pc}
	UNWIND(.pad #4)
	UNWIND(.save {r4, r5, fp, ip, lr})
	UNWIND(.setfp fp, ip, #-4)
	sub	fp, ip, #4
	mov	r5, r0
	ldr	r0, [r0, #252]
	bl	FSP_GetFspType
	cmn	r0, #1
	mov	r4, r0
	movne	r4, #0
	bne	.L1220
	b	.L1223
.L1219:
	ldrsb	r3, [r0, #1]
	cmp	r3, #3
	beq	.L1221
	cmp	r4, #32
	beq	.L1224
.L1220:
	mov	r1, r4
	ldr	r0, [r5, #252]
	bl	FSP_GetLogicFs
	add	r4, r4, #1
	cmp	r0, #0
	bne	.L1219
	ldr	r1, .L1225
	mov	r0, #1
	bl	dprint_vfmw
	mvn	r0, #0
	ldmfd	sp, {r4, r5, fp, sp, pc}
.L1223:
	ldr	r1, .L1225+4
	mov	r0, #1
	bl	dprint_vfmw
	mov	r0, r4
	ldmfd	sp, {r4, r5, fp, sp, pc}
.L1221:
	mov	r0, #0
	ldmfd	sp, {r4, r5, fp, sp, pc}
.L1224:
	mov	r0, #1
	ldmfd	sp, {r4, r5, fp, sp, pc}
.L1226:
	.align	2
.L1225:
	.word	.LC128
	.word	.LC127
	UNWIND(.fnend)
	.size	HEVC_IsVoFinish, .-HEVC_IsVoFinish
	.align	2
	.global	HEVC_GetBackPicFromVOQueue
	.type	HEVC_GetBackPicFromVOQueue, %function
HEVC_GetBackPicFromVOQueue:
	UNWIND(.fnstart)
	@ args = 0, pretend = 0, frame = 0
	@ frame_needed = 1, uses_anonymous_args = 0
	UNWIND(.movsp ip)
	mov	ip, sp
	stmfd	sp!, {r4, r5, r6, r7, r8, r9, fp, ip, lr, pc}
	UNWIND(.pad #4)
	UNWIND(.save {r4, r5, r6, r7, r8, r9, fp, ip, lr})
	UNWIND(.setfp fp, ip, #-4)
	sub	fp, ip, #4
	mov	r8, r0
	add	r0, r0, #5504
	add	r0, r0, #24
	add	r5, r8, #13312
	bl	ResetVoQueue
	add	r9, r8, #27392
	add	r5, r5, #24
	add	r9, r9, #184
	mov	r6, #0
	mov	r7, #0
.L1230:
	sub	r4, r5, #32
	mov	r3, #0
	strb	r3, [r5, #-647]
	str	r3, [r5, #-600]
.L1229:
	ldr	r1, [r4, #8]!
	cmp	r1, #0
	beq	.L1228
	ldr	r0, [r8, #252]
	bl	FreeUsdByDec
	strd	r6, [r4]
.L1228:
	cmp	r4, r5
	bne	.L1229
	add	r5, r4, #712
	cmp	r5, r9
	bne	.L1230
	ldr	r2, [r8, #184]
	cmp	r2, #0
	ldmeqfd	sp, {r4, r5, r6, r7, r8, r9, fp, sp, pc}
	mov	r3, #0
	add	r8, r8, #2128
	mov	r1, r3
.L1232:
	add	r3, r3, #1
	str	r1, [r8, #4]!
	cmp	r3, r2
	bne	.L1232
	ldmfd	sp, {r4, r5, r6, r7, r8, r9, fp, sp, pc}
	UNWIND(.fnend)
	.size	HEVC_GetBackPicFromVOQueue, .-HEVC_GetBackPicFromVOQueue
	.align	2
	.global	HEVC_RemoveFrameStoreOutDPB
	.type	HEVC_RemoveFrameStoreOutDPB, %function
HEVC_RemoveFrameStoreOutDPB:
	UNWIND(.fnstart)
	@ args = 0, pretend = 0, frame = 0
	@ frame_needed = 1, uses_anonymous_args = 0
	UNWIND(.movsp ip)
	mov	ip, sp
	stmfd	sp!, {r4, r5, r6, r7, fp, ip, lr, pc}
	UNWIND(.pad #4)
	UNWIND(.save {r4, r5, r6, r7, fp, ip, lr})
	UNWIND(.setfp fp, ip, #-4)
	sub	fp, ip, #4
	add	r6, r0, r1, lsl #2
	mov	r7, #0
	mov	r4, r1
	mov	r5, r0
	ldr	r3, [r6, #2576]
	str	r7, [r3, #48]
	ldr	r3, [r6, #2576]
	ldr	r0, [r0, #252]
	ldr	r1, [r3, #28]
	bl	FSP_GetLogicFs
	cmp	r0, #0
	beq	.L1241
	ldrsb	r3, [r0, #1]
	cmp	r3, #3
	beq	.L1242
	ldr	r3, [r6, #2576]
	mov	r2, r7
	ldr	r0, [r5, #252]
	ldr	r1, [r3, #28]
	bl	FSP_SetDisplay
.L1242:
	ldr	r3, [r6, #2576]
	mov	r2, #0
	ldr	r0, [r5, #252]
	ldr	r1, [r3, #28]
	bl	FSP_SetRef
.L1241:
	ldr	r1, [r5, #2556]
	sub	r1, r1, #1
	cmp	r4, r1
	addls	r3, r4, #644
	addls	r3, r5, r3, lsl #2
	bhi	.L1245
.L1244:
	add	r4, r4, #1
	ldr	r2, [r3, #4]!
	cmp	r4, r1
	str	r2, [r3, #-4]
	bls	.L1244
.L1245:
	add	r3, r1, #644
	mov	r2, #0
	str	r2, [r5, r3, asl #2]
	str	r1, [r5, #2556]
	ldmfd	sp, {r4, r5, r6, r7, fp, sp, pc}
	UNWIND(.fnend)
	.size	HEVC_RemoveFrameStoreOutDPB, .-HEVC_RemoveFrameStoreOutDPB
	.align	2
	.global	HEVC_RemoveDummyFrame
	.type	HEVC_RemoveDummyFrame, %function
HEVC_RemoveDummyFrame:
	UNWIND(.fnstart)
	@ args = 0, pretend = 0, frame = 0
	@ frame_needed = 1, uses_anonymous_args = 0
	UNWIND(.movsp ip)
	mov	ip, sp
	stmfd	sp!, {r4, r5, r6, r7, fp, ip, lr, pc}
	UNWIND(.pad #4)
	UNWIND(.save {r4, r5, r6, r7, fp, ip, lr})
	UNWIND(.setfp fp, ip, #-4)
	sub	fp, ip, #4
	ldr	r3, [r0, #2556]
	mov	r5, r0
	cmp	r3, #0
	ldmeqfd	sp, {r4, r5, r6, r7, fp, sp, pc}
	mov	r7, #0
	mov	r4, r7
	mov	r6, r7
	b	.L1257
.L1256:
	ldr	r3, [r5, #2556]
	add	r4, r4, #1
	cmp	r4, r3
	mov	r7, r4
	bcs	.L1263
.L1257:
	add	r3, r4, #644
	ldr	r3, [r5, r3, asl #2]
	ldrb	r2, [r3]	@ zero_extendqisi2
	cmp	r2, #0
	beq	.L1256
	mov	r1, r7
	mov	r0, r5
	strb	r6, [r3]
	sub	r4, r4, #1
	bl	HEVC_RemoveApcStore
	mov	r1, r7
	mov	r0, r5
	bl	HEVC_RemoveFrameStoreOutDPB
	b	.L1256
.L1263:
	ldmfd	sp, {r4, r5, r6, r7, fp, sp, pc}
	UNWIND(.fnend)
	.size	HEVC_RemoveDummyFrame, .-HEVC_RemoveDummyFrame
	.align	2
	.global	HEVC_RemoveUnUsedFrameStore
	.type	HEVC_RemoveUnUsedFrameStore, %function
HEVC_RemoveUnUsedFrameStore:
	UNWIND(.fnstart)
	@ args = 0, pretend = 0, frame = 0
	@ frame_needed = 1, uses_anonymous_args = 0
	UNWIND(.movsp ip)
	mov	ip, sp
	stmfd	sp!, {r3, r4, r5, r6, r7, r8, r9, r10, fp, ip, lr, pc}
	UNWIND(.pad #4)
	UNWIND(.save {r3, r4, r5, r6, r7, r8, r9, r10, fp, ip, lr})
	UNWIND(.setfp fp, ip, #-4)
	sub	fp, ip, #4
	ldr	r5, [r0, #2556]
	mov	r7, r0
	cmp	r5, #0
	beq	.L1273
	mov	r6, #0
	mvn	r8, #0
	mov	r10, r6
	mov	r9, r6
	b	.L1272
.L1283:
	ldrsb	r3, [r0, #1]
	cmp	r3, #0
	cmpne	r3, #3
	ldr	r3, [r4, #2576]
	bne	.L1268
	ldr	r0, [r3, #52]
	cmp	r0, #1
	beq	.L1268
	str	r8, [r3, #28]
	mov	r2, #1
	ldr	r3, [r4, #2576]
	strb	r1, [r3, #1]
	ldr	r3, [r4, #2576]
	strb	r2, [r3, #2]
	ldr	r3, [r4, #2576]
.L1268:
	ldr	r3, [r3]
	bic	r3, r3, #-16777216
	bic	r3, r3, #255
	cmp	r3, #65536
	addne	r10, r10, #1
	beq	.L1282
	add	r9, r9, #1
	cmp	r9, r5
	beq	.L1265
.L1272:
	add	r4, r7, r10, lsl #2
	ldr	r0, [r7, #252]
	ldr	r3, [r4, #2576]
	ldr	r1, [r3, #28]
	bl	FSP_GetLogicFs
	cmp	r0, #0
	beq	.L1266
	ldrsb	r1, [r0]
	cmp	r1, #0
	beq	.L1283
	ldr	r3, [r4, #2576]
	b	.L1268
.L1266:
	ldr	r3, [r4, #2576]
	ldr	r1, [r3, #52]
	cmp	r1, #1
	beq	.L1268
	str	r8, [r3, #28]
	mov	r2, #1
	ldr	r3, [r4, #2576]
	strb	r0, [r3, #1]
	ldr	r3, [r4, #2576]
	strb	r2, [r3, #2]
	ldr	r3, [r4, #2576]
	b	.L1268
.L1282:
	mov	r1, r10
	mov	r0, r7
	add	r9, r9, #1
	bl	HEVC_RemoveFrameStoreOutDPB
	cmp	r9, r5
	mov	r6, #1
	bne	.L1272
.L1265:
	mov	r0, r6
	ldmfd	sp, {r3, r4, r5, r6, r7, r8, r9, r10, fp, sp, pc}
.L1273:
	mov	r6, r5
	b	.L1265
	UNWIND(.fnend)
	.size	HEVC_RemoveUnUsedFrameStore, .-HEVC_RemoveUnUsedFrameStore
	.align	2
	.global	HEVC_SimpleSlideDPB
	.type	HEVC_SimpleSlideDPB, %function
HEVC_SimpleSlideDPB:
	UNWIND(.fnstart)
	@ args = 0, pretend = 0, frame = 0
	@ frame_needed = 1, uses_anonymous_args = 0
	UNWIND(.movsp ip)
	mov	ip, sp
	stmfd	sp!, {r4, r5, fp, ip, lr, pc}
	UNWIND(.pad #4)
	UNWIND(.save {r4, r5, fp, ip, lr})
	UNWIND(.setfp fp, ip, #-4)
	sub	fp, ip, #4
	add	r3, r0, #12288
	mov	r4, r0
	ldr	r2, [r3, #204]
	ldr	r3, [r3, #200]
	cmp	r2, r3
	bcs	.L1288
	ldr	r3, [r0, #2552]
	ldr	r2, [r0, #2556]
	cmp	r2, r3
	ldmccfd	sp, {r4, r5, fp, sp, pc}
	cmp	r3, #15
	bls	.L1290
.L1288:
	ldr	r3, [r4, #2576]
	mov	r5, #0
	mov	r2, r5
	strb	r5, [r3, #1]
	ldr	r1, [r3, #28]
	ldr	r0, [r4, #252]
	bl	FSP_SetRef
	mov	r1, r5
	mov	r0, r4
	bl	HEVC_RemoveApcStore
	mov	r1, r5
	mov	r0, r4
	sub	sp, fp, #20
	ldmfd	sp, {r4, r5, fp, sp, lr}
	b	HEVC_RemoveFrameStoreOutDPB
.L1290:
	bl	HEVC_IncreaseDPBSize
	cmp	r0, #0
	bne	.L1288
	ldmfd	sp, {r4, r5, fp, sp, pc}
	UNWIND(.fnend)
	.size	HEVC_SimpleSlideDPB, .-HEVC_SimpleSlideDPB
	.align	2
	.global	HEVC_GetMinPOC
	.type	HEVC_GetMinPOC, %function
HEVC_GetMinPOC:
	UNWIND(.fnstart)
	@ args = 0, pretend = 0, frame = 0
	@ frame_needed = 1, uses_anonymous_args = 0
	UNWIND(.movsp ip)
	mov	ip, sp
	stmfd	sp!, {r4, r5, r6, r7, fp, ip, lr, pc}
	UNWIND(.pad #4)
	UNWIND(.save {r4, r5, r6, r7, fp, ip, lr})
	UNWIND(.setfp fp, ip, #-4)
	sub	fp, ip, #4
	mov	r7, r2
	mvn	r3, #-2147483648
	mov	r2, #0
	str	r2, [r7]
	str	r3, [r1]
	mov	r5, r1
	ldr	r2, [r0, #2556]
	mov	r6, r0
	ldr	r3, [r0, #2552]
	cmp	r2, r3
	bhi	.L1298
	cmp	r2, #0
	ldmeqfd	sp, {r4, r5, r6, r7, fp, sp, pc}
.L1299:
	add	lr, r6, #2560
	mov	r3, #0
	add	lr, lr, #12
.L1295:
	ldr	r2, [lr, #4]!
	ldr	r4, [r5]
	ldr	ip, [r2, #8]
	cmp	r4, ip
	strgt	ip, [r5]
	strgt	r3, [r7]
	add	r3, r3, #1
	ldr	ip, [r6, #2556]
	cmp	ip, r3
	bhi	.L1295
	ldmfd	sp, {r4, r5, r6, r7, fp, sp, pc}
.L1298:
	ldr	r1, .L1300
	mov	r0, #1
	bl	dprint_vfmw
	ldr	r2, [r6, #2552]
	cmp	r2, #0
	str	r2, [r6, #2556]
	bne	.L1299
	ldmfd	sp, {r4, r5, r6, r7, fp, sp, pc}
.L1301:
	.align	2
.L1300:
	.word	.LC129
	UNWIND(.fnend)
	.size	HEVC_GetMinPOC, .-HEVC_GetMinPOC
	.align	2
	.global	HEVC_GetReRangeFlag
	.type	HEVC_GetReRangeFlag, %function
HEVC_GetReRangeFlag:
	UNWIND(.fnstart)
	@ args = 4, pretend = 0, frame = 0
	@ frame_needed = 1, uses_anonymous_args = 0
	UNWIND(.movsp ip)
	mov	ip, sp
	stmfd	sp!, {r4, r5, r6, fp, ip, lr, pc}
	UNWIND(.pad #4)
	UNWIND(.save {r4, r5, r6, fp, ip, lr})
	UNWIND(.setfp fp, ip, #-4)
	sub	fp, ip, #4
	add	r3, r0, #4096
	ldr	r5, [r0, #2336]
	mov	r6, #1888
	movw	r4, #12660
	ldr	ip, [r3, #108]
	ldr	r3, [r0, #2332]
	ldr	lr, [fp, #4]
	mla	ip, r6, ip, r5
	ldr	ip, [ip, #32]
	mla	r3, r4, ip, r3
	ldr	ip, [r3, #64]
	ldr	r3, [r3, #68]
	cmp	r1, ip
	cmpeq	lr, #0
	bne	.L1306
	cmp	r2, r3
	beq	.L1307
.L1306:
	mov	r0, #1
	ldmfd	sp, {r4, r5, r6, fp, sp, pc}
.L1307:
	ldr	r3, [r0, #172]
	cmp	r3, #0
	beq	.L1306
	ldr	r3, [r0, #2372]
	ldr	r0, [r3, #904]
	adds	r0, r0, #0
	movne	r0, #1
	ldmfd	sp, {r4, r5, r6, fp, sp, pc}
	UNWIND(.fnend)
	.size	HEVC_GetReRangeFlag, .-HEVC_GetReRangeFlag
	.align	2
	.global	HEVC_CalcStreamBits
	.type	HEVC_CalcStreamBits, %function
HEVC_CalcStreamBits:
	UNWIND(.fnstart)
	@ args = 0, pretend = 0, frame = 0
	@ frame_needed = 1, uses_anonymous_args = 0
	UNWIND(.movsp ip)
	mov	ip, sp
	stmfd	sp!, {r4, fp, ip, lr, pc}
	UNWIND(.pad #4)
	UNWIND(.save {r4, fp, ip, lr})
	UNWIND(.setfp fp, ip, #-4)
	sub	fp, ip, #4
	ldr	r4, [r0, #2344]
	ldrb	ip, [r4]	@ zero_extendqisi2
	cmp	ip, #0
	beq	.L1319
	mov	r3, #0
	mov	r2, r4
	mov	lr, r3
.L1310:
	add	r3, r3, #1
	ldr	r1, [r2, #44]
	cmp	r3, ip
	add	r2, r2, #28
	add	lr, lr, r1
	bne	.L1310
.L1309:
	ldr	r2, [r0, #2324]
	mov	r3, ip, asl #5
	sub	ip, r3, ip, asl #2
	add	r4, r4, ip
	ldr	r3, [r2, #24]
	and	r3, r3, #7
	str	r3, [r4, #56]
	ldr	r2, [r0, #2344]
	ldr	r3, [r0, #2324]
	ldrb	r1, [r2]	@ zero_extendqisi2
	ldr	ip, [r3, #24]
	mov	r3, r1, asl #5
	sub	r3, r3, r1, asl #2
	add	r3, r2, r3
	ldr	r2, [r3, #48]
	add	r2, r2, ip, lsr #3
	rsb	r2, lr, r2
	str	r2, [r3, #60]
	ldr	r1, [r0, #2344]
	ldr	r3, [r0, #2324]
	ldrb	r2, [r1]	@ zero_extendqisi2
	ldr	ip, [r3, #24]
	mov	r3, r2, asl #5
	sub	r2, r3, r2, asl #2
	add	r2, r1, r2
	ldr	r3, [r2, #44]
	add	r3, lr, r3
	rsb	r3, ip, r3, lsl #3
	str	r3, [r2, #52]
	ldr	r2, [r0, #2344]
	ldrb	r1, [r2]	@ zero_extendqisi2
	mov	r3, r1, asl #5
	sub	r3, r3, r1, asl #2
	add	r3, r2, r3
	ldr	r2, [r3, #60]
	ldr	r1, [r3, #56]
	and	r2, r2, #3
	add	r2, r1, r2, lsl #3
	str	r2, [r3, #56]
	ldr	r2, [r0, #2344]
	ldrb	r1, [r2]	@ zero_extendqisi2
	mov	r3, r1, asl #5
	sub	r3, r3, r1, asl #2
	add	r3, r2, r3
	ldr	r2, [r3, #60]
	bic	r2, r2, #3
	str	r2, [r3, #60]
	ldr	r1, [r0, #2344]
	ldr	r2, [r1, #8]
	sub	r3, r2, #1
	cmp	r3, #1
	bhi	.L1326
	ldrb	ip, [r1]	@ zero_extendqisi2
	add	lr, ip, #1
	cmp	r2, lr
	movhi	r2, #1
	movls	r2, #0
	cmp	lr, #1
	movhi	r2, #0
	cmp	r2, #0
	beq	.L1312
	add	ip, ip, #2
	mov	lr, #0
.L1313:
	sub	r3, ip, #1
	mov	r2, r3, asl #5
	sub	r3, r2, r3, asl #2
	add	r1, r1, r3
	str	lr, [r1, #56]
	ldr	r2, [r0, #2344]
	add	r2, r2, r3
	ldr	r1, [r2, #48]
	str	r1, [r2, #60]
	ldr	r2, [r0, #2344]
	add	r2, r2, r3
	ldr	r1, [r2, #44]
	mov	r1, r1, asl #3
	str	r1, [r2, #52]
	ldr	r2, [r0, #2344]
	add	r2, r2, r3
	ldr	r1, [r2, #60]
	ldr	r4, [r2, #56]
	and	r1, r1, #15
	add	r1, r4, r1, lsl #3
	str	r1, [r2, #56]
	ldr	r2, [r0, #2344]
	add	r3, r2, r3
	ldr	r2, [r3, #60]
	bic	r2, r2, #15
	str	r2, [r3, #60]
	ldr	r1, [r0, #2344]
	ldr	r3, [r1, #8]
	cmp	ip, #1
	cmpls	ip, r3
	add	ip, ip, #1
	movcc	r2, #1
	movcs	r2, #0
	cmp	r2, #0
	bne	.L1313
	sub	r3, r3, #1
.L1312:
	mov	r2, r3, asl #5
	ldr	ip, [r1, #12]
	sub	r3, r2, r3, asl #2
	add	r1, r1, r3
	ldr	r3, [r1, #52]
	rsb	r3, ip, r3
	str	r3, [r1, #52]
	ldr	lr, [r0, #2344]
	ldrb	r2, [lr]	@ zero_extendqisi2
	ldr	r3, [lr, #8]
	cmp	r2, r3
	ldmcsfd	sp, {r4, fp, sp, pc}
	sxth	r1, r2
	mov	r3, r1, asl #5
	sub	r3, r3, r1, asl #2
	add	r3, lr, r3
.L1317:
	ldr	r1, [r3, #60]
	add	r2, r2, #1
	ldr	ip, [r0, #3504]
	add	r3, r3, #28
	cmp	r1, ip
	strcc	r1, [r0, #3504]
	ldr	r1, [lr, #8]
	cmp	r1, r2
	bhi	.L1317
	ldmfd	sp, {r4, fp, sp, pc}
.L1326:
	ldr	r1, .L1327
	mov	r0, #0
	sub	sp, fp, #16
	ldmia	sp, {r4, fp, sp, lr}
	b	dprint_vfmw
.L1319:
	mov	lr, ip
	b	.L1309
.L1328:
	.align	2
.L1327:
	.word	.LC130
	UNWIND(.fnend)
	.size	HEVC_CalcStreamBits, .-HEVC_CalcStreamBits
	.align	2
	.global	HEVC_VpsSpsPpsCheck
	.type	HEVC_VpsSpsPpsCheck, %function
HEVC_VpsSpsPpsCheck:
	UNWIND(.fnstart)
	@ args = 0, pretend = 0, frame = 0
	@ frame_needed = 1, uses_anonymous_args = 0
	UNWIND(.movsp ip)
	mov	ip, sp
	stmfd	sp!, {fp, ip, lr, pc}
	UNWIND(.pad #4)
	UNWIND(.save {fp, ip, lr})
	UNWIND(.setfp fp, ip, #-4)
	sub	fp, ip, #4
	add	r2, r0, #4096
	ldr	r3, [r0, #164]
	ldr	r2, [r2, #108]
	cmp	r2, r3
	bge	.L1337
	mov	r3, #1888
	ldr	r1, [r0, #2336]
	mul	r3, r3, r2
	add	ip, r1, r3
	ldrb	r3, [r1, r3]	@ zero_extendqisi2
	cmp	r3, #0
	beq	.L1338
	ldr	r2, [ip, #32]
	ldr	r3, [r0, #160]
	cmp	r2, r3
	bge	.L1339
	ldr	r1, [r0, #2332]
	movw	r3, #12660
	mla	r3, r3, r2, r1
	ldrb	r1, [r3, #1]	@ zero_extendqisi2
	cmp	r1, #0
	beq	.L1340
	ldr	r2, [r3, #48]
	ldr	r3, [r0, #156]
	cmp	r2, r3
	bcs	.L1341
	ldr	r1, [r0, #2328]
	mov	r3, r2, asl #7
	add	r3, r3, r2, lsl #2
	ldrb	r3, [r1, r3]	@ zero_extendqisi2
	cmp	r3, #0
	beq	.L1342
	mov	r0, #0
	ldmfd	sp, {fp, sp, pc}
.L1337:
	ldr	r1, .L1343
	mov	r0, #1
	bl	dprint_vfmw
	mvn	r0, #0
	ldmfd	sp, {fp, sp, pc}
.L1338:
	ldr	r1, .L1343+4
	mov	r0, #1
	bl	dprint_vfmw
	mvn	r0, #0
	ldmfd	sp, {fp, sp, pc}
.L1339:
	ldr	r1, .L1343+8
	mov	r0, #1
	bl	dprint_vfmw
	mvn	r0, #0
	ldmfd	sp, {fp, sp, pc}
.L1340:
	ldr	r1, .L1343+12
	mov	r0, #1
	bl	dprint_vfmw
	mvn	r0, #0
	ldmfd	sp, {fp, sp, pc}
.L1341:
	ldr	r1, .L1343+16
	mov	r0, #1
	bl	dprint_vfmw
	mvn	r0, #0
	ldmfd	sp, {fp, sp, pc}
.L1342:
	ldr	r1, .L1343+20
	mov	r0, #1
	bl	dprint_vfmw
	mvn	r0, #0
	ldmfd	sp, {fp, sp, pc}
.L1344:
	.align	2
.L1343:
	.word	.LC131
	.word	.LC132
	.word	.LC133
	.word	.LC134
	.word	.LC135
	.word	.LC136
	UNWIND(.fnend)
	.size	HEVC_VpsSpsPpsCheck, .-HEVC_VpsSpsPpsCheck
	.align	2
	.global	HEVC_IsNewPic
	.type	HEVC_IsNewPic, %function
HEVC_IsNewPic:
	UNWIND(.fnstart)
	@ args = 0, pretend = 0, frame = 0
	@ frame_needed = 1, uses_anonymous_args = 0
	UNWIND(.movsp ip)
	mov	ip, sp
	stmfd	sp!, {r4, r5, r6, r7, fp, ip, lr, pc}
	UNWIND(.pad #4)
	UNWIND(.save {r4, r5, r6, r7, fp, ip, lr})
	UNWIND(.setfp fp, ip, #-4)
	sub	fp, ip, #4
	UNWIND(.pad #16)
	sub	sp, sp, #16
	add	r1, r0, #4096
	ldr	ip, [r0, #2344]
	ldr	r2, [r1, #104]
	ldr	r3, [ip, #16]
	add	r4, r0, r2, lsl #2
	sub	r5, r3, #16
	ldr	lr, [r4, #228]
	cmn	lr, #-2147483647
	beq	.L1379
	cmp	r3, #21
	cmpne	r5, #2
	bls	.L1375
.L1359:
	sub	r3, r3, #19
	cmp	r3, #1
	movls	lr, #-2147483647
	strls	lr, [r4, #228]
.L1375:
	ldr	r5, [r1, #84]
	cmp	r5, lr
	bge	.L1349
	ldr	r3, [ip, #16]
	sub	r6, r3, #8
	cmp	r6, #1
	addhi	r2, r0, r2
	bls	.L1380
.L1352:
	ldrb	lr, [r2, #10]	@ zero_extendqisi2
	cmp	lr, #0
	beq	.L1353
	ldr	r6, [r4, #232]
	cmp	r5, r6
	blt	.L1381
.L1353:
	ldrb	r3, [r1, #73]	@ zero_extendqisi2
	cmp	r3, #0
	bne	.L1354
	ldr	ip, [ip, #16]
	sub	lr, ip, #19
	cmp	lr, #1
	bls	.L1376
	cmp	ip, #21
	beq	.L1376
	sub	ip, ip, #16
	cmp	ip, #2
	strls	r5, [r4, #232]
	movls	r3, #1
	strlsb	r3, [r2, #10]
.L1354:
	ldr	r2, [r0, #236]
	ldrb	r3, [r1, #72]	@ zero_extendqisi2
	cmp	r2, #0
	ldr	r2, [r1, #108]
	beq	.L1358
	ldr	r1, [r0, #208]
	cmp	r2, r1
	movne	r3, #1
.L1358:
	ldr	r1, [r0, #296]
	cmp	r1, r2
	movne	r0, #1
	beq	.L1382
.L1373:
	sub	sp, fp, #28
	ldmfd	sp, {r4, r5, r6, r7, fp, sp, pc}
.L1379:
	cmp	r5, #5
	bhi	.L1377
	cmp	r3, #21
	cmpne	r5, #2
	bhi	.L1359
	ldr	r5, [r1, #84]
	str	r5, [r4, #228]
.L1349:
	add	r2, r0, r2
	ldrb	lr, [r2, #5]	@ zero_extendqisi2
	cmp	lr, #0
	beq	.L1352
	ldr	r3, [ip, #16]
	sub	r6, r3, #8
	cmp	r6, #1
	bhi	.L1352
	str	r3, [sp, #8]
	mov	r0, #1
	movw	r3, #12854
	str	lr, [sp, #4]
	str	r5, [sp]
	ldr	r2, .L1383
	ldr	r1, .L1383+4
	bl	dprint_vfmw
	mov	r0, #2
	b	.L1373
.L1381:
	ldr	r3, [ip, #16]
	sub	r7, r3, #8
	cmp	r7, #1
	bhi	.L1353
	str	r3, [sp, #12]
	mov	r0, #1
	movw	r3, #12863
	str	r6, [sp, #8]
	str	r5, [sp, #4]
	str	lr, [sp]
	ldr	r2, .L1383
	ldr	r1, .L1383+8
	bl	dprint_vfmw
.L1377:
	mov	r0, #2
	sub	sp, fp, #28
	ldmfd	sp, {r4, r5, r6, r7, fp, sp, pc}
.L1376:
	str	r5, [r4, #232]
	strb	r3, [r2, #10]
	b	.L1354
.L1382:
	ldr	r0, [r0, #260]
	cmp	r5, r0
	moveq	r0, r3
	movne	r0, #1
	sub	sp, fp, #28
	ldmfd	sp, {r4, r5, r6, r7, fp, sp, pc}
.L1380:
	str	r3, [sp, #8]
	mov	r0, #1
	movw	r3, #12847
	str	lr, [sp, #4]
	str	r5, [sp]
	ldr	r2, .L1383
	ldr	r1, .L1383+12
	bl	dprint_vfmw
	mov	r0, #2
	b	.L1373
.L1384:
	.align	2
.L1383:
	.word	.LANCHOR0+360
	.word	.LC138
	.word	.LC139
	.word	.LC137
	UNWIND(.fnend)
	.size	HEVC_IsNewPic, .-HEVC_IsNewPic
	.align	2
	.global	HEVC_ReadByteAlignment
	.type	HEVC_ReadByteAlignment, %function
HEVC_ReadByteAlignment:
	UNWIND(.fnstart)
	@ args = 0, pretend = 0, frame = 0
	@ frame_needed = 1, uses_anonymous_args = 0
	UNWIND(.movsp ip)
	mov	ip, sp
	stmfd	sp!, {r4, r5, fp, ip, lr, pc}
	UNWIND(.pad #4)
	UNWIND(.save {r4, r5, fp, ip, lr})
	UNWIND(.setfp fp, ip, #-4)
	sub	fp, ip, #4
	mov	r1, #1
	mov	r4, r0
	ldr	r0, [r0, #2324]
	bl	BsGet
	cmp	r0, #0
	beq	.L1390
	ldr	r0, [r4, #2324]
	bl	BsBitsToNextByte
	subs	r1, r0, #0
	beq	.L1389
	ldr	r0, [r4, #2324]
	bl	BsGet
	ldr	r1, .L1391
	mov	r2, r0
	mov	r0, #19
	bl	dprint_vfmw
.L1389:
	mov	r0, #0
	ldmfd	sp, {r4, r5, fp, sp, pc}
.L1390:
	ldr	r1, .L1391+4
	mov	r0, #1
	bl	dprint_vfmw
	mvn	r0, #0
	ldmfd	sp, {r4, r5, fp, sp, pc}
.L1392:
	.align	2
.L1391:
	.word	.LC141
	.word	.LC140
	UNWIND(.fnend)
	.size	HEVC_ReadByteAlignment, .-HEVC_ReadByteAlignment
	.align	2
	.global	HEVC_GetRapPicFlag
	.type	HEVC_GetRapPicFlag, %function
HEVC_GetRapPicFlag:
	UNWIND(.fnstart)
	@ args = 0, pretend = 0, frame = 0
	@ frame_needed = 1, uses_anonymous_args = 0
	UNWIND(.movsp ip)
	mov	ip, sp
	stmfd	sp!, {fp, ip, lr, pc}
	UNWIND(.pad #4)
	UNWIND(.save {fp, ip, lr})
	UNWIND(.setfp fp, ip, #-4)
	sub	fp, ip, #4
	add	r0, r0, #4096
	ldr	r0, [r0, #100]
	sub	r0, r0, #16
	cmp	r0, #5
	movhi	r0, #0
	movls	r0, #1
	ldmfd	sp, {fp, sp, pc}
	UNWIND(.fnend)
	.size	HEVC_GetRapPicFlag, .-HEVC_GetRapPicFlag
	.align	2
	.global	HEVC_GetIdrPicFlag
	.type	HEVC_GetIdrPicFlag, %function
HEVC_GetIdrPicFlag:
	UNWIND(.fnstart)
	@ args = 0, pretend = 0, frame = 0
	@ frame_needed = 1, uses_anonymous_args = 0
	UNWIND(.movsp ip)
	mov	ip, sp
	stmfd	sp!, {fp, ip, lr, pc}
	UNWIND(.pad #4)
	UNWIND(.save {fp, ip, lr})
	UNWIND(.setfp fp, ip, #-4)
	sub	fp, ip, #4
	add	r0, r0, #4096
	ldr	r0, [r0, #100]
	sub	r0, r0, #19
	cmp	r0, #1
	movhi	r0, #0
	movls	r0, #1
	ldmfd	sp, {fp, sp, pc}
	UNWIND(.fnend)
	.size	HEVC_GetIdrPicFlag, .-HEVC_GetIdrPicFlag
	.align	2
	.global	HEVC_DecPTL
	.type	HEVC_DecPTL, %function
HEVC_DecPTL:
	UNWIND(.fnstart)
	@ args = 0, pretend = 0, frame = 48
	@ frame_needed = 1, uses_anonymous_args = 0
	UNWIND(.movsp ip)
	mov	ip, sp
	stmfd	sp!, {r4, r5, r6, r7, r8, r9, r10, fp, ip, lr, pc}
	UNWIND(.pad #4)
	UNWIND(.save {r4, r5, r6, r7, r8, r9, r10, fp, ip, lr})
	UNWIND(.setfp fp, ip, #-4)
	sub	fp, ip, #4
	UNWIND(.pad #52)
	sub	sp, sp, #52
	subs	r8, r2, #0
	mov	r9, r1
	mov	r5, r0
	mov	r6, r3
	moveq	r1, #8
	bne	.L1432
.L1430:
	ldr	r0, [r5, #2324]
	bl	BsGet
	cmp	r6, #0
	str	r0, [r9, #4]
	ble	.L1401
	sub	r3, fp, #84
	sub	r7, fp, #92
	add	r10, r3, r6
	mov	r4, r3
	mov	r9, r7
.L1402:
	mov	r1, #1
	ldr	r0, [r5, #2324]
	bl	BsGet
	mov	r1, #1
	strb	r0, [r4], #1
	ldr	r0, [r5, #2324]
	bl	BsGet
	cmp	r4, r10
	strb	r0, [r9], #1
	bne	.L1402
	cmp	r6, #7
	movle	r4, r6
	ble	.L1406
	b	.L1412
.L1405:
	cmp	r4, #8
	beq	.L1412
.L1406:
	mov	r1, #2
	ldr	r0, [r5, #2324]
	bl	BsGet
	add	r4, r4, #1
	cmp	r0, #0
	beq	.L1405
	ldr	r1, .L1434
	mov	r0, #1
	bl	dprint_vfmw
	mvn	r0, #0
	sub	sp, fp, #40
	ldmfd	sp, {r4, r5, r6, r7, r8, r9, r10, fp, sp, pc}
.L1401:
	mov	r0, #0
	sub	sp, fp, #40
	ldmfd	sp, {r4, r5, r6, r7, r8, r9, r10, fp, sp, pc}
.L1412:
	mov	r10, #0
	b	.L1410
.L1409:
	add	r10, r10, #1
	cmp	r6, r10
	ble	.L1401
.L1410:
	cmp	r8, #0
	beq	.L1407
	sub	r3, fp, #84
	ldrb	r3, [r3, r10]	@ zero_extendqisi2
	cmp	r3, #0
	bne	.L1433
.L1407:
	ldrb	r3, [r7, r10]	@ zero_extendqisi2
	cmp	r3, #0
	beq	.L1409
	mov	r1, #8
	ldr	r0, [r5, #2324]
	bl	BsGet
	b	.L1409
.L1433:
	mov	r1, #2
	ldr	r0, [r5, #2324]
	bl	BsGet
	mov	r1, #1
	ldr	r0, [r5, #2324]
	mov	r4, #32
	bl	BsGet
	mov	r1, #5
	ldr	r0, [r5, #2324]
	bl	BsGet
.L1408:
	mov	r1, #1
	ldr	r0, [r5, #2324]
	bl	BsGet
	subs	r4, r4, #1
	bne	.L1408
	mov	r1, #1
	ldr	r0, [r5, #2324]
	bl	BsGet
	mov	r1, #1
	ldr	r0, [r5, #2324]
	bl	BsGet
	mov	r1, #1
	ldr	r0, [r5, #2324]
	bl	BsGet
	mov	r1, #1
	ldr	r0, [r5, #2324]
	bl	BsGet
	mov	r1, #16
	ldr	r0, [r5, #2324]
	bl	BsGet
	mov	r1, #16
	ldr	r0, [r5, #2324]
	bl	BsGet
	mov	r1, #12
	ldr	r0, [r5, #2324]
	bl	BsGet
	b	.L1407
.L1432:
	mov	r1, #2
	ldr	r0, [r0, #2324]
	bl	BsGet
	mov	r1, #1
	ldr	r0, [r5, #2324]
	sub	r4, fp, #77
	bl	BsGet
	mov	r1, #5
	ldr	r0, [r5, #2324]
	sub	r7, fp, #45
	bl	BsGet
	mov	r10, r0
.L1397:
	mov	r1, #1
	ldr	r0, [r5, #2324]
	bl	BsGet
	strb	r0, [r4, #1]!
	cmp	r4, r7
	bne	.L1397
	mov	r1, #1
	ldr	r0, [r5, #2324]
	bl	BsGet
	mov	r1, #1
	strb	r0, [r9]
	ldr	r0, [r5, #2324]
	bl	BsGet
	mov	r1, #1
	strb	r0, [r9, #1]
	ldr	r0, [r5, #2324]
	bl	BsGet
	mov	r1, #1
	ldr	r0, [r5, #2324]
	bl	BsGet
	sub	r3, r10, #4
	cmp	r3, #3
	bls	.L1398
	ldrb	r3, [fp, #-72]	@ zero_extendqisi2
	cmp	r3, #0
	bne	.L1398
	ldrb	r3, [fp, #-71]	@ zero_extendqisi2
	cmp	r3, #0
	bne	.L1398
	ldrb	r3, [fp, #-70]	@ zero_extendqisi2
	cmp	r3, #0
	bne	.L1398
	ldrb	r3, [fp, #-69]	@ zero_extendqisi2
	cmp	r3, #0
	bne	.L1398
	mov	r1, #16
	ldr	r0, [r5, #2324]
	bl	BsGet
	mov	r1, #16
	ldr	r0, [r5, #2324]
	bl	BsGet
	mov	r1, #11
	ldr	r0, [r5, #2324]
	bl	BsGet
	b	.L1400
.L1398:
	mov	r1, #1
	ldr	r0, [r5, #2324]
	bl	BsGet
	mov	r1, #1
	ldr	r0, [r5, #2324]
	bl	BsGet
	mov	r1, #1
	ldr	r0, [r5, #2324]
	bl	BsGet
	mov	r1, #1
	ldr	r0, [r5, #2324]
	bl	BsGet
	mov	r1, #1
	ldr	r0, [r5, #2324]
	bl	BsGet
	mov	r1, #1
	ldr	r0, [r5, #2324]
	bl	BsGet
	mov	r1, #1
	ldr	r0, [r5, #2324]
	bl	BsGet
	mov	r1, #1
	ldr	r0, [r5, #2324]
	bl	BsGet
	mov	r1, #1
	ldr	r0, [r5, #2324]
	bl	BsGet
	mov	r1, #16
	ldr	r0, [r5, #2324]
	bl	BsGet
	mov	r1, #16
	ldr	r0, [r5, #2324]
	bl	BsGet
	mov	r1, #2
	ldr	r0, [r5, #2324]
	bl	BsGet
.L1400:
	mov	r1, #1
	ldr	r0, [r5, #2324]
	bl	BsGet
	ldrb	r2, [fp, #-75]	@ zero_extendqisi2
	ldrb	r3, [fp, #-74]	@ zero_extendqisi2
	mov	r1, #8
	str	r10, [r5, #300]
	str	r2, [r5, #304]
	str	r3, [r5, #308]
	b	.L1430
.L1435:
	.align	2
.L1434:
	.word	.LC142
	UNWIND(.fnend)
	.size	HEVC_DecPTL, .-HEVC_DecPTL
	.align	2
	.global	HEVC_SetDefaultScalingList
	.type	HEVC_SetDefaultScalingList, %function
HEVC_SetDefaultScalingList:
	UNWIND(.fnstart)
	@ args = 0, pretend = 0, frame = 8
	@ frame_needed = 1, uses_anonymous_args = 0
	UNWIND(.movsp ip)
	mov	ip, sp
	stmfd	sp!, {r4, r5, r6, r7, r8, r9, r10, fp, ip, lr, pc}
	UNWIND(.pad #4)
	UNWIND(.save {r4, r5, r6, r7, r8, r9, r10, fp, ip, lr})
	UNWIND(.setfp fp, ip, #-4)
	sub	fp, ip, #4
	UNWIND(.pad #12)
	sub	sp, sp, #12
	ldr	r9, .L1454
	add	r10, r0, #2208
	mov	r6, #0
	add	r3, r0, #2224
	str	r0, [fp, #-52]
	str	r3, [fp, #-48]
.L1437:
	ldr	r3, [r10, #4]!
	cmp	r3, #0
	beq	.L1445
	ldr	r3, [fp, #-52]
	mov	r8, r6, asl #9
	ldr	r7, [fp, #-48]
	sub	r8, r8, r6, asl #7
	add	r5, r3, #596
	mov	r4, #0
.L1443:
	cmp	r6, #0
	add	r0, r5, r8
	mov	r2, #64
	ldr	r3, [r9, #52]
	beq	.L1452
	cmp	r6, #3
	beq	.L1453
	ldr	ip, .L1454+4
	cmp	r4, #2
	ldr	r1, .L1454+8
	movhi	r1, ip
	blx	r3
.L1439:
	mov	r3, #16
	str	r3, [r7, #4]!
	ldr	r3, [r10]
	add	r4, r4, #1
	add	r5, r5, #64
	cmp	r3, r4
	bhi	.L1443
.L1445:
	add	r6, r6, #1
	ldr	r3, [fp, #-48]
	cmp	r6, #4
	add	r3, r3, #24
	str	r3, [fp, #-48]
	bne	.L1437
	sub	sp, fp, #40
	ldmfd	sp, {r4, r5, r6, r7, r8, r9, r10, fp, sp, pc}
.L1452:
	mov	r2, #16
	ldr	r1, .L1454+12
	mov	r0, r5
	blx	r3
	b	.L1439
.L1453:
	ldr	r0, .L1454+4
	cmp	r4, #0
	ldr	r1, .L1454+8
	mov	r2, #64
	movne	r1, r0
	add	r0, r5, #1152
	blx	r3
	b	.L1439
.L1455:
	.align	2
.L1454:
	.word	vfmw_Osal_Func_Ptr_S
	.word	.LANCHOR0+376
	.word	.LANCHOR4
	.word	.LANCHOR0+440
	UNWIND(.fnend)
	.size	HEVC_SetDefaultScalingList, .-HEVC_SetDefaultScalingList
	.align	2
	.global	HEVC_CalScalingList
	.type	HEVC_CalScalingList, %function
HEVC_CalScalingList:
	UNWIND(.fnstart)
	@ args = 0, pretend = 0, frame = 0
	@ frame_needed = 1, uses_anonymous_args = 0
	UNWIND(.movsp ip)
	mov	ip, sp
	stmfd	sp!, {r4, r5, r6, r7, r8, r9, fp, ip, lr, pc}
	UNWIND(.pad #4)
	UNWIND(.save {r4, r5, r6, r7, r8, r9, fp, ip, lr})
	UNWIND(.setfp fp, ip, #-4)
	sub	fp, ip, #4
	add	lr, r0, r2, lsl #2
	mov	ip, r2, asl #3
	sub	r2, ip, r2, asl #1
	mov	r5, #0
	ldr	r7, [lr, #324]
	add	r3, r3, r2
	cmp	r7, #64
	mov	r6, r3, asl #4
	movcs	r7, #64
	mov	r8, r7, lsr #2
.L1457:
	cmp	r5, r8
	ldmcsfd	sp, {r4, r5, r6, r7, r8, r9, fp, sp, pc}
	cmp	r7, #0
	beq	.L1457
	add	r3, r5, r6
	ldrb	ip, [r1]	@ zero_extendqisi2
	mov	r4, r1
	mov	r2, #0
	add	r3, r0, r3, lsl #2
	ldr	lr, [r3, #596]
	orr	ip, lr, ip
	str	ip, [r3, #596]
.L1463:
	add	r2, r2, #1
	add	r3, r5, r6
	and	lr, r2, #3
	cmp	r2, r7
	add	r3, r0, r3, lsl #2
	mov	ip, lr, asl #3
	beq	.L1457
	ldrb	r9, [r4, #1]!	@ zero_extendqisi2
	cmp	lr, #3
	ldr	lr, [r3, #596]
	addeq	r5, r5, #1
	orr	ip, lr, r9, asl ip
	str	ip, [r3, #596]
	b	.L1463
	UNWIND(.fnend)
	.size	HEVC_CalScalingList, .-HEVC_CalScalingList
	.align	2
	.global	HEVC_SetScalingList
	.type	HEVC_SetScalingList, %function
HEVC_SetScalingList:
	UNWIND(.fnstart)
	@ args = 0, pretend = 0, frame = 8
	@ frame_needed = 1, uses_anonymous_args = 0
	UNWIND(.movsp ip)
	mov	ip, sp
	stmfd	sp!, {r4, r5, r6, r7, r8, r9, r10, fp, ip, lr, pc}
	UNWIND(.pad #4)
	UNWIND(.save {r4, r5, r6, r7, r8, r9, r10, fp, ip, lr})
	UNWIND(.setfp fp, ip, #-4)
	sub	fp, ip, #4
	UNWIND(.pad #12)
	sub	sp, sp, #12
	ldr	r3, [r0, #2356]
	mov	r7, r0
	ldrb	r2, [r3, #3]	@ zero_extendqisi2
	cmp	r2, #0
	beq	.L1465
	ldr	r9, [r0, #2360]
	ldrb	r2, [r9, #21]	@ zero_extendqisi2
	cmp	r2, #0
	addne	r3, r9, #256
	strne	r3, [fp, #-48]
	beq	.L1482
.L1467:
	ldr	r3, [fp, #-48]
	cmp	r3, #0
	beq	.L1468
	ldr	r10, .L1483
	mov	r1, #0
	mov	r2, #1536
	add	r0, r7, #596
	add	r9, r7, #2208
	ldr	r8, [fp, #-48]
	ldr	r3, [r10, #48]
	mov	r6, r1
	blx	r3
.L1470:
	ldr	r3, [r9, #4]!
	cmp	r3, #0
	movne	r5, r8
	movne	r4, #0
	beq	.L1473
.L1471:
	mov	r3, r4
	mov	r1, r5
	mov	r2, r6
	mov	r0, r7
	bl	HEVC_CalScalingList
	ldr	r3, [r9]
	add	r4, r4, #1
	add	r5, r5, #64
	cmp	r3, r4
	bhi	.L1471
.L1473:
	add	r6, r6, #1
	add	r8, r8, #384
	cmp	r6, #4
	bne	.L1470
	ldr	r2, [fp, #-48]
	add	r0, r7, #2224
	ldr	r3, [r10, #52]
	add	r0, r0, #4
	add	r1, r2, #1536
	mov	r2, #96
	blx	r3
.L1465:
	mov	r0, #0
	sub	sp, fp, #40
	ldmfd	sp, {r4, r5, r6, r7, r8, r9, r10, fp, sp, pc}
.L1482:
	ldrb	r2, [r3, #4]	@ zero_extendqisi2
	cmp	r2, #0
	addne	r3, r3, #432
	strne	r3, [fp, #-48]
	bne	.L1467
.L1468:
	mov	r0, r7
	bl	HEVC_SetDefaultScalingList
	b	.L1465
.L1484:
	.align	2
.L1483:
	.word	vfmw_Osal_Func_Ptr_S
	UNWIND(.fnend)
	.size	HEVC_SetScalingList, .-HEVC_SetScalingList
	.align	2
	.global	HEVC_GetScalingListDefaultAddress
	.type	HEVC_GetScalingListDefaultAddress, %function
HEVC_GetScalingListDefaultAddress:
	UNWIND(.fnstart)
	@ args = 0, pretend = 0, frame = 0
	@ frame_needed = 1, uses_anonymous_args = 0
	UNWIND(.movsp ip)
	mov	ip, sp
	stmfd	sp!, {fp, ip, lr, pc}
	UNWIND(.pad #4)
	UNWIND(.save {fp, ip, lr})
	UNWIND(.setfp fp, ip, #-4)
	sub	fp, ip, #4
	cmp	r0, #3
	ldrls	pc, [pc, r0, asl #2]
	b	.L1486
.L1488:
	.word	.L1492
	.word	.L1490
	.word	.L1490
	.word	.L1491
.L1490:
	ldr	r3, .L1496
	cmp	r1, #2
	add	r0, r3, #64
	movhi	r0, r3
	ldmfd	sp, {fp, sp, pc}
.L1492:
	ldr	r0, .L1496+4
	ldmfd	sp, {fp, sp, pc}
.L1491:
	ldr	r3, .L1496
	cmp	r1, #0
	add	r0, r3, #64
	movne	r0, r3
	ldmfd	sp, {fp, sp, pc}
.L1486:
	ldr	r1, .L1496+8
	mov	r0, #1
	bl	dprint_vfmw
	mov	r0, #0
	ldmfd	sp, {fp, sp, pc}
.L1497:
	.align	2
.L1496:
	.word	.LANCHOR4+80
	.word	.LANCHOR4+64
	.word	.LC143
	UNWIND(.fnend)
	.size	HEVC_GetScalingListDefaultAddress, .-HEVC_GetScalingListDefaultAddress
	.align	2
	.global	HEVC_DecRefPicListsModification
	.type	HEVC_DecRefPicListsModification, %function
HEVC_DecRefPicListsModification:
	UNWIND(.fnstart)
	@ args = 0, pretend = 0, frame = 0
	@ frame_needed = 1, uses_anonymous_args = 0
	UNWIND(.movsp ip)
	mov	ip, sp
	stmfd	sp!, {r3, r4, r5, r6, r7, r8, r9, r10, fp, ip, lr, pc}
	UNWIND(.pad #4)
	UNWIND(.save {r3, r4, r5, r6, r7, r8, r9, r10, fp, ip, lr})
	UNWIND(.setfp fp, ip, #-4)
	sub	fp, ip, #4
	cmp	r2, #0
	cmpne	r1, #0
	mov	r5, r3
	mov	r7, r1
	mov	r8, r2
	moveq	ip, #1
	movne	ip, #0
	cmp	r0, #0
	orreq	ip, ip, #1
	mov	r6, r0
	cmp	ip, #0
	bne	.L1508
	sub	ip, r3, #1
	mov	r4, #1
	movs	ip, ip, asr #1
	beq	.L1500
.L1501:
	movs	ip, ip, asr #1
	add	r4, r4, #1
	bne	.L1501
.L1500:
	mov	r1, #1
	ldr	r0, [r6, #2324]
	bl	BsGet
	cmp	r5, #1
	movls	r10, #0
	movhi	r10, #1
	uxtb	r0, r0
	strb	r0, [r8]
	cmp	r0, #0
	cmpne	r5, #1
	bls	.L1505
	ldr	r3, [r7, #76]
	cmp	r3, #0
	beq	.L1505
	mov	r9, r8
	mov	r5, #0
.L1506:
	mov	r1, r4
	ldr	r0, [r6, #2324]
	bl	BsGet
	add	r5, r5, #1
	str	r0, [r9, #4]!
	ldr	r3, [r7, #76]
	cmp	r3, r5
	bhi	.L1506
.L1505:
	ldr	r5, [r7, #20]
	cmp	r5, #0
	beq	.L1523
.L1504:
	mov	r0, #0
	ldmfd	sp, {r3, r4, r5, r6, r7, r8, r9, r10, fp, sp, pc}
.L1523:
	mov	r1, #1
	ldr	r0, [r6, #2324]
	bl	BsGet
	uxtb	r0, r0
	strb	r0, [r8, #1]
	cmp	r0, #0
	moveq	r10, #0
	andne	r10, r10, #1
	cmp	r10, #0
	beq	.L1504
	ldr	r3, [r7, #80]
	cmp	r3, #0
	beq	.L1504
	add	r8, r8, #128
.L1507:
	mov	r1, r4
	ldr	r0, [r6, #2324]
	bl	BsGet
	add	r5, r5, #1
	str	r0, [r8, #4]!
	ldr	r3, [r7, #80]
	cmp	r3, r5
	bhi	.L1507
	mov	r0, #0
	ldmfd	sp, {r3, r4, r5, r6, r7, r8, r9, r10, fp, sp, pc}
.L1508:
	mvn	r0, #0
	ldmfd	sp, {r3, r4, r5, r6, r7, r8, r9, r10, fp, sp, pc}
	UNWIND(.fnend)
	.size	HEVC_DecRefPicListsModification, .-HEVC_DecRefPicListsModification
	.align	2
	.global	HEVC_MoreRbspData
	.type	HEVC_MoreRbspData, %function
HEVC_MoreRbspData:
	UNWIND(.fnstart)
	@ args = 0, pretend = 0, frame = 0
	@ frame_needed = 1, uses_anonymous_args = 0
	UNWIND(.movsp ip)
	mov	ip, sp
	stmfd	sp!, {r4, r5, fp, ip, lr, pc}
	UNWIND(.pad #4)
	UNWIND(.save {r4, r5, fp, ip, lr})
	UNWIND(.setfp fp, ip, #-4)
	sub	fp, ip, #4
	mov	r4, r0
	ldr	r0, [r0, #2324]
	bl	BsResidBits
	subs	r3, r0, #0
	ble	.L1526
	ldr	r2, [r4, #2344]
	ldr	r0, [r2, #12]
	add	r0, r0, #3
	cmp	r3, r0
	movls	r0, #0
	movhi	r0, #1
	ldmfd	sp, {r4, r5, fp, sp, pc}
.L1526:
	mov	r0, #0
	ldmfd	sp, {r4, r5, fp, sp, pc}
	UNWIND(.fnend)
	.size	HEVC_MoreRbspData, .-HEVC_MoreRbspData
	.align	2
	.global	HEVC_More_Rbsp_Data
	.type	HEVC_More_Rbsp_Data, %function
HEVC_More_Rbsp_Data:
	UNWIND(.fnstart)
	@ args = 0, pretend = 0, frame = 0
	@ frame_needed = 1, uses_anonymous_args = 0
	UNWIND(.movsp ip)
	mov	ip, sp
	stmfd	sp!, {fp, ip, lr, pc}
	UNWIND(.pad #4)
	UNWIND(.save {fp, ip, lr})
	UNWIND(.setfp fp, ip, #-4)
	sub	fp, ip, #4
	ldr	r0, [r0, #2324]
	ldr	r2, [r0, #16]
	ldr	r3, [r0, #24]
	mov	r2, r2, asl #3
	cmp	r2, r3
	bls	.L1530
	mov	r1, #8
	bl	BsShow
	subs	r0, r0, #128
	movne	r0, #1
	ldmfd	sp, {fp, sp, pc}
.L1530:
	ldr	r1, .L1531
	mov	r0, #1
	bl	dprint_vfmw
	mov	r0, #0
	ldmfd	sp, {fp, sp, pc}
.L1532:
	.align	2
.L1531:
	.word	.LC144
	UNWIND(.fnend)
	.size	HEVC_More_Rbsp_Data, .-HEVC_More_Rbsp_Data
	.align	2
	.global	HEVC_FindTrailZeros
	.type	HEVC_FindTrailZeros, %function
HEVC_FindTrailZeros:
	UNWIND(.fnstart)
	@ args = 0, pretend = 0, frame = 0
	@ frame_needed = 1, uses_anonymous_args = 0
	UNWIND(.movsp ip)
	mov	ip, sp
	stmfd	sp!, {r4, r5, r6, r7, fp, ip, lr, pc}
	UNWIND(.pad #4)
	UNWIND(.save {r4, r5, r6, r7, fp, ip, lr})
	UNWIND(.setfp fp, ip, #-4)
	sub	fp, ip, #4
	mov	r1, #0
	mov	r6, r0
.L1545:
	ldr	r3, [r6, #2344]
	ldr	ip, [r3, #8]
	sub	ip, ip, #1
	mov	r0, ip, asl #2
	mov	ip, ip, asl #5
	rsb	r2, r0, ip
	add	r2, r3, r2
	ldr	r3, [r2, #44]
	ldr	r2, [r2, #40]
	sub	r3, r3, #1
	add	r3, r2, r3
.L1534:
	ldrb	r4, [r3]	@ zero_extendqisi2
	rsb	r5, r0, ip
	cmp	r4, #0
	bne	.L1546
	ldr	r2, [r6, #2344]
	add	r1, r1, #1
	add	lr, r2, r5
	ldr	r2, [r2, #40]
	cmp	r2, r3
	beq	.L1547
	ldr	r2, [lr, #40]
	cmp	r2, r3
	sub	r3, r3, #1
	bne	.L1534
	ldr	r1, [lr, #64]
	ldr	r0, [r6, #252]
	bl	SM_ReleaseStreamSeg
	ldr	r3, [r6, #2344]
	mov	r1, r4
	add	r5, r3, r5
	str	r4, [r5, #40]
	ldr	r2, [r6, #2344]
	ldr	r3, [r2, #8]
	sub	r3, r3, #1
	str	r3, [r2, #8]
	b	.L1545
.L1546:
	tst	r4, #1
	mov	r3, #1
	moveq	r2, r3
	bne	.L1541
.L1542:
	ands	r0, r4, r2, asl r3
	add	r3, r3, #1
	bne	.L1541
	cmp	r3, #8
	bne	.L1542
	ldr	r1, .L1548
	mov	r0, #1
	bl	dprint_vfmw
	mvn	r0, #0
	ldmfd	sp, {r4, r5, r6, r7, fp, sp, pc}
.L1547:
	ldr	r1, .L1548+4
	mov	r0, #1
	bl	dprint_vfmw
	mvn	r0, #0
	ldmfd	sp, {r4, r5, r6, r7, fp, sp, pc}
.L1541:
	ldr	ip, [r6, #2344]
	mov	r2, #0
	add	r1, r3, r1, lsl #3
	mov	r0, r2
	str	r2, [ip, #4]
	ldr	r3, [r6, #2344]
	str	r1, [r3, #12]
	ldmfd	sp, {r4, r5, r6, r7, fp, sp, pc}
.L1549:
	.align	2
.L1548:
	.word	.LC146
	.word	.LC145
	UNWIND(.fnend)
	.size	HEVC_FindTrailZeros, .-HEVC_FindTrailZeros
	.align	2
	.global	HEVC_FindNaluArraySlot
	.type	HEVC_FindNaluArraySlot, %function
HEVC_FindNaluArraySlot:
	UNWIND(.fnstart)
	@ args = 0, pretend = 0, frame = 0
	@ frame_needed = 1, uses_anonymous_args = 0
	UNWIND(.movsp ip)
	mov	ip, sp
	stmfd	sp!, {r4, r5, r6, r7, r8, r9, fp, ip, lr, pc}
	UNWIND(.pad #4)
	UNWIND(.save {r4, r5, r6, r7, r8, r9, fp, ip, lr})
	UNWIND(.setfp fp, ip, #-4)
	sub	fp, ip, #4
	ldr	r5, [r0, #168]
	mov	r8, r0
	ldr	r3, [r0, #148]
	cmp	r5, #0
	blt	.L1551
	add	r6, r5, #1
	mov	r0, r3
	mov	r1, r6
	bl	__aeabi_uidivmod
	ldr	r7, [r8, #2368]
	mov	r3, r1
	mov	r1, r1, asl #5
	mov	ip, r3, asl #7
	rsb	r2, r1, ip
	add	r2, r7, r2
	ldr	r2, [r2, #32]
	cmp	r2, #0
	beq	.L1552
	mov	r4, #0
	b	.L1554
.L1555:
	bl	__aeabi_uidivmod
	mov	r3, r1
	mov	r1, r1, asl #5
	mov	ip, r3, asl #7
	rsb	r2, r1, ip
	add	r2, r7, r2
	ldr	r2, [r2, #32]
	cmp	r2, #0
	beq	.L1552
.L1554:
	add	r4, r4, #1
	mov	r1, r6
	cmp	r4, r5
	add	r0, r3, r4
	ble	.L1555
.L1551:
	mvn	r0, #0
	str	r3, [r8, #148]
	ldmfd	sp, {r4, r5, r6, r7, r8, r9, fp, sp, pc}
.L1552:
	cmp	r3, r6
	mov	r0, r3
	str	r3, [r8, #148]
	bcs	.L1565
	rsb	r1, r1, ip
	mov	r3, #1
	add	r7, r7, r1
	str	r3, [r7, #32]
	ldmfd	sp, {r4, r5, r6, r7, r8, r9, fp, sp, pc}
.L1565:
	mvn	r0, #0
	ldmfd	sp, {r4, r5, r6, r7, r8, r9, fp, sp, pc}
	UNWIND(.fnend)
	.size	HEVC_FindNaluArraySlot, .-HEVC_FindNaluArraySlot
	.align	2
	.global	HEVC_ReleaseNAL
	.type	HEVC_ReleaseNAL, %function
HEVC_ReleaseNAL:
	UNWIND(.fnstart)
	@ args = 0, pretend = 0, frame = 0
	@ frame_needed = 1, uses_anonymous_args = 0
	UNWIND(.movsp ip)
	mov	ip, sp
	stmfd	sp!, {r4, r5, r6, r7, fp, ip, lr, pc}
	UNWIND(.pad #4)
	UNWIND(.save {r4, r5, r6, r7, fp, ip, lr})
	UNWIND(.setfp fp, ip, #-4)
	sub	fp, ip, #4
	UNWIND(.pad #8)
	sub	sp, sp, #8
	subs	r5, r1, #0
	mov	r6, r0
	beq	.L1574
	add	r7, r5, #56
	mov	r4, r5
	mov	r3, #0
	str	r3, [r5, #32]
	str	r3, [r5, #36]
.L1569:
	ldr	r3, [r4, #40]
	mov	r0, r6
	cmp	r3, #0
	beq	.L1568
	ldr	r1, [r4, #64]
	bl	SM_ReleaseStreamSeg
	ldr	ip, [r4, #44]
	ldr	r3, [r4, #40]
	mov	r0, #7
	ldr	r2, .L1575
	ldr	r1, .L1575+4
	str	ip, [sp]
	bl	dprint_vfmw
	mov	r3, #0
	str	r3, [r4, #40]
	str	r3, [r4, #56]
	str	r3, [r4, #44]
.L1568:
	add	r4, r4, #28
	cmp	r4, r7
	bne	.L1569
	ldr	r3, .L1575+8
	mov	r0, r5
	mov	r2, #96
	mov	r1, #0
	ldr	r3, [r3, #48]
	sub	sp, fp, #28
	ldmfd	sp, {r4, r5, r6, r7, fp, sp, lr}
	bx	r3
.L1574:
	mov	r0, r5
	movw	r3, #14174
	ldr	r2, .L1575+12
	ldr	r1, .L1575+16
	sub	sp, fp, #28
	ldmfd	sp, {r4, r5, r6, r7, fp, sp, lr}
	b	dprint_vfmw
.L1576:
	.align	2
.L1575:
	.word	.LANCHOR0+456
	.word	.LC147
	.word	vfmw_Osal_Func_Ptr_S
	.word	.LC84
	.word	.LC85
	UNWIND(.fnend)
	.size	HEVC_ReleaseNAL, .-HEVC_ReleaseNAL
	.align	2
	.global	HEVC_InitDecBuffers
	.type	HEVC_InitDecBuffers, %function
HEVC_InitDecBuffers:
	UNWIND(.fnstart)
	@ args = 0, pretend = 0, frame = 0
	@ frame_needed = 1, uses_anonymous_args = 0
	UNWIND(.movsp ip)
	mov	ip, sp
	stmfd	sp!, {r4, r5, r6, r7, r8, r9, fp, ip, lr, pc}
	UNWIND(.pad #4)
	UNWIND(.save {r4, r5, r6, r7, r8, r9, fp, ip, lr})
	UNWIND(.setfp fp, ip, #-4)
	sub	fp, ip, #4
	UNWIND(.pad #8)
	sub	sp, sp, #8
	ldr	r3, [r0, #2356]
	mov	r6, r0
	ldr	r3, [r3, #184]
	add	r3, r3, #1
	str	r3, [r0, #2552]
	cmp	r3, #17
	bhi	.L1612
.L1578:
	add	r0, r6, #2768
	add	r1, r6, #2704
	add	r2, r6, #2560
	mov	lr, #0
	add	r0, r0, #8
	add	r1, r1, #4
	add	r2, r2, #12
	add	ip, r6, #2640
	mov	r3, lr
	mov	r7, #17
	str	lr, [r6, #2556]
	str	lr, [r6, #2568]
	str	lr, [r6, #2572]
	str	lr, [r6, #2564]
	str	lr, [r6, #2560]
.L1579:
	subs	r7, r7, #1
	str	r3, [r0, #4]!
	str	r3, [ip, #4]!
	str	r3, [r1, #4]!
	str	r3, [r2, #4]!
	bne	.L1579
	add	r4, r6, #12736
	ldr	r9, .L1613
	add	r4, r4, #32
.L1580:
	ldr	r3, [r9, #48]
	mov	r2, #632
	mov	r0, r4
	mov	r1, #0
	blx	r3
	str	r7, [r4, #148]
	add	r7, r7, #1
	mov	r5, #0
	cmp	r7, #20
	sub	r3, r4, #80
	strb	r5, [r4, #-80]
	mov	r2, #20
	str	r3, [r4, #-8]
	mov	r8, #16
	str	r5, [r4, #-32]
	add	r4, r4, #712
	strb	r5, [r4, #-791]
	str	r5, [r4, #-784]
	strb	r5, [r4, #-790]
	str	r5, [r4, #-736]
	str	r2, [r4, #-772]
	str	r8, [r4, #-768]
	ldr	r3, .L1613
	bne	.L1580
	add	r0, r6, #12480
	ldr	r3, [r3, #48]
	mov	r2, #200
	mov	r1, r5
	add	r0, r0, #8
	blx	r3
	add	r2, r6, #12288
	add	r3, r6, #2368
	mov	r1, r5
	str	r8, [r2, #200]
	add	r3, r3, #12
	str	r5, [r2, #204]
	add	r2, r6, #2448
.L1582:
	str	r1, [r3, #4]!
	cmp	r3, r2
	mov	r0, #0
	bne	.L1582
	add	r1, r6, #2512
	add	lr, r6, #4096
	add	r1, r1, #4
	mov	ip, r0
	str	r0, [lr, #140]
.L1583:
	str	ip, [r2, #4]!
	cmp	r2, r1
	mov	r3, #0
	bne	.L1583
	str	r3, [lr, #144]
	ldr	r1, [r6, #184]
	cmp	r1, r3
	addne	r2, r6, #2128
	movne	r0, r3
	beq	.L1588
.L1587:
	add	r3, r3, #1
	str	r0, [r2, #4]!
	cmp	r3, r1
	bne	.L1587
.L1588:
	ldr	r3, [r6, #168]
	cmp	r3, #0
	movne	r4, #0
	movne	r5, r4
	beq	.L1577
.L1593:
	ldr	r3, [r6, #2364]
	mov	r7, r4, asl #2
	ldr	r1, [r3, r4, asl #2]
	cmp	r1, #0
	beq	.L1589
	ldr	r3, [r6, #2344]
	cmp	r1, r3
	beq	.L1589
	ldr	r0, [r6, #252]
	bl	HEVC_ReleaseNAL
	ldr	r3, [r6, #2364]
	str	r5, [r3, r7]
	ldr	r3, [r6, #204]
	ldr	r2, [r6, #236]
	cmp	r3, #0
	subne	r3, r3, #1
	str	r3, [r6, #204]
	ldr	r3, [r6, #176]
	cmp	r2, #0
	subne	r2, r2, #1
	str	r2, [r6, #236]
	cmp	r3, #2
	subhi	r3, r3, #1
	movls	r3, #2
	str	r3, [r6, #176]
.L1589:
	ldr	r3, [r6, #168]
	add	r4, r4, #1
	cmp	r3, r4
	bhi	.L1593
.L1577:
	sub	sp, fp, #36
	ldmfd	sp, {r4, r5, r6, r7, r8, r9, fp, sp, pc}
.L1612:
	mov	r4, #17
	ldr	r2, .L1613+4
	str	r4, [sp]
	mov	r3, r4
	ldr	r1, .L1613+8
	mov	r0, #1
	bl	dprint_vfmw
	str	r4, [r6, #2552]
	b	.L1578
.L1614:
	.align	2
.L1613:
	.word	vfmw_Osal_Func_Ptr_S
	.word	.LANCHOR0+472
	.word	.LC148
	UNWIND(.fnend)
	.size	HEVC_InitDecBuffers, .-HEVC_InitDecBuffers
	.align	2
	.global	HEVC_EmptyFrmFromDPB
	.type	HEVC_EmptyFrmFromDPB, %function
HEVC_EmptyFrmFromDPB:
	UNWIND(.fnstart)
	@ args = 0, pretend = 0, frame = 0
	@ frame_needed = 1, uses_anonymous_args = 0
	UNWIND(.movsp ip)
	mov	ip, sp
	stmfd	sp!, {r4, r5, r6, r7, r8, r9, fp, ip, lr, pc}
	UNWIND(.pad #4)
	UNWIND(.save {r4, r5, r6, r7, r8, r9, fp, ip, lr})
	UNWIND(.setfp fp, ip, #-4)
	sub	fp, ip, #4
	subs	r6, r0, #0
	beq	.L1625
	ldr	r3, [r6, #2556]
	add	r8, r6, #2560
	cmp	r3, #0
	addeq	r8, r8, #12
	beq	.L1617
	add	r8, r8, #12
	mov	r3, #0
	mov	ip, #1
	mov	r1, r8
.L1619:
	ldr	r2, [r1, #4]!
	add	r3, r3, #1
	ldrb	r0, [r2, #2]	@ zero_extendqisi2
	cmp	r0, #0
	streqb	ip, [r2, #2]
	ldr	r2, [r6, #2556]
	cmp	r2, r3
	bhi	.L1619
.L1617:
	mov	r4, r6
	mov	r7, #17
	mov	r5, #0
	mov	r3, #-2147483647
	str	r3, [r6, #212]
.L1624:
	ldr	r3, [r8, #4]!
	mov	r2, #1
	cmp	r3, #0
	beq	.L1620
	ldr	r1, [r3, #28]
	ldr	r0, [r6, #252]
	bl	FSP_ClearLogicFs
.L1620:
	ldr	r3, [r4, #2644]
	mov	r2, #1
	cmp	r3, #0
	beq	.L1621
	ldr	r1, [r3, #28]
	ldr	r0, [r6, #252]
	bl	FSP_ClearLogicFs
.L1621:
	ldr	r3, [r4, #2712]
	mov	r2, #1
	cmp	r3, #0
	beq	.L1622
	ldr	r1, [r3, #28]
	ldr	r0, [r6, #252]
	bl	FSP_ClearLogicFs
.L1622:
	ldr	r3, [r4, #2780]
	mov	r2, #1
	cmp	r3, #0
	beq	.L1623
	ldr	r1, [r3, #28]
	ldr	r0, [r6, #252]
	bl	FSP_ClearLogicFs
.L1623:
	subs	r7, r7, #1
	str	r5, [r4, #2780]
	str	r5, [r4, #2712]
	add	r4, r4, #4
	str	r5, [r4, #2640]
	str	r5, [r4, #2572]
	bne	.L1624
	mov	r0, r6
	bl	HEVC_InitDecBuffers
	mov	r0, r7
	ldmfd	sp, {r4, r5, r6, r7, r8, r9, fp, sp, pc}
.L1625:
	mvn	r0, #0
	ldmfd	sp, {r4, r5, r6, r7, r8, r9, fp, sp, pc}
	UNWIND(.fnend)
	.size	HEVC_EmptyFrmFromDPB, .-HEVC_EmptyFrmFromDPB
	.align	2
	.global	HEVC_CombinePacket
	.type	HEVC_CombinePacket, %function
HEVC_CombinePacket:
	UNWIND(.fnstart)
	@ args = 0, pretend = 0, frame = 0
	@ frame_needed = 1, uses_anonymous_args = 0
	UNWIND(.movsp ip)
	mov	ip, sp
	stmfd	sp!, {r4, r5, fp, ip, lr, pc}
	UNWIND(.pad #4)
	UNWIND(.save {r4, r5, fp, ip, lr})
	UNWIND(.setfp fp, ip, #-4)
	sub	fp, ip, #4
	mov	r4, r0
	ldr	r0, [r0, #2344]
	cmp	r0, #0
	beq	.L1647
	ldr	r3, [r0, #44]
	cmp	r3, #4096
	ldmcsfd	sp, {r4, r5, fp, sp, pc}
	ldr	r1, .L1648
	mov	r0, #7
	bl	dprint_vfmw
	ldr	r3, [r4, #2344]
	ldr	ip, .L1648+4
	mov	r5, #0
	ldr	r2, [r3, #44]
	ldr	r0, [r3, #68]
	ldr	r1, [r3, #40]
	rsb	r0, r2, r0
	ldr	r3, [ip, #52]
	blx	r3
	ldr	r3, [r4, #2344]
	mov	r0, #1
	ldr	r2, [r3, #92]
	ldr	r1, [r3, #64]
	str	r2, [r3, #64]
	ldr	r3, [r4, #2344]
	str	r5, [r3, #56]
	ldr	r3, [r4, #2344]
	ldr	ip, [r3, #44]
	ldr	r2, [r3, #68]
	rsb	r2, ip, r2
	str	r2, [r3, #40]
	ldr	r3, [r4, #2344]
	ldr	ip, [r3, #44]
	ldr	r2, [r3, #76]
	rsb	r2, ip, r2
	str	r2, [r3, #48]
	ldr	r3, [r4, #2344]
	ldr	r2, [r3, #44]
	ldr	ip, [r3, #72]
	add	r2, r2, ip
	str	r2, [r3, #44]
	ldr	r3, [r4, #2344]
	str	r0, [r3, #8]
	ldr	r0, [r4, #252]
	bl	SM_ReleaseStreamSeg
	ldr	r3, [r4, #2344]
	str	r5, [r3, #68]
	ldr	r3, [r4, #2344]
	str	r5, [r3, #84]
	ldr	r3, [r4, #2344]
	str	r5, [r3, #72]
	ldmfd	sp, {r4, r5, fp, sp, pc}
.L1647:
	ldr	r1, .L1648+8
	sub	sp, fp, #20
	ldmfd	sp, {r4, r5, fp, sp, lr}
	b	dprint_vfmw
.L1649:
	.align	2
.L1648:
	.word	.LC150
	.word	vfmw_Osal_Func_Ptr_S
	.word	.LC149
	UNWIND(.fnend)
	.size	HEVC_CombinePacket, .-HEVC_CombinePacket
	.align	2
	.global	HEVC_IsOutDPB
	.type	HEVC_IsOutDPB, %function
HEVC_IsOutDPB:
	UNWIND(.fnstart)
	@ args = 0, pretend = 0, frame = 0
	@ frame_needed = 1, uses_anonymous_args = 0
	UNWIND(.movsp ip)
	mov	ip, sp
	stmfd	sp!, {fp, ip, lr, pc}
	UNWIND(.pad #4)
	UNWIND(.save {fp, ip, lr})
	UNWIND(.setfp fp, ip, #-4)
	sub	fp, ip, #4
	cmp	r1, #0
	beq	.L1655
	ldr	ip, [r0, #2556]
	cmp	ip, #0
	beq	.L1655
	ldr	r3, [r0, #2576]
	cmp	r3, r1
	beq	.L1657
	add	r0, r0, #2576
	mov	r3, #0
	b	.L1652
.L1653:
	ldr	r2, [r0, #4]!
	cmp	r2, r1
	beq	.L1657
.L1652:
	add	r3, r3, #1
	cmp	r3, ip
	bne	.L1653
.L1655:
	mov	r0, #1
	ldmfd	sp, {fp, sp, pc}
.L1657:
	mov	r0, #0
	ldmfd	sp, {fp, sp, pc}
	UNWIND(.fnend)
	.size	HEVC_IsOutDPB, .-HEVC_IsOutDPB
	.align	2
	.global	HEVC_IsNewPicNal
	.type	HEVC_IsNewPicNal, %function
HEVC_IsNewPicNal:
	UNWIND(.fnstart)
	@ args = 0, pretend = 0, frame = 0
	@ frame_needed = 1, uses_anonymous_args = 0
	UNWIND(.movsp ip)
	mov	ip, sp
	stmfd	sp!, {fp, ip, lr, pc}
	UNWIND(.pad #4)
	UNWIND(.save {fp, ip, lr})
	UNWIND(.setfp fp, ip, #-4)
	sub	fp, ip, #4
	mov	r0, #0
	ldmfd	sp, {fp, sp, pc}
	UNWIND(.fnend)
	.size	HEVC_IsNewPicNal, .-HEVC_IsNewPicNal
	.align	2
	.global	HEVC_u_v
	.type	HEVC_u_v, %function
HEVC_u_v:
	UNWIND(.fnstart)
	@ args = 0, pretend = 0, frame = 0
	@ frame_needed = 1, uses_anonymous_args = 0
	UNWIND(.movsp ip)
	mov	ip, sp
	stmfd	sp!, {fp, ip, lr, pc}
	UNWIND(.pad #4)
	UNWIND(.save {fp, ip, lr})
	UNWIND(.setfp fp, ip, #-4)
	sub	fp, ip, #4
	sub	sp, fp, #12
	ldmia	sp, {fp, sp, lr}
	b	BsGet
	UNWIND(.fnend)
	.size	HEVC_u_v, .-HEVC_u_v
	.align	2
	.global	HEVC_f_v
	.type	HEVC_f_v, %function
HEVC_f_v:
	UNWIND(.fnstart)
	@ args = 0, pretend = 0, frame = 0
	@ frame_needed = 1, uses_anonymous_args = 0
	UNWIND(.movsp ip)
	mov	ip, sp
	stmfd	sp!, {fp, ip, lr, pc}
	UNWIND(.pad #4)
	UNWIND(.save {fp, ip, lr})
	UNWIND(.setfp fp, ip, #-4)
	sub	fp, ip, #4
	sub	sp, fp, #12
	ldmia	sp, {fp, sp, lr}
	b	BsGet
	UNWIND(.fnend)
	.size	HEVC_f_v, .-HEVC_f_v
	.align	2
	.global	HEVC_ue_v
	.type	HEVC_ue_v, %function
HEVC_ue_v:
	UNWIND(.fnstart)
	@ args = 0, pretend = 0, frame = 0
	@ frame_needed = 1, uses_anonymous_args = 0
	UNWIND(.movsp ip)
	mov	ip, sp
	stmfd	sp!, {r4, r5, fp, ip, lr, pc}
	UNWIND(.pad #4)
	UNWIND(.save {r4, r5, fp, ip, lr})
	UNWIND(.setfp fp, ip, #-4)
	sub	fp, ip, #4
	mov	r1, #32
	mov	r5, r0
	bl	BsShow
	bl	ZerosMS_32
	cmp	r0, #31
	bls	.L1664
	movw	r0, #61166
	movt	r0, 65535
	ldmfd	sp, {r4, r5, fp, sp, pc}
.L1664:
	add	r4, r0, #1
	mov	r1, r0
	mov	r0, r5
	bl	BsSkip
	mov	r1, r4
	mov	r0, r5
	bl	BsShow
	mov	r1, r4
	sub	r4, r0, #1
	mov	r0, r5
	bl	BsSkip
	mov	r0, r4
	ldmfd	sp, {r4, r5, fp, sp, pc}
	UNWIND(.fnend)
	.size	HEVC_ue_v, .-HEVC_ue_v
	.align	2
	.global	HEVC_Sei_Tone_Mapping_Info
	.type	HEVC_Sei_Tone_Mapping_Info, %function
HEVC_Sei_Tone_Mapping_Info:
	UNWIND(.fnstart)
	@ args = 0, pretend = 0, frame = 0
	@ frame_needed = 1, uses_anonymous_args = 0
	UNWIND(.movsp ip)
	mov	ip, sp
	stmfd	sp!, {r4, r5, r6, r7, r8, r9, fp, ip, lr, pc}
	UNWIND(.pad #4)
	UNWIND(.save {r4, r5, r6, r7, r8, r9, fp, ip, lr})
	UNWIND(.setfp fp, ip, #-4)
	sub	fp, ip, #4
	ldr	r1, .L1687
	mov	r4, r0
	ldr	r0, [r0, #2324]
	bl	HEVC_ue_v
	ldr	r0, [r4, #2324]
	mov	r1, #1
	bl	BsGet
	tst	r0, #255
	beq	.L1684
.L1670:
	mov	r1, #32
	ldr	r0, [r4, #2324]
	bl	BsGet
	ldr	r0, [r4, #2324]
	mov	r1, #32
	bl	BsGet
	mov	r0, #0
	ldmfd	sp, {r4, r5, r6, r7, r8, r9, fp, sp, pc}
.L1684:
	mov	r1, #1
	ldr	r0, [r4, #2324]
	bl	BsGet
	mov	r1, #8
	ldr	r0, [r4, #2324]
	bl	BsGet
	mov	r1, #8
	mov	r6, r0
	ldr	r0, [r4, #2324]
	bl	BsGet
	cmp	r0, #8
	mov	r7, r0
	bhi	.L1685
	mov	r1, #8
	ldr	r0, [r4, #2324]
	bl	BsGet
	cmp	r0, #4
	ldrls	pc, [pc, r0, asl #2]
	b	.L1681
.L1669:
	.word	.L1670
	.word	.L1670
	.word	.L1671
	.word	.L1672
	.word	.L1673
.L1672:
	mov	r1, #16
	ldr	r0, [r4, #2324]
	bl	BsGet
	cmp	r0, #256
	mov	r8, r0
	bhi	.L1677
	cmp	r0, #0
	beq	.L1681
	add	r6, r6, #7
	add	r7, r7, #7
	bic	r6, r6, #7
	bic	r7, r7, #7
	mov	r5, #0
.L1679:
	mov	r1, r6
	ldr	r0, [r4, #2324]
	bl	BsGet
	add	r5, r5, #1
	mov	r1, r7
	ldr	r0, [r4, #2324]
	bl	BsGet
	cmp	r5, r8
	bne	.L1679
.L1681:
	mov	r0, #0
	ldmfd	sp, {r4, r5, r6, r7, r8, r9, fp, sp, pc}
.L1671:
	mov	r2, #1
	movs	r7, r2, asl r7
	addne	r6, r6, #7
	movne	r5, #0
	bicne	r6, r6, #7
	beq	.L1681
.L1675:
	add	r5, r5, #1
	mov	r1, r6
	ldr	r0, [r4, #2324]
	bl	BsGet
	cmp	r7, r5
	bne	.L1675
	mov	r0, #0
	ldmfd	sp, {r4, r5, r6, r7, r8, r9, fp, sp, pc}
.L1673:
	mov	r1, #8
	ldr	r0, [r4, #2324]
	bl	BsGet
	cmp	r0, #255
	beq	.L1686
.L1680:
	mov	r1, #1
	ldr	r0, [r4, #2324]
	bl	BsGet
	mov	r1, #16
	ldr	r0, [r4, #2324]
	bl	BsGet
	mov	r1, #16
	ldr	r0, [r4, #2324]
	bl	BsGet
	mov	r1, #32
	ldr	r0, [r4, #2324]
	bl	BsGet
	mov	r1, #32
	ldr	r0, [r4, #2324]
	bl	BsGet
	mov	r1, #16
	ldr	r0, [r4, #2324]
	bl	BsGet
	mov	r1, #16
	ldr	r0, [r4, #2324]
	bl	BsGet
	mov	r1, #16
	ldr	r0, [r4, #2324]
	bl	BsGet
	ldr	r0, [r4, #2324]
	mov	r1, #16
	bl	BsGet
	mov	r0, #0
	ldmfd	sp, {r4, r5, r6, r7, r8, r9, fp, sp, pc}
.L1686:
	mov	r1, #32
	ldr	r0, [r4, #2324]
	bl	BsGet
	b	.L1680
.L1685:
	mov	r2, r0
	ldr	r1, .L1687+4
	mov	r0, #1
	bl	dprint_vfmw
	mvn	r0, #0
	ldmfd	sp, {r4, r5, r6, r7, r8, r9, fp, sp, pc}
.L1677:
	ldr	r1, .L1687+8
	mov	r0, #1
	bl	dprint_vfmw
	mvn	r0, #0
	ldmfd	sp, {r4, r5, r6, r7, r8, r9, fp, sp, pc}
.L1688:
	.align	2
.L1687:
	.word	.LC151
	.word	.LC152
	.word	.LC153
	UNWIND(.fnend)
	.size	HEVC_Sei_Tone_Mapping_Info, .-HEVC_Sei_Tone_Mapping_Info
	.align	2
	.global	HEVC_Sei_Frame_Packing_Arrangement
	.type	HEVC_Sei_Frame_Packing_Arrangement, %function
HEVC_Sei_Frame_Packing_Arrangement:
	UNWIND(.fnstart)
	@ args = 0, pretend = 0, frame = 0
	@ frame_needed = 1, uses_anonymous_args = 0
	UNWIND(.movsp ip)
	mov	ip, sp
	stmfd	sp!, {r4, r5, r6, r7, fp, ip, lr, pc}
	UNWIND(.pad #4)
	UNWIND(.save {r4, r5, r6, r7, fp, ip, lr})
	UNWIND(.setfp fp, ip, #-4)
	sub	fp, ip, #4
	ldr	r1, .L1699
	mov	r4, r0
	ldr	r0, [r0, #2324]
	bl	HEVC_ue_v
	ldr	r0, [r4, #2324]
	mov	r1, #1
	bl	BsGet
	tst	r0, #255
	bne	.L1690
	mov	r1, #7
	ldr	r0, [r4, #2324]
	bl	BsGet
	sub	r3, r0, #3
	mov	r6, r0
	cmp	r3, #2
	bhi	.L1697
	mov	r1, #1
	ldr	r0, [r4, #2324]
	bl	BsGet
	mov	r1, #6
	mov	r5, r0
	ldr	r0, [r4, #2324]
	bl	BsGet
	mov	r1, #1
	ldr	r0, [r4, #2324]
	uxtb	r5, r5
	bl	BsGet
	mov	r1, #1
	ldr	r0, [r4, #2324]
	clz	r5, r5
	bl	BsGet
	mov	r1, #1
	ldr	r0, [r4, #2324]
	mov	r5, r5, lsr #5
	bl	BsGet
	mov	r1, #1
	ldr	r0, [r4, #2324]
	bl	BsGet
	mov	r1, #1
	ldr	r0, [r4, #2324]
	bl	BsGet
	mov	r1, #1
	ldr	r0, [r4, #2324]
	bl	BsGet
	cmp	r6, #5
	moveq	r5, #0
	cmp	r5, #0
	bne	.L1698
.L1693:
	mov	r1, #8
	ldr	r0, [r4, #2324]
	bl	BsGet
	mov	r1, #1
	ldr	r0, [r4, #2324]
	bl	BsGet
.L1690:
	mov	r1, #1
	ldr	r0, [r4, #2324]
	bl	BsGet
	ldr	r0, [r4, #2324]
	bl	BsToNextByte
	mov	r0, #0
	ldmfd	sp, {r4, r5, r6, r7, fp, sp, pc}
.L1698:
	mov	r1, #4
	ldr	r0, [r4, #2324]
	bl	BsGet
	mov	r1, #4
	ldr	r0, [r4, #2324]
	bl	BsGet
	mov	r1, #4
	ldr	r0, [r4, #2324]
	bl	BsGet
	mov	r1, #4
	ldr	r0, [r4, #2324]
	bl	BsGet
	b	.L1693
.L1697:
	mov	r2, r0
	ldr	r1, .L1699+4
	mov	r0, #1
	bl	dprint_vfmw
	mvn	r0, #0
	ldmfd	sp, {r4, r5, r6, r7, fp, sp, pc}
.L1700:
	.align	2
.L1699:
	.word	.LC154
	.word	.LC155
	UNWIND(.fnend)
	.size	HEVC_Sei_Frame_Packing_Arrangement, .-HEVC_Sei_Frame_Packing_Arrangement
	.align	2
	.global	HEVC_Sei_Dec_Unit_Info
	.type	HEVC_Sei_Dec_Unit_Info, %function
HEVC_Sei_Dec_Unit_Info:
	UNWIND(.fnstart)
	@ args = 0, pretend = 0, frame = 0
	@ frame_needed = 1, uses_anonymous_args = 0
	UNWIND(.movsp ip)
	mov	ip, sp
	stmfd	sp!, {r4, r5, fp, ip, lr, pc}
	UNWIND(.pad #4)
	UNWIND(.save {r4, r5, fp, ip, lr})
	UNWIND(.setfp fp, ip, #-4)
	sub	fp, ip, #4
	cmp	r2, #0
	cmpne	r1, #0
	mov	r5, r2
	mov	r4, r0
	moveq	r1, #1
	movne	r1, #0
	cmp	r0, #0
	orreq	r1, r1, #1
	cmp	r1, #0
	bne	.L1705
	ldr	r1, .L1714
	ldr	r0, [r0, #2324]
	bl	HEVC_ue_v
	ldrb	r3, [r5, #3]	@ zero_extendqisi2
	cmp	r3, #0
	bne	.L1712
.L1703:
	mov	r1, #1
	ldr	r0, [r4, #2324]
	bl	BsGet
	tst	r0, #255
	bne	.L1713
.L1704:
	ldr	r0, [r4, #2324]
	bl	BsToNextByte
	mov	r0, #0
	ldmfd	sp, {r4, r5, fp, sp, pc}
.L1712:
	ldr	r1, [r5, #4]
	ldr	r0, [r4, #2324]
	add	r1, r1, #1
	bl	BsGet
	b	.L1703
.L1713:
	ldr	r1, [r5, #8]
	ldr	r0, [r4, #2324]
	add	r1, r1, #1
	bl	BsGet
	b	.L1704
.L1705:
	mvn	r0, #0
	ldmfd	sp, {r4, r5, fp, sp, pc}
.L1715:
	.align	2
.L1714:
	.word	.LC156
	UNWIND(.fnend)
	.size	HEVC_Sei_Dec_Unit_Info, .-HEVC_Sei_Dec_Unit_Info
	.align	2
	.global	HEVC_Sei_Active_Param_sets
	.type	HEVC_Sei_Active_Param_sets, %function
HEVC_Sei_Active_Param_sets:
	UNWIND(.fnstart)
	@ args = 0, pretend = 0, frame = 0
	@ frame_needed = 1, uses_anonymous_args = 0
	UNWIND(.movsp ip)
	mov	ip, sp
	stmfd	sp!, {r4, r5, r6, r7, fp, ip, lr, pc}
	UNWIND(.pad #4)
	UNWIND(.save {r4, r5, r6, r7, fp, ip, lr})
	UNWIND(.setfp fp, ip, #-4)
	sub	fp, ip, #4
	mov	r1, #4
	mov	r5, r0
	ldr	r0, [r0, #2324]
	bl	BsGet
	mov	r1, #1
	ldr	r0, [r5, #2324]
	bl	BsGet
	mov	r1, #1
	ldr	r0, [r5, #2324]
	bl	BsGet
	ldr	r0, [r5, #2324]
	ldr	r1, .L1723
	bl	HEVC_ue_v
	cmp	r0, #15
	bgt	.L1717
	cmp	r0, #0
	addge	r6, r0, #1
	movge	r4, #0
	blt	.L1721
.L1720:
	add	r4, r4, #1
	ldr	r1, .L1723+4
	ldr	r0, [r5, #2324]
	bl	HEVC_ue_v
	cmp	r4, r6
	bne	.L1720
.L1721:
	ldr	r0, [r5, #2324]
	bl	BsToNextByte
	mov	r0, #0
	ldmfd	sp, {r4, r5, r6, r7, fp, sp, pc}
.L1717:
	ldr	r1, .L1723+8
	mov	r0, #1
	bl	dprint_vfmw
	mvn	r0, #0
	ldmfd	sp, {r4, r5, r6, r7, fp, sp, pc}
.L1724:
	.align	2
.L1723:
	.word	.LC157
	.word	.LC159
	.word	.LC158
	UNWIND(.fnend)
	.size	HEVC_Sei_Active_Param_sets, .-HEVC_Sei_Active_Param_sets
	.align	2
	.global	HEVC_Sei_Buf_Period
	.type	HEVC_Sei_Buf_Period, %function
HEVC_Sei_Buf_Period:
	UNWIND(.fnstart)
	@ args = 0, pretend = 0, frame = 0
	@ frame_needed = 1, uses_anonymous_args = 0
	UNWIND(.movsp ip)
	mov	ip, sp
	stmfd	sp!, {r4, r5, r6, r7, r8, r9, fp, ip, lr, pc}
	UNWIND(.pad #4)
	UNWIND(.save {r4, r5, r6, r7, r8, r9, fp, ip, lr})
	UNWIND(.setfp fp, ip, #-4)
	sub	fp, ip, #4
	add	r4, r0, #8192
	mov	r5, r0
	mov	r9, r1
	mov	r6, #0
	ldr	r1, .L1754
	mov	r7, r2
	str	r6, [r4, #2888]
	ldr	r0, [r0, #2324]
	bl	HEVC_ue_v
	cmp	r0, #15
	bhi	.L1750
	mov	r1, #1
	strb	r1, [r4, #2881]
	ldrb	r3, [r7, #2]	@ zero_extendqisi2
	cmp	r3, #0
	movne	r8, r6
	beq	.L1751
.L1728:
	mov	r1, #1
	ldr	r0, [r5, #2324]
	bl	BsGet
	mov	r4, #1
	strb	r0, [r9]
	ldr	r1, [r7, #16]
	ldr	r0, [r5, #2324]
	add	r1, r1, r4
	bl	BsGet
	subs	r3, r4, #1
	beq	.L1752
.L1730:
	cmp	r3, #1
	beq	.L1753
.L1734:
	cmp	r4, #1
	bhi	.L1733
.L1732:
	add	r4, r4, #1
	subs	r3, r4, #1
	bne	.L1730
.L1752:
	ldrb	r2, [r7]	@ zero_extendqisi2
	cmp	r2, #0
	beq	.L1734
	ldr	r2, [r7, #24]
	cmn	r2, #1
	beq	.L1732
.L1741:
	mov	r6, #0
	b	.L1737
.L1736:
	ldr	r3, [r7, #24]
	add	r3, r3, #1
	cmp	r3, r6
	bls	.L1734
.L1737:
	ldr	r1, [r7, #12]
	add	r6, r6, #1
	ldr	r0, [r5, #2324]
	add	r1, r1, #1
	bl	BsGet
	ldr	r1, [r7, #12]
	ldr	r0, [r5, #2324]
	add	r1, r1, #1
	bl	BsGet
	ldrb	r3, [r7, #2]	@ zero_extendqisi2
	orrs	r3, r8, r3
	beq	.L1736
	ldr	r1, [r7, #12]
	ldr	r0, [r5, #2324]
	add	r1, r1, #1
	bl	BsGet
	ldr	r1, [r7, #12]
	ldr	r0, [r5, #2324]
	add	r1, r1, #1
	bl	BsGet
	b	.L1736
.L1753:
	ldrb	r3, [r7, #1]	@ zero_extendqisi2
	cmp	r3, #0
	beq	.L1733
	ldr	r3, [r7, #24]
	cmn	r3, #1
	bne	.L1741
.L1733:
	ldr	r0, [r5, #2324]
	bl	BsToNextByte
	mov	r0, #0
	ldmfd	sp, {r4, r5, r6, r7, r8, r9, fp, sp, pc}
.L1751:
	ldr	r0, [r5, #2324]
	bl	BsGet
	uxtb	r8, r0
	cmp	r8, #0
	beq	.L1728
	ldr	r1, [r7, #16]
	ldr	r0, [r5, #2324]
	add	r1, r1, #1
	bl	BsGet
	ldr	r1, [r7, #20]
	ldr	r0, [r5, #2324]
	add	r1, r1, #1
	bl	BsGet
	b	.L1728
.L1750:
	mov	r2, r0
	ldr	r1, .L1754+4
	mov	r0, #1
	bl	dprint_vfmw
	mvn	r0, #0
	ldmfd	sp, {r4, r5, r6, r7, r8, r9, fp, sp, pc}
.L1755:
	.align	2
.L1754:
	.word	.LC160
	.word	.LC161
	UNWIND(.fnend)
	.size	HEVC_Sei_Buf_Period, .-HEVC_Sei_Buf_Period
	.align	2
	.global	HEVC_Sei_Pic_Timming
	.type	HEVC_Sei_Pic_Timming, %function
HEVC_Sei_Pic_Timming:
	UNWIND(.fnstart)
	@ args = 0, pretend = 0, frame = 0
	@ frame_needed = 1, uses_anonymous_args = 0
	UNWIND(.movsp ip)
	mov	ip, sp
	stmfd	sp!, {r4, r5, r6, r7, r8, r9, fp, ip, lr, pc}
	UNWIND(.pad #4)
	UNWIND(.save {r4, r5, r6, r7, r8, r9, fp, ip, lr})
	UNWIND(.setfp fp, ip, #-4)
	sub	fp, ip, #4
	add	r3, r0, #8192
	mov	r5, r2
	mov	r4, r0
	mov	r6, r1
	ldr	r0, [r3, #2884]
	ldr	r2, [r3, #2888]
	add	r0, r0, #1
	str	r0, [r3, #2884]
	add	r2, r2, #1
	str	r2, [r3, #2888]
	ldrb	r3, [r5, #2]	@ zero_extendqisi2
	cmp	r3, #0
	bne	.L1784
.L1757:
	ldrh	r3, [r5, #44]
	cmp	r3, #0
	beq	.L1759
	ldr	r1, [r5, #60]
	ldr	r0, [r4, #2324]
	add	r1, r1, #1
	bl	BsGet
	add	r0, r0, #1
	str	r0, [r6, #8]
	ldr	r1, [r5, #64]
	ldr	r0, [r4, #2324]
	add	r1, r1, #1
	bl	BsGet
	str	r0, [r6, #12]
	ldrb	r3, [r5, #46]	@ zero_extendqisi2
	cmp	r3, #0
	bne	.L1760
.L1763:
	ldr	r2, [r4, #252]
	ldr	r3, .L1787
	ldr	r3, [r3, r2, asl #2]
	ldrsb	r2, [r3, #44]
	cmp	r2, #1
	beq	.L1785
.L1759:
	ldr	r0, [r4, #2324]
	bl	BsToNextByte
	mov	r0, #0
	ldmfd	sp, {r4, r5, r6, r7, r8, r9, fp, sp, pc}
.L1784:
	mov	r1, #4
	ldr	r0, [r4, #2324]
	bl	BsGet
	mov	r1, #2
	str	r0, [r6]
	ldr	r0, [r4, #2324]
	bl	BsGet
	mov	r1, #1
	str	r0, [r6, #4]
	ldr	r0, [r4, #2324]
	bl	BsGet
	b	.L1757
.L1785:
	ldr	r2, [r3, #156]
	cmp	r2, #0
	bne	.L1759
	ldr	r3, [r3, #160]
	cmp	r3, #1
	bne	.L1759
	mov	r2, r5
	mov	r1, r6
	mov	r0, r4
	bl	HEVC_Sei_Get_Dpb_Output_Time
	b	.L1759
.L1760:
	ldr	r1, [r5, #52]
	ldr	r0, [r4, #2324]
	add	r1, r1, #1
	bl	BsGet
	ldrb	r3, [r5, #46]	@ zero_extendqisi2
	cmp	r3, #0
	beq	.L1763
	ldrb	r3, [r5, #47]	@ zero_extendqisi2
	cmp	r3, #0
	beq	.L1763
	ldr	r1, .L1787+4
	ldr	r0, [r4, #2324]
	bl	HEVC_ue_v
	mov	r1, #1
	mov	r8, r0
	ldr	r0, [r4, #2324]
	bl	BsGet
	uxtb	r9, r0
	cmp	r9, #0
	bne	.L1786
.L1764:
	cmp	r8, #255
	bhi	.L1768
	add	r8, r8, #1
	mov	r7, #0
	b	.L1767
.L1766:
	cmp	r7, r8
	beq	.L1763
.L1767:
	ldr	r1, .L1787+8
	add	r7, r7, #1
	ldr	r0, [r4, #2324]
	bl	HEVC_ue_v
	cmp	r9, #0
	bne	.L1766
	ldr	r1, [r5, #48]
	ldr	r0, [r4, #2324]
	add	r1, r1, #1
	bl	BsGet
	b	.L1766
.L1786:
	ldr	r1, [r5, #48]
	ldr	r0, [r4, #2324]
	add	r1, r1, #1
	bl	BsGet
	b	.L1764
.L1768:
	ldr	r1, .L1787+12
	mov	r0, #1
	bl	dprint_vfmw
	mvn	r0, #0
	ldmfd	sp, {r4, r5, r6, r7, r8, r9, fp, sp, pc}
.L1788:
	.align	2
.L1787:
	.word	s_pstVfmwChan
	.word	.LC162
	.word	.LC164
	.word	.LC163
	UNWIND(.fnend)
	.size	HEVC_Sei_Pic_Timming, .-HEVC_Sei_Pic_Timming
	.align	2
	.global	HEVC_Sei_Color_Volume_Reconstruction_Info
	.type	HEVC_Sei_Color_Volume_Reconstruction_Info, %function
HEVC_Sei_Color_Volume_Reconstruction_Info:
	UNWIND(.fnstart)
	@ args = 0, pretend = 0, frame = 0
	@ frame_needed = 1, uses_anonymous_args = 0
	UNWIND(.movsp ip)
	mov	ip, sp
	stmfd	sp!, {r4, r5, r6, r7, fp, ip, lr, pc}
	UNWIND(.pad #4)
	UNWIND(.save {r4, r5, r6, r7, fp, ip, lr})
	UNWIND(.setfp fp, ip, #-4)
	sub	fp, ip, #4
	cmp	r1, #0
	cmpne	r0, #0
	mov	r4, r0
	mov	r5, r1
	beq	.L1799
	ldr	r1, .L1803
	ldr	r0, [r0, #2324]
	bl	HEVC_ue_v
	mov	r1, #1
	ldr	r0, [r4, #2324]
	bl	BsGet
	tst	r0, #255
	beq	.L1791
.L1795:
	mov	r3, #1
	mov	r0, #0
	strb	r3, [r5]
	ldmfd	sp, {r4, r5, r6, r7, fp, sp, pc}
.L1791:
	mov	r1, #1
	ldr	r0, [r4, #2324]
	bl	BsGet
	mov	r1, #1
	ldr	r0, [r4, #2324]
	bl	BsGet
	uxtb	r0, r0
	cmp	r0, #1
	beq	.L1802
.L1792:
	mov	r1, #8
	ldr	r0, [r4, #2324]
	bl	BsGet
	mov	r1, #8
	strb	r0, [r5, #2]
	ldr	r0, [r4, #2324]
	bl	BsGet
	mov	r1, #8
	strb	r0, [r5, #3]
	ldr	r0, [r4, #2324]
	bl	BsGet
	mov	r1, #8
	strb	r0, [r5, #4]
	ldr	r0, [r4, #2324]
	bl	BsGet
	mov	r1, #8
	strb	r0, [r5, #5]
	ldr	r0, [r4, #2324]
	bl	BsGet
	mov	r1, #4
	strb	r0, [r5, #6]
	ldr	r0, [r4, #2324]
	bl	BsGet
	tst	r0, #255
	strb	r0, [r5, #7]
	addne	r7, r5, #7
	movne	r6, #0
	beq	.L1797
.L1796:
	mov	r1, #8
	ldr	r0, [r4, #2324]
	bl	BsGet
	mov	r1, #8
	add	r6, r6, #1
	strb	r0, [r7, #1]!
	ldr	r0, [r4, #2324]
	bl	BsGet
	strb	r0, [r7, #15]
	ldrb	r3, [r5, #7]	@ zero_extendqisi2
	cmp	r3, r6
	bhi	.L1796
.L1797:
	mov	r1, #4
	ldr	r0, [r4, #2324]
	bl	BsGet
	tst	r0, #255
	strb	r0, [r5, #38]
	addne	r7, r5, #38
	movne	r6, #0
	beq	.L1795
.L1798:
	mov	r1, #8
	ldr	r0, [r4, #2324]
	bl	BsGet
	mov	r1, #8
	add	r6, r6, #1
	strb	r0, [r7, #1]!
	ldr	r0, [r4, #2324]
	bl	BsGet
	strb	r0, [r7, #15]
	ldrb	r3, [r5, #38]	@ zero_extendqisi2
	cmp	r3, r6
	bhi	.L1798
	b	.L1795
.L1799:
	mvn	r0, #0
	ldmfd	sp, {r4, r5, r6, r7, fp, sp, pc}
.L1802:
	mov	r1, #8
	ldr	r0, [r4, #2324]
	bl	BsGet
	mov	r1, #8
	strb	r0, [r5, #1]
	ldr	r0, [r4, #2324]
	bl	BsGet
	b	.L1792
.L1804:
	.align	2
.L1803:
	.word	.LC165
	UNWIND(.fnend)
	.size	HEVC_Sei_Color_Volume_Reconstruction_Info, .-HEVC_Sei_Color_Volume_Reconstruction_Info
	.align	2
	.global	HEVC_Sei_User_Data_Registered_Itu_T_T35
	.type	HEVC_Sei_User_Data_Registered_Itu_T_T35, %function
HEVC_Sei_User_Data_Registered_Itu_T_T35:
	UNWIND(.fnstart)
	@ args = 0, pretend = 0, frame = 0
	@ frame_needed = 1, uses_anonymous_args = 0
	UNWIND(.movsp ip)
	mov	ip, sp
	stmfd	sp!, {r4, r5, r6, r7, fp, ip, lr, pc}
	UNWIND(.pad #4)
	UNWIND(.save {r4, r5, r6, r7, fp, ip, lr})
	UNWIND(.setfp fp, ip, #-4)
	sub	fp, ip, #4
	cmp	r1, #0
	cmpne	r0, #0
	mov	r6, r2
	mov	r5, r0
	moveq	r4, #1
	movne	r4, #0
	beq	.L1812
	cmp	r2, #3
	bls	.L1815
	mov	r1, #8
	ldr	r0, [r0, #2324]
	bl	BsGet
	mov	r1, #16
	ldr	r0, [r5, #2324]
	bl	BsGet
	mov	r1, #8
	ldr	r0, [r5, #2324]
	bl	BsGet
	uxtb	r0, r0
	cmp	r0, #2
	beq	.L1816
	cmp	r0, #4
	beq	.L1817
	subs	r6, r6, #4
	beq	.L1811
.L1810:
	add	r4, r4, #1
	mov	r1, #8
	ldr	r0, [r5, #2324]
	bl	BsGet
	cmp	r6, r4
	bne	.L1810
.L1811:
	mov	r0, #0
	ldmfd	sp, {r4, r5, r6, r7, fp, sp, pc}
.L1816:
	add	r1, r5, #2896
	mov	r0, r5
	add	r1, r1, #8
	bl	HEVC_Sei_TSI
	cmn	r0, #1
	movne	r0, #0
	moveq	r0, #1
	rsb	r0, r0, #0
	ldmfd	sp, {r4, r5, r6, r7, fp, sp, pc}
.L1817:
	add	r1, r5, #2896
	mov	r0, r5
	add	r1, r1, #11
	bl	HEVC_Sei_Color_Volume_Reconstruction_Info
	cmn	r0, #1
	movne	r0, #0
	moveq	r0, #1
	rsb	r0, r0, #0
	ldmfd	sp, {r4, r5, r6, r7, fp, sp, pc}
.L1812:
	mvn	r0, #0
	ldmfd	sp, {r4, r5, r6, r7, fp, sp, pc}
.L1815:
	ldr	r1, .L1818
	mov	r0, #1
	bl	dprint_vfmw
	mvn	r0, #0
	ldmfd	sp, {r4, r5, r6, r7, fp, sp, pc}
.L1819:
	.align	2
.L1818:
	.word	.LC166
	UNWIND(.fnend)
	.size	HEVC_Sei_User_Data_Registered_Itu_T_T35, .-HEVC_Sei_User_Data_Registered_Itu_T_T35
	.align	2
	.global	HEVC_DecShortTermRefPicSet
	.type	HEVC_DecShortTermRefPicSet, %function
HEVC_DecShortTermRefPicSet:
	UNWIND(.fnstart)
	@ args = 0, pretend = 0, frame = 16
	@ frame_needed = 1, uses_anonymous_args = 0
	UNWIND(.movsp ip)
	mov	ip, sp
	stmfd	sp!, {r4, r5, r6, r7, r8, r9, r10, fp, ip, lr, pc}
	UNWIND(.pad #4)
	UNWIND(.save {r4, r5, r6, r7, r8, r9, r10, fp, ip, lr})
	UNWIND(.setfp fp, ip, #-4)
	sub	fp, ip, #4
	UNWIND(.pad #20)
	sub	sp, sp, #20
	subs	r6, r3, #0
	mov	r5, r0
	mov	r9, r1
	mov	r4, r2
	bne	.L1865
.L1821:
	ldr	r1, .L1874
	ldr	r0, [r5, #2324]
	bl	HEVC_ue_v
	cmp	r0, #16
	str	r0, [r4]
	bhi	.L1866
	ldr	r1, .L1874+4
	ldr	r0, [r5, #2324]
	bl	HEVC_ue_v
	cmp	r0, #16
	str	r0, [r4, #4]
	bhi	.L1867
	ldr	r6, [r4]
	add	r2, r0, r6
	str	r2, [r4, #8]
	cmp	r2, #16
	bhi	.L1844
	cmp	r6, #0
	addne	r10, r4, #28
	addne	r9, r4, #11
	movne	r7, #0
	movne	r8, r7
	bne	.L1848
	b	.L1846
.L1847:
	str	r8, [r10, #4]!
	ldr	r0, [r5, #2324]
	bl	BsGet
	strb	r0, [r9, #1]!
	ldr	r6, [r4]
	cmp	r6, r7
	bls	.L1868
.L1848:
	ldr	r1, .L1874+8
	add	r7, r7, #1
	ldr	r0, [r5, #2324]
	bl	HEVC_ue_v
	mov	r1, #1
	cmp	r0, #32768
	mvn	r3, r0
	add	r8, r8, r3
	bcc	.L1847
	mov	r2, r0
	ldr	r1, .L1874+12
	mov	r0, #1
	bl	dprint_vfmw
	mvn	r0, #0
	sub	sp, fp, #40
	ldmfd	sp, {r4, r5, r6, r7, r8, r9, r10, fp, sp, pc}
.L1865:
	mov	r1, #1
	ldr	r0, [r0, #2324]
	bl	BsGet
	cmp	r0, #0
	beq	.L1821
	ldr	r7, [r9, #176]
	cmp	r7, r6
	movne	r0, #0
	beq	.L1869
.L1822:
	sub	r3, r6, #1
	rsb	r8, r0, r3
	cmp	r8, r3
	bhi	.L1870
	mov	r1, #1
	ldr	r0, [r5, #2324]
	bl	BsGet
	ldr	r1, .L1874+16
	mov	r6, r0
	ldr	r0, [r5, #2324]
	bl	HEVC_ue_v
	mov	r3, #164
	mul	r8, r3, r8
	mov	r3, r6, asl #1
	rsb	r3, r3, #1
	add	r2, r9, r8
	ldr	r2, [r2, #2172]
	cmp	r2, #16
	mla	r3, r0, r3, r3
	str	r3, [fp, #-56]
	bhi	.L1871
	add	r6, r8, #2192
	mov	r10, #0
	add	r6, r6, #4
	str	r10, [fp, #-48]
	add	r6, r9, r6
	str	r10, [fp, #-52]
	mov	r7, r10
	b	.L1831
.L1826:
	sub	r3, r0, #1
	cmp	r3, #1
	bls	.L1872
.L1827:
	add	r3, r9, r8
	add	r10, r10, #1
	add	r6, r6, #4
	ldr	r3, [r3, #2172]
	cmp	r3, r10
	bcc	.L1873
.L1831:
	mov	r1, #1
	ldr	r0, [r5, #2324]
	bl	BsGet
	cmp	r0, #0
	bne	.L1826
	mov	r1, #1
	ldr	r0, [r5, #2324]
	bl	BsGet
	mov	r0, r0, asl #1
	sub	r3, r0, #1
	cmp	r3, #1
	bhi	.L1827
.L1872:
	add	r3, r9, r8
	ldr	r2, [fp, #-56]
	add	r1, r4, r7
	add	ip, r7, #8
	ldr	r3, [r3, #2172]
	sub	r0, r0, #1
	clz	r0, r0
	add	r7, r7, #1
	cmp	r3, r10
	mov	r0, r0, lsr #5
	ldrhi	r3, [r6]
	movls	r3, #0
	add	r3, r3, r2
	str	r3, [r4, ip, asl #2]
	cmp	r3, #0
	mov	r3, r1
	strb	r0, [r1, #12]
	ldrlt	r3, [fp, #-52]
	ldrge	r3, [fp, #-48]
	addlt	r3, r3, #1
	addge	r3, r3, #1
	strlt	r3, [fp, #-52]
	strge	r3, [fp, #-48]
	b	.L1827
.L1873:
	ldr	r3, [fp, #-52]
	cmp	r7, #16
	ldr	r2, [fp, #-48]
	str	r7, [r4, #8]
	str	r3, [r4]
	str	r2, [r4, #4]
	bhi	.L1832
	cmp	r3, #16
	bhi	.L1832
	cmp	r2, #16
	bhi	.L1832
	cmp	r7, #1
	subhi	r7, r7, #1
	addhi	r8, r4, #32
	addhi	r6, r4, #12
	movhi	r5, #0
	bls	.L1838
.L1837:
	ldr	ip, [r8, #4]!
	cmp	r5, #0
	ldrb	lr, [r6, #1]!	@ zero_extendqisi2
	mov	r2, r5
	movge	r1, r8
	movge	r3, r6
	blt	.L1840
.L1836:
	ldr	r0, [r1, #-4]!
	sub	r3, r3, #1
	cmp	ip, r0
	strlt	r0, [r1, #4]
	ldrltb	r0, [r3]	@ zero_extendqisi2
	strltb	r0, [r3, #1]
	strlt	ip, [r1]
	strltb	lr, [r3]
	subs	r2, r2, #1
	bpl	.L1836
.L1840:
	add	r5, r5, #1
	cmp	r5, r7
	bne	.L1837
.L1838:
	ldr	r3, [fp, #-52]
	movs	r6, r3, lsr #1
	beq	.L1835
	ldr	r3, [fp, #-52]
	add	r0, r4, #32
	mov	r1, #0
	add	r2, r3, #7
	add	r3, r3, #11
	add	r3, r4, r3
	add	r2, r4, r2, lsl #2
	add	r4, r4, #12
.L1841:
	ldr	r5, [r2]
	add	r1, r1, #1
	ldr	lr, [r0]
	cmp	r1, r6
	ldrb	ip, [r4]	@ zero_extendqisi2
	str	r5, [r0], #4
	ldrb	r5, [r3]	@ zero_extendqisi2
	strb	r5, [r4], #1
	str	lr, [r2], #-4
	strb	ip, [r3], #-1
	bne	.L1841
.L1835:
	mov	r0, #0
.L1823:
	sub	sp, fp, #40
	ldmfd	sp, {r4, r5, r6, r7, r8, r9, r10, fp, sp, pc}
.L1868:
	ldr	r2, [r4, #8]
.L1846:
	cmp	r2, r6
	bls	.L1835
	add	r8, r6, #7
	add	r9, r6, #11
	add	r9, r4, r9
	mov	r7, #0
	add	r8, r4, r8, lsl #2
.L1849:
	ldr	r1, .L1874+20
	add	r6, r6, #1
	ldr	r0, [r5, #2324]
	bl	HEVC_ue_v
	mov	r1, #1
	add	r0, r0, r1
	add	r7, r7, r0
	str	r7, [r8, #4]!
	ldr	r0, [r5, #2324]
	bl	BsGet
	strb	r0, [r9, #1]!
	ldr	r3, [r4, #8]
	cmp	r3, r6
	bhi	.L1849
	b	.L1835
.L1869:
	ldr	r1, .L1874+24
	ldr	r0, [r5, #2324]
	bl	HEVC_ue_v
	add	r2, r0, #1
	cmp	r7, r2
	bcs	.L1822
	mov	r3, r7
	ldr	r1, .L1874+28
	mov	r0, #1
	bl	dprint_vfmw
	mvn	r0, #0
	b	.L1823
.L1832:
	ldr	r1, .L1874+32
	mov	r0, #1
	bl	dprint_vfmw
	mvn	r0, #0
	b	.L1823
.L1867:
	ldr	r2, [r4]
	mov	r0, #1
	ldr	r1, .L1874+36
	bl	dprint_vfmw
	mvn	r0, #0
	b	.L1823
.L1870:
	mov	r2, r8
	ldr	r1, .L1874+40
	mov	r0, #1
	bl	dprint_vfmw
	mvn	r0, #0
	b	.L1823
.L1871:
	ldr	r1, .L1874+44
	mov	r0, #1
	bl	dprint_vfmw
	mvn	r0, #0
	b	.L1823
.L1866:
	mov	r2, r0
	ldr	r1, .L1874+48
	mov	r0, #1
	bl	dprint_vfmw
	mvn	r0, #0
	b	.L1823
.L1844:
	mov	r3, #16
	ldr	r1, .L1874+52
	mov	r0, #1
	bl	dprint_vfmw
	mvn	r0, #0
	b	.L1823
.L1875:
	.align	2
.L1874:
	.word	.LC173
	.word	.LC175
	.word	.LC178
	.word	.LC179
	.word	.LC170
	.word	.LC180
	.word	.LC167
	.word	.LC168
	.word	.LC172
	.word	.LC176
	.word	.LC169
	.word	.LC171
	.word	.LC174
	.word	.LC177
	UNWIND(.fnend)
	.size	HEVC_DecShortTermRefPicSet, .-HEVC_DecShortTermRefPicSet
	.align	2
	.global	HEVC_DecHrdParam
	.type	HEVC_DecHrdParam, %function
HEVC_DecHrdParam:
	UNWIND(.fnstart)
	@ args = 0, pretend = 0, frame = 0
	@ frame_needed = 1, uses_anonymous_args = 0
	UNWIND(.movsp ip)
	mov	ip, sp
	stmfd	sp!, {r3, r4, r5, r6, r7, r8, r9, r10, fp, ip, lr, pc}
	UNWIND(.pad #4)
	UNWIND(.save {r3, r4, r5, r6, r7, r8, r9, r10, fp, ip, lr})
	UNWIND(.setfp fp, ip, #-4)
	sub	fp, ip, #4
	cmp	r1, #0
	cmpne	r0, #0
	mov	r8, r3
	mov	r6, r0
	mov	r9, r1
	beq	.L1898
	cmp	r2, #0
	bne	.L1925
.L1881:
	add	r5, r9, #24
	mov	r7, #0
.L1893:
	mov	r1, #1
	ldr	r0, [r6, #2324]
	bl	BsGet
	uxtb	r4, r0
	cmp	r4, #0
	movne	r3, #0
	strne	r3, [r5]
	beq	.L1926
.L1896:
	ldr	r1, .L1931
	ldr	r0, [r6, #2324]
	bl	HEVC_ue_v
.L1884:
	ldr	r1, .L1931+4
	ldr	r0, [r6, #2324]
	bl	HEVC_ue_v
	mov	r2, r0
	str	r0, [r5]
.L1885:
	cmp	r2, #31
	bhi	.L1927
.L1886:
	mov	r4, #0
.L1897:
	cmp	r4, #0
	beq	.L1928
	cmp	r4, #1
	beq	.L1923
.L1892:
	add	r4, r4, #1
	cmp	r4, #2
	bne	.L1897
.L1891:
	add	r7, r7, #1
	add	r5, r5, #4
	cmp	r8, r7
	bcs	.L1893
	mov	r0, #0
	ldmfd	sp, {r3, r4, r5, r6, r7, r8, r9, r10, fp, sp, pc}
.L1927:
	ldr	r1, .L1931+8
	mov	r0, #1
	bl	dprint_vfmw
	mov	r3, #0
	str	r3, [r5]
	b	.L1886
.L1926:
	mov	r1, #1
	ldr	r0, [r6, #2324]
	bl	BsGet
	str	r4, [r5]
	tst	r0, #255
	bne	.L1896
	mov	r1, #1
	ldr	r0, [r6, #2324]
	bl	BsGet
	tst	r0, #255
	beq	.L1884
	ldr	r2, [r5]
	b	.L1885
.L1925:
	mov	r1, #1
	ldr	r0, [r0, #2324]
	bl	BsGet
	mov	r1, #1
	strb	r0, [r9]
	ldr	r0, [r6, #2324]
	bl	BsGet
	strb	r0, [r9, #1]
	ldrh	r3, [r9]
	cmp	r3, #0
	beq	.L1881
	mov	r1, #1
	ldr	r0, [r6, #2324]
	bl	BsGet
	uxtb	r0, r0
	strb	r0, [r9, #2]
	cmp	r0, #0
	bne	.L1929
.L1879:
	mov	r1, #4
	ldr	r0, [r6, #2324]
	bl	BsGet
	mov	r1, #4
	ldr	r0, [r6, #2324]
	bl	BsGet
	ldrb	r3, [r9, #2]	@ zero_extendqisi2
	cmp	r3, #0
	bne	.L1930
.L1880:
	mov	r1, #5
	ldr	r0, [r6, #2324]
	bl	BsGet
	mov	r1, #5
	str	r0, [r9, #12]
	ldr	r0, [r6, #2324]
	bl	BsGet
	mov	r1, #5
	str	r0, [r9, #16]
	ldr	r0, [r6, #2324]
	bl	BsGet
	str	r0, [r9, #20]
	b	.L1881
.L1898:
	mvn	r0, #0
	ldmfd	sp, {r3, r4, r5, r6, r7, r8, r9, r10, fp, sp, pc}
.L1930:
	mov	r1, #4
	ldr	r0, [r6, #2324]
	bl	BsGet
	b	.L1880
.L1929:
	mov	r1, #8
	ldr	r0, [r6, #2324]
	bl	BsGet
	mov	r1, #5
	ldr	r0, [r6, #2324]
	bl	BsGet
	mov	r1, #1
	str	r0, [r9, #4]
	ldr	r0, [r6, #2324]
	bl	BsGet
	mov	r1, #5
	strb	r0, [r9, #3]
	ldr	r0, [r6, #2324]
	bl	BsGet
	str	r0, [r9, #20]
	b	.L1879
.L1928:
	ldrb	r3, [r9]	@ zero_extendqisi2
	cmp	r3, #0
	bne	.L1900
	mov	r4, #1
.L1923:
	ldrb	r3, [r9, #1]	@ zero_extendqisi2
	cmp	r3, #0
	beq	.L1891
.L1900:
	mov	r10, #0
	b	.L1895
.L1894:
	mov	r1, #1
	ldr	r0, [r6, #2324]
	bl	BsGet
	ldr	r3, [r5]
	cmp	r3, r10
	bcc	.L1892
.L1895:
	ldr	r1, .L1931+12
	add	r10, r10, #1
	ldr	r0, [r6, #2324]
	bl	HEVC_ue_v
	ldr	r1, .L1931+16
	ldr	r0, [r6, #2324]
	bl	HEVC_ue_v
	ldrb	r3, [r9, #2]	@ zero_extendqisi2
	cmp	r3, #0
	beq	.L1894
	ldr	r1, .L1931+20
	ldr	r0, [r6, #2324]
	bl	HEVC_ue_v
	ldr	r1, .L1931+24
	ldr	r0, [r6, #2324]
	bl	HEVC_ue_v
	b	.L1894
.L1932:
	.align	2
.L1931:
	.word	.LC181
	.word	.LC182
	.word	.LC183
	.word	.LC184
	.word	.LC185
	.word	.LC186
	.word	.LC187
	UNWIND(.fnend)
	.size	HEVC_DecHrdParam, .-HEVC_DecHrdParam
	.align	2
	.global	HEVC_ProcessVPS
	.type	HEVC_ProcessVPS, %function
HEVC_ProcessVPS:
	UNWIND(.fnstart)
	@ args = 0, pretend = 0, frame = 56
	@ frame_needed = 1, uses_anonymous_args = 0
	UNWIND(.movsp ip)
	mov	ip, sp
	stmfd	sp!, {r4, r5, r6, r7, r8, r9, r10, fp, ip, lr, pc}
	UNWIND(.pad #4)
	UNWIND(.save {r4, r5, r6, r7, r8, r9, r10, fp, ip, lr})
	UNWIND(.setfp fp, ip, #-4)
	sub	fp, ip, #4
	UNWIND(.pad #60)
	sub	sp, sp, #60
	mov	r5, r0
	mov	r6, r1
	ldr	r0, [r0, #2324]
	mov	r1, #1
	bl	BsGet
	mov	r1, #1
	strb	r0, [r6, #3]
	ldr	r0, [r5, #2324]
	bl	BsGet
	uxtb	r2, r0
	cmp	r2, #1
	beq	.L1934
	ldr	r1, .L1985
	mov	r0, #1
	bl	dprint_vfmw
.L1934:
	mov	r1, #6
	ldr	r0, [r5, #2324]
	bl	BsGet
	cmp	r0, #63
	str	r0, [r6, #8]
	bhi	.L1978
	mov	r1, #3
	ldr	r0, [r5, #2324]
	bl	BsGet
	cmp	r0, #7
	mov	r7, r0
	bhi	.L1979
	str	r0, [r6, #12]
	mov	r1, #1
	ldr	r0, [r5, #2324]
	bl	BsGet
	mov	r1, #16
	strb	r0, [r6, #1]
	ldr	r0, [r5, #2324]
	bl	BsGet
	movw	r3, #65535
	cmp	r0, r3
	bne	.L1980
	mov	r3, r7
	mov	r2, #1
	add	r1, r6, #124
	mov	r0, r5
	bl	HEVC_DecPTL
	subs	r4, r0, #0
	bne	.L1981
	mov	r1, #1
	ldr	r0, [r5, #2324]
	bl	BsGet
	cmp	r7, #0
	addge	r8, r6, #24
	addge	r9, r7, #1
	uxtb	r10, r0
	bge	.L1946
	b	.L1944
.L1943:
	add	r4, r4, #1
	cmp	r4, r9
	beq	.L1944
.L1946:
	ldr	r1, .L1985+4
	ldr	r0, [r5, #2324]
	bl	HEVC_ue_v
	ldr	r1, .L1985+8
	add	r0, r0, #1
	str	r0, [r8, #4]!
	ldr	r0, [r5, #2324]
	bl	HEVC_ue_v
	ldr	r1, .L1985+12
	str	r0, [r8, #32]
	ldr	r0, [r5, #2324]
	bl	HEVC_ue_v
	cmp	r10, #0
	str	r0, [r8, #64]
	bne	.L1943
	add	r3, r4, #1
	cmp	r7, r3
	blt	.L1944
	add	r1, r4, #7
	add	r1, r6, r1, lsl #2
.L1945:
	ldr	r2, [r6, #28]
	add	r3, r3, #1
	cmp	r9, r3
	str	r2, [r1, #4]!
	ldr	r2, [r6, #60]
	str	r2, [r1, #32]
	ldr	r2, [r6, #92]
	str	r2, [r1, #64]
	bne	.L1945
.L1944:
	mov	r1, #6
	ldr	r0, [r5, #2324]
	bl	BsGet
	ldr	r1, .L1985+16
	str	r0, [r6, #16]
	ldr	r0, [r5, #2324]
	bl	HEVC_ue_v
	cmp	r0, #1024
	str	r0, [r6, #20]
	bcs	.L1982
	cmp	r0, #0
	movgt	r8, #1
	ble	.L1948
.L1950:
	mov	r4, #0
.L1949:
	mov	r1, #1
	ldr	r0, [r5, #2324]
	bl	BsGet
	ldr	ip, [r6, #16]
	add	r4, r4, #1
	cmp	r4, ip
	bls	.L1949
	ldr	r3, [r6, #20]
	add	r8, r8, #1
	cmp	r3, r8
	bge	.L1950
.L1948:
	mov	r1, #1
	ldr	r0, [r5, #2324]
	bl	BsGet
	tst	r0, #255
	beq	.L1957
	mov	r1, #32
	ldr	r0, [r5, #2324]
	bl	BsGet
	mov	r1, #32
	ldr	r0, [r5, #2324]
	bl	BsGet
	mov	r1, #1
	ldr	r0, [r5, #2324]
	bl	BsGet
	tst	r0, #255
	bne	.L1983
.L1954:
	ldr	r1, .L1985+20
	ldr	r0, [r5, #2324]
	bl	HEVC_ue_v
	cmp	r0, #1024
	str	r0, [r6, #24]
	bhi	.L1955
	cmp	r0, #0
	ble	.L1957
	ldr	r1, .L1985+24
	mov	r4, #0
	ldr	r0, [r5, #2324]
	bl	HEVC_ue_v
	mov	r0, #1
.L1962:
	uxtb	r2, r0
	sub	r1, fp, #100
	mov	r3, r7
	mov	r0, r5
	bl	HEVC_DecHrdParam
	add	r4, r4, #1
	ldr	r1, .L1985+24
	cmp	r0, #0
	bne	.L1984
	ldr	r3, [r6, #24]
	cmp	r3, r4
	ble	.L1957
	ldr	r0, [r5, #2324]
	bl	HEVC_ue_v
	cmp	r4, #0
	mov	r0, #1
	beq	.L1962
	mov	r1, r0
	ldr	r0, [r5, #2324]
	bl	BsGet
	b	.L1962
.L1957:
	mov	r1, #1
	ldr	r0, [r5, #2324]
	bl	BsGet
	tst	r0, #255
	bne	.L1974
.L1953:
	mov	r0, #0
.L1975:
	sub	sp, fp, #40
	ldmfd	sp, {r4, r5, r6, r7, r8, r9, r10, fp, sp, pc}
.L1961:
	ldr	r0, [r5, #2324]
	bl	BsGet
.L1974:
	mov	r0, r5
	bl	HEVC_MoreRbspData
	mov	r1, #1
	cmp	r0, #0
	bne	.L1961
	b	.L1953
.L1984:
	ldr	r1, .L1985+28
	mov	r0, #1
	bl	dprint_vfmw
	mvn	r0, #0
	sub	sp, fp, #40
	ldmfd	sp, {r4, r5, r6, r7, r8, r9, r10, fp, sp, pc}
.L1983:
	ldr	r1, .L1985+32
	ldr	r0, [r5, #2324]
	bl	HEVC_ue_v
	b	.L1954
.L1980:
	ldr	r1, .L1985+36
	mov	r0, #1
	bl	dprint_vfmw
	mvn	r0, #0
	b	.L1975
.L1978:
	mov	r2, r0
	ldr	r1, .L1985+40
	mov	r0, #1
	bl	dprint_vfmw
	mvn	r0, #0
	b	.L1975
.L1981:
	ldr	r1, .L1985+44
	mov	r0, #1
	bl	dprint_vfmw
	mvn	r0, #0
	b	.L1975
.L1979:
	mov	r2, r0
	ldr	r1, .L1985+48
	mov	r0, #1
	bl	dprint_vfmw
	mvn	r0, #0
	b	.L1975
.L1982:
	mov	r2, r0
	mov	r3, #1024
	ldr	r1, .L1985+52
	mov	r0, #1
	bl	dprint_vfmw
	mvn	r0, #0
	b	.L1975
.L1955:
	mov	r2, r0
	mov	r3, #1024
	ldr	r1, .L1985+56
	mov	r0, #1
	bl	dprint_vfmw
	mvn	r0, #0
	b	.L1975
.L1986:
	.align	2
.L1985:
	.word	.LC188
	.word	.LC194
	.word	.LC195
	.word	.LC196
	.word	.LC193
	.word	.LC199
	.word	.LC201
	.word	.LC202
	.word	.LC198
	.word	.LC191
	.word	.LC189
	.word	.LC192
	.word	.LC190
	.word	.LC197
	.word	.LC200
	UNWIND(.fnend)
	.size	HEVC_ProcessVPS, .-HEVC_ProcessVPS
	.align	2
	.global	HEVC_DecVPS
	.type	HEVC_DecVPS, %function
HEVC_DecVPS:
	UNWIND(.fnstart)
	@ args = 0, pretend = 0, frame = 0
	@ frame_needed = 1, uses_anonymous_args = 0
	UNWIND(.movsp ip)
	mov	ip, sp
	stmfd	sp!, {r4, r5, r6, r7, r8, r9, fp, ip, lr, pc}
	UNWIND(.pad #4)
	UNWIND(.save {r4, r5, r6, r7, r8, r9, fp, ip, lr})
	UNWIND(.setfp fp, ip, #-4)
	sub	fp, ip, #4
	mov	r1, #4
	mov	r5, r0
	ldr	r0, [r0, #2324]
	bl	BsGet
	cmp	r0, #15
	mov	r6, r0
	bhi	.L1993
	ldr	r3, [r5, #2328]
	mov	r4, r0, asl #7
	add	r4, r4, r0, lsl #2
	add	r2, r3, r4
	ldrb	r8, [r3, r4]	@ zero_extendqisi2
	cmp	r8, #0
	bne	.L1994
	str	r0, [r2, #4]
	mov	r0, r5
	ldr	r1, [r5, #2328]
	add	r1, r1, r4
	bl	HEVC_ProcessVPS
	subs	r7, r0, #0
	bne	.L1995
	ldr	r3, [r5, #2328]
	mov	r2, #1
	add	r3, r3, r4
	strb	r2, [r3, #2]
	ldr	r3, [r5, #2328]
	strb	r2, [r3, r4]
.L1989:
	mov	r0, r7
	ldmfd	sp, {r4, r5, r6, r7, r8, r9, fp, sp, pc}
.L1994:
	ldr	r9, .L1997
	mov	r2, #132
	ldr	r8, .L1997+4
	mov	r1, #0
	ldr	r0, .L1997+8
	ldr	r3, [r9, #48]
	blx	r3
	ldr	r1, .L1997+8
	mov	r0, r5
	str	r6, [r8, #-3460]
	bl	HEVC_ProcessVPS
	subs	r7, r0, #0
	bne	.L1996
	ldr	r0, [r5, #2328]
	mov	r3, #1
	ldr	ip, [r9, #56]
	mov	r2, #132
	add	r0, r0, r4
	strb	r3, [r8, #-3462]
	strb	r3, [r8, #-3464]
	ldr	r1, .L1997+8
	blx	ip
	mov	r0, r7
	ldmfd	sp, {r4, r5, r6, r7, r8, r9, fp, sp, pc}
.L1996:
	mov	r2, r6
	ldr	r1, .L1997+12
	mov	r0, #1
	mvn	r7, #0
	bl	dprint_vfmw
	b	.L1989
.L1993:
	ldr	r1, .L1997+16
	mov	r0, #1
	bl	dprint_vfmw
	mvn	r7, #0
	b	.L1989
.L1995:
	mov	r2, r6
	ldr	r1, .L1997+20
	mov	r0, #1
	mvn	r7, #0
	bl	dprint_vfmw
	ldr	r3, [r5, #2328]
	mov	r2, #1
	add	r3, r3, r4
	strb	r2, [r3, #2]
	ldr	r3, [r5, #2328]
	strb	r8, [r3, r4]
	b	.L1989
.L1998:
	.align	2
.L1997:
	.word	vfmw_Osal_Func_Ptr_S
	.word	.LANCHOR5
	.word	.LANCHOR5-3464
	.word	.LC204
	.word	.LC203
	.word	.LC205
	UNWIND(.fnend)
	.size	HEVC_DecVPS, .-HEVC_DecVPS
	.align	2
	.global	HEVC_DecVuiParam
	.type	HEVC_DecVuiParam, %function
HEVC_DecVuiParam:
	UNWIND(.fnstart)
	@ args = 0, pretend = 0, frame = 0
	@ frame_needed = 1, uses_anonymous_args = 0
	UNWIND(.movsp ip)
	mov	ip, sp
	stmfd	sp!, {r4, r5, r6, r7, fp, ip, lr, pc}
	UNWIND(.pad #4)
	UNWIND(.save {r4, r5, r6, r7, fp, ip, lr})
	UNWIND(.setfp fp, ip, #-4)
	sub	fp, ip, #4
	mov	r4, r0
	mov	r5, r1
	ldr	r0, [r0, #2324]
	mov	r1, #1
	mov	r6, r2
	bl	BsGet
	tst	r0, #255
	bne	.L2043
.L2001:
	mov	r1, #1
	ldr	r0, [r4, #2324]
	bl	BsGet
	tst	r0, #255
	bne	.L2044
.L2003:
	mov	r1, #1
	ldr	r0, [r4, #2324]
	bl	BsGet
	tst	r0, #255
	bne	.L2045
.L2005:
	mov	r1, #1
	ldr	r0, [r4, #2324]
	bl	BsGet
	tst	r0, #255
	bne	.L2046
.L2007:
	mov	r1, #1
	ldr	r0, [r4, #2324]
	bl	BsGet
	mov	r1, #1
	ldr	r0, [r4, #2324]
	bl	BsGet
	mov	r1, #1
	ldr	r0, [r4, #2324]
	bl	BsGet
	mov	r1, #1
	strb	r0, [r5, #2]
	ldr	r0, [r4, #2324]
	bl	BsGet
	tst	r0, #255
	beq	.L2008
	ldr	r1, .L2052
	ldr	r0, [r4, #2324]
	bl	HEVC_ue_v
	ldr	r3, [r6, #60]
	cmp	r3, #3
	bhi	.L2047
	ldr	r1, .L2052+4
	ldr	r0, [r4, #2324]
	bl	HEVC_ue_v
	ldr	r1, .L2052+8
	ldr	r0, [r4, #2324]
	bl	HEVC_ue_v
	ldr	r1, .L2052+12
	ldr	r0, [r4, #2324]
	bl	HEVC_ue_v
.L2008:
	mov	r1, #1
	ldr	r0, [r4, #2324]
	bl	BsGet
	tst	r0, #255
	beq	.L2011
	mov	r1, #32
	ldr	r0, [r4, #2324]
	bl	BsGet
	mov	r1, #32
	str	r0, [r5, #36]
	ldr	r0, [r4, #2324]
	bl	BsGet
	ldr	r2, [r5, #36]
	cmp	r2, #0
	str	r0, [r5, #40]
	bne	.L2048
.L2012:
	mov	r1, #1
	ldr	r0, [r4, #2324]
	bl	BsGet
	tst	r0, #255
	bne	.L2049
.L2013:
	mov	r1, #1
	ldr	r0, [r4, #2324]
	bl	BsGet
	tst	r0, #255
	bne	.L2050
.L2011:
	mov	r1, #1
	ldr	r0, [r4, #2324]
	bl	BsGet
	uxtb	r0, r0
	cmp	r0, #0
	ldmeqfd	sp, {r4, r5, r6, r7, fp, sp, pc}
	mov	r1, #1
	ldr	r0, [r4, #2324]
	bl	BsGet
	mov	r1, #1
	ldr	r0, [r4, #2324]
	bl	BsGet
	mov	r1, #1
	ldr	r0, [r4, #2324]
	bl	BsGet
	ldr	r1, .L2052+16
	ldr	r0, [r4, #2324]
	bl	HEVC_ue_v
	cmp	r0, #4096
	bcs	.L2051
.L2014:
	ldr	r1, .L2052+20
	ldr	r0, [r4, #2324]
	bl	HEVC_ue_v
	ldr	r1, .L2052+24
	ldr	r0, [r4, #2324]
	bl	HEVC_ue_v
	ldr	r1, .L2052+28
	ldr	r0, [r4, #2324]
	bl	HEVC_ue_v
	ldr	r0, [r4, #2324]
	ldr	r1, .L2052+32
	bl	HEVC_ue_v
	mov	r0, #0
	ldmfd	sp, {r4, r5, r6, r7, fp, sp, pc}
.L2043:
	mov	r1, #8
	ldr	r0, [r4, #2324]
	bl	BsGet
	cmp	r0, #255
	str	r0, [r5, #8]
	bne	.L2001
	mov	r1, #16
	ldr	r0, [r4, #2324]
	bl	BsGet
	mov	r1, #16
	str	r0, [r5, #12]
	ldr	r0, [r4, #2324]
	bl	BsGet
	str	r0, [r5, #16]
	b	.L2001
.L2046:
	ldr	r1, .L2052+36
	ldr	r0, [r4, #2324]
	bl	HEVC_ue_v
	ldr	r1, .L2052+40
	ldr	r0, [r4, #2324]
	bl	HEVC_ue_v
	b	.L2007
.L2045:
	mov	r1, #3
	ldr	r0, [r4, #2324]
	bl	BsGet
	mov	r1, #1
	str	r0, [r5, #20]
	ldr	r0, [r4, #2324]
	bl	BsGet
	mov	r1, #1
	strb	r0, [r5]
	ldr	r0, [r4, #2324]
	bl	BsGet
	uxtb	r0, r0
	strb	r0, [r5, #1]
	cmp	r0, #0
	beq	.L2005
	mov	r1, #8
	ldr	r0, [r4, #2324]
	bl	BsGet
	mov	r1, #8
	str	r0, [r5, #24]
	ldr	r0, [r4, #2324]
	bl	BsGet
	mov	r1, #8
	str	r0, [r5, #28]
	ldr	r0, [r4, #2324]
	bl	BsGet
	str	r0, [r5, #32]
	b	.L2005
.L2044:
	mov	r1, #1
	ldr	r0, [r4, #2324]
	bl	BsGet
	b	.L2003
.L2050:
	ldr	r3, [r6, #52]
	add	r1, r5, #44
	mov	r2, #1
	mov	r0, r4
	bl	HEVC_DecHrdParam
	cmp	r0, #0
	beq	.L2011
	ldr	r1, .L2052+44
	mov	r0, #1
	bl	dprint_vfmw
	mvn	r0, #0
	ldmfd	sp, {r4, r5, r6, r7, fp, sp, pc}
.L2049:
	ldr	r1, .L2052+48
	ldr	r0, [r4, #2324]
	bl	HEVC_ue_v
	b	.L2013
.L2048:
	ldr	r3, .L2052+52
	movw	r1, #10000
	umull	r0, r1, r0, r1
	ldr	r3, [r3, #236]
	blx	r3
	movw	r3, #52429
	movt	r3, 52428
	add	r0, r0, #5
	umull	r0, r1, r0, r3
	mov	r3, r1, lsr #3
	str	r3, [r4, #144]
	b	.L2012
.L2051:
	ldr	r1, .L2052+56
	mov	r0, #1
	bl	dprint_vfmw
	b	.L2014
.L2047:
	ldr	r1, .L2052+60
	mov	r0, #1
	bl	dprint_vfmw
	mvn	r0, #0
	ldmfd	sp, {r4, r5, r6, r7, fp, sp, pc}
.L2053:
	.align	2
.L2052:
	.word	.LC208
	.word	.LC210
	.word	.LC211
	.word	.LC212
	.word	.LC215
	.word	.LC217
	.word	.LC218
	.word	.LC219
	.word	.LC220
	.word	.LC206
	.word	.LC207
	.word	.LC214
	.word	.LC213
	.word	vfmw_Osal_Func_Ptr_S
	.word	.LC216
	.word	.LC209
	UNWIND(.fnend)
	.size	HEVC_DecVuiParam, .-HEVC_DecVuiParam
	.align	2
	.global	HEVC_se_v
	.type	HEVC_se_v, %function
HEVC_se_v:
	UNWIND(.fnstart)
	@ args = 0, pretend = 0, frame = 0
	@ frame_needed = 1, uses_anonymous_args = 0
	UNWIND(.movsp ip)
	mov	ip, sp
	stmfd	sp!, {r4, r5, r6, r7, fp, ip, lr, pc}
	UNWIND(.pad #4)
	UNWIND(.save {r4, r5, r6, r7, fp, ip, lr})
	UNWIND(.setfp fp, ip, #-4)
	sub	fp, ip, #4
	mov	r1, #32
	mov	r5, r0
	bl	BsShow
	bl	ZerosMS_32
	cmp	r0, #31
	bls	.L2059
	mvn	r0, #-2147483648
	ldmfd	sp, {r4, r5, r6, r7, fp, sp, pc}
.L2059:
	add	r6, r0, #1
	mov	r1, r0
	mov	r0, r5
	bl	BsSkip
	mov	r1, r6
	mov	r0, r5
	bl	BsShow
	mov	r1, r6
	sub	r0, r0, #1
	tst	r0, #1
	mov	r3, r0, asr #1
	mov	r0, r5
	addne	r4, r3, #1
	rsbeq	r4, r3, #0
	bl	BsSkip
	mov	r0, r4
	ldmfd	sp, {r4, r5, r6, r7, fp, sp, pc}
	UNWIND(.fnend)
	.size	HEVC_se_v, .-HEVC_se_v
	.align	2
	.global	HEVC_Sei_Structure_Of_Pictures_Info
	.type	HEVC_Sei_Structure_Of_Pictures_Info, %function
HEVC_Sei_Structure_Of_Pictures_Info:
	UNWIND(.fnstart)
	@ args = 0, pretend = 0, frame = 0
	@ frame_needed = 1, uses_anonymous_args = 0
	UNWIND(.movsp ip)
	mov	ip, sp
	stmfd	sp!, {r4, r5, r6, r7, fp, ip, lr, pc}
	UNWIND(.pad #4)
	UNWIND(.save {r4, r5, r6, r7, fp, ip, lr})
	UNWIND(.setfp fp, ip, #-4)
	sub	fp, ip, #4
	ldr	r1, .L2072
	mov	r6, r0
	ldr	r0, [r0, #2324]
	bl	HEVC_ue_v
	ldr	r0, [r6, #2324]
	ldr	r1, .L2072+4
	bl	HEVC_ue_v
	cmp	r0, #1024
	mov	r7, r0
	bhi	.L2061
	cmp	r0, #0
	movne	r4, #0
	beq	.L2067
.L2066:
	mov	r1, #6
	ldr	r0, [r6, #2324]
	bl	BsGet
	mov	r1, #3
	mov	r5, r0
	ldr	r0, [r6, #2324]
	sub	r5, r5, #19
	bl	BsGet
	cmp	r5, #1
	ldr	r1, .L2072+8
	bls	.L2064
	ldr	r0, [r6, #2324]
	bl	HEVC_ue_v
.L2064:
	cmp	r4, #0
	ldr	r1, .L2072+12
	add	r4, r4, #1
	beq	.L2065
	ldr	r0, [r6, #2324]
	bl	HEVC_se_v
.L2065:
	cmp	r4, r7
	bne	.L2066
.L2067:
	ldr	r0, [r6, #2324]
	bl	BsToNextByte
	mov	r0, #0
	ldmfd	sp, {r4, r5, r6, r7, fp, sp, pc}
.L2061:
	ldr	r1, .L2072+16
	mov	r0, #1
	bl	dprint_vfmw
	mvn	r0, #0
	ldmfd	sp, {r4, r5, r6, r7, fp, sp, pc}
.L2073:
	.align	2
.L2072:
	.word	.LC221
	.word	.LC222
	.word	.LC224
	.word	.LC225
	.word	.LC223
	UNWIND(.fnend)
	.size	HEVC_Sei_Structure_Of_Pictures_Info, .-HEVC_Sei_Structure_Of_Pictures_Info
	.align	2
	.global	HEVC_Sei_Recovery_Point
	.type	HEVC_Sei_Recovery_Point, %function
HEVC_Sei_Recovery_Point:
	UNWIND(.fnstart)
	@ args = 0, pretend = 0, frame = 0
	@ frame_needed = 1, uses_anonymous_args = 0
	UNWIND(.movsp ip)
	mov	ip, sp
	stmfd	sp!, {r4, r5, fp, ip, lr, pc}
	UNWIND(.pad #4)
	UNWIND(.save {r4, r5, fp, ip, lr})
	UNWIND(.setfp fp, ip, #-4)
	sub	fp, ip, #4
	cmp	r1, #0
	cmpne	r0, #0
	mov	r4, r0
	moveq	r5, #1
	movne	r5, #0
	beq	.L2076
	ldr	r1, .L2077
	ldr	r0, [r0, #2324]
	bl	HEVC_se_v
	mov	r1, #1
	ldr	r0, [r4, #2324]
	bl	BsGet
	mov	r1, #1
	ldr	r0, [r4, #2324]
	bl	BsGet
	ldr	r0, [r4, #2324]
	bl	BsToNextByte
	mov	r0, r5
	ldmfd	sp, {r4, r5, fp, sp, pc}
.L2076:
	mvn	r0, #0
	ldmfd	sp, {r4, r5, fp, sp, pc}
.L2078:
	.align	2
.L2077:
	.word	.LC226
	UNWIND(.fnend)
	.size	HEVC_Sei_Recovery_Point, .-HEVC_Sei_Recovery_Point
	.align	2
	.global	HEVC_Sei_Color_Remapping_Info
	.type	HEVC_Sei_Color_Remapping_Info, %function
HEVC_Sei_Color_Remapping_Info:
	UNWIND(.fnstart)
	@ args = 0, pretend = 0, frame = 0
	@ frame_needed = 1, uses_anonymous_args = 0
	UNWIND(.movsp ip)
	mov	ip, sp
	stmfd	sp!, {r3, r4, r5, r6, r7, r8, r9, r10, fp, ip, lr, pc}
	UNWIND(.pad #4)
	UNWIND(.save {r3, r4, r5, r6, r7, r8, r9, r10, fp, ip, lr})
	UNWIND(.setfp fp, ip, #-4)
	sub	fp, ip, #4
	cmp	r1, #0
	cmpne	r0, #0
	mov	r4, r0
	mov	r8, r1
	beq	.L2095
	ldr	r1, .L2107
	ldr	r0, [r0, #2324]
	bl	HEVC_ue_v
	mov	r1, #1
	ldr	r0, [r4, #2324]
	bl	BsGet
	tst	r0, #255
	beq	.L2081
.L2093:
	mov	r3, #1
	mov	r0, #0
	strb	r3, [r8]
	ldmfd	sp, {r3, r4, r5, r6, r7, r8, r9, r10, fp, sp, pc}
.L2081:
	mov	r1, #1
	ldr	r0, [r4, #2324]
	bl	BsGet
	mov	r1, #1
	ldr	r0, [r4, #2324]
	bl	BsGet
	uxtb	r1, r0
	cmp	r1, #1
	beq	.L2105
.L2082:
	mov	r1, #8
	ldr	r0, [r4, #2324]
	bl	BsGet
	mov	r1, #8
	ldr	r0, [r4, #2324]
	mov	r7, #3
	bl	BsGet
.L2084:
	mov	r1, #8
	ldr	r0, [r4, #2324]
	bl	BsGet
	uxtb	r0, r0
	cmp	r0, #0
	beq	.L2087
	add	r6, r0, #1
	mov	r5, #0
.L2086:
	mov	r1, #16
	ldr	r0, [r4, #2324]
	bl	BsGet
	add	r5, r5, #1
	mov	r1, #16
	ldr	r0, [r4, #2324]
	bl	BsGet
	cmp	r5, r6
	bne	.L2086
.L2087:
	subs	r7, r7, #1
	bne	.L2084
	mov	r1, #1
	ldr	r0, [r4, #2324]
	bl	BsGet
	uxtb	r0, r0
	cmp	r0, #1
	beq	.L2106
.L2088:
	add	r10, r8, #42
	add	r7, r8, #39
	mov	r9, r10
.L2092:
	mov	r1, #8
	ldr	r0, [r4, #2324]
	bl	BsGet
	uxtb	r0, r0
	strb	r0, [r7, #1]!
	cmp	r0, #0
	beq	.L2094
	mov	r6, r9
	mov	r5, #0
.L2091:
	mov	r1, #16
	ldr	r0, [r4, #2324]
	bl	BsGet
	mov	r1, #16
	add	r5, r5, #1
	strh	r0, [r6, #2]!	@ movhi
	ldr	r0, [r4, #2324]
	bl	BsGet
	strh	r0, [r6, #198]	@ movhi
	ldrb	r3, [r7]	@ zero_extendqisi2
	add	r3, r3, #1
	cmp	r3, r5
	bhi	.L2091
.L2094:
	cmp	r7, r10
	add	r9, r9, #66
	bne	.L2092
	b	.L2093
.L2095:
	mvn	r0, #0
	ldmfd	sp, {r3, r4, r5, r6, r7, r8, r9, r10, fp, sp, pc}
.L2106:
	mov	r1, #4
	ldr	r0, [r4, #2324]
	bl	BsGet
	add	r7, r8, #36
	mov	r5, r8
.L2089:
	add	r6, r5, #12
.L2090:
	ldr	r1, .L2107+4
	ldr	r0, [r4, #2324]
	bl	HEVC_se_v
	str	r0, [r5, #4]!
	cmp	r5, r6
	bne	.L2090
	cmp	r7, r5
	bne	.L2089
	b	.L2088
.L2105:
	ldr	r0, [r4, #2324]
	bl	BsGet
	mov	r1, #8
	ldr	r0, [r4, #2324]
	bl	BsGet
	mov	r1, #8
	strb	r0, [r8, #1]
	ldr	r0, [r4, #2324]
	bl	BsGet
	mov	r1, #8
	ldr	r0, [r4, #2324]
	bl	BsGet
	b	.L2082
.L2108:
	.align	2
.L2107:
	.word	.LC227
	.word	.LC228
	UNWIND(.fnend)
	.size	HEVC_Sei_Color_Remapping_Info, .-HEVC_Sei_Color_Remapping_Info
	.align	2
	.global	HEVC_Sei_Payload
	.type	HEVC_Sei_Payload, %function
HEVC_Sei_Payload:
	UNWIND(.fnstart)
	@ args = 4, pretend = 0, frame = 0
	@ frame_needed = 1, uses_anonymous_args = 0
	UNWIND(.movsp ip)
	mov	ip, sp
	stmfd	sp!, {r4, r5, r6, r7, fp, ip, lr, pc}
	UNWIND(.pad #4)
	UNWIND(.save {r4, r5, r6, r7, fp, ip, lr})
	UNWIND(.setfp fp, ip, #-4)
	sub	fp, ip, #4
	ldr	ip, [r0, #2344]
	mov	r4, r0
	ldr	r6, [fp, #4]
	ldr	ip, [ip, #16]
	cmp	ip, #39
	beq	.L2155
	cmp	r3, #5
	beq	.L2138
	cmp	r3, #132
	beq	.L2139
	cmp	r6, #0
	movne	r5, #0
	beq	.L2132
.L2141:
	add	r5, r5, #1
	mov	r1, #8
	ldr	r0, [r4, #2324]
	bl	BsGet
	cmp	r5, r6
	bne	.L2141
	b	.L2132
.L2138:
	add	r1, r1, #568
	mov	r2, r6
	bl	HEVC_Sei_User_Data_Unregistered
	cmp	r0, #0
	bne	.L2135
.L2132:
	mov	r1, r6
	mov	r0, r4
	bl	HEVC_Sei_More_Data_In_Payload
	cmp	r0, #0
	bne	.L2142
	mov	r0, #0
	ldmfd	sp, {r4, r5, r6, r7, fp, sp, pc}
.L2142:
	mov	r1, r6
	mov	r0, r4
	bl	HEVC_Sei_Payload_Extension_Present
	cmp	r0, #0
	bne	.L2156
.L2143:
	mov	r1, #1
	ldr	r0, [r4, #2324]
	bl	BsGet
	b	.L2144
.L2145:
	ldr	r0, [r4, #2324]
	bl	BsGet
.L2144:
	ldr	r0, [r4, #2324]
	bl	BsIsByteAligned
	mov	r1, #1
	cmp	r0, #0
	beq	.L2145
	mov	r0, #0
	ldmfd	sp, {r4, r5, r6, r7, fp, sp, pc}
.L2155:
	cmp	r3, #147
	ldrls	pc, [pc, r3, asl #2]
	b	.L2111
.L2113:
	.word	.L2112
	.word	.L2114
	.word	.L2111
	.word	.L2111
	.word	.L2115
	.word	.L2116
	.word	.L2117
	.word	.L2111
	.word	.L2111
	.word	.L2111
	.word	.L2111
	.word	.L2111
	.word	.L2111
	.word	.L2111
	.word	.L2111
	.word	.L2111
	.word	.L2111
	.word	.L2111
	.word	.L2111
	.word	.L2111
	.word	.L2111
	.word	.L2111
	.word	.L2111
	.word	.L2118
	.word	.L2111
	.word	.L2111
	.word	.L2111
	.word	.L2111
	.word	.L2111
	.word	.L2111
	.word	.L2111
	.word	.L2111
	.word	.L2111
	.word	.L2111
	.word	.L2111
	.word	.L2111
	.word	.L2111
	.word	.L2111
	.word	.L2111
	.word	.L2111
	.word	.L2111
	.word	.L2111
	.word	.L2111
	.word	.L2111
	.word	.L2111
	.word	.L2119
	.word	.L2111
	.word	.L2120
	.word	.L2111
	.word	.L2111
	.word	.L2111
	.word	.L2111
	.word	.L2111
	.word	.L2111
	.word	.L2111
	.word	.L2111
	.word	.L2111
	.word	.L2111
	.word	.L2111
	.word	.L2111
	.word	.L2111
	.word	.L2111
	.word	.L2111
	.word	.L2111
	.word	.L2111
	.word	.L2111
	.word	.L2111
	.word	.L2111
	.word	.L2111
	.word	.L2111
	.word	.L2111
	.word	.L2111
	.word	.L2111
	.word	.L2111
	.word	.L2111
	.word	.L2111
	.word	.L2111
	.word	.L2111
	.word	.L2111
	.word	.L2111
	.word	.L2111
	.word	.L2111
	.word	.L2111
	.word	.L2111
	.word	.L2111
	.word	.L2111
	.word	.L2111
	.word	.L2111
	.word	.L2111
	.word	.L2111
	.word	.L2111
	.word	.L2111
	.word	.L2111
	.word	.L2111
	.word	.L2111
	.word	.L2111
	.word	.L2111
	.word	.L2111
	.word	.L2111
	.word	.L2111
	.word	.L2111
	.word	.L2111
	.word	.L2111
	.word	.L2111
	.word	.L2111
	.word	.L2111
	.word	.L2111
	.word	.L2111
	.word	.L2111
	.word	.L2111
	.word	.L2111
	.word	.L2111
	.word	.L2111
	.word	.L2111
	.word	.L2111
	.word	.L2111
	.word	.L2111
	.word	.L2111
	.word	.L2111
	.word	.L2111
	.word	.L2111
	.word	.L2111
	.word	.L2111
	.word	.L2111
	.word	.L2111
	.word	.L2111
	.word	.L2111
	.word	.L2111
	.word	.L2121
	.word	.L2122
	.word	.L2123
	.word	.L2124
	.word	.L2111
	.word	.L2125
	.word	.L2126
	.word	.L2111
	.word	.L2111
	.word	.L2127
	.word	.L2111
	.word	.L2111
	.word	.L2111
	.word	.L2111
	.word	.L2128
	.word	.L2111
	.word	.L2129
	.word	.L2111
	.word	.L2111
	.word	.L2130
.L2139:
	add	r1, r1, #616
	add	r1, r1, #3
	bl	HEVC_Sei_Decoded_Picture_Hash
	cmp	r0, #0
	beq	.L2132
	b	.L2135
.L2156:
	ldr	r1, .L2157
	ldr	r0, [r4, #2324]
	bl	HEVC_ue_v
	b	.L2143
.L2130:
	add	r1, r1, #616
	add	r1, r1, #2
	bl	HEVC_Sei_HLGHDR_Comapitibility_Info
	cmp	r0, #0
	beq	.L2132
.L2135:
	mvn	r0, #0
	ldmfd	sp, {r4, r5, r6, r7, fp, sp, pc}
.L2112:
	add	r2, r2, #2096
	add	r2, r2, #12
	bl	HEVC_Sei_Buf_Period
	cmp	r0, #0
	beq	.L2132
	b	.L2135
.L2114:
	add	r2, r2, #2064
	add	r1, r1, #8
	bl	HEVC_Sei_Pic_Timming
	cmp	r0, #0
	beq	.L2132
	b	.L2135
.L2115:
	add	r1, r1, #56
	mov	r2, r6
	bl	HEVC_Sei_User_Data_Registered_Itu_T_T35
	cmp	r0, #0
	beq	.L2132
	b	.L2135
.L2116:
	add	r1, r1, #568
	mov	r2, r6
	bl	HEVC_Sei_User_Data_Unregistered
	cmp	r0, #0
	beq	.L2132
	b	.L2135
.L2117:
	add	r1, r1, #568
	bl	HEVC_Sei_Recovery_Point
	cmp	r0, #0
	beq	.L2132
	b	.L2135
.L2118:
	add	r1, r1, #616
	add	r1, r1, #3
	bl	HEVC_Sei_Tone_Mapping_Info
	cmp	r0, #0
	beq	.L2132
	b	.L2135
.L2119:
	add	r1, r1, #568
	bl	HEVC_Sei_Frame_Packing_Arrangement
	cmp	r0, #0
	beq	.L2132
	b	.L2135
.L2120:
	add	r1, r1, #568
	bl	HEVC_Sei_Display_Orientation
	cmp	r0, #0
	beq	.L2132
	b	.L2135
.L2121:
	add	r1, r1, #616
	mov	r2, r6
	add	r1, r1, #3
	bl	HEVC_Sei_Structure_Of_Pictures_Info
	cmp	r0, #0
	beq	.L2132
	b	.L2135
.L2122:
	add	r1, r1, #568
	bl	HEVC_Sei_Active_Param_sets
	cmp	r0, #0
	beq	.L2132
	b	.L2135
.L2123:
	add	r2, r2, #2096
	add	r1, r1, #568
	add	r2, r2, #12
	bl	HEVC_Sei_Dec_Unit_Info
	cmp	r0, #0
	beq	.L2132
	b	.L2135
.L2124:
	add	r1, r1, #568
	bl	HEVC_Sei_Temporal_Sub_Layer_Zero_Index
	cmp	r0, #0
	beq	.L2132
	b	.L2135
.L2125:
	mov	r3, r6
	bl	HEVC_Sei_Scalable_Nesting
	cmp	r0, #0
	beq	.L2132
	b	.L2135
.L2126:
	cmn	r1, #568
	cmpne	r0, #0
	beq	.L2135
	mov	r1, #1
	ldr	r0, [r0, #2324]
	bl	BsGet
	b	.L2132
.L2127:
	add	r1, r1, #568
	bl	HEVC_Sei_Mastering_Display_Colour_Volume
	cmp	r0, #0
	beq	.L2132
	b	.L2135
.L2128:
	add	r1, r1, #128
	bl	HEVC_Sei_Color_Remapping_Info
	cmp	r0, #0
	beq	.L2132
	b	.L2135
.L2129:
	add	r1, r1, #612
	bl	HEVC_Sei_Content_Light_Level_Information
	cmp	r0, #0
	beq	.L2132
	b	.L2135
.L2111:
	cmp	r6, #0
	movne	r5, #0
	beq	.L2132
.L2136:
	add	r5, r5, #1
	mov	r1, #8
	ldr	r0, [r4, #2324]
	bl	BsGet
	cmp	r5, r6
	bne	.L2136
	b	.L2132
.L2158:
	.align	2
.L2157:
	.word	.LC229
	UNWIND(.fnend)
	.size	HEVC_Sei_Payload, .-HEVC_Sei_Payload
	.align	2
	.global	HEVC_SeiMessage
	.type	HEVC_SeiMessage, %function
HEVC_SeiMessage:
	UNWIND(.fnstart)
	@ args = 0, pretend = 0, frame = 0
	@ frame_needed = 1, uses_anonymous_args = 0
	UNWIND(.movsp ip)
	mov	ip, sp
	stmfd	sp!, {r4, r5, r6, r7, r8, r9, fp, ip, lr, pc}
	UNWIND(.pad #4)
	UNWIND(.save {r4, r5, r6, r7, r8, r9, fp, ip, lr})
	UNWIND(.setfp fp, ip, #-4)
	sub	fp, ip, #4
	UNWIND(.pad #8)
	sub	sp, sp, #8
	mov	r5, #0
	mov	r4, r0
	mov	r6, r1
	mov	r7, r2
	ldr	r0, [r0, #2324]
	b	.L2160
.L2162:
	bl	BsSkip
	ldr	r0, [r4, #2324]
	add	r5, r5, #255
	ldr	r3, [r0, #24]
	ldr	r2, [r0, #16]
	add	r1, r3, #8
	cmp	r1, r2
	bhi	.L2168
.L2160:
	mov	r1, #8
	bl	BsShow
	mov	r1, #8
	cmp	r0, #255
	ldr	r0, [r4, #2324]
	beq	.L2162
	bl	BsGet
	mov	r8, #0
	mov	r9, r0
	ldr	r0, [r4, #2324]
	b	.L2163
.L2164:
	bl	BsSkip
	ldr	r0, [r4, #2324]
	add	r8, r8, #255
	ldr	r3, [r0, #24]
	ldr	r2, [r0, #16]
	add	r1, r3, #8
	cmp	r1, r2
	bhi	.L2169
.L2163:
	mov	r1, #8
	bl	BsShow
	mov	r1, #8
	cmp	r0, #255
	ldr	r0, [r4, #2324]
	beq	.L2164
	bl	BsGet
	add	r3, r9, r5
	mov	r2, r7
	mov	r1, r6
	add	r8, r0, r8
	mov	r0, r4
	str	r8, [sp]
	bl	HEVC_Sei_Payload
	cmp	r0, #0
	bne	.L2170
.L2161:
	sub	sp, fp, #36
	ldmfd	sp, {r4, r5, r6, r7, r8, r9, fp, sp, pc}
.L2168:
	str	r2, [sp]
	mov	r0, #1
	movw	r2, #5022
	ldr	r1, .L2171
	bl	dprint_vfmw
	mvn	r0, #0
	sub	sp, fp, #36
	ldmfd	sp, {r4, r5, r6, r7, r8, r9, fp, sp, pc}
.L2169:
	str	r2, [sp]
	mov	r0, #1
	movw	r2, #5043
	ldr	r1, .L2171
	bl	dprint_vfmw
	mvn	r0, #0
	sub	sp, fp, #36
	ldmfd	sp, {r4, r5, r6, r7, r8, r9, fp, sp, pc}
.L2170:
	ldr	r1, .L2171+4
	mov	r0, #1
	bl	dprint_vfmw
	mvn	r0, #0
	b	.L2161
.L2172:
	.align	2
.L2171:
	.word	.LC230
	.word	.LC231
	UNWIND(.fnend)
	.size	HEVC_SeiMessage, .-HEVC_SeiMessage
	.align	2
	.global	HEVC_DecSEI
	.type	HEVC_DecSEI, %function
HEVC_DecSEI:
	UNWIND(.fnstart)
	@ args = 0, pretend = 0, frame = 0
	@ frame_needed = 1, uses_anonymous_args = 0
	UNWIND(.movsp ip)
	mov	ip, sp
	stmfd	sp!, {r4, r5, r6, r7, fp, ip, lr, pc}
	UNWIND(.pad #4)
	UNWIND(.save {r4, r5, r6, r7, fp, ip, lr})
	UNWIND(.setfp fp, ip, #-4)
	sub	fp, ip, #4
	ldrb	r3, [r0, #1]	@ zero_extendqisi2
	mov	r4, r0
	cmp	r3, #1
	beq	.L2179
	ldr	r5, [r0, #2340]
	add	r6, r0, #2848
	cmp	r5, #0
	bne	.L2182
	b	.L2185
.L2177:
	ldr	r0, [r4, #2324]
	bl	BsIsByteAligned
	cmp	r0, #0
	mov	r0, r4
	beq	.L2186
	bl	HEVC_More_Rbsp_Data
	cmp	r0, #0
	beq	.L2187
.L2182:
	mov	r2, r5
	mov	r1, r6
	mov	r0, r4
	bl	HEVC_SeiMessage
	cmp	r0, #0
	beq	.L2177
	ldr	r1, .L2189
	mov	r0, #1
	bl	dprint_vfmw
	mvn	r0, #0
	ldmfd	sp, {r4, r5, r6, r7, fp, sp, pc}
.L2187:
	ldr	r0, [r4, #2324]
	mov	r1, #8
	bl	BsGet
	cmp	r0, #128
	bne	.L2188
.L2179:
	mov	r0, #0
	ldmfd	sp, {r4, r5, r6, r7, fp, sp, pc}
.L2186:
	ldr	r1, .L2189+4
	mov	r0, #1
	bl	dprint_vfmw
	mvn	r0, #0
	ldmfd	sp, {r4, r5, r6, r7, fp, sp, pc}
.L2188:
	mov	r2, r0
	ldr	r1, .L2189+8
	mov	r0, #1
	bl	dprint_vfmw
	mvn	r0, #0
	ldmfd	sp, {r4, r5, r6, r7, fp, sp, pc}
.L2185:
	ldr	r1, .L2189+12
	mov	r0, #1
	bl	dprint_vfmw
	mvn	r0, #0
	ldmfd	sp, {r4, r5, r6, r7, fp, sp, pc}
.L2190:
	.align	2
.L2189:
	.word	.LC233
	.word	.LC234
	.word	.LC235
	.word	.LC232
	UNWIND(.fnend)
	.size	HEVC_DecSEI, .-HEVC_DecSEI
	.align	2
	.global	HEVC_Sei_Scalable_Nesting
	.type	HEVC_Sei_Scalable_Nesting, %function
HEVC_Sei_Scalable_Nesting:
	UNWIND(.fnstart)
	@ args = 0, pretend = 0, frame = 0
	@ frame_needed = 1, uses_anonymous_args = 0
	UNWIND(.movsp ip)
	mov	ip, sp
	stmfd	sp!, {r4, r5, r6, r7, r8, r9, fp, ip, lr, pc}
	UNWIND(.pad #4)
	UNWIND(.save {r4, r5, r6, r7, r8, r9, fp, ip, lr})
	UNWIND(.setfp fp, ip, #-4)
	sub	fp, ip, #4
	mov	r4, r0
	mov	r6, r1
	ldr	r0, [r0, #2324]
	mov	r1, #1
	mov	r7, r2
	bl	BsGet
	mov	r1, #1
	ldr	r0, [r4, #2324]
	bl	BsGet
	mov	r1, #1
	tst	r0, #255
	ldr	r0, [r4, #2324]
	beq	.L2192
	bl	BsGet
	ldr	r1, .L2208
	mov	r5, r0
	ldr	r0, [r4, #2324]
	bl	HEVC_ue_v
	cmp	r0, #63
	mov	r8, r0
	bhi	.L2205
	uxtb	r5, r5
	cmp	r0, r5
	bcc	.L2198
.L2197:
	mov	r1, #3
	ldr	r0, [r4, #2324]
	bl	BsGet
	add	r5, r5, #1
	ldr	r1, .L2208+4
	ldr	r0, [r4, #2324]
	bl	HEVC_ue_v
	cmp	r8, r5
	bcs	.L2197
.L2198:
	ldr	r0, [r4, #2324]
	bl	BsToNextByte
	b	.L2196
.L2201:
	bl	HEVC_MoreRbspData
	cmp	r0, #0
	beq	.L2206
.L2196:
	mov	r2, r7
	mov	r1, r6
	mov	r0, r4
	bl	HEVC_SeiMessage
	cmp	r0, #0
	mov	r0, r4
	beq	.L2201
	ldr	r1, .L2208+8
	mov	r0, #1
	bl	dprint_vfmw
	mvn	r0, #0
	ldmfd	sp, {r4, r5, r6, r7, r8, r9, fp, sp, pc}
.L2192:
	bl	BsGet
	uxtb	r5, r0
	cmp	r5, #0
	bne	.L2198
	mov	r1, #3
	ldr	r0, [r4, #2324]
	bl	BsGet
	ldr	r1, .L2208+12
	ldr	r0, [r4, #2324]
	bl	HEVC_ue_v
	cmp	r0, #63
	addls	r8, r0, #1
	bhi	.L2207
.L2200:
	add	r5, r5, #1
	mov	r1, #6
	ldr	r0, [r4, #2324]
	bl	BsGet
	cmp	r5, r8
	bne	.L2200
	b	.L2198
.L2206:
	ldmfd	sp, {r4, r5, r6, r7, r8, r9, fp, sp, pc}
.L2205:
	mov	r2, #64
	ldr	r1, .L2208+16
	mov	r0, #1
	bl	dprint_vfmw
	mvn	r0, #0
	ldmfd	sp, {r4, r5, r6, r7, r8, r9, fp, sp, pc}
.L2207:
	ldr	r1, .L2208+20
	mov	r0, #1
	bl	dprint_vfmw
	mvn	r0, #0
	ldmfd	sp, {r4, r5, r6, r7, r8, r9, fp, sp, pc}
.L2209:
	.align	2
.L2208:
	.word	.LC236
	.word	.LC238
	.word	.LC233
	.word	.LC239
	.word	.LC237
	.word	.LC240
	UNWIND(.fnend)
	.size	HEVC_Sei_Scalable_Nesting, .-HEVC_Sei_Scalable_Nesting
	.align	2
	.global	HEVC_DecScalingListData
	.type	HEVC_DecScalingListData, %function
HEVC_DecScalingListData:
	UNWIND(.fnstart)
	@ args = 0, pretend = 0, frame = 24
	@ frame_needed = 1, uses_anonymous_args = 0
	UNWIND(.movsp ip)
	mov	ip, sp
	stmfd	sp!, {r4, r5, r6, r7, r8, r9, r10, fp, ip, lr, pc}
	UNWIND(.pad #4)
	UNWIND(.save {r4, r5, r6, r7, r8, r9, r10, fp, ip, lr})
	UNWIND(.setfp fp, ip, #-4)
	sub	fp, ip, #4
	UNWIND(.pad #28)
	sub	sp, sp, #28
	ldr	r3, .L2248
	mov	r6, r0
	add	r9, r6, #2208
	mov	r4, r1
	str	r1, [fp, #-68]
	ldr	r3, [r3, #52]
	mov	r2, #64
	add	r1, r1, #1216
	add	r0, r4, #1344
	blx	r3
	add	r3, r4, #1536
	str	r4, [fp, #-60]
	str	r3, [fp, #-64]
	mov	r3, #0
	str	r3, [fp, #-52]
.L2211:
	ldr	r3, [r9, #4]!
	cmp	r3, #0
	beq	.L2231
	ldr	r3, [fp, #-64]
	ldr	r7, [fp, #-60]
	str	r3, [fp, #-56]
	mov	r3, #0
	str	r3, [fp, #-48]
.L2230:
