#include "hi_asm_define.h"
	.arch armv7-a
	.fpu softvfp
	.eabi_attribute 20, 1
	.eabi_attribute 21, 1
	.eabi_attribute 23, 3
	.eabi_attribute 24, 1
	.eabi_attribute 25, 1
	.eabi_attribute 26, 2
	.eabi_attribute 30, 2
	.eabi_attribute 34, 0
	.eabi_attribute 18, 4
	.file	"hevc.c"
	.text
	.align	2
	.type	HEVC_ComparePicByPocAsc, %function
HEVC_ComparePicByPocAsc:
	UNWIND(.fnstart)
	@ args = 0, pretend = 0, frame = 0
	@ frame_needed = 1, uses_anonymous_args = 0
	UNWIND(.movsp ip)
	mov	ip, sp
	stmfd	sp!, {fp, ip, lr, pc}
	UNWIND(.pad #4)
	UNWIND(.save {fp, ip, lr})
	UNWIND(.setfp fp, ip, #-4)
	sub	fp, ip, #4
	ldr	r2, [r0]
	ldr	r3, [r1]
	ldr	r2, [r2, #8]
	ldr	r3, [r3, #8]
	cmp	r2, r3
	blt	.L3
	movgt	r0, #1
	movle	r0, #0
	ldmfd	sp, {fp, sp, pc}
.L3:
	mvn	r0, #0
	ldmfd	sp, {fp, sp, pc}
	UNWIND(.fnend)
	.size	HEVC_ComparePicByPocAsc, .-HEVC_ComparePicByPocAsc
	.global	__aeabi_idivmod
	.align	2
	.type	HEVC_CheckThatAllRefPicsAreAvailable.part.8, %function
HEVC_CheckThatAllRefPicsAreAvailable.part.8:
	UNWIND(.fnstart)
	@ args = 0, pretend = 0, frame = 40
	@ frame_needed = 1, uses_anonymous_args = 0
	UNWIND(.movsp ip)
	mov	ip, sp
	stmfd	sp!, {r4, r5, r6, r7, r8, r9, r10, fp, ip, lr, pc}
	UNWIND(.pad #4)
	UNWIND(.save {r4, r5, r6, r7, r8, r9, r10, fp, ip, lr})
	UNWIND(.setfp fp, ip, #-4)
	sub	fp, ip, #4
	UNWIND(.pad #44)
	sub	sp, sp, #44
	add	r3, r0, #4096
	ldr	ip, [r0, #2368]
	mov	r6, #1888
	ldr	r2, [r3, #140]
	movw	r4, #12660
	ldr	r5, [r3, #1040]
	mov	r7, r0
	str	r1, [fp, #-84]
	mla	ip, r6, r2, ip
	ldr	r1, [r3, #1036]
	ldr	lr, [r0, #2364]
	add	r1, r5, r1
	ldr	r2, [r3, #1044]
	str	r1, [fp, #-80]
	mov	r5, r1
	cmp	r1, r2
	ldr	ip, [ip, #32]
	str	r0, [fp, #-60]
	mov	r0, #1
	mla	r1, r4, ip, lr
	ldr	r10, [r1, #116]
	mov	r10, r0, asl r10
	bcs	.L6
	add	r9, r5, #1296
	ldr	r6, [r7, #2588]
	add	r9, r9, #12
	mov	r0, #0
	add	r2, r2, #5120
	add	r1, r5, #5120
	add	r9, r7, r9, lsl #2
	mov	ip, r0
	add	r2, r2, #24
	add	r1, r1, #24
	str	r0, [fp, #-64]
	mov	r0, r7
	add	r2, r7, r2
	str	ip, [fp, #-72]
	str	r2, [fp, #-68]
	add	r2, r7, r1
	str	r3, [fp, #-76]
	str	r2, [fp, #-56]
.L7:
	cmp	r6, #0
	beq	.L13
	ldr	r3, [fp, #-60]
	mov	r2, #0
	ldr	r8, [r9, #-944]
	mov	r5, r2
	add	r4, r3, #2608
	str	r2, [fp, #-52]
	b	.L10
.L50:
	ldr	r3, [r4]
	ldr	r1, [r3, #60]
	cmp	r1, #0
	beq	.L9
	ldr	r0, [r3, #8]
	ldr	r1, [r9]
	cmp	r0, r1
	ldreqb	r3, [r3, #1]	@ zero_extendqisi2
	beq	.L48
.L9:
	add	r5, r5, #1
	add	r4, r4, #4
	cmp	r5, r6
	beq	.L49
.L10:
	cmp	r8, #0
	bne	.L50
	ldr	r7, [r4]
	mov	r1, r10
	ldr	r3, [r7, #60]
	cmp	r3, #0
	beq	.L9
	ldr	r0, [r7, #8]
	bl	__aeabi_idivmod
	ldr	r0, [r9]
	str	r1, [fp, #-48]
	mov	r1, r10
	bl	__aeabi_idivmod
	ldr	r3, [fp, #-48]
	cmp	r3, r1
	bne	.L9
	ldrb	r3, [r7, #1]	@ zero_extendqisi2
.L48:
	cmp	r3, #0
	add	r5, r5, #1
	ldr	r3, [fp, #-52]
	add	r4, r4, #4
	movne	r3, #1
	cmp	r5, r6
	str	r3, [fp, #-52]
	bne	.L10
.L49:
	ldr	r2, [fp, #-52]
	cmp	r2, #0
	beq	.L13
.L11:
	ldr	r3, [fp, #-56]
	add	r9, r9, #4
	ldr	r2, [fp, #-68]
	add	r3, r3, #1
	str	r3, [fp, #-56]
	cmp	r3, r2
	bne	.L7
	ldr	r2, [fp, #-80]
	ldr	r3, [fp, #-76]
	cmp	r2, #0
	beq	.L15
.L14:
	ldr	r2, [fp, #-60]
	mov	r7, #0
	ldr	r10, [fp, #-80]
	add	r4, r2, #5120
	ldr	r0, [fp, #-72]
	mov	r9, r2
	mov	r8, r4
	add	r4, r4, #44
	add	r8, r8, #24
.L19:
	cmp	r6, #0
	beq	.L20
	add	lr, r9, #2592
	mov	r5, #0
	add	lr, lr, #12
	mov	r2, r5
	str	r0, [fp, #-48]
	b	.L17
.L16:
	cmp	r2, r6
	beq	.L51
.L17:
	ldr	r1, [lr, #4]!
	add	r2, r2, #1
	ldr	ip, [r1, #60]
	cmp	ip, #0
	bne	.L16
	ldr	r0, [r4]
	ldr	ip, [r3, #116]
	add	ip, ip, r0
	ldr	r0, [r1, #8]
	cmp	r0, ip
	bne	.L16
	ldrb	r1, [r1, #1]	@ zero_extendqisi2
	cmp	r1, #0
	movne	r5, #1
	cmp	r2, r6
	bne	.L17
.L51:
	cmp	r5, #0
	ldr	r0, [fp, #-48]
	beq	.L20
.L18:
	add	r7, r7, #1
	add	r4, r4, #4
	cmp	r10, r7
	add	r8, r8, #1
	bhi	.L19
	str	r0, [fp, #-72]
.L15:
	ldr	r3, [fp, #-72]
	cmp	r3, #0
	ldrne	r3, [fp, #-84]
	movne	r0, #0
	ldrne	r2, [fp, #-64]
	moveq	r0, #1
	strne	r2, [r3]
.L47:
	sub	sp, fp, #40
	ldmfd	sp, {r4, r5, r6, r7, r8, r9, r10, fp, sp, pc}
.L20:
	ldr	r1, [r3, #136]
	ldr	r2, [r3, #116]
	ldr	ip, [r4]
	add	r1, r9, r1, lsl #2
	add	r2, r2, ip
	ldr	r1, [r1, #228]
	cmp	r2, r1
	blt	.L18
	ldrb	r1, [r8]	@ zero_extendqisi2
	cmp	r1, #0
	ldr	r1, [fp, #-64]
	movne	r0, #1
	movne	r1, r2
	str	r1, [fp, #-64]
	b	.L18
.L13:
	ldr	r3, [fp, #-76]
	ldr	r0, [r9, #-68]
	ldr	r1, [r3, #136]
	ldr	r2, [r3, #116]
	ldr	r3, [fp, #-60]
	add	r2, r2, r0
	add	r1, r3, r1, lsl #2
	ldr	r1, [r1, #228]
	cmp	r2, r1
	blt	.L11
	ldr	r3, [fp, #-56]
	ldrb	r1, [r3]	@ zero_extendqisi2
	ldr	r3, [fp, #-64]
	cmp	r1, #0
	movne	r3, r2
	str	r3, [fp, #-64]
	ldr	r3, [fp, #-72]
	movne	r3, #1
	str	r3, [fp, #-72]
	b	.L11
.L6:
	ldr	r2, [fp, #-80]
	cmp	r2, #0
	beq	.L47
	ldr	r1, [fp, #-60]
	mov	r2, #0
	str	r2, [fp, #-64]
	str	r2, [fp, #-72]
	ldr	r6, [r1, #2588]
	b	.L14
	UNWIND(.fnend)
	.size	HEVC_CheckThatAllRefPicsAreAvailable.part.8, .-HEVC_CheckThatAllRefPicsAreAvailable.part.8
	.align	2
	.type	HEVC_SetFrmRepeatCount.part.9, %function
HEVC_SetFrmRepeatCount.part.9:
	UNWIND(.fnstart)
	@ args = 0, pretend = 0, frame = 0
	@ frame_needed = 1, uses_anonymous_args = 0
	UNWIND(.movsp ip)
	mov	ip, sp
	stmfd	sp!, {fp, ip, lr, pc}
	UNWIND(.pad #4)
	UNWIND(.save {fp, ip, lr})
	UNWIND(.setfp fp, ip, #-4)
	sub	fp, ip, #4
	ldr	ip, [r0, #284]
	ldr	r2, [r0, #2584]
	ldr	r3, [r0, #280]
	add	r2, r2, ip
	add	ip, r2, #1
	cmp	r3, ip
	movcc	r3, #0
	strcc	r3, [r1, #16]
	ldmccfd	sp, {fp, sp, pc}
	sub	r3, r3, #1
	rsb	r3, r2, r3
	cmp	r3, #1
	movhi	r3, #2
	movls	r3, #1
	strhi	r3, [r1, #16]
	strls	r3, [r1, #16]
	ldrhi	r3, [r0, #284]
	ldrls	r3, [r0, #284]
	addhi	r3, r3, #2
	addls	r3, r3, #1
	str	r3, [r0, #284]
	ldmfd	sp, {fp, sp, pc}
	UNWIND(.fnend)
	.size	HEVC_SetFrmRepeatCount.part.9, .-HEVC_SetFrmRepeatCount.part.9
	.align	2
	.type	HEVC_OutputFrame.isra.10, %function
HEVC_OutputFrame.isra.10:
	UNWIND(.fnstart)
	@ args = 0, pretend = 0, frame = 0
	@ frame_needed = 1, uses_anonymous_args = 0
	UNWIND(.movsp ip)
	mov	ip, sp
	stmfd	sp!, {r4, r5, r6, fp, ip, lr, pc}
	UNWIND(.pad #4)
	UNWIND(.save {r4, r5, r6, fp, ip, lr})
	UNWIND(.setfp fp, ip, #-4)
	sub	fp, ip, #4
	UNWIND(.pad #12)
	sub	sp, sp, #12
	mov	r4, r0
	mov	r5, r1
	ldr	r0, [r0, #252]
	ldr	r1, [r1]
	bl	FSP_GetFsImagePtr
	subs	r6, r0, #0
	beq	.L62
	mov	r2, #1
	ldr	r1, [r5]
	ldr	r0, [r4, #252]
	bl	FSP_SetDisplay
	add	r3, r4, #5504
	ldr	r0, [r4, #252]
	add	r3, r3, #56
	str	r6, [sp]
	mov	r2, r4
	mov	r1, #16
	bl	InsertImgToVoQueue
	cmp	r0, #1
	bne	.L63
	ldr	r3, [r4, #2404]
	ldr	r3, [r3, #612]
	add	r3, r3, #2032
	add	r3, r3, #15
	cmp	r3, #4096
	movcc	r3, #0
	strcc	r3, [r6, #16]
	bcs	.L64
.L61:
	ldr	r2, [r4, #292]
	mov	r0, #0
	ldr	r3, [r4, #284]
	add	r2, r2, #1
	str	r2, [r4, #292]
	add	r3, r3, #1
	str	r3, [r4, #284]
.L58:
	sub	sp, fp, #24
	ldmfd	sp, {r4, r5, r6, fp, sp, pc}
.L64:
	mov	r1, r6
	mov	r0, r4
	bl	HEVC_SetFrmRepeatCount.part.9
	b	.L61
.L63:
	ldr	r2, .L65
	mov	r0, #1
	ldr	r1, .L65+4
	bl	dprint_vfmw
	ldr	r0, [r4, #252]
	ldr	r1, [r5]
	mov	r2, #0
	bl	FSP_SetDisplay
	mvn	r0, #0
	b	.L58
.L62:
	ldr	r2, .L65
	ldr	r1, .L65+8
	bl	dprint_vfmw
	mvn	r0, #0
	b	.L58
.L66:
	.align	2
.L65:
	.word	.LANCHOR0
	.word	.LC3
	.word	.LC2
	UNWIND(.fnend)
	.size	HEVC_OutputFrame.isra.10, .-HEVC_OutputFrame.isra.10
	.align	2
	.global	HEVC_Sei_ParsePts_Init
	.type	HEVC_Sei_ParsePts_Init, %function
HEVC_Sei_ParsePts_Init:
	UNWIND(.fnstart)
	@ args = 0, pretend = 0, frame = 0
	@ frame_needed = 1, uses_anonymous_args = 0
	UNWIND(.movsp ip)
	mov	ip, sp
	stmfd	sp!, {r4, r5, r6, r7, fp, ip, lr, pc}
	UNWIND(.pad #4)
	UNWIND(.save {r4, r5, r6, r7, fp, ip, lr})
	UNWIND(.setfp fp, ip, #-4)
	sub	fp, ip, #4
	ldr	r3, .L68
	mov	r6, r0
	add	r0, r0, #11072
	mov	r2, #56
	add	r0, r0, #32
	mov	r1, #0
	ldr	r3, [r3, #48]
	mov	r4, #0
	blx	r3
	add	r3, r6, #2896
	mov	r5, #0
	mov	r2, #0
	strd	r4, [r3, #32]
	strd	r4, [r3, #8]
	strd	r4, [r3, #16]
	strd	r4, [r3, #24]
	str	r2, [r6, #2884]
	ldmfd	sp, {r4, r5, r6, r7, fp, sp, pc}
.L69:
	.align	2
.L68:
	.word	vfmw_Osal_Func_Ptr_S
	UNWIND(.fnend)
	.size	HEVC_Sei_ParsePts_Init, .-HEVC_Sei_ParsePts_Init
	.align	2
	.global	HEVC_Sei_Get_Dpb_Output_Time
	.type	HEVC_Sei_Get_Dpb_Output_Time, %function
HEVC_Sei_Get_Dpb_Output_Time:
	UNWIND(.fnstart)
	@ args = 0, pretend = 0, frame = 0
	@ frame_needed = 1, uses_anonymous_args = 0
	UNWIND(.movsp ip)
	mov	ip, sp
	stmfd	sp!, {r4, r5, r6, r7, r8, r9, fp, ip, lr, pc}
	UNWIND(.pad #4)
	UNWIND(.save {r4, r5, r6, r7, r8, r9, fp, ip, lr})
	UNWIND(.setfp fp, ip, #-4)
	sub	fp, ip, #4
	add	r3, r0, #4096
	ldr	r5, [r0, #2368]
	mov	r6, #1888
	ldr	r1, [r0, #2364]
	ldr	ip, [r3, #140]
	movw	r4, #12660
	ldr	lr, [r2, #36]
	add	r3, r0, #8192
	mla	ip, r6, ip, r5
	ldr	r5, [r3, #2916]
	cmp	r5, #1
	ldr	ip, [ip, #32]
	str	lr, [r3, #2924]
	ldr	lr, [r2, #40]
	mla	r1, r4, ip, r1
	str	lr, [r3, #2928]
	ldr	ip, [r1, #52]
	add	ip, ip, #90
	ldrb	ip, [r1, ip, asl #2]	@ zero_extendqisi2
	beq	.L78
	ldrb	r1, [r3, #2913]	@ zero_extendqisi2
	cmp	r1, #0
	bne	.L79
	add	r1, r0, #2896
	ldr	lr, [r0, #2896]
	ldrd	r4, [r1, #8]
	adds	r4, r4, lr
	adc	r5, r5, #0
	strd	r4, [r1, #32]
.L72:
	add	lr, r3, #2912
	strd	r4, [r1, #24]
	mov	r1, #0
	strb	r1, [r3, #2913]
	ldrd	r6, [lr, #32]
	strd	r6, [lr, #48]
	ldrb	r3, [r2, #2]	@ zero_extendqisi2
	cmp	r3, r1
	ldr	r3, [r0, #2900]
	bne	.L80
	adds	r4, r4, r3
	adc	r5, r5, #0
	subs	r4, r4, ip
	sbc	r5, r5, #0
	strd	r4, [lr, #32]
	ldmfd	sp, {r4, r5, r6, r7, r8, r9, fp, sp, pc}
.L79:
	ldrb	r1, [r0, #2880]	@ zero_extendqisi2
	cmp	r1, #0
	add	r1, r0, #2896
	bne	.L81
	ldrd	r4, [r1, #8]
	ldrd	r8, [r1, #16]
.L75:
	ldr	r6, [r0, #2896]
	mov	r7, #0
	adds	r4, r4, r6
	adc	r5, r5, r7
	cmp	r4, r8
	sbcs	lr, r5, r9
	strd	r4, [r1, #32]
	strd	r4, [r1, #8]
	bge	.L72
	adds	r4, r6, r8
	adc	r5, r7, r9
	strd	r4, [r1, #32]
	strd	r4, [r1, #8]
	b	.L72
.L80:
	adds	r4, r4, r3
	adc	r5, r5, #0
	movs	r5, r5, asr #1
	mov	r4, r4, rrx
	subs	r4, r4, ip
	sbc	r5, r5, #0
	strd	r4, [lr, #32]
	ldmfd	sp, {r4, r5, r6, r7, r8, r9, fp, sp, pc}
.L78:
	ldr	r4, [r0, #2884]
	add	r1, r0, #2896
	mov	r5, r4, asr #31
	strd	r4, [r1, #32]
	strd	r4, [r1, #8]
	b	.L72
.L81:
	ldrd	r4, [r1, #16]
	mov	r8, r4
	mov	r9, r5
	b	.L75
	UNWIND(.fnend)
	.size	HEVC_Sei_Get_Dpb_Output_Time, .-HEVC_Sei_Get_Dpb_Output_Time
	.align	2
	.global	HEVC_Get_Last_IDR_Frame_Info
	.type	HEVC_Get_Last_IDR_Frame_Info, %function
HEVC_Get_Last_IDR_Frame_Info:
	UNWIND(.fnstart)
	@ args = 0, pretend = 0, frame = 0
	@ frame_needed = 1, uses_anonymous_args = 0
	UNWIND(.movsp ip)
	mov	ip, sp
	stmfd	sp!, {r4, r5, r6, r7, fp, ip, lr, pc}
	UNWIND(.pad #4)
	UNWIND(.save {r4, r5, r6, r7, fp, ip, lr})
	UNWIND(.setfp fp, ip, #-4)
	sub	fp, ip, #4
	sub	r3, r1, #19
	cmp	r3, #1
	bls	.L86
.L83:
	sub	r1, r1, #6
	cmp	r1, #3
	addhi	r0, r0, #2896
	ldrhid	r2, [r0, #32]
	strhid	r2, [r0, #16]
	ldmfd	sp, {r4, r5, r6, r7, fp, sp, pc}
.L86:
	ldr	ip, [r0, #2404]
	mvn	r3, #0
	mvn	r2, #0
	ldrd	r4, [ip, #56]
	cmp	r5, r3
	cmpeq	r4, r2
	addne	r3, r0, #11136
	ldrned	r6, [r3]
	strned	r4, [r3, #-8]
	strned	r6, [r3, #8]
.L84:
	add	r3, r0, #8192
	mov	r2, #1
	strb	r2, [r3, #2912]
	b	.L83
	UNWIND(.fnend)
	.size	HEVC_Get_Last_IDR_Frame_Info, .-HEVC_Get_Last_IDR_Frame_Info
	.global	__aeabi_uidivmod
	.global	__aeabi_uidiv
	.align	2
	.global	HEVC_Sei_Get_Frame_Pts
	.type	HEVC_Sei_Get_Frame_Pts, %function
HEVC_Sei_Get_Frame_Pts:
	UNWIND(.fnstart)
	@ args = 0, pretend = 0, frame = 16
	@ frame_needed = 1, uses_anonymous_args = 0
	UNWIND(.movsp ip)
	mov	ip, sp
	stmfd	sp!, {r4, r5, r6, r7, r8, r9, r10, fp, ip, lr, pc}
	UNWIND(.pad #4)
	UNWIND(.save {r4, r5, r6, r7, r8, r9, r10, fp, ip, lr})
	UNWIND(.setfp fp, ip, #-4)
	sub	fp, ip, #4
	UNWIND(.pad #20)
	sub	sp, sp, #20
	add	r1, r0, #8192
	add	r3, r0, #11136
	mov	r4, r0
	ldr	r5, [r1, #2924]
	ldr	r10, [r1, #2928]
	mov	r2, r3
	ldrd	r0, [r3, #8]
	cmp	r5, #0
	ldrd	r6, [r2]
	strd	r0, [fp, #-60]
	ldrd	r0, [r2, #-8]
	strd	r0, [fp, #-52]
	beq	.L90
	mov	r9, r5
	mov	r0, r10
	b	.L89
.L91:
	mov	r9, r1
.L89:
	mov	r1, r9
	bl	__aeabi_uidivmod
	mov	r0, r9
	cmp	r1, #0
	bne	.L91
.L88:
	ldrd	r2, [fp, #-60]
	mov	r1, r9
	mov	r0, r5
	mov	r8, #1000
	subs	r2, r6, r2
	add	r4, r4, #4160
	mul	r6, r8, r2
	bl	__aeabi_uidiv
	mov	r1, r9
	mul	r6, r0, r6
	mov	r0, r10
	bl	__aeabi_uidiv
	mov	r1, r0
	mov	r0, r6
	bl	__aeabi_uidiv
	ldrd	r2, [fp, #-52]
	adds	r2, r2, r0
	adc	r3, r3, #0
	mov	r0, r2
	mov	r1, r3
	strd	r0, [r4, #-8]
	sub	sp, fp, #40
	ldmfd	sp, {r4, r5, r6, r7, r8, r9, r10, fp, sp, pc}
.L90:
	mov	r9, r10
	b	.L88
	UNWIND(.fnend)
	.size	HEVC_Sei_Get_Frame_Pts, .-HEVC_Sei_Get_Frame_Pts
	.align	2
	.global	HEVC_InitSigLastScan
	.type	HEVC_InitSigLastScan, %function
HEVC_InitSigLastScan:
	UNWIND(.fnstart)
	@ args = 16, pretend = 0, frame = 24
	@ frame_needed = 1, uses_anonymous_args = 0
	UNWIND(.movsp ip)
	mov	ip, sp
	stmfd	sp!, {r4, r5, r6, r7, r8, r9, r10, fp, ip, lr, pc}
	UNWIND(.pad #4)
	UNWIND(.save {r4, r5, r6, r7, r8, r9, r10, fp, ip, lr})
	UNWIND(.setfp fp, ip, #-4)
	sub	fp, ip, #4
	UNWIND(.pad #28)
	sub	sp, sp, #28
	ldr	r4, [fp, #8]
	str	r0, [fp, #-48]
	cmp	r4, #15
	ldr	r6, [fp, #4]
	bgt	.L93
	cmp	r4, #8
	mul	r9, r4, r4
	beq	.L126
	cmp	r9, #0
	movne	r10, r6
	beq	.L93
.L95:
	mov	r5, #0
	rsb	r7, r4, #1
	mov	r8, r5
.L101:
	cmp	r4, r8
	bgt	.L113
	rsb	lr, r4, r8
	sub	r2, r4, #1
	add	lr, lr, #1
.L102:
	cmp	r2, #0
	cmpge	r4, lr
	ble	.L99
	mla	r0, r2, r4, lr
	add	ip, r10, r5, lsl #2
	mov	r1, r5
.L100:
	add	r1, r1, #1
	sub	r2, r2, #1
	rsb	r3, r5, r1
	str	r0, [ip], #4
	add	r3, r3, lr
	add	r0, r0, r7
	cmp	r2, #0
	cmpge	r4, r3
	bgt	.L100
	mov	r5, r1
.L99:
	cmp	r9, r5
	add	r8, r8, #1
	bhi	.L101
.L93:
	cmp	r4, #4
	ble	.L92
	mov	r3, r4, asr #2
	ldr	r1, [fp, #-48]
	str	r3, [fp, #-64]
	mov	r2, r3
	add	r3, r1, r3
	mul	r2, r2, r2
	mov	r0, r2
	str	r2, [fp, #-60]
	cmp	r0, #0
	ldrsb	r2, [r3, #12]
	add	r2, r2, #1
	beq	.L92
	add	r3, r1, #340
.L97:
	ldr	r1, .L127
	rsb	r7, r4, #1
	str	r3, [fp, #-52]
	mov	r3, #0
	add	r2, r1, r2, lsl #16
	str	r3, [fp, #-48]
	sub	r3, r2, #4
	str	r3, [fp, #-56]
.L111:
	ldr	r3, [fp, #-56]
	cmp	r4, #32
	ldr	r9, [fp, #-64]
	mov	r8, #0
	ldr	r5, [r3, #4]!
	mov	r1, r9
	str	r3, [fp, #-56]
	ldreq	r3, [fp, #-52]
	ldreq	r5, [r3]
	mov	r0, r5
	bl	__aeabi_uidiv
	ldr	ip, [fp, #-48]
	mov	r3, r8
	mov	r2, r8
	mov	lr, r8
	mov	r10, ip, asl #4
	mla	r1, r4, r0, r5
	mls	r1, r9, r0, r1
	mov	r9, r1, asl #2
.L105:
	cmp	lr, #3
	mvn	r1, r2
	mov	r1, r1, lsr #31
	movgt	r1, #0
	cmp	r1, #0
	beq	.L106
	mla	r1, r2, r4, lr
	add	r0, r3, r10
	rsb	lr, r3, lr
	add	r0, r6, r0, lsl #2
	add	r1, r1, r9
.L107:
	add	r3, r3, #1
	sub	r2, r2, #1
	add	r5, lr, r3
	str	r1, [r0], #4
	cmp	r5, #3
	mvn	ip, r2
	mov	ip, ip, lsr #31
	add	r1, r1, r7
	movgt	ip, #0
	cmp	ip, #0
	bne	.L107
.L106:
	cmp	r3, #15
	add	r8, r8, #1
	bhi	.L108
	cmp	r8, #3
	movle	r2, r8
	movle	lr, #0
	subgt	lr, r8, #3
	movgt	r2, #3
	b	.L105
.L108:
	ldr	r2, [fp, #-52]
	ldr	r3, [fp, #-48]
	add	r2, r2, #4
	str	r2, [fp, #-52]
	ldr	r2, [fp, #-60]
	add	r3, r3, #1
	str	r3, [fp, #-48]
	cmp	r3, r2
	bne	.L111
.L92:
	sub	sp, fp, #40
	ldmfd	sp, {r4, r5, r6, r7, r8, r9, r10, fp, sp, pc}
.L113:
	mov	r2, r8
	mov	lr, #0
	b	.L102
.L126:
	add	r3, r0, #340
	cmp	r9, #0
	mov	r10, r3
	bne	.L95
	ldr	r2, [fp, #-48]
	mov	r1, #2
	str	r1, [fp, #-64]
	mov	r1, #4
	str	r1, [fp, #-60]
	ldrsb	r2, [r2, #14]
	add	r2, r2, #1
	b	.L97
.L128:
	.align	2
.L127:
	.word	.LANCHOR1
	UNWIND(.fnend)
	.size	HEVC_InitSigLastScan, .-HEVC_InitSigLastScan
	.align	2
	.global	HEVC_InitScalingOrderTable
	.type	HEVC_InitScalingOrderTable, %function
HEVC_InitScalingOrderTable:
	UNWIND(.fnstart)
	@ args = 0, pretend = 0, frame = 0
	@ frame_needed = 1, uses_anonymous_args = 0
	UNWIND(.movsp ip)
	mov	ip, sp
	stmfd	sp!, {r4, r5, r6, r7, fp, ip, lr, pc}
	UNWIND(.pad #4)
	UNWIND(.save {r4, r5, r6, r7, fp, ip, lr})
	UNWIND(.setfp fp, ip, #-4)
	sub	fp, ip, #4
	UNWIND(.pad #16)
	sub	sp, sp, #16
	add	r3, r0, #11
	add	r1, r0, #140
	mov	r7, r0
	mvn	r2, #0
.L130:
	strb	r2, [r3, #1]!
	cmp	r3, r1
	bne	.L130
	ldr	r6, .L134
	mov	r2, #0
	mov	r3, #2
	mov	r5, r2
	mov	r4, r3
	strb	r2, [r7, #16]
	strb	r3, [r7, #28]
	mov	r2, #1
	mov	r3, #3
	strb	r2, [r7, #20]
	strb	r3, [r7, #44]
	mov	r3, #4
	strb	r3, [r7, #76]
.L131:
	mov	r3, #0
	str	r5, [sp, #12]
	str	r4, [sp, #8]
	add	r5, r5, #1
	str	r4, [sp, #4]
	mov	r2, r3
	str	r6, [sp]
	mov	r1, r3
	mov	r0, r7
	mov	r4, r4, asl #1
	bl	HEVC_InitSigLastScan
	cmp	r5, #7
	add	r6, r6, #65536
	bne	.L131
	sub	sp, fp, #28
	ldmfd	sp, {r4, r5, r6, r7, fp, sp, pc}
.L135:
	.align	2
.L134:
	.word	.LANCHOR1
	UNWIND(.fnend)
	.size	HEVC_InitScalingOrderTable, .-HEVC_InitScalingOrderTable
	.global	__aeabi_idiv
	.align	2
	.global	HEVC_GetDar
	.type	HEVC_GetDar, %function
HEVC_GetDar:
	UNWIND(.fnstart)
	@ args = 4, pretend = 0, frame = 8
	@ frame_needed = 1, uses_anonymous_args = 0
	UNWIND(.movsp ip)
	mov	ip, sp
	stmfd	sp!, {r4, fp, ip, lr, pc}
	UNWIND(.pad #4)
	UNWIND(.save {r4, fp, ip, lr})
	UNWIND(.setfp fp, ip, #-4)
	sub	fp, ip, #4
	UNWIND(.pad #12)
	sub	sp, sp, #12
	cmp	r0, #0
	mov	ip, r1
	moveq	r4, r0
	beq	.L137
	subs	lr, r0, #255
	movne	lr, #1
	cmp	r0, #16
	movle	r4, #0
	andgt	r4, lr, #1
	cmp	r4, #0
	movne	r4, #0
	bne	.L137
	cmp	r2, #0
	cmpne	r1, #0
	moveq	r1, #1
	movne	r1, #0
	cmp	r0, #255
	movne	r1, #0
	andeq	r1, r1, #1
	cmp	r1, #0
	bne	.L137
	cmp	r0, #1
	moveq	r4, #5
	beq	.L137
	cmp	lr, #0
	str	r3, [fp, #-24]
	ldrne	r2, .L159
	addne	r0, r2, r0, lsl #3
	ldrne	r2, [r0, #24]
	ldrne	ip, [r0, #20]
	mov	r1, r2
	mov	r0, ip, asl #10
	bl	__aeabi_idiv
	ldr	r3, [fp, #-24]
	ldr	r1, [fp, #4]
	mov	r4, r0
	mov	r0, r3, asl #10
	bl	__aeabi_idiv
	movw	r3, #2405
	movw	r2, #2262
	mul	r0, r0, r4
	add	r4, r0, #1020
	cmp	r0, #0
	add	r4, r4, #3
	movlt	r0, r4
	mov	r0, r0, asr #10
	cmp	r0, r3
	rsble	r3, r0, #2400
	subgt	r3, r0, #2400
	addle	r3, r3, #6
	subgt	r3, r3, #6
	cmp	r0, r2
	bgt	.L141
	rsb	r2, r0, #2256
	add	r2, r2, #7
	cmp	r3, r2
	bge	.L142
.L152:
	mov	r4, #4
.L137:
	mov	r2, r4
	ldr	r1, .L159+4
	mov	r0, #22
	bl	dprint_vfmw
	mov	r0, r4
	sub	sp, fp, #16
	ldmfd	sp, {r4, fp, sp, pc}
.L141:
	sub	r2, r0, #2256
	sub	r2, r2, #7
	cmp	r3, r2
	blt	.L152
.L142:
	movw	r3, #1819
	cmp	r0, r3
	bgt	.L143
	rsb	r3, r0, #1808
	add	r3, r3, #12
	cmp	r2, r3
	blt	.L154
.L144:
	movw	r2, #1364
	cmp	r0, r2
	rsble	r0, r0, #1360
	subgt	r0, r0, #1360
	addle	r0, r0, #5
	subgt	r0, r0, #5
	cmp	r3, r0
	movlt	r4, #2
	movge	r4, #1
	b	.L137
.L143:
	sub	r3, r0, #1808
	sub	r3, r3, #12
	cmp	r2, r3
	bge	.L144
.L154:
	mov	r4, #3
	b	.L137
.L160:
	.align	2
.L159:
	.word	.LANCHOR0
	.word	.LC4
	UNWIND(.fnend)
	.size	HEVC_GetDar, .-HEVC_GetDar
	.align	2
	.global	HEVC_PrintNaluArraySlot
	.type	HEVC_PrintNaluArraySlot, %function
HEVC_PrintNaluArraySlot:
	UNWIND(.fnstart)
	@ args = 0, pretend = 0, frame = 0
	@ frame_needed = 1, uses_anonymous_args = 0
	UNWIND(.movsp ip)
	mov	ip, sp
	stmfd	sp!, {r4, r5, r6, r7, fp, ip, lr, pc}
	UNWIND(.pad #4)
	UNWIND(.save {r4, r5, r6, r7, fp, ip, lr})
	UNWIND(.setfp fp, ip, #-4)
	sub	fp, ip, #4
	UNWIND(.pad #8)
	sub	sp, sp, #8
	ldr	r1, .L167
	mov	r7, r0
	mov	r0, #1
	bl	dprint_vfmw
	ldr	r3, [r7, #168]
	cmn	r3, #1
	movne	r5, #0
	movwne	r6, #52429
	movne	r4, r5
	movtne	r6, 52428
	bne	.L164
	b	.L165
.L163:
	ldr	r3, [r7, #168]
	add	r3, r3, #1
	cmp	r3, r4
	bls	.L165
.L164:
	ldr	r3, [r7, #2400]
	mov	r2, r4
	ldr	r1, .L167+4
	mov	r0, #1
	add	r3, r3, r5
	add	r5, r5, #96
	ldr	ip, [r3, #32]
	str	ip, [sp]
	bl	dprint_vfmw
	umull	r2, r3, r4, r6
	mov	r2, r3, lsr #3
	mov	r3, r2, asl #3
	add	r3, r3, r2, lsl #1
	cmp	r4, r3
	add	r4, r4, #1
	bne	.L163
	ldr	r1, .L167+8
	mov	r0, #1
	bl	dprint_vfmw
	ldr	r3, [r7, #168]
	add	r3, r3, #1
	cmp	r3, r4
	bhi	.L164
.L165:
	ldr	r1, .L167+8
	mov	r0, #1
	bl	dprint_vfmw
	ldr	r1, .L167+12
	mov	r0, #1
	sub	sp, fp, #28
	ldmfd	sp, {r4, r5, r6, r7, fp, sp, lr}
	b	dprint_vfmw
.L168:
	.align	2
.L167:
	.word	.LC5
	.word	.LC8
	.word	.LC6
	.word	.LC7
	UNWIND(.fnend)
	.size	HEVC_PrintNaluArraySlot, .-HEVC_PrintNaluArraySlot
	.align	2
	.global	HEVC_PrintCurrSlicelistX
	.type	HEVC_PrintCurrSlicelistX, %function
HEVC_PrintCurrSlicelistX:
	UNWIND(.fnstart)
	@ args = 0, pretend = 0, frame = 0
	@ frame_needed = 1, uses_anonymous_args = 0
	UNWIND(.movsp ip)
	mov	ip, sp
	stmfd	sp!, {r4, r5, r6, r7, fp, ip, lr, pc}
	UNWIND(.pad #4)
	UNWIND(.save {r4, r5, r6, r7, fp, ip, lr})
	UNWIND(.setfp fp, ip, #-4)
	sub	fp, ip, #4
	add	r6, r0, #4096
	mov	r7, r0
	ldr	r1, .L190
	mov	r0, #1
	bl	dprint_vfmw
	ldr	r2, [r6, #172]
	ldr	r1, .L190+4
	mov	r0, #1
	bl	dprint_vfmw
	ldr	r3, [r6, #172]
	cmp	r3, #0
	addne	r5, r7, #2400
	movne	r4, #0
	addne	r5, r5, #12
	beq	.L177
.L176:
	ldr	r3, [r5, #4]!
	mov	r2, r4
	ldr	r1, .L190+8
	mov	r0, #1
	bl	dprint_vfmw
	mov	r0, #1
	ldr	r3, [r5]
	add	r4, r4, r0
	ldr	r1, .L190+12
	cmp	r3, #0
	beq	.L174
	ldr	r2, [r3, #16]
	bl	dprint_vfmw
	ldr	r3, [r5]
	ldr	r3, [r3, #16]
	cmp	r3, #0
	beq	.L174
	ldr	r1, [r3, #28]
	ldr	r0, [r7, #252]
	bl	FSP_GetLogicFs
	ldr	r1, .L190+16
	mov	r2, r0
	mov	r0, #1
	bl	dprint_vfmw
.L174:
	ldr	r1, .L190+20
	mov	r0, #1
	bl	dprint_vfmw
	ldr	r3, [r6, #172]
	cmp	r3, r4
	bhi	.L176
.L177:
	ldr	r2, [r6, #176]
	mov	r0, #1
	ldr	r1, .L190+24
	bl	dprint_vfmw
	ldr	r3, [r6, #176]
	cmp	r3, #0
	addne	r5, r7, #2480
	movne	r4, #0
	beq	.L172
.L181:
	ldr	r3, [r5, #4]!
	mov	r2, r4
	ldr	r1, .L190+28
	mov	r0, #1
	bl	dprint_vfmw
	mov	r0, #1
	ldr	r3, [r5]
	add	r4, r4, r0
	ldr	r1, .L190+12
	cmp	r3, #0
	beq	.L179
	ldr	r2, [r3, #16]
	bl	dprint_vfmw
	ldr	r3, [r5]
	ldr	r3, [r3, #16]
	cmp	r3, #0
	beq	.L179
	ldr	r1, [r3, #28]
	ldr	r0, [r7, #252]
	bl	FSP_GetLogicFs
	ldr	r1, .L190+16
	mov	r2, r0
	mov	r0, #1
	bl	dprint_vfmw
.L179:
	ldr	r1, .L190+20
	mov	r0, #1
	bl	dprint_vfmw
	ldr	r3, [r6, #176]
	cmp	r3, r4
	bhi	.L181
.L172:
	ldr	r1, .L190+32
	mov	r0, #1
	sub	sp, fp, #28
	ldmfd	sp, {r4, r5, r6, r7, fp, sp, lr}
	b	dprint_vfmw
.L191:
	.align	2
.L190:
	.word	.LC9
	.word	.LC10
	.word	.LC12
	.word	.LC13
	.word	.LC14
	.word	.LC6
	.word	.LC11
	.word	.LC16
	.word	.LC15
	UNWIND(.fnend)
	.size	HEVC_PrintCurrSlicelistX, .-HEVC_PrintCurrSlicelistX
	.align	2
	.global	HEVC_PrintFrameStoreState
	.type	HEVC_PrintFrameStoreState, %function
HEVC_PrintFrameStoreState:
	UNWIND(.fnstart)
	@ args = 0, pretend = 0, frame = 0
	@ frame_needed = 1, uses_anonymous_args = 0
	UNWIND(.movsp ip)
	mov	ip, sp
	stmfd	sp!, {r4, r5, r6, r7, r8, r9, r10, fp, ip, lr, pc}
	UNWIND(.pad #4)
	UNWIND(.save {r4, r5, r6, r7, r8, r9, r10, fp, ip, lr})
	UNWIND(.setfp fp, ip, #-4)
	sub	fp, ip, #4
	UNWIND(.pad #20)
	sub	sp, sp, #20
	ldr	r1, .L199
	mov	r10, r0
	mov	r0, #1
	bl	dprint_vfmw
	ldr	r3, [r10, #180]
	cmp	r3, #0
	addne	r8, r10, #12672
	movne	r9, #0
	addne	r8, r8, #48
	beq	.L196
.L195:
	ldrb	ip, [r8, #2]	@ zero_extendqisi2
	mov	r3, r8
	mov	r2, r9
	ldr	r1, .L199+4
	mov	r0, #1
	add	r5, r8, #616
	str	ip, [sp, #8]
	mov	r4, #0
	ldrb	ip, [r8, #1]	@ zero_extendqisi2
	str	ip, [sp, #4]
	ldr	ip, [r8, #48]
	str	ip, [sp]
	bl	dprint_vfmw
.L194:
	ldrd	r6, [r5, #8]!
	mov	r2, r4
	ldr	r1, .L199+8
	add	r4, r4, #1
	mov	r0, #1
	strd	r6, [sp]
	bl	dprint_vfmw
	cmp	r4, #4
	bne	.L194
	ldr	r1, .L199+12
	mov	r0, #1
	bl	dprint_vfmw
	ldr	r3, [r10, #180]
	add	r9, r9, #1
	add	r8, r8, #712
	cmp	r3, r9
	bhi	.L195
.L196:
	ldr	r1, .L199+16
	mov	r0, #1
	sub	sp, fp, #40
	ldmfd	sp, {r4, r5, r6, r7, r8, r9, r10, fp, sp, lr}
	b	dprint_vfmw
.L200:
	.align	2
.L199:
	.word	.LC17
	.word	.LC19
	.word	.LC20
	.word	.LC6
	.word	.LC18
	UNWIND(.fnend)
	.size	HEVC_PrintFrameStoreState, .-HEVC_PrintFrameStoreState
	.align	2
	.global	HEVC_PrintAPCState
	.type	HEVC_PrintAPCState, %function
HEVC_PrintAPCState:
	UNWIND(.fnstart)
	@ args = 0, pretend = 0, frame = 0
	@ frame_needed = 1, uses_anonymous_args = 0
	UNWIND(.movsp ip)
	mov	ip, sp
	stmfd	sp!, {r4, r5, r6, r7, fp, ip, lr, pc}
	UNWIND(.pad #4)
	UNWIND(.save {r4, r5, r6, r7, fp, ip, lr})
	UNWIND(.setfp fp, ip, #-4)
	sub	fp, ip, #4
	UNWIND(.pad #8)
	sub	sp, sp, #8
	ldr	r1, .L204
	mov	r5, r0
	mov	r0, #1
	bl	dprint_vfmw
	add	ip, r5, #12288
	mov	r2, #0
	ldr	r1, .L204+4
	ldr	r3, [ip, #236]
	mov	r0, #1
	ldr	ip, [ip, #232]
	add	r6, r5, #12480
	add	r7, r5, #12544
	add	r5, r5, #12608
	add	r6, r6, #44
	add	r7, r7, #44
	str	ip, [sp]
	add	r5, r5, #44
	bl	dprint_vfmw
	mov	r4, #0
.L202:
	ldr	lr, [r5, #4]!
	mov	r2, r4
	ldr	ip, [r7, #4]!
	add	r4, r4, #1
	ldr	r3, [r6, #4]!
	mov	r0, #1
	ldr	r1, .L204+8
	stmia	sp, {ip, lr}
	bl	dprint_vfmw
	cmp	r4, #16
	bne	.L202
	ldr	r1, .L204+12
	mov	r0, #1
	sub	sp, fp, #28
	ldmfd	sp, {r4, r5, r6, r7, fp, sp, lr}
	b	dprint_vfmw
.L205:
	.align	2
.L204:
	.word	.LC21
	.word	.LC22
	.word	.LC23
	.word	.LC24
	UNWIND(.fnend)
	.size	HEVC_PrintAPCState, .-HEVC_PrintAPCState
	.align	2
	.global	HEVC_PrintDPBState
	.type	HEVC_PrintDPBState, %function
HEVC_PrintDPBState:
	UNWIND(.fnstart)
	@ args = 0, pretend = 0, frame = 24
	@ frame_needed = 1, uses_anonymous_args = 0
	UNWIND(.movsp ip)
	mov	ip, sp
	stmfd	sp!, {r4, r5, r6, r7, r8, r9, r10, fp, ip, lr, pc}
	UNWIND(.pad #4)
	UNWIND(.save {r4, r5, r6, r7, r8, r9, r10, fp, ip, lr})
	UNWIND(.setfp fp, ip, #-4)
	sub	fp, ip, #4
	UNWIND(.pad #76)
	sub	sp, sp, #76
	ldr	r1, .L222
	mov	r9, r0
	mov	r0, #1
	bl	dprint_vfmw
	ldr	r1, [r9, #2600]
	ldr	lr, [r9, #2596]
	mov	r0, #1
	ldr	ip, [r9, #2604]
	ldr	r3, [r9, #2588]
	ldr	r2, [r9, #2584]
	stmia	sp, {r1, ip, lr}
	ldr	r1, .L222+4
	bl	dprint_vfmw
	ldr	r3, [r9, #2588]
	cmp	r3, #0
	addne	r4, r9, #2592
	movne	r5, #0
	addne	r4, r4, #12
	beq	.L211
.L210:
	ldr	r3, [r4, #4]!
	ldr	r0, [r9, #252]
	ldrb	ip, [r3]	@ zero_extendqisi2
	ldr	r2, [r3, #32]
	ldr	lr, [r3, #48]
	ldrb	r6, [r3, #1]	@ zero_extendqisi2
	str	ip, [fp, #-52]
	ldr	ip, [r3, #60]
	ldr	r1, [r3, #28]
	str	r2, [fp, #-48]
	str	lr, [fp, #-56]
	ldrb	r8, [r3, #2]	@ zero_extendqisi2
	str	ip, [fp, #-64]
	ldr	r10, [r3, #8]
	str	r6, [fp, #-60]
	bl	FSP_GetLogicFs
	ldr	r3, [r4]
	ldr	r1, [r3, #28]
	mov	r6, r0
	ldr	r0, [r9, #252]
	bl	FSP_GetRef
	ldr	r3, [r4]
	ldr	r1, [r3, #28]
	mov	r7, r0
	ldr	r0, [r9, #252]
	bl	FSP_GetDisplay
	ldr	r1, [r4]
	ldr	ip, [fp, #-64]
	mov	r2, r5
	add	r5, r5, #1
	ldr	lr, [r1, #228]
	mov	r3, r1
	str	lr, [sp, #44]
	ldr	r1, [r1, #28]
	ldr	lr, [fp, #-56]
	str	ip, [sp, #24]
	str	r1, [sp, #40]
	str	r8, [sp, #16]
	ldr	r1, [fp, #-48]
	ldr	r8, [fp, #-60]
	ldr	ip, [fp, #-52]
	str	r1, [sp]
	str	r10, [sp, #20]
	str	r8, [sp, #12]
	str	lr, [sp, #8]
	str	ip, [sp, #4]
	str	r7, [sp, #32]
	str	r6, [sp, #28]
	ldr	r1, .L222+8
	str	r0, [sp, #36]
	mov	r0, #1
	bl	dprint_vfmw
	ldr	r3, [r9, #2588]
	cmp	r3, r5
	bhi	.L210
.L211:
	ldr	r1, .L222+12
	mov	r0, #1
	bl	dprint_vfmw
	ldr	r3, [r9, #2588]
	cmp	r3, #0
	addne	r5, r9, #2592
	movne	r6, #0
	addne	r5, r5, #12
	bne	.L218
	b	.L209
.L221:
	bl	dprint_vfmw
	ldr	r2, [r4, #20]
	ldr	r1, .L222+16
	mov	r0, #1
	bl	dprint_vfmw
	ldrsb	r2, [r4]
	ldr	r1, .L222+20
	mov	r0, #1
	bl	dprint_vfmw
	ldrsb	r2, [r4, #1]
	ldr	r1, .L222+24
	mov	r0, #1
	bl	dprint_vfmw
.L213:
	cmp	r8, #0
	mov	r2, r8
	ldr	r1, .L222+28
	mov	r0, #1
	beq	.L214
	bl	dprint_vfmw
	ldr	r2, [r8, #72]
	ldr	r1, .L222+32
	mov	r0, #1
	bl	dprint_vfmw
.L215:
	cmp	r7, #0
	mov	r2, r7
	ldr	r1, .L222+36
	mov	r0, #1
	beq	.L216
	bl	dprint_vfmw
	ldr	r2, [r7, #72]
	ldr	r1, .L222+40
	mov	r0, #1
	bl	dprint_vfmw
.L217:
	ldr	r1, .L222+12
	mov	r0, #1
	bl	dprint_vfmw
	ldr	r3, [r9, #2588]
	add	r6, r6, #1
	cmp	r3, r6
	bls	.L209
.L218:
	ldr	r3, [r5, #4]!
	ldr	r0, [r9, #252]
	ldr	r1, [r3, #28]
	bl	FSP_GetLogicFs
	ldr	r3, [r5]
	ldr	r1, [r3, #28]
	mov	r4, r0
	ldr	r0, [r9, #252]
	bl	FSP_GetDecPhyFs
	ldr	r3, [r5]
	ldr	r1, [r3, #28]
	mov	r8, r0
	ldr	r0, [r9, #252]
	bl	FSP_GetDispPhyFs
	mov	r2, r6
	ldr	r1, .L222+44
	mov	r7, r0
	mov	r0, #1
	bl	dprint_vfmw
	cmp	r4, #0
	mov	r2, r4
	ldr	r1, .L222+48
	mov	r0, #1
	bne	.L221
	ldr	r1, .L222+52
	mov	r0, #1
	bl	dprint_vfmw
	b	.L213
.L216:
	ldr	r1, .L222+56
	mov	r0, #1
	bl	dprint_vfmw
	b	.L217
.L214:
	ldr	r1, .L222+60
	mov	r0, #1
	bl	dprint_vfmw
	b	.L215
.L209:
	ldr	r1, .L222+64
	mov	r0, #1
	sub	sp, fp, #40
	ldmfd	sp, {r4, r5, r6, r7, r8, r9, r10, fp, sp, lr}
	b	dprint_vfmw
.L223:
	.align	2
.L222:
	.word	.LC25
	.word	.LC26
	.word	.LC27
	.word	.LC6
	.word	.LC31
	.word	.LC32
	.word	.LC33
	.word	.LC35
	.word	.LC36
	.word	.LC38
	.word	.LC39
	.word	.LC29
	.word	.LC30
	.word	.LC34
	.word	.LC40
	.word	.LC37
	.word	.LC28
	UNWIND(.fnend)
	.size	HEVC_PrintDPBState, .-HEVC_PrintDPBState
	.align	2
	.global	HEVC_IsSliceUnit
	.type	HEVC_IsSliceUnit, %function
HEVC_IsSliceUnit:
	UNWIND(.fnstart)
	@ args = 0, pretend = 0, frame = 0
	@ frame_needed = 1, uses_anonymous_args = 0
	UNWIND(.movsp ip)
	mov	ip, sp
	stmfd	sp!, {fp, ip, lr, pc}
	UNWIND(.pad #4)
	UNWIND(.save {fp, ip, lr})
	UNWIND(.setfp fp, ip, #-4)
	sub	fp, ip, #4
	cmp	r0, #9
	bls	.L226
	sub	r0, r0, #16
	cmp	r0, #5
	movhi	r0, #0
	movls	r0, #1
	ldmfd	sp, {fp, sp, pc}
.L226:
	mov	r0, #1
	ldmfd	sp, {fp, sp, pc}
	UNWIND(.fnend)
	.size	HEVC_IsSliceUnit, .-HEVC_IsSliceUnit
	.align	2
	.global	HEVC_IsIUnit
	.type	HEVC_IsIUnit, %function
HEVC_IsIUnit:
	UNWIND(.fnstart)
	@ args = 0, pretend = 0, frame = 0
	@ frame_needed = 1, uses_anonymous_args = 0
	UNWIND(.movsp ip)
	mov	ip, sp
	stmfd	sp!, {fp, ip, lr, pc}
	UNWIND(.pad #4)
	UNWIND(.save {fp, ip, lr})
	UNWIND(.setfp fp, ip, #-4)
	sub	fp, ip, #4
	sub	r0, r0, #16
	cmp	r0, #5
	movhi	r0, #0
	movls	r0, #1
	ldmfd	sp, {fp, sp, pc}
	UNWIND(.fnend)
	.size	HEVC_IsIUnit, .-HEVC_IsIUnit
	.align	2
	.global	HEVC_IsNonRefPic
	.type	HEVC_IsNonRefPic, %function
HEVC_IsNonRefPic:
	UNWIND(.fnstart)
	@ args = 0, pretend = 0, frame = 0
	@ frame_needed = 1, uses_anonymous_args = 0
	UNWIND(.movsp ip)
	mov	ip, sp
	stmfd	sp!, {fp, ip, lr, pc}
	UNWIND(.pad #4)
	UNWIND(.save {fp, ip, lr})
	UNWIND(.setfp fp, ip, #-4)
	sub	fp, ip, #4
	bics	r0, r0, #6
	subne	r0, r0, #8
	clzne	r0, r0
	movne	r0, r0, lsr #5
	moveq	r0, #1
	ldmfd	sp, {fp, sp, pc}
	UNWIND(.fnend)
	.size	HEVC_IsNonRefPic, .-HEVC_IsNonRefPic
	.align	2
	.global	HEVC_IsFlushUnit
	.type	HEVC_IsFlushUnit, %function
HEVC_IsFlushUnit:
	UNWIND(.fnstart)
	@ args = 0, pretend = 0, frame = 0
	@ frame_needed = 1, uses_anonymous_args = 0
	UNWIND(.movsp ip)
	mov	ip, sp
	stmfd	sp!, {fp, ip, lr, pc}
	UNWIND(.pad #4)
	UNWIND(.save {fp, ip, lr})
	UNWIND(.setfp fp, ip, #-4)
	sub	fp, ip, #4
	sub	r0, r0, #16
	cmp	r0, #4
	movhi	r0, #0
	movls	r0, #1
	ldmfd	sp, {fp, sp, pc}
	UNWIND(.fnend)
	.size	HEVC_IsFlushUnit, .-HEVC_IsFlushUnit
	.align	2
	.global	HEVC_IsPVRFlushPic
	.type	HEVC_IsPVRFlushPic, %function
HEVC_IsPVRFlushPic:
	UNWIND(.fnstart)
	@ args = 0, pretend = 0, frame = 0
	@ frame_needed = 1, uses_anonymous_args = 0
	UNWIND(.movsp ip)
	mov	ip, sp
	stmfd	sp!, {fp, ip, lr, pc}
	UNWIND(.pad #4)
	UNWIND(.save {fp, ip, lr})
	UNWIND(.setfp fp, ip, #-4)
	sub	fp, ip, #4
	ldr	r3, [r0, #3520]
	cmp	r3, #0
	bne	.L234
	ldr	r2, [r0, #2404]
	ldr	r1, [r2, #652]
	cmp	r1, #1
	beq	.L238
.L236:
	mov	r0, r3
	ldmfd	sp, {fp, sp, pc}
.L234:
	mov	r0, #0
	ldmfd	sp, {fp, sp, pc}
.L238:
	ldr	r0, [r2, #648]
	cmp	r0, #0
	bne	.L236
	ldr	r3, [r2, #656]
	cmp	r3, #0
	ldmnefd	sp, {fp, sp, pc}
	ldr	r3, [r2, #612]
	add	r3, r3, #1024
	cmp	r3, #2048
	movls	r0, #0
	movhi	r0, #1
	ldmfd	sp, {fp, sp, pc}
	UNWIND(.fnend)
	.size	HEVC_IsPVRFlushPic, .-HEVC_IsPVRFlushPic
	.align	2
	.global	HEVC_IsEosNal
	.type	HEVC_IsEosNal, %function
HEVC_IsEosNal:
	UNWIND(.fnstart)
	@ args = 0, pretend = 0, frame = 0
	@ frame_needed = 1, uses_anonymous_args = 0
	UNWIND(.movsp ip)
	mov	ip, sp
	stmfd	sp!, {r4, r5, fp, ip, lr, pc}
	UNWIND(.pad #4)
	UNWIND(.save {r4, r5, fp, ip, lr})
	UNWIND(.setfp fp, ip, #-4)
	sub	fp, ip, #4
	mov	r1, #32
	mov	r4, r0
	ldr	r0, [r0, #2356]
	bl	BsGet
	mov	r1, #32
	mov	r5, r0
	ldr	r0, [r4, #2356]
	bl	BsGet
	movw	r2, #20036
	movw	r3, #20553
	movt	r2, 17221
	movt	r3, 18515
	cmp	r0, r2
	cmpeq	r5, r3
	moveq	r0, #1
	movne	r0, #0
	ldmfd	sp, {r4, r5, fp, sp, pc}
	UNWIND(.fnend)
	.size	HEVC_IsEosNal, .-HEVC_IsEosNal
	.align	2
	.global	HEVC_CalcTileInfo
	.type	HEVC_CalcTileInfo, %function
HEVC_CalcTileInfo:
	UNWIND(.fnstart)
	@ args = 0, pretend = 0, frame = 8
	@ frame_needed = 1, uses_anonymous_args = 0
	UNWIND(.movsp ip)
	mov	ip, sp
	stmfd	sp!, {r4, r5, r6, r7, r8, r9, r10, fp, ip, lr, pc}
	UNWIND(.pad #4)
	UNWIND(.save {r4, r5, r6, r7, r8, r9, r10, fp, ip, lr})
	UNWIND(.setfp fp, ip, #-4)
	sub	fp, ip, #4
	UNWIND(.pad #20)
	sub	sp, sp, #20
	mov	r8, r1
	ldr	r1, [r0, #2392]
	mov	r6, r2
	ldr	r2, [r0, #2388]
	mov	r5, r0
	str	r3, [fp, #-48]
	ldr	r7, [r1, #68]
	ldr	r2, [r2, #128]
	sub	r3, r7, #1
	ldr	r9, [r1, #72]
	cmp	r3, #9
	str	r2, [fp, #-52]
	bhi	.L268
	sub	r3, r9, #1
	cmp	r3, #10
	bhi	.L269
	ldr	r4, .L270
	mov	r2, #512
	mov	r1, #0
	mov	r0, r8
	ldr	r3, [r4, #48]
	blx	r3
	ldr	r3, [r4, #48]
	mov	r2, #80
	mov	r1, #0
	mov	r0, r6
	blx	r3
	ldr	r3, [r4, #48]
	mov	r2, #88
	mov	r1, #0
	ldr	r0, [fp, #-48]
	blx	r3
	cmp	r7, #0
	ble	.L249
	ldr	r3, [fp, #-52]
	mov	r2, #0
	mov	r1, r2
	mov	r0, r6
	sub	r10, r3, #4
.L248:
	str	r2, [r6, r1, asl #3]
	mov	r3, r2, asl r10
	ldr	ip, [r5, #2392]
	add	ip, ip, r1, lsl #1
	ldrsh	ip, [ip, #172]
	add	r2, ip, r2
	sub	ip, r2, #1
	str	ip, [r0, #4]
	mov	lr, r2, asl r10
	cmp	r3, lr
	bge	.L254
	cmp	r3, #255
	bhi	.L250
	uxtb	r4, r1
	add	ip, r8, r3
	b	.L252
.L253:
	cmp	r3, #256
	beq	.L250
.L252:
	add	r3, r3, #1
	strb	r4, [ip], #1
	cmp	r3, lr
	bne	.L253
.L254:
	add	r1, r1, #1
	add	r0, r0, #8
	cmp	r1, r7
	bne	.L248
.L249:
	cmp	r9, #0
	ble	.L246
	ldr	r3, [fp, #-52]
	mov	ip, #0
	ldr	r7, [fp, #-48]
	mov	lr, ip
	sub	r4, r3, #4
	mov	r6, r7
.L256:
	str	ip, [r7, lr, asl #3]
	mov	r3, ip, asl r4
	ldr	r2, [r5, #2392]
	add	r2, r2, lr, lsl #1
	ldrsh	r2, [r2, #212]
	add	ip, r2, ip
	sub	r2, ip, #1
	str	r2, [r6, #4]
	mov	r1, ip, asl r4
	cmp	r3, r1
	bge	.L261
	cmp	r3, #255
	bhi	.L257
	add	r2, r3, #255
	uxtb	r0, lr
	add	r2, r8, r2
	b	.L259
.L260:
	cmp	r3, #256
	beq	.L257
.L259:
	add	r3, r3, #1
	strb	r0, [r2, #1]!
	cmp	r3, r1
	bne	.L260
.L261:
	add	lr, lr, #1
	add	r6, r6, #8
	cmp	lr, r9
	bne	.L256
.L246:
	mov	r0, #0
	b	.L242
.L250:
	ldr	r2, .L270+4
	mov	r0, #1
	ldr	r1, .L270+8
	bl	dprint_vfmw
	mvn	r0, #0
.L242:
	sub	sp, fp, #40
	ldmfd	sp, {r4, r5, r6, r7, r8, r9, r10, fp, sp, pc}
.L257:
	ldr	r2, .L270+4
	mov	r0, #1
	ldr	r1, .L270+12
	bl	dprint_vfmw
	mvn	r0, #0
	b	.L242
.L269:
	mov	r1, #11
	mov	r3, r9
	str	r1, [sp]
	mov	r0, #1
	ldr	r2, .L270+4
	ldr	r1, .L270+16
	bl	dprint_vfmw
	mvn	r0, #0
	b	.L242
.L268:
	mov	r1, #10
	mov	r3, r7
	str	r1, [sp]
	mov	r0, #1
	ldr	r2, .L270+4
	ldr	r1, .L270+20
	bl	dprint_vfmw
	mvn	r0, #0
	b	.L242
.L271:
	.align	2
.L270:
	.word	vfmw_Osal_Func_Ptr_S
	.word	.LANCHOR0+156
	.word	.LC43
	.word	.LC44
	.word	.LC42
	.word	.LC41
	UNWIND(.fnend)
	.size	HEVC_CalcTileInfo, .-HEVC_CalcTileInfo
	.align	2
	.global	HEVC_Sei_More_Data_In_Payload
	.type	HEVC_Sei_More_Data_In_Payload, %function
HEVC_Sei_More_Data_In_Payload:
	UNWIND(.fnstart)
	@ args = 0, pretend = 0, frame = 0
	@ frame_needed = 1, uses_anonymous_args = 0
	UNWIND(.movsp ip)
	mov	ip, sp
	stmfd	sp!, {r4, r5, fp, ip, lr, pc}
	UNWIND(.pad #4)
	UNWIND(.save {r4, r5, fp, ip, lr})
	UNWIND(.setfp fp, ip, #-4)
	sub	fp, ip, #4
	ldr	r2, [r0, #2356]
	mov	r5, r1
	ldr	r3, [r2, #24]
	mov	r0, r2
	ldr	r4, [r2, #28]
	rsb	r4, r4, r3
	bl	BsIsByteAligned
	cmp	r4, r5, asl #3
	movne	r3, #1
	moveq	r3, #0
	cmp	r0, #0
	moveq	r0, #0
	andne	r0, r3, #1
	eor	r0, r0, #1
	ldmfd	sp, {r4, r5, fp, sp, pc}
	UNWIND(.fnend)
	.size	HEVC_Sei_More_Data_In_Payload, .-HEVC_Sei_More_Data_In_Payload
	.align	2
	.global	HEVC_Sei_Payload_Extension_Present
	.type	HEVC_Sei_Payload_Extension_Present, %function
HEVC_Sei_Payload_Extension_Present:
	UNWIND(.fnstart)
	@ args = 0, pretend = 0, frame = 32
	@ frame_needed = 1, uses_anonymous_args = 0
	UNWIND(.movsp ip)
	mov	ip, sp
	stmfd	sp!, {r4, r5, fp, ip, lr, pc}
	UNWIND(.pad #4)
	UNWIND(.save {r4, r5, fp, ip, lr})
	UNWIND(.setfp fp, ip, #-4)
	sub	fp, ip, #4
	UNWIND(.pad #32)
	sub	sp, sp, #32
	ldr	r3, .L280
	mov	r5, r1
	mov	r2, #32
	ldr	r1, [r0, #2356]
	sub	r0, fp, #52
	ldr	r3, [r3, #52]
	mov	r5, r5, asl #3
	blx	r3
	ldr	r3, [fp, #-28]
	ldr	r2, [fp, #-24]
	rsb	r3, r2, r3
	cmp	r3, r5
	movcs	r0, #0
	bcc	.L279
.L274:
	sub	sp, fp, #20
	ldmfd	sp, {r4, r5, fp, sp, pc}
.L279:
	mov	r1, #1
	sub	r0, fp, #52
	bl	BsShow
	cmp	r0, #0
	moveq	r0, #1
	beq	.L274
	mov	r1, #1
	sub	r0, fp, #52
	bl	BsSkip
	ldr	r3, [fp, #-28]
	ldr	r4, [fp, #-24]
	rsb	r4, r4, r3
	b	.L275
.L276:
	bl	BsSkip
	ldr	r3, [fp, #-28]
	ldr	r4, [fp, #-24]
	rsb	r4, r4, r3
.L275:
	mov	r1, #1
	sub	r0, fp, #52
	bl	BsShow
	cmp	r4, r5
	mov	r1, #1
	movcs	r3, #0
	movcc	r3, #1
	cmp	r0, #0
	movne	r2, #0
	andeq	r2, r3, #1
	sub	r0, fp, #52
	cmp	r2, #0
	bne	.L276
	mov	r0, r3
	sub	sp, fp, #20
	ldmfd	sp, {r4, r5, fp, sp, pc}
.L281:
	.align	2
.L280:
	.word	vfmw_Osal_Func_Ptr_S
	UNWIND(.fnend)
	.size	HEVC_Sei_Payload_Extension_Present, .-HEVC_Sei_Payload_Extension_Present
	.align	2
	.global	HEVC_Sei_Decoded_Picture_Hash
	.type	HEVC_Sei_Decoded_Picture_Hash, %function
HEVC_Sei_Decoded_Picture_Hash:
	UNWIND(.fnstart)
	@ args = 0, pretend = 0, frame = 0
	@ frame_needed = 1, uses_anonymous_args = 0
	UNWIND(.movsp ip)
	mov	ip, sp
	stmfd	sp!, {r4, r5, r6, r7, fp, ip, lr, pc}
	UNWIND(.pad #4)
	UNWIND(.save {r4, r5, r6, r7, fp, ip, lr})
	UNWIND(.setfp fp, ip, #-4)
	sub	fp, ip, #4
	cmp	r1, #0
	cmpne	r0, #0
	mov	r5, r0
	beq	.L290
	mov	r1, #8
	ldr	r0, [r0, #2356]
	bl	BsGet
	mov	r6, #3
	mov	r7, r0
.L289:
	cmp	r7, #0
	bne	.L284
	mov	r4, #16
.L285:
	mov	r1, #8
	ldr	r0, [r5, #2356]
	bl	BsGet
	subs	r4, r4, #1
	bne	.L285
.L286:
	subs	r6, r6, #1
	bne	.L289
.L294:
	mov	r0, r6
	ldmfd	sp, {r4, r5, r6, r7, fp, sp, pc}
.L284:
	cmp	r7, #1
	beq	.L293
	cmp	r7, #2
	bne	.L286
	mov	r1, #32
	ldr	r0, [r5, #2356]
	bl	BsGet
	subs	r6, r6, #1
	bne	.L289
	b	.L294
.L293:
	mov	r1, #16
	ldr	r0, [r5, #2356]
	bl	BsGet
	subs	r6, r6, #1
	bne	.L289
	b	.L294
.L290:
	mvn	r0, #0
	ldmfd	sp, {r4, r5, r6, r7, fp, sp, pc}
	UNWIND(.fnend)
	.size	HEVC_Sei_Decoded_Picture_Hash, .-HEVC_Sei_Decoded_Picture_Hash
	.align	2
	.global	HEVC_Sei_Region_Refresh_Info
	.type	HEVC_Sei_Region_Refresh_Info, %function
HEVC_Sei_Region_Refresh_Info:
	UNWIND(.fnstart)
	@ args = 0, pretend = 0, frame = 0
	@ frame_needed = 1, uses_anonymous_args = 0
	UNWIND(.movsp ip)
	mov	ip, sp
	stmfd	sp!, {r4, r5, fp, ip, lr, pc}
	UNWIND(.pad #4)
	UNWIND(.save {r4, r5, fp, ip, lr})
	UNWIND(.setfp fp, ip, #-4)
	sub	fp, ip, #4
	cmp	r1, #0
	cmpne	r0, #0
	moveq	r4, #1
	movne	r4, #0
	beq	.L297
	mov	r1, #1
	ldr	r0, [r0, #2356]
	bl	BsGet
	mov	r0, r4
	ldmfd	sp, {r4, r5, fp, sp, pc}
.L297:
	mvn	r0, #0
	ldmfd	sp, {r4, r5, fp, sp, pc}
	UNWIND(.fnend)
	.size	HEVC_Sei_Region_Refresh_Info, .-HEVC_Sei_Region_Refresh_Info
	.align	2
	.global	HEVC_Sei_Mastering_Display_Colour_Volume
	.type	HEVC_Sei_Mastering_Display_Colour_Volume, %function
HEVC_Sei_Mastering_Display_Colour_Volume:
	UNWIND(.fnstart)
	@ args = 0, pretend = 0, frame = 0
	@ frame_needed = 1, uses_anonymous_args = 0
	UNWIND(.movsp ip)
	mov	ip, sp
	stmfd	sp!, {r4, r5, r6, r7, fp, ip, lr, pc}
	UNWIND(.pad #4)
	UNWIND(.save {r4, r5, r6, r7, fp, ip, lr})
	UNWIND(.setfp fp, ip, #-4)
	sub	fp, ip, #4
	cmp	r1, #0
	cmpne	r0, #0
	mov	r5, r0
	mov	r6, r1
	beq	.L301
	add	r7, r1, #12
	mov	r4, r1
	mov	r3, #1
	strb	r3, [r1]
.L300:
	mov	r1, #16
	ldr	r0, [r5, #2356]
	bl	BsGet
	mov	r1, #16
	str	r0, [r4, #4]!
	ldr	r0, [r5, #2356]
	bl	BsGet
	cmp	r4, r7
	str	r0, [r4, #12]
	bne	.L300
	mov	r1, #16
	ldr	r0, [r5, #2356]
	bl	BsGet
	mov	r1, #16
	str	r0, [r6, #28]
	ldr	r0, [r5, #2356]
	bl	BsGet
	mov	r1, #32
	str	r0, [r6, #32]
	ldr	r0, [r5, #2356]
	bl	BsGet
	mov	r1, #32
	str	r0, [r6, #36]
	ldr	r0, [r5, #2356]
	bl	BsGet
	mov	r3, #0
	str	r0, [r6, #40]
.L299:
	mov	r0, r3
	ldmfd	sp, {r4, r5, r6, r7, fp, sp, pc}
.L301:
	mvn	r3, #0
	b	.L299
	UNWIND(.fnend)
	.size	HEVC_Sei_Mastering_Display_Colour_Volume, .-HEVC_Sei_Mastering_Display_Colour_Volume
	.align	2
	.global	HEVC_Sei_Content_Light_Level_Information
	.type	HEVC_Sei_Content_Light_Level_Information, %function
HEVC_Sei_Content_Light_Level_Information:
	UNWIND(.fnstart)
	@ args = 0, pretend = 0, frame = 0
	@ frame_needed = 1, uses_anonymous_args = 0
	UNWIND(.movsp ip)
	mov	ip, sp
	stmfd	sp!, {r4, r5, r6, r7, fp, ip, lr, pc}
	UNWIND(.pad #4)
	UNWIND(.save {r4, r5, r6, r7, fp, ip, lr})
	UNWIND(.setfp fp, ip, #-4)
	sub	fp, ip, #4
	cmp	r1, #0
	cmpne	r0, #0
	mov	r6, r0
	mov	r5, r1
	moveq	r4, #1
	movne	r4, #0
	beq	.L305
	mov	r3, #1
	mov	r1, #16
	strb	r3, [r5]
	ldr	r0, [r0, #2356]
	bl	BsGet
	mov	r1, #16
	strh	r0, [r5, #2]	@ movhi
	ldr	r0, [r6, #2356]
	bl	BsGet
	mov	r3, r4
	strh	r0, [r5, #4]	@ movhi
.L304:
	mov	r0, r3
	ldmfd	sp, {r4, r5, r6, r7, fp, sp, pc}
.L305:
	mvn	r3, #0
	b	.L304
	UNWIND(.fnend)
	.size	HEVC_Sei_Content_Light_Level_Information, .-HEVC_Sei_Content_Light_Level_Information
	.align	2
	.global	HEVC_Sei_HLGHDR_Comapitibility_Info
	.type	HEVC_Sei_HLGHDR_Comapitibility_Info, %function
HEVC_Sei_HLGHDR_Comapitibility_Info:
	UNWIND(.fnstart)
	@ args = 0, pretend = 0, frame = 0
	@ frame_needed = 1, uses_anonymous_args = 0
	UNWIND(.movsp ip)
	mov	ip, sp
	stmfd	sp!, {r4, r5, fp, ip, lr, pc}
	UNWIND(.pad #4)
	UNWIND(.save {r4, r5, fp, ip, lr})
	UNWIND(.setfp fp, ip, #-4)
	sub	fp, ip, #4
	cmp	r1, #0
	cmpne	r0, #0
	mov	r5, r1
	moveq	r4, #1
	movne	r4, #0
	beq	.L308
	ldr	r0, [r0, #2356]
	mov	r1, #8
	bl	BsGet
	mov	r3, r4
	strb	r0, [r5]
.L307:
	mov	r0, r3
	ldmfd	sp, {r4, r5, fp, sp, pc}
.L308:
	mvn	r3, #0
	b	.L307
	UNWIND(.fnend)
	.size	HEVC_Sei_HLGHDR_Comapitibility_Info, .-HEVC_Sei_HLGHDR_Comapitibility_Info
	.align	2
	.global	HEVC_Sei_Temporal_Sub_Layer_Zero_Index
	.type	HEVC_Sei_Temporal_Sub_Layer_Zero_Index, %function
HEVC_Sei_Temporal_Sub_Layer_Zero_Index:
	UNWIND(.fnstart)
	@ args = 0, pretend = 0, frame = 0
	@ frame_needed = 1, uses_anonymous_args = 0
	UNWIND(.movsp ip)
	mov	ip, sp
	stmfd	sp!, {r4, r5, fp, ip, lr, pc}
	UNWIND(.pad #4)
	UNWIND(.save {r4, r5, fp, ip, lr})
	UNWIND(.setfp fp, ip, #-4)
	sub	fp, ip, #4
	cmp	r1, #0
	cmpne	r0, #0
	mov	r5, r0
	moveq	r4, #1
	movne	r4, #0
	beq	.L311
	mov	r1, #1
	ldr	r0, [r0, #2356]
	bl	BsGet
	mov	r1, #1
	ldr	r0, [r5, #2356]
	bl	BsGet
	ldr	r0, [r5, #2356]
	bl	BsToNextByte
	mov	r0, r4
	ldmfd	sp, {r4, r5, fp, sp, pc}
.L311:
	mvn	r0, #0
	ldmfd	sp, {r4, r5, fp, sp, pc}
	UNWIND(.fnend)
	.size	HEVC_Sei_Temporal_Sub_Layer_Zero_Index, .-HEVC_Sei_Temporal_Sub_Layer_Zero_Index
	.align	2
	.global	HEVC_Sei_Display_Orientation
	.type	HEVC_Sei_Display_Orientation, %function
HEVC_Sei_Display_Orientation:
	UNWIND(.fnstart)
	@ args = 0, pretend = 0, frame = 0
	@ frame_needed = 1, uses_anonymous_args = 0
	UNWIND(.movsp ip)
	mov	ip, sp
	stmfd	sp!, {r4, r5, fp, ip, lr, pc}
	UNWIND(.pad #4)
	UNWIND(.save {r4, r5, fp, ip, lr})
	UNWIND(.setfp fp, ip, #-4)
	sub	fp, ip, #4
	cmp	r1, #0
	cmpne	r0, #0
	mov	r4, r0
	beq	.L315
	mov	r1, #1
	ldr	r0, [r0, #2356]
	bl	BsGet
	tst	r0, #255
	beq	.L316
.L314:
	ldr	r0, [r4, #2356]
	bl	BsToNextByte
	mov	r0, #0
	ldmfd	sp, {r4, r5, fp, sp, pc}
.L316:
	mov	r1, #1
	ldr	r0, [r4, #2356]
	bl	BsGet
	mov	r1, #1
	ldr	r0, [r4, #2356]
	bl	BsGet
	mov	r1, #16
	ldr	r0, [r4, #2356]
	bl	BsGet
	mov	r1, #1
	ldr	r0, [r4, #2356]
	bl	BsGet
	b	.L314
.L315:
	mvn	r0, #0
	ldmfd	sp, {r4, r5, fp, sp, pc}
	UNWIND(.fnend)
	.size	HEVC_Sei_Display_Orientation, .-HEVC_Sei_Display_Orientation
	.align	2
	.global	HEVC_Sei_TSI
	.type	HEVC_Sei_TSI, %function
HEVC_Sei_TSI:
	UNWIND(.fnstart)
	@ args = 0, pretend = 0, frame = 0
	@ frame_needed = 1, uses_anonymous_args = 0
	UNWIND(.movsp ip)
	mov	ip, sp
	stmfd	sp!, {r4, r5, r6, r7, fp, ip, lr, pc}
	UNWIND(.pad #4)
	UNWIND(.save {r4, r5, r6, r7, fp, ip, lr})
	UNWIND(.setfp fp, ip, #-4)
	sub	fp, ip, #4
	cmp	r1, #0
	cmpne	r0, #0
	mov	r6, r0
	mov	r5, r1
	moveq	r4, #1
	movne	r4, #0
	beq	.L319
	mov	r1, #4
	ldr	r0, [r0, #2356]
	bl	BsGet
	mov	r1, #4
	strb	r0, [r5, #1]
	ldr	r0, [r6, #2356]
	bl	BsGet
	mov	r3, r4
	mov	r2, #1
	strb	r2, [r5]
	strb	r0, [r5, #2]
.L318:
	mov	r0, r3
	ldmfd	sp, {r4, r5, r6, r7, fp, sp, pc}
.L319:
	mvn	r3, #0
	b	.L318
	UNWIND(.fnend)
	.size	HEVC_Sei_TSI, .-HEVC_Sei_TSI
	.align	2
	.global	HEVC_Sei_User_Data_Unregistered
	.type	HEVC_Sei_User_Data_Unregistered, %function
HEVC_Sei_User_Data_Unregistered:
	UNWIND(.fnstart)
	@ args = 0, pretend = 0, frame = 0
	@ frame_needed = 1, uses_anonymous_args = 0
	UNWIND(.movsp ip)
	mov	ip, sp
	stmfd	sp!, {r4, r5, r6, r7, fp, ip, lr, pc}
	UNWIND(.pad #4)
	UNWIND(.save {r4, r5, r6, r7, fp, ip, lr})
	UNWIND(.setfp fp, ip, #-4)
	sub	fp, ip, #4
	cmp	r2, #15
	mov	r6, r2
	mov	r5, r0
	movhi	r4, #16
	bls	.L329
.L323:
	mov	r1, #8
	ldr	r0, [r5, #2356]
	bl	BsGet
	subs	r4, r4, #1
	bne	.L323
	subs	r6, r6, #16
	beq	.L325
.L324:
	add	r4, r4, #1
	mov	r1, #8
	ldr	r0, [r5, #2356]
	bl	BsGet
	cmp	r6, r4
	bne	.L324
.L325:
	mov	r0, #0
	ldmfd	sp, {r4, r5, r6, r7, fp, sp, pc}
.L329:
	ldr	r1, .L330
	mov	r0, #1
	bl	dprint_vfmw
	mvn	r0, #0
	ldmfd	sp, {r4, r5, r6, r7, fp, sp, pc}
.L331:
	.align	2
.L330:
	.word	.LC45
	UNWIND(.fnend)
	.size	HEVC_Sei_User_Data_Unregistered, .-HEVC_Sei_User_Data_Unregistered
	.align	2
	.global	HEVC_IsRefListWrong
	.type	HEVC_IsRefListWrong, %function
HEVC_IsRefListWrong:
	UNWIND(.fnstart)
	@ args = 0, pretend = 0, frame = 0
	@ frame_needed = 1, uses_anonymous_args = 0
	UNWIND(.movsp ip)
	mov	ip, sp
	stmfd	sp!, {r4, r5, r6, r7, fp, ip, lr, pc}
	UNWIND(.pad #4)
	UNWIND(.save {r4, r5, r6, r7, fp, ip, lr})
	UNWIND(.setfp fp, ip, #-4)
	sub	fp, ip, #4
	UNWIND(.pad #8)
	sub	sp, sp, #8
	add	r7, r0, #4096
	mov	r5, r0
	ldr	r3, [r7, #172]
	cmp	r3, #0
	beq	.L333
	ldr	r4, [r0, #2416]
	cmp	r4, #0
	beq	.L334
	ldr	r2, [r4, #16]
	cmp	r2, #0
	addne	r6, r0, #2416
	movne	r4, #0
	bne	.L339
	b	.L377
.L340:
	ldr	r3, [ip, #28]
	cmp	r3, #0
	beq	.L341
	ldr	r3, [r7, #172]
	add	r4, r4, #1
	cmp	r4, r3
	bcs	.L378
	ldr	r2, [r6, #4]!
	cmp	r2, #0
	beq	.L334
	ldr	r2, [r2, #16]
	cmp	r2, #0
	beq	.L335
.L339:
	ldr	r1, [r2, #28]
	ldr	r0, [r5, #252]
	bl	FSP_GetLogicFs
	subs	ip, r0, #0
	bne	.L340
.L341:
	add	r3, r4, #604
	mov	r2, r4
	ldr	r1, .L382
	mov	r0, #1
	ldr	r3, [r5, r3, asl #2]
	ldr	r3, [r3, #16]
	str	ip, [sp]
	bl	dprint_vfmw
.L338:
	mvn	r0, #0
	sub	sp, fp, #28
	ldmfd	sp, {r4, r5, r6, r7, fp, sp, pc}
.L378:
	cmp	r3, #0
	beq	.L333
	ldr	r2, [r7, #176]
	cmp	r2, #0
	beq	.L333
	ldr	r4, [r5, #2484]
	cmp	r4, #0
	beq	.L346
	ldr	r2, [r4, #16]
	cmp	r2, #0
	addne	r6, r5, #2480
	movne	r4, #0
	addne	r6, r6, #4
	bne	.L350
	b	.L379
.L351:
	ldr	r3, [r0, #28]
	cmp	r3, #0
	beq	.L352
	ldr	r3, [r7, #176]
	add	r4, r4, #1
	cmp	r4, r3
	bcs	.L333
	ldr	r3, [r6, #4]!
	cmp	r3, #0
	beq	.L380
	ldr	r2, [r3, #16]
	cmp	r2, #0
	beq	.L381
.L350:
	ldr	r1, [r2, #28]
	ldr	r0, [r5, #252]
	bl	FSP_GetLogicFs
	cmp	r0, #0
	bne	.L351
.L352:
	mov	r3, r0
	mov	r2, r4
	ldr	r1, .L382+4
	mov	r0, #1
	bl	dprint_vfmw
	mvn	r0, #0
	b	.L372
.L333:
	mov	r0, #0
.L372:
	sub	sp, fp, #28
	ldmfd	sp, {r4, r5, r6, r7, fp, sp, pc}
.L334:
	mov	r2, r4
	ldr	r1, .L382+8
	mov	r0, #1
	bl	dprint_vfmw
	b	.L338
.L377:
	mov	r4, r2
.L335:
	mov	r2, r4
	ldr	r1, .L382+12
	mov	r0, #1
	bl	dprint_vfmw
	b	.L338
.L380:
	ldr	r3, [r7, #172]
.L346:
	mov	r2, r4
	ldr	r1, .L382+16
	mov	r0, #1
	bl	dprint_vfmw
	mvn	r0, #0
	b	.L372
.L381:
	ldr	r3, [r7, #172]
.L347:
	mov	r2, r4
	ldr	r1, .L382+20
	mov	r0, #1
	bl	dprint_vfmw
	mvn	r0, #0
	b	.L372
.L379:
	mov	r4, r2
	b	.L347
.L383:
	.align	2
.L382:
	.word	.LC48
	.word	.LC51
	.word	.LC46
	.word	.LC47
	.word	.LC49
	.word	.LC50
	UNWIND(.fnend)
	.size	HEVC_IsRefListWrong, .-HEVC_IsRefListWrong
	.align	2
	.global	HEVC_GetUnRefPicWithMinPoc
	.type	HEVC_GetUnRefPicWithMinPoc, %function
HEVC_GetUnRefPicWithMinPoc:
	UNWIND(.fnstart)
	@ args = 0, pretend = 0, frame = 0
	@ frame_needed = 1, uses_anonymous_args = 0
	UNWIND(.movsp ip)
	mov	ip, sp
	stmfd	sp!, {r4, fp, ip, lr, pc}
	UNWIND(.pad #4)
	UNWIND(.save {r4, fp, ip, lr})
	UNWIND(.setfp fp, ip, #-4)
	sub	fp, ip, #4
	UNWIND(.pad #12)
	sub	sp, sp, #12
	mvn	r4, #0
	str	r4, [r1]
	ldr	r3, [r0, #2588]
	cmp	r3, #16
	bhi	.L385
	cmp	r3, #0
	addne	ip, r0, #2592
	mvnne	r4, #-2147483648
	addne	ip, ip, #12
	movne	r3, #0
	beq	.L387
.L390:
	ldr	r2, [ip, #4]!
	ldr	lr, [r2, #8]
	cmp	lr, r4
	bge	.L389
	ldr	r2, [r2]
	bic	r2, r2, #-16777216
	bic	r2, r2, #255
	cmp	r2, #0
	streq	r3, [r1]
	moveq	r4, lr
.L389:
	ldr	r2, [r0, #2588]
	add	r3, r3, #1
	cmp	r2, r3
	bhi	.L390
	ldr	r3, [r1]
	cmn	r3, #1
	beq	.L387
	str	r4, [sp]
	mov	r0, #1
	ldr	r2, .L393
	ldr	r1, .L393+4
	bl	dprint_vfmw
	mov	r0, #0
.L388:
	sub	sp, fp, #16
	ldmfd	sp, {r4, fp, sp, pc}
.L385:
	ldr	r2, .L393
	mov	r0, #1
	ldr	r1, .L393+8
	bl	dprint_vfmw
	mov	r0, r4
	b	.L388
.L387:
	ldr	r2, .L393
	mov	r0, #1
	ldr	r1, .L393+12
	bl	dprint_vfmw
	mvn	r0, #0
	b	.L388
.L394:
	.align	2
.L393:
	.word	.LANCHOR0+176
	.word	.LC54
	.word	.LC52
	.word	.LC53
	UNWIND(.fnend)
	.size	HEVC_GetUnRefPicWithMinPoc, .-HEVC_GetUnRefPicWithMinPoc
	.align	2
	.global	HEVC_IncreaseDPBSize
	.type	HEVC_IncreaseDPBSize, %function
HEVC_IncreaseDPBSize:
	UNWIND(.fnstart)
	@ args = 0, pretend = 0, frame = 0
	@ frame_needed = 1, uses_anonymous_args = 0
	UNWIND(.movsp ip)
	mov	ip, sp
	stmfd	sp!, {r4, r5, fp, ip, lr, pc}
	UNWIND(.pad #4)
	UNWIND(.save {r4, r5, fp, ip, lr})
	UNWIND(.setfp fp, ip, #-4)
	sub	fp, ip, #4
	UNWIND(.pad #8)
	sub	sp, sp, #8
	ldr	r3, [r0, #2584]
	mov	r4, r0
	cmp	r3, #16
	bhi	.L399
	ldr	r0, [r0, #252]
	bl	FSP_GetTotalValidFsNum
	ldr	r2, [r4, #252]
	ldr	r1, [r4, #3528]
	mov	r5, r0
	ldr	r0, [r4, #3524]
	bl	FSP_GetOccupiedNum
	rsb	r0, r0, r5
	bic	r0, r0, r0, asr #31
	cmp	r0, #0
	ble	.L398
	ldr	r3, [r4, #2584]
	add	r3, r3, #1
	cmp	r0, r3
	bcc	.L398
	str	r3, [r4, #2584]
	mov	r0, #13
	ldr	r2, .L400
	ldr	r1, .L400+4
	bl	dprint_vfmw
	mov	r0, #0
.L397:
	sub	sp, fp, #20
	ldmfd	sp, {r4, r5, fp, sp, pc}
.L398:
	mov	r3, r0
	ldr	r2, .L400
	ldr	r1, .L400+8
	mov	r0, #1
	bl	dprint_vfmw
	mvn	r0, #0
	b	.L397
.L399:
	mov	r5, #17
	ldr	r2, .L400
	mov	r0, #1
	str	r5, [sp]
	ldr	r1, .L400+12
	bl	dprint_vfmw
	str	r5, [r4, #2584]
	mvn	r0, #0
	b	.L397
.L401:
	.align	2
.L400:
	.word	.LANCHOR0+204
	.word	.LC56
	.word	.LC57
	.word	.LC55
	UNWIND(.fnend)
	.size	HEVC_IncreaseDPBSize, .-HEVC_IncreaseDPBSize
	.align	2
	.global	HEVC_PicTypeStatistic
	.type	HEVC_PicTypeStatistic, %function
HEVC_PicTypeStatistic:
	UNWIND(.fnstart)
	@ args = 0, pretend = 0, frame = 0
	@ frame_needed = 1, uses_anonymous_args = 0
	UNWIND(.movsp ip)
	mov	ip, sp
	stmfd	sp!, {fp, ip, lr, pc}
	UNWIND(.pad #4)
	UNWIND(.save {fp, ip, lr})
	UNWIND(.setfp fp, ip, #-4)
	sub	fp, ip, #4
	add	r3, r0, #4096
	ldr	r2, [r3, #132]
	sub	r1, r2, #16
	cmp	r1, #5
	bls	.L403
	ldr	r2, [r0, #3508]
	sub	r2, r2, #16
	cmp	r2, #5
	bls	.L414
	ldr	r3, [r3, #124]
	cmp	r3, #1
	beq	.L406
	cmp	r3, #2
	beq	.L407
	cmp	r3, #0
	moveq	r3, #2
	streq	r3, [r0, #3520]
	ldmfd	sp, {fp, sp, pc}
.L403:
	mov	r3, #0
	str	r2, [r0, #3508]
	str	r3, [r0, #3520]
	ldmfd	sp, {fp, sp, pc}
.L406:
	ldr	r2, [r0, #3520]
	cmp	r2, #2
	beq	.L415
	str	r3, [r0, #3520]
	ldmfd	sp, {fp, sp, pc}
.L407:
	ldr	r3, [r0, #3520]
	sub	r3, r3, #1
	cmp	r3, #1
	movhi	r3, #0
	strhi	r3, [r0, #3520]
	ldmfd	sp, {fp, sp, pc}
.L415:
	ldmfd	sp, {fp, sp, pc}
.L414:
	ldmfd	sp, {fp, sp, pc}
	UNWIND(.fnend)
	.size	HEVC_PicTypeStatistic, .-HEVC_PicTypeStatistic
	.align	2
	.global	HEVC_IsReferenceNalu
	.type	HEVC_IsReferenceNalu, %function
HEVC_IsReferenceNalu:
	UNWIND(.fnstart)
	@ args = 0, pretend = 0, frame = 0
	@ frame_needed = 1, uses_anonymous_args = 0
	UNWIND(.movsp ip)
	mov	ip, sp
	stmfd	sp!, {fp, ip, lr, pc}
	UNWIND(.pad #4)
	UNWIND(.save {fp, ip, lr})
	UNWIND(.setfp fp, ip, #-4)
	sub	fp, ip, #4
	add	r0, r0, #4096
	ldr	r0, [r0, #132]
	cmp	r0, #15
	bhi	.L417
	tst	r0, #1
	bne	.L419
.L417:
	sub	r0, r0, #16
	cmp	r0, #7
	movhi	r0, #0
	movls	r0, #1
	ldmfd	sp, {fp, sp, pc}
.L419:
	mov	r0, #1
	ldmfd	sp, {fp, sp, pc}
	UNWIND(.fnend)
	.size	HEVC_IsReferenceNalu, .-HEVC_IsReferenceNalu
	.align	2
	.global	HEVC_WriteQmatrix_4x4
	.type	HEVC_WriteQmatrix_4x4, %function
HEVC_WriteQmatrix_4x4:
	UNWIND(.fnstart)
	@ args = 0, pretend = 0, frame = 0
	@ frame_needed = 1, uses_anonymous_args = 0
	UNWIND(.movsp ip)
	mov	ip, sp
	stmfd	sp!, {fp, ip, lr, pc}
	UNWIND(.pad #4)
	UNWIND(.save {fp, ip, lr})
	UNWIND(.setfp fp, ip, #-4)
	sub	fp, ip, #4
	add	r1, r1, r0, lsl #6
	ldr	r0, [r1, #604]
	ldr	r3, [r1, #608]
	ldrb	ip, [r1, #596]	@ zero_extendqisi2
	ldrb	lr, [r1, #600]	@ zero_extendqisi2
	mov	r0, r0, asl #8
	orr	r3, ip, r3, asl #24
	uxth	r0, r0
	orr	r3, r3, lr, asl #16
	orr	r3, r3, r0
	str	r3, [r2]
	ldr	r0, [r1, #604]
	ldrb	lr, [r1, #597]	@ zero_extendqisi2
	ldrb	r3, [r1, #609]	@ zero_extendqisi2
	and	r0, r0, #65280
	ldrb	ip, [r1, #601]	@ zero_extendqisi2
	orr	r0, lr, r0
	orr	r3, r0, r3, asl #24
	orr	r3, r3, ip, asl #16
	str	r3, [r2, #4]
	ldr	r0, [r1, #600]
	ldrb	lr, [r1, #598]	@ zero_extendqisi2
	ldrb	r3, [r1, #610]	@ zero_extendqisi2
	and	r0, r0, #16711680
	ldrb	ip, [r1, #606]	@ zero_extendqisi2
	orr	r0, lr, r0
	orr	r3, r0, r3, asl #24
	orr	r3, r3, ip, asl #8
	str	r3, [r2, #8]
	ldr	r0, [r1, #608]
	ldrb	r3, [r1, #603]	@ zero_extendqisi2
	ldrb	lr, [r1, #599]	@ zero_extendqisi2
	and	r0, r0, #-16777216
	ldrb	ip, [r1, #607]	@ zero_extendqisi2
	orr	r1, lr, r0
	orr	r3, r1, r3, asl #16
	orr	r3, r3, ip, asl #8
	str	r3, [r2, #12]
	ldmfd	sp, {fp, sp, pc}
	UNWIND(.fnend)
	.size	HEVC_WriteQmatrix_4x4, .-HEVC_WriteQmatrix_4x4
	.align	2
	.global	HEVC_WriteQmatrix_32x32
	.type	HEVC_WriteQmatrix_32x32, %function
HEVC_WriteQmatrix_32x32:
	UNWIND(.fnstart)
	@ args = 0, pretend = 0, frame = 0
	@ frame_needed = 1, uses_anonymous_args = 0
	UNWIND(.movsp ip)
	mov	ip, sp
	stmfd	sp!, {r4, fp, ip, lr, pc}
	UNWIND(.pad #4)
	UNWIND(.save {r4, fp, ip, lr})
	UNWIND(.setfp fp, ip, #-4)
	sub	fp, ip, #4
	add	lr, r0, #18
	add	r0, r1, r0, lsl #6
	add	lr, r1, lr, lsl #6
	ldr	r1, [r0, #1756]
	ldr	r3, [r0, #1772]
	ldrb	ip, [lr, #596]	@ zero_extendqisi2
	ldrb	r4, [r0, #1764]	@ zero_extendqisi2
	mov	r1, r1, asl #8
	orr	r3, ip, r3, asl #24
	uxth	r1, r1
	orr	r3, r3, r4, asl #16
	orr	r3, r3, r1
	str	r3, [r2]
	ldr	r1, [r0, #1788]
	ldr	r3, [r0, #1804]
	ldrb	ip, [r0, #1780]	@ zero_extendqisi2
	ldrb	r4, [r0, #1796]	@ zero_extendqisi2
	mov	r1, r1, asl #8
	orr	r3, ip, r3, asl #24
	uxth	r1, r1
	orr	r3, r3, r4, asl #16
	orr	r3, r3, r1
	str	r3, [r2, #4]
	ldr	r1, [r0, #1756]
	ldrb	r4, [lr, #597]	@ zero_extendqisi2
	ldrb	r3, [r0, #1773]	@ zero_extendqisi2
	and	r1, r1, #65280
	ldrb	ip, [r0, #1765]	@ zero_extendqisi2
	orr	r1, r4, r1
	orr	r3, r1, r3, asl #24
	orr	r3, r3, ip, asl #16
	str	r3, [r2, #8]
	ldr	r1, [r0, #1788]
	ldrb	r4, [r0, #1781]	@ zero_extendqisi2
	ldrb	r3, [r0, #1805]	@ zero_extendqisi2
	and	r1, r1, #65280
	ldrb	ip, [r0, #1797]	@ zero_extendqisi2
	orr	r1, r4, r1
	orr	r3, r1, r3, asl #24
	orr	r3, r3, ip, asl #16
	str	r3, [r2, #12]
	ldr	ip, [r0, #1764]
	ldrb	r4, [lr, #598]	@ zero_extendqisi2
	ldrb	r3, [r0, #1774]	@ zero_extendqisi2
	and	ip, ip, #16711680
	ldrb	r1, [r0, #1758]	@ zero_extendqisi2
	orr	ip, r4, ip
	orr	r3, ip, r3, asl #24
	orr	r3, r3, r1, asl #8
	str	r3, [r2, #16]
	ldr	ip, [r0, #1796]
	ldrb	r4, [r0, #1782]	@ zero_extendqisi2
	ldrb	r3, [r0, #1806]	@ zero_extendqisi2
	and	ip, ip, #16711680
	ldrb	r1, [r0, #1790]	@ zero_extendqisi2
	orr	ip, r4, ip
	orr	r3, ip, r3, asl #24
	orr	r3, r3, r1, asl #8
	str	r3, [r2, #20]
	ldr	r1, [r0, #1772]
	ldrb	lr, [lr, #599]	@ zero_extendqisi2
	ldrb	r3, [r0, #1767]	@ zero_extendqisi2
	and	r1, r1, #-16777216
	ldrb	ip, [r0, #1759]	@ zero_extendqisi2
	orr	r1, lr, r1
	orr	r3, r1, r3, asl #16
	orr	r3, r3, ip, asl #8
	str	r3, [r2, #24]
	ldr	r1, [r0, #1804]
	ldrb	lr, [r0, #1783]	@ zero_extendqisi2
	ldrb	r3, [r0, #1799]	@ zero_extendqisi2
	and	r1, r1, #-16777216
	ldrb	ip, [r0, #1791]	@ zero_extendqisi2
	orr	r1, lr, r1
	orr	r3, r1, r3, asl #16
	orr	r3, r3, ip, asl #8
	str	r3, [r2, #28]
	ldr	r1, [r0, #1760]
	ldr	r3, [r0, #1776]
	ldrb	ip, [r0, #1752]	@ zero_extendqisi2
	ldrb	lr, [r0, #1768]	@ zero_extendqisi2
	mov	r1, r1, asl #8
	orr	r3, ip, r3, asl #24
	uxth	r1, r1
	orr	r3, r3, lr, asl #16
	orr	r3, r3, r1
	str	r3, [r2, #32]
	ldr	r1, [r0, #1792]
	ldr	r3, [r0, #1808]
	ldrb	ip, [r0, #1784]	@ zero_extendqisi2
	ldrb	lr, [r0, #1800]	@ zero_extendqisi2
	mov	r1, r1, asl #8
	orr	r3, ip, r3, asl #24
	uxth	r1, r1
	orr	r3, r3, lr, asl #16
	orr	r3, r3, r1
	str	r3, [r2, #36]
	ldr	r1, [r0, #1760]
	ldrb	lr, [r0, #1753]	@ zero_extendqisi2
	ldrb	r3, [r0, #1777]	@ zero_extendqisi2
	and	r1, r1, #65280
	ldrb	ip, [r0, #1769]	@ zero_extendqisi2
	orr	r1, lr, r1
	orr	r3, r1, r3, asl #24
	orr	r3, r3, ip, asl #16
	str	r3, [r2, #40]
	ldr	r1, [r0, #1792]
	ldrb	lr, [r0, #1785]	@ zero_extendqisi2
	ldrb	r3, [r0, #1809]	@ zero_extendqisi2
	and	r1, r1, #65280
	ldrb	ip, [r0, #1801]	@ zero_extendqisi2
	orr	r1, lr, r1
	orr	r3, r1, r3, asl #24
	orr	r3, r3, ip, asl #16
	str	r3, [r2, #44]
	ldr	r1, [r0, #1768]
	ldrb	lr, [r0, #1754]	@ zero_extendqisi2
	ldrb	r3, [r0, #1778]	@ zero_extendqisi2
	and	r1, r1, #16711680
	ldrb	ip, [r0, #1762]	@ zero_extendqisi2
	orr	r1, lr, r1
	orr	r3, r1, r3, asl #24
	orr	r3, r3, ip, asl #8
	str	r3, [r2, #48]
	ldrb	lr, [r0, #1786]	@ zero_extendqisi2
	ldr	r1, [r0, #1800]
	ldrb	r3, [r0, #1810]	@ zero_extendqisi2
	ldrb	ip, [r0, #1794]	@ zero_extendqisi2
	and	r1, r1, #16711680
	orr	r1, lr, r1
	orr	r3, r1, r3, asl #24
	orr	r3, r3, ip, asl #8
	str	r3, [r2, #52]
	ldr	r1, [r0, #1776]
	ldrb	lr, [r0, #1755]	@ zero_extendqisi2
	ldrb	r3, [r0, #1771]	@ zero_extendqisi2
	and	r1, r1, #-16777216
	ldrb	ip, [r0, #1763]	@ zero_extendqisi2
	orr	r1, lr, r1
	orr	r3, r1, r3, asl #16
	orr	r3, r3, ip, asl #8
	str	r3, [r2, #56]
	ldr	r1, [r0, #1808]
	ldrb	ip, [r0, #1787]	@ zero_extendqisi2
	ldrb	r3, [r0, #1803]	@ zero_extendqisi2
	and	r1, r1, #-16777216
	ldrb	r0, [r0, #1795]	@ zero_extendqisi2
	orr	r1, ip, r1
	orr	r3, r1, r3, asl #16
	orr	r3, r3, r0, asl #8
	str	r3, [r2, #60]
	ldmfd	sp, {r4, fp, sp, pc}
	UNWIND(.fnend)
	.size	HEVC_WriteQmatrix_32x32, .-HEVC_WriteQmatrix_32x32
	.align	2
	.global	HEVC_WriteQmatrix_8x8
	.type	HEVC_WriteQmatrix_8x8, %function
HEVC_WriteQmatrix_8x8:
	UNWIND(.fnstart)
	@ args = 0, pretend = 0, frame = 0
	@ frame_needed = 1, uses_anonymous_args = 0
	UNWIND(.movsp ip)
	mov	ip, sp
	stmfd	sp!, {r4, fp, ip, lr, pc}
	UNWIND(.pad #4)
	UNWIND(.save {r4, fp, ip, lr})
	UNWIND(.setfp fp, ip, #-4)
	sub	fp, ip, #4
	add	lr, r0, #6
	add	r0, r1, r0, lsl #6
	add	lr, r1, lr, lsl #6
	ldr	r1, [r0, #996]
	ldr	r3, [r0, #1028]
	ldrb	ip, [lr, #596]	@ zero_extendqisi2
	ldrb	r4, [r0, #1012]	@ zero_extendqisi2
	mov	r1, r1, asl #8
	orr	r3, ip, r3, asl #24
	uxth	r1, r1
	orr	r3, r3, r4, asl #16
	orr	r3, r3, r1
	str	r3, [r2]
	ldr	r1, [r0, #1004]
	ldr	r3, [r0, #1036]
	ldrb	ip, [r0, #988]	@ zero_extendqisi2
	ldrb	r4, [r0, #1020]	@ zero_extendqisi2
	mov	r1, r1, asl #8
	orr	r3, ip, r3, asl #24
	uxth	r1, r1
	orr	r3, r3, r4, asl #16
	orr	r3, r3, r1
	str	r3, [r2, #4]
	ldr	r1, [r0, #996]
	ldrb	r4, [lr, #597]	@ zero_extendqisi2
	ldrb	r3, [r0, #1029]	@ zero_extendqisi2
	and	r1, r1, #65280
	ldrb	ip, [r0, #1013]	@ zero_extendqisi2
	orr	r1, r4, r1
	orr	r3, r1, r3, asl #24
	orr	r3, r3, ip, asl #16
	str	r3, [r2, #8]
	ldr	r1, [r0, #1004]
	ldrb	r4, [r0, #989]	@ zero_extendqisi2
	ldrb	r3, [r0, #1037]	@ zero_extendqisi2
	and	r1, r1, #65280
	ldrb	ip, [r0, #1021]	@ zero_extendqisi2
	orr	r1, r4, r1
	orr	r3, r1, r3, asl #24
	orr	r3, r3, ip, asl #16
	str	r3, [r2, #12]
	ldr	ip, [r0, #1012]
	ldrb	r4, [lr, #598]	@ zero_extendqisi2
	ldrb	r3, [r0, #1030]	@ zero_extendqisi2
	and	ip, ip, #16711680
	ldrb	r1, [r0, #998]	@ zero_extendqisi2
	orr	ip, r4, ip
	orr	r3, ip, r3, asl #24
	orr	r3, r3, r1, asl #8
	str	r3, [r2, #16]
	ldr	ip, [r0, #1020]
	ldrb	r4, [r0, #990]	@ zero_extendqisi2
	ldrb	r3, [r0, #1038]	@ zero_extendqisi2
	and	ip, ip, #16711680
	ldrb	r1, [r0, #1006]	@ zero_extendqisi2
	orr	ip, r4, ip
	orr	r3, ip, r3, asl #24
	orr	r3, r3, r1, asl #8
	str	r3, [r2, #20]
	ldr	r1, [r0, #1028]
	ldrb	lr, [lr, #599]	@ zero_extendqisi2
	ldrb	r3, [r0, #1015]	@ zero_extendqisi2
	and	r1, r1, #-16777216
	ldrb	ip, [r0, #999]	@ zero_extendqisi2
	orr	r1, lr, r1
	orr	r3, r1, r3, asl #16
	orr	r3, r3, ip, asl #8
	str	r3, [r2, #24]
	ldr	r1, [r0, #1036]
	ldrb	lr, [r0, #991]	@ zero_extendqisi2
	ldrb	r3, [r0, #1023]	@ zero_extendqisi2
	and	r1, r1, #-16777216
	ldrb	ip, [r0, #1007]	@ zero_extendqisi2
	orr	r1, lr, r1
	orr	r3, r1, r3, asl #16
	orr	r3, r3, ip, asl #8
	str	r3, [r2, #28]
	ldr	r1, [r0, #1000]
	ldr	r3, [r0, #1032]
	ldrb	ip, [r0, #984]	@ zero_extendqisi2
	ldrb	lr, [r0, #1016]	@ zero_extendqisi2
	mov	r1, r1, asl #8
	orr	r3, ip, r3, asl #24
	uxth	r1, r1
	orr	r3, r3, lr, asl #16
	orr	r3, r3, r1
	str	r3, [r2, #32]
	ldr	r1, [r0, #1008]
	ldr	r3, [r0, #1040]
	ldrb	ip, [r0, #992]	@ zero_extendqisi2
	ldrb	lr, [r0, #1024]	@ zero_extendqisi2
	mov	r1, r1, asl #8
	orr	r3, ip, r3, asl #24
	uxth	r1, r1
	orr	r3, r3, lr, asl #16
	orr	r3, r3, r1
	str	r3, [r2, #36]
	ldr	r1, [r0, #1000]
	ldrb	lr, [r0, #985]	@ zero_extendqisi2
	ldrb	r3, [r0, #1033]	@ zero_extendqisi2
	and	r1, r1, #65280
	ldrb	ip, [r0, #1017]	@ zero_extendqisi2
	orr	r1, lr, r1
	orr	r3, r1, r3, asl #24
	orr	r3, r3, ip, asl #16
	str	r3, [r2, #40]
	ldr	r1, [r0, #1008]
	ldrb	lr, [r0, #993]	@ zero_extendqisi2
	ldrb	r3, [r0, #1041]	@ zero_extendqisi2
	and	r1, r1, #65280
	ldrb	ip, [r0, #1025]	@ zero_extendqisi2
	orr	r1, lr, r1
	orr	r3, r1, r3, asl #24
	orr	r3, r3, ip, asl #16
	str	r3, [r2, #44]
	ldr	r1, [r0, #1016]
	ldrb	lr, [r0, #986]	@ zero_extendqisi2
	ldrb	r3, [r0, #1034]	@ zero_extendqisi2
	and	r1, r1, #16711680
	ldrb	ip, [r0, #1002]	@ zero_extendqisi2
	orr	r1, lr, r1
	orr	r3, r1, r3, asl #24
	orr	r3, r3, ip, asl #8
	str	r3, [r2, #48]
	ldrb	lr, [r0, #994]	@ zero_extendqisi2
	ldr	r1, [r0, #1024]
	ldrb	r3, [r0, #1042]	@ zero_extendqisi2
	ldrb	ip, [r0, #1010]	@ zero_extendqisi2
	and	r1, r1, #16711680
	orr	r1, lr, r1
	orr	r3, r1, r3, asl #24
	orr	r3, r3, ip, asl #8
	str	r3, [r2, #52]
	ldr	r1, [r0, #1032]
	ldrb	lr, [r0, #987]	@ zero_extendqisi2
	ldrb	r3, [r0, #1019]	@ zero_extendqisi2
	and	r1, r1, #-16777216
	ldrb	ip, [r0, #1003]	@ zero_extendqisi2
	orr	r1, lr, r1
	orr	r3, r1, r3, asl #16
	orr	r3, r3, ip, asl #8
	str	r3, [r2, #56]
	ldr	r1, [r0, #1040]
	ldrb	ip, [r0, #995]	@ zero_extendqisi2
	ldrb	r3, [r0, #1027]	@ zero_extendqisi2
	and	r1, r1, #-16777216
	ldrb	r0, [r0, #1011]	@ zero_extendqisi2
	orr	r1, ip, r1
	orr	r3, r1, r3, asl #16
	orr	r3, r3, r0, asl #8
	str	r3, [r2, #60]
	ldmfd	sp, {r4, fp, sp, pc}
	UNWIND(.fnend)
	.size	HEVC_WriteQmatrix_8x8, .-HEVC_WriteQmatrix_8x8
	.align	2
	.global	HEVC_WriteQmatrix_16x16
	.type	HEVC_WriteQmatrix_16x16, %function
HEVC_WriteQmatrix_16x16:
	UNWIND(.fnstart)
	@ args = 0, pretend = 0, frame = 0
	@ frame_needed = 1, uses_anonymous_args = 0
	UNWIND(.movsp ip)
	mov	ip, sp
	stmfd	sp!, {r4, fp, ip, lr, pc}
	UNWIND(.pad #4)
	UNWIND(.save {r4, fp, ip, lr})
	UNWIND(.setfp fp, ip, #-4)
	sub	fp, ip, #4
	add	lr, r0, #12
	add	r0, r1, r0, lsl #6
	add	lr, r1, lr, lsl #6
	ldr	r1, [r0, #1372]
	ldr	r3, [r0, #1388]
	ldrb	ip, [lr, #596]	@ zero_extendqisi2
	ldrb	r4, [r0, #1380]	@ zero_extendqisi2
	mov	r1, r1, asl #8
	orr	r3, ip, r3, asl #24
	uxth	r1, r1
	orr	r3, r3, r4, asl #16
	orr	r3, r3, r1
	str	r3, [r2]
	ldr	r1, [r0, #1404]
	ldr	r3, [r0, #1420]
	ldrb	ip, [r0, #1396]	@ zero_extendqisi2
	ldrb	r4, [r0, #1412]	@ zero_extendqisi2
	mov	r1, r1, asl #8
	orr	r3, ip, r3, asl #24
	uxth	r1, r1
	orr	r3, r3, r4, asl #16
	orr	r3, r3, r1
	str	r3, [r2, #4]
	ldr	r1, [r0, #1372]
	ldrb	r4, [lr, #597]	@ zero_extendqisi2
	ldrb	r3, [r0, #1389]	@ zero_extendqisi2
	and	r1, r1, #65280
	ldrb	ip, [r0, #1381]	@ zero_extendqisi2
	orr	r1, r4, r1
	orr	r3, r1, r3, asl #24
	orr	r3, r3, ip, asl #16
	str	r3, [r2, #8]
	ldr	r1, [r0, #1404]
	ldrb	r4, [r0, #1397]	@ zero_extendqisi2
	ldrb	r3, [r0, #1421]	@ zero_extendqisi2
	and	r1, r1, #65280
	ldrb	ip, [r0, #1413]	@ zero_extendqisi2
	orr	r1, r4, r1
	orr	r3, r1, r3, asl #24
	orr	r3, r3, ip, asl #16
	str	r3, [r2, #12]
	ldr	ip, [r0, #1380]
	ldrb	r4, [lr, #598]	@ zero_extendqisi2
	ldrb	r3, [r0, #1390]	@ zero_extendqisi2
	and	ip, ip, #16711680
	ldrb	r1, [r0, #1374]	@ zero_extendqisi2
	orr	ip, r4, ip
	orr	r3, ip, r3, asl #24
	orr	r3, r3, r1, asl #8
	str	r3, [r2, #16]
	ldr	ip, [r0, #1412]
	ldrb	r4, [r0, #1398]	@ zero_extendqisi2
	ldrb	r3, [r0, #1422]	@ zero_extendqisi2
	and	ip, ip, #16711680
	ldrb	r1, [r0, #1406]	@ zero_extendqisi2
	orr	ip, r4, ip
	orr	r3, ip, r3, asl #24
	orr	r3, r3, r1, asl #8
	str	r3, [r2, #20]
	ldr	r1, [r0, #1388]
	ldrb	lr, [lr, #599]	@ zero_extendqisi2
	ldrb	r3, [r0, #1383]	@ zero_extendqisi2
	and	r1, r1, #-16777216
	ldrb	ip, [r0, #1375]	@ zero_extendqisi2
	orr	r1, lr, r1
	orr	r3, r1, r3, asl #16
	orr	r3, r3, ip, asl #8
	str	r3, [r2, #24]
	ldr	r1, [r0, #1420]
	ldrb	lr, [r0, #1399]	@ zero_extendqisi2
	ldrb	r3, [r0, #1415]	@ zero_extendqisi2
	and	r1, r1, #-16777216
	ldrb	ip, [r0, #1407]	@ zero_extendqisi2
	orr	r1, lr, r1
	orr	r3, r1, r3, asl #16
	orr	r3, r3, ip, asl #8
	str	r3, [r2, #28]
	ldr	r1, [r0, #1376]
	ldr	r3, [r0, #1392]
	ldrb	ip, [r0, #1368]	@ zero_extendqisi2
	ldrb	lr, [r0, #1384]	@ zero_extendqisi2
	mov	r1, r1, asl #8
	orr	r3, ip, r3, asl #24
	uxth	r1, r1
	orr	r3, r3, lr, asl #16
	orr	r3, r3, r1
	str	r3, [r2, #32]
	ldr	r1, [r0, #1408]
	ldr	r3, [r0, #1424]
	ldrb	ip, [r0, #1400]	@ zero_extendqisi2
	ldrb	lr, [r0, #1416]	@ zero_extendqisi2
	mov	r1, r1, asl #8
	orr	r3, ip, r3, asl #24
	uxth	r1, r1
	orr	r3, r3, lr, asl #16
	orr	r3, r3, r1
	str	r3, [r2, #36]
	ldr	r1, [r0, #1376]
	ldrb	lr, [r0, #1369]	@ zero_extendqisi2
	ldrb	r3, [r0, #1393]	@ zero_extendqisi2
	and	r1, r1, #65280
	ldrb	ip, [r0, #1385]	@ zero_extendqisi2
	orr	r1, lr, r1
	orr	r3, r1, r3, asl #24
	orr	r3, r3, ip, asl #16
	str	r3, [r2, #40]
	ldr	r1, [r0, #1408]
	ldrb	lr, [r0, #1401]	@ zero_extendqisi2
	ldrb	r3, [r0, #1425]	@ zero_extendqisi2
	and	r1, r1, #65280
	ldrb	ip, [r0, #1417]	@ zero_extendqisi2
	orr	r1, lr, r1
	orr	r3, r1, r3, asl #24
	orr	r3, r3, ip, asl #16
	str	r3, [r2, #44]
	ldr	r1, [r0, #1384]
	ldrb	lr, [r0, #1370]	@ zero_extendqisi2
	ldrb	r3, [r0, #1394]	@ zero_extendqisi2
	and	r1, r1, #16711680
	ldrb	ip, [r0, #1378]	@ zero_extendqisi2
	orr	r1, lr, r1
	orr	r3, r1, r3, asl #24
	orr	r3, r3, ip, asl #8
	str	r3, [r2, #48]
	ldrb	lr, [r0, #1402]	@ zero_extendqisi2
	ldr	r1, [r0, #1416]
	ldrb	r3, [r0, #1426]	@ zero_extendqisi2
	ldrb	ip, [r0, #1410]	@ zero_extendqisi2
	and	r1, r1, #16711680
	orr	r1, lr, r1
	orr	r3, r1, r3, asl #24
	orr	r3, r3, ip, asl #8
	str	r3, [r2, #52]
	ldr	r1, [r0, #1392]
	ldrb	lr, [r0, #1371]	@ zero_extendqisi2
	ldrb	r3, [r0, #1387]	@ zero_extendqisi2
	and	r1, r1, #-16777216
	ldrb	ip, [r0, #1379]	@ zero_extendqisi2
	orr	r1, lr, r1
	orr	r3, r1, r3, asl #16
	orr	r3, r3, ip, asl #8
	str	r3, [r2, #56]
	ldr	r1, [r0, #1424]
	ldrb	ip, [r0, #1403]	@ zero_extendqisi2
	ldrb	r3, [r0, #1419]	@ zero_extendqisi2
	and	r1, r1, #-16777216
	ldrb	r0, [r0, #1411]	@ zero_extendqisi2
	orr	r1, ip, r1
	orr	r3, r1, r3, asl #16
	orr	r3, r3, r0, asl #8
	str	r3, [r2, #60]
	ldmfd	sp, {r4, fp, sp, pc}
	UNWIND(.fnend)
	.size	HEVC_WriteQmatrix_16x16, .-HEVC_WriteQmatrix_16x16
	.align	2
	.global	HEVC_CtbRsAddrToTsAddr
	.type	HEVC_CtbRsAddrToTsAddr, %function
HEVC_CtbRsAddrToTsAddr:
	UNWIND(.fnstart)
	@ args = 0, pretend = 0, frame = 200
	@ frame_needed = 1, uses_anonymous_args = 0
	UNWIND(.movsp ip)
	mov	ip, sp
	stmfd	sp!, {r4, r5, r6, r7, r8, r9, r10, fp, ip, lr, pc}
	UNWIND(.pad #4)
	UNWIND(.save {r4, r5, r6, r7, r8, r9, r10, fp, ip, lr})
	UNWIND(.setfp fp, ip, #-4)
	sub	fp, ip, #4
	UNWIND(.pad #204)
	sub	sp, sp, #204
	ldr	ip, [r0, #2392]
	mov	r6, r1
	ldrb	r3, [ip, #13]	@ zero_extendqisi2
	cmp	r3, #0
	beq	.L459
	ldr	r3, [ip, #72]
	ldr	r7, [ip, #68]
	ldrb	r4, [ip, #15]	@ zero_extendqisi2
	mov	r2, r3
	str	r3, [fp, #-236]
	ldr	r3, [r0, #2388]
	cmp	r2, #0
	sub	r8, r2, #1
	sub	r2, r7, #1
	str	r2, [fp, #-240]
	ldr	r5, [r3, #64]
	ldr	r1, [r3, #128]
	ble	.L430
	ldr	r3, [fp, #-236]
	add	r2, ip, #210
	sub	r0, fp, #216
	add	lr, r3, #105
	add	lr, ip, lr, lsl #1
.L429:
	ldrsh	r3, [r2, #2]!
	cmp	r2, lr
	sub	r3, r3, #1
	str	r3, [r0, #4]!
	bne	.L429
.L430:
	cmp	r7, #0
	ble	.L428
	add	r3, r7, #85
	add	r2, ip, #170
	sub	r0, fp, #128
	add	ip, ip, r3, lsl #1
.L433:
	ldrsh	r3, [r2, #2]!
	cmp	r2, ip
	sub	r3, r3, #1
	str	r3, [r0, #4]!
	bne	.L433
.L428:
	mov	r10, #1
	mov	r0, r5
	mov	r10, r10, asl r1
	mov	r1, r10
	bl	__aeabi_idiv
	mov	r1, r10
	mov	r9, r0
	mov	r0, r5
	bl	__aeabi_idivmod
	mov	r0, r6
	cmp	r1, #0
	addne	r9, r9, #1
	mov	r1, r9
	bl	__aeabi_idivmod
	mov	r0, r6
	mov	r5, r1
	mov	r1, r9
	bl	__aeabi_idiv
	cmp	r4, #0
	beq	.L471
	cmp	r8, #0
	mov	r3, #0
	blt	.L450
	sub	r10, fp, #212
	mov	r4, r3
	mov	r6, r3
	mov	r8, r3
	str	r3, [fp, #-232]
	str	r3, [fp, #-244]
.L436:
	ldr	r2, [fp, #-240]
	cmp	r2, #0
	blt	.L453
	ldr	r8, [r10]
	mov	r2, #0
	ldr	r3, [fp, #-232]
	mov	r1, r2
	add	r8, r8, #1
	sub	lr, fp, #128
	mov	r6, r4
	add	r9, r3, r8
	b	.L439
.L451:
	mov	r6, r4
.L439:
	ldr	r3, [lr, #4]!
	add	r1, r1, #1
	add	r3, r3, #1
	add	ip, r2, r3
	cmp	r5, ip
	mla	r4, r8, r3, r4
	bge	.L437
	cmp	r0, r9
	blt	.L469
.L437:
	cmp	r1, r7
	mov	r2, ip
	bne	.L451
.L442:
	add	r2, ip, r3
	cmp	r5, r2
	bge	.L452
	cmp	r0, r9
	blt	.L472
.L452:
	ldr	r2, [fp, #-244]
	add	r10, r10, #4
	ldr	r1, [fp, #-236]
	add	r2, r2, #1
	str	r9, [fp, #-232]
	cmp	r2, r1
	str	r2, [fp, #-244]
	bne	.L436
	rsb	r0, r9, r0
	mov	r2, ip
	rsb	r2, r2, r5
	mul	r3, r0, r3
	add	r3, r2, r3
	add	r6, r3, r6
.L459:
	mov	r0, r6
	sub	sp, fp, #40
	ldmfd	sp, {r4, r5, r6, r7, r8, r9, r10, fp, sp, pc}
.L471:
	cmp	r8, #0
	mov	r3, r4
	blt	.L450
	sub	r10, fp, #212
	mov	lr, r4
	mov	r6, r4
	mov	r8, r4
	str	r4, [fp, #-232]
	str	r4, [fp, #-244]
.L435:
	ldr	r2, [fp, #-240]
	cmp	r2, #0
	blt	.L456
	ldr	r8, [r10]
	mov	r2, #0
	ldr	r3, [fp, #-232]
	mov	ip, r2
	add	r8, r8, #1
	sub	r4, fp, #128
	mov	r6, lr
	add	r9, r3, r8
	b	.L445
.L454:
	mov	r6, lr
.L445:
	ldr	r3, [r4, #4]!
	add	ip, ip, #1
	add	r3, r3, #1
	add	r1, r2, r3
	cmp	r5, r1
	mla	lr, r8, r3, lr
	bge	.L443
	cmp	r0, r9
	blt	.L444
.L443:
	cmp	ip, r7
	mov	r2, r1
	bne	.L454
.L448:
	add	r2, r1, r3
	cmp	r5, r2
	bge	.L468
	cmp	r0, r9
	blt	.L473
.L468:
	ldr	r2, [fp, #-244]
	add	r10, r10, #4
	ldr	ip, [fp, #-236]
	add	r2, r2, #1
	str	r9, [fp, #-232]
	cmp	r2, ip
	str	r2, [fp, #-244]
	bne	.L435
	rsb	r0, r9, r0
	mov	r2, r1
	mul	r3, r0, r3
	b	.L434
.L469:
	ldr	r1, [fp, #-232]
	rsb	r0, r1, r0
	mul	r3, r0, r3
.L434:
	rsb	r2, r2, r5
	add	r3, r2, r3
	add	r6, r3, r6
	mov	r0, r6
	sub	sp, fp, #40
	ldmfd	sp, {r4, r5, r6, r7, r8, r9, r10, fp, sp, pc}
.L444:
	cmp	r1, r5
	bgt	.L469
	mov	r1, r2
	b	.L468
.L453:
	ldr	r2, [fp, #-232]
	mov	ip, #0
	add	r9, r2, r8
	b	.L442
.L456:
	ldr	r2, [fp, #-232]
	mov	r1, #0
	add	r9, r2, r8
	b	.L448
.L472:
	ldr	r2, [fp, #-232]
	rsb	r0, r2, r0
	mov	r2, ip
	mul	r3, r0, r3
	b	.L434
.L473:
	ldr	r2, [fp, #-232]
	rsb	r0, r2, r0
	mov	r2, r1
	mul	r3, r0, r3
	b	.L434
.L450:
	mov	r2, r3
	mov	r6, r3
	b	.L434
	UNWIND(.fnend)
	.size	HEVC_CtbRsAddrToTsAddr, .-HEVC_CtbRsAddrToTsAddr
	.align	2
	.global	HEVC_CtbTsAddrToRsAddr
	.type	HEVC_CtbTsAddrToRsAddr, %function
HEVC_CtbTsAddrToRsAddr:
	UNWIND(.fnstart)
	@ args = 0, pretend = 0, frame = 200
	@ frame_needed = 1, uses_anonymous_args = 0
	UNWIND(.movsp ip)
	mov	ip, sp
	stmfd	sp!, {r4, r5, r6, r7, r8, r9, r10, fp, ip, lr, pc}
	UNWIND(.pad #4)
	UNWIND(.save {r4, r5, r6, r7, r8, r9, r10, fp, ip, lr})
	UNWIND(.setfp fp, ip, #-4)
	sub	fp, ip, #4
	UNWIND(.pad #204)
	sub	sp, sp, #204
	ldr	lr, [r0, #2392]
	mov	r7, r1
	ldrb	r3, [lr, #13]	@ zero_extendqisi2
	cmp	r3, #0
	moveq	r0, r1
	beq	.L498
	ldr	r3, [lr, #72]
	ldr	r8, [lr, #68]
	mov	r2, r3
	str	r3, [fp, #-232]
	ldr	r3, [r0, #2388]
	cmp	r2, #0
	ldr	r4, [r3, #64]
	ldr	ip, [r3, #128]
	ble	.L480
	ldr	r3, [fp, #-232]
	add	r2, lr, #210
	sub	r1, fp, #216
	add	r0, r3, #105
	add	r0, lr, r0, lsl #1
.L479:
	ldrsh	r3, [r2, #2]!
	cmp	r2, r0
	sub	r3, r3, #1
	str	r3, [r1, #4]!
	bne	.L479
.L480:
	cmp	r8, #0
	ble	.L478
	add	r0, r8, #85
	add	r2, lr, #170
	sub	r1, fp, #128
	add	r0, lr, r0, lsl #1
.L483:
	ldrsh	r3, [r2, #2]!
	cmp	r2, r0
	sub	r3, r3, #1
	str	r3, [r1, #4]!
	bne	.L483
.L478:
	mov	r5, #1
	mov	r0, r4
	mov	r5, r5, asl ip
	mov	r1, r5
	bl	__aeabi_idiv
	mov	r1, r5
	mov	r6, r0
	mov	r0, r4
	bl	__aeabi_idivmod
	ldr	r3, [fp, #-232]
	cmp	r1, #0
	addne	r6, r6, #1
	cmp	r3, #0
	str	r6, [fp, #-240]
	ble	.L482
	mov	r9, #0
	ldr	r2, [fp, #-124]
	sub	r0, fp, #212
	mov	r10, r9
	mov	r3, r9
	mov	r1, r9
	mov	r6, r9
	mov	r4, r9
	add	r2, r2, #1
	str	r2, [fp, #-236]
.L484:
	cmp	r8, #0
	ble	.L494
	ldr	r6, [r0]
	ldr	r4, [fp, #-236]
	add	r6, r6, #1
	mla	ip, r6, r4, r3
	cmp	r7, ip
	blt	.L495
	mov	r5, #0
	mov	r1, r3
	mov	r2, r5
	mov	r3, ip
	sub	lr, fp, #124
	b	.L489
.L486:
	ldr	r4, [lr, #4]!
	mov	r1, r3
	add	r4, r4, #1
	mla	ip, r6, r4, r3
	cmp	ip, r7
	bgt	.L487
	mov	r3, ip
.L489:
	add	r2, r2, #1
	add	r5, r5, r4
	cmp	r2, r8
	bne	.L486
.L488:
	cmp	r3, r7
	bgt	.L493
	ldr	r2, [fp, #-232]
	add	r10, r10, #1
	add	r9, r9, r6
	add	r0, r0, #4
	cmp	r10, r2
	bne	.L484
.L493:
	mov	r3, r1
.L487:
	cmp	r4, #0
	beq	.L482
	rsb	r7, r3, r7
	mov	r1, r4
	mov	r0, r7
	bl	__aeabi_idiv
	ldr	r3, [fp, #-240]
	mov	r1, r4
	add	r4, r0, r9
	mov	r0, r7
	mul	r4, r4, r3
	bl	__aeabi_idivmod
	add	r1, r1, r5
	add	r0, r4, r1
.L498:
	sub	sp, fp, #40
	ldmfd	sp, {r4, r5, r6, r7, r8, r9, r10, fp, sp, pc}
.L494:
	mov	r5, #0
	b	.L488
.L495:
	ldr	r4, [fp, #-236]
	mov	r5, #0
	b	.L487
.L482:
	ldr	r1, .L500
	mov	r0, #1
	bl	dprint_vfmw
	mvn	r0, #0
	b	.L498
.L501:
	.align	2
.L500:
	.word	.LC58
	UNWIND(.fnend)
	.size	HEVC_CtbTsAddrToRsAddr, .-HEVC_CtbTsAddrToRsAddr
	.align	2
	.global	HEVC_CalcTileMap
	.type	HEVC_CalcTileMap, %function
HEVC_CalcTileMap:
	UNWIND(.fnstart)
	@ args = 0, pretend = 0, frame = 32
	@ frame_needed = 1, uses_anonymous_args = 0
	UNWIND(.movsp ip)
	mov	ip, sp
	stmfd	sp!, {r4, r5, r6, r7, r8, r9, r10, fp, ip, lr, pc}
	UNWIND(.pad #4)
	UNWIND(.save {r4, r5, r6, r7, r8, r9, r10, fp, ip, lr})
	UNWIND(.setfp fp, ip, #-4)
	sub	fp, ip, #4
	UNWIND(.pad #36)
	sub	sp, sp, #36
	ldr	r4, .L525
	mov	r10, r0
	mov	r2, #147456
	mov	r1, #0
	ldr	r0, .L525+4
	ldr	r3, [r4, #48]
	blx	r3
	ldr	r3, [r4, #48]
	mov	r2, #36864
	mov	r1, #0
	ldr	r0, .L525+8
	blx	r3
	add	r0, r10, #8576
	ldr	r3, [r4, #48]
	mov	r2, #880
	mov	r1, #0
	add	r0, r0, #36
	blx	r3
	add	r3, r10, #8192
	str	r3, [fp, #-56]
	mov	r2, r3
	mov	r3, #0
	str	r3, [r2, #416]
	ldr	r9, [r10, #2392]
	ldr	r1, [r10, #2388]
	ldr	r2, [r9, #72]
	ldr	r8, [r1, #188]
	cmp	r2, r3
	strne	r3, [fp, #-68]
	strne	r3, [fp, #-72]
	beq	.L502
.L510:
	ldr	r2, [r9, #68]
	cmp	r2, #0
	ldr	r2, [fp, #-68]
	add	r2, r2, #104
	streq	r2, [fp, #-76]
	beq	.L511
	mov	r1, r2
	str	r2, [fp, #-76]
	mov	r7, r1, asl #1
	ldr	r1, [fp, #-72]
	mov	r2, #0
	str	r2, [fp, #-48]
	str	r2, [fp, #-52]
	mul	r1, r8, r1
	ldr	r2, [fp, #-56]
	ldr	r2, [r2, #416]
	str	r1, [fp, #-64]
.L509:
	add	r1, r2, #1072
	add	r0, r9, r7
	add	r1, r1, #4
	add	r1, r10, r1, lsl #3
	str	r3, [r1, #4]
	ldrsh	r1, [r0, #4]
	cmp	r1, #0
	ldreq	r1, [fp, #-48]
	addeq	r1, r1, #84
	streq	r1, [fp, #-60]
	beq	.L505
	ldr	r2, [fp, #-48]
	mov	r5, #0
	ldr	r1, [fp, #-52]
	add	r2, r2, #84
	ldr	r0, [fp, #-64]
	str	r2, [fp, #-60]
	add	r6, r1, r0
	mov	ip, r2, asl #1
.L506:
	add	r2, r9, ip
	ldrsh	r2, [r2, #4]
	cmp	r2, #0
	beq	.L508
	ldr	r2, .L525+4
	rsb	lr, r3, r6
	mov	r4, r3
	add	r2, r2, r3, lsl #2
.L507:
	add	r1, lr, r3
	str	r1, [r2], #4
	ldr	r9, [r10, #2392]
	add	r3, r3, #1
	rsb	r1, r4, r3
	add	r0, r9, ip
	ldrsh	r0, [r0, #4]
	cmp	r0, r1
	bhi	.L507
.L508:
	add	r2, r9, r7
	add	r5, r5, #1
	add	r6, r6, r8
	ldrsh	r2, [r2, #4]
	cmp	r2, r5
	bhi	.L506
	ldr	r2, [fp, #-56]
	ldr	r2, [r2, #416]
.L505:
	add	r1, r10, r2, lsl #3
	sub	ip, r3, #1
	add	r1, r1, #8576
	ldr	r0, [fp, #-60]
	ldr	lr, [fp, #-48]
	add	r2, r2, #1
	str	ip, [r1, #40]
	ldr	r1, [fp, #-56]
	add	r0, r9, r0, lsl #1
	add	lr, lr, #1
	str	lr, [fp, #-48]
	str	r2, [r1, #416]
	ldr	ip, [r9, #68]
	ldrsh	r1, [r0, #4]
	cmp	ip, lr
	ldr	r0, [fp, #-52]
	add	r1, r0, r1
	str	r1, [fp, #-52]
	bhi	.L509
.L511:
	ldr	r2, [fp, #-76]
	ldr	r0, [fp, #-68]
	ldr	r1, [r9, #72]
	add	r2, r9, r2, lsl #1
	add	r0, r0, #1
	cmp	r1, r0
	ldr	r1, [fp, #-72]
	ldrsh	r2, [r2, #4]
	str	r0, [fp, #-68]
	add	r2, r1, r2
	str	r2, [fp, #-72]
	bhi	.L510
.L502:
	sub	sp, fp, #40
	ldmfd	sp, {r4, r5, r6, r7, r8, r9, r10, fp, sp, pc}
.L526:
	.align	2
.L525:
	.word	vfmw_Osal_Func_Ptr_S
	.word	.LANCHOR2+448
	.word	.LANCHOR3+592
	UNWIND(.fnend)
	.size	HEVC_CalcTileMap, .-HEVC_CalcTileMap
	.align	2
	.global	HEVC_WritePicMsg
	.type	HEVC_WritePicMsg, %function
HEVC_WritePicMsg:
	UNWIND(.fnstart)
	@ args = 0, pretend = 0, frame = 0
	@ frame_needed = 1, uses_anonymous_args = 0
	UNWIND(.movsp ip)
	mov	ip, sp
	stmfd	sp!, {r4, r5, r6, r7, r8, r9, fp, ip, lr, pc}
	UNWIND(.pad #4)
	UNWIND(.save {r4, r5, r6, r7, r8, r9, fp, ip, lr})
	UNWIND(.setfp fp, ip, #-4)
	sub	fp, ip, #4
	mov	r4, r0
	ldr	r3, [r0, #3540]
	ldr	r2, [r4, #3716]
	mov	r0, #2
	ldr	r1, .L550
	add	r5, r4, #4096
	bl	dprint_vfmw
	ldr	r1, .L550+4
	mov	r0, #4
	mov	r7, #200
	bl	dprint_vfmw
	ldr	r3, [r4, #3512]
	add	r8, r4, #8192
	mov	ip, #0
	ldr	r6, .L550+8
	add	r0, r4, #6016
	str	r3, [r5, #1848]
	mov	r2, #64
	ldr	r1, [r4, #3680]
	add	r0, r0, #24
	mul	r7, r7, r3
	str	r1, [r5, #3112]
	ldr	r3, [r4, #3684]
	add	r1, r7, #12608
	add	r1, r1, #48
	str	r3, [r5, #3116]
	add	r1, r4, r1
	ldr	r3, [r4, #3604]
	ldr	lr, [r4, #3608]
	rsb	lr, r3, lr
	str	lr, [r5, #3120]
	ldr	lr, [r4, #3716]
	str	lr, [r5, #3104]
	ldr	lr, [r4, #3540]
	str	lr, [r5, #3108]
	ldr	lr, [r4, #3704]
	str	lr, [r5, #3124]
	ldr	lr, [r4, #3708]
	str	lr, [r5, #3128]
	ldr	lr, [r4, #3712]
	str	lr, [r5, #3132]
	ldr	lr, [r4, #3612]
	rsb	r3, r3, lr
	str	r3, [r5, #3136]
	ldr	r3, [r4, #3616]
	rsb	r3, lr, r3
	str	r3, [r5, #3140]
	ldr	r3, [r4, #2408]
	str	ip, [r4, #204]
	str	r3, [r8, #212]
	ldr	r3, [r4, #2388]
	ldrb	ip, [r3, #10]	@ zero_extendqisi2
	strb	ip, [r5, #1822]
	ldrb	ip, [r3, #3]	@ zero_extendqisi2
	strb	ip, [r5, #1823]
	ldrb	ip, [r3, #7]	@ zero_extendqisi2
	strb	ip, [r5, #1824]
	ldrb	ip, [r3, #6]	@ zero_extendqisi2
	strb	ip, [r5, #1825]
	ldrb	ip, [r3, #5]	@ zero_extendqisi2
	strb	ip, [r5, #1826]
	ldr	ip, [r3, #60]
	str	ip, [r5, #1828]
	ldr	ip, [r3, #104]
	strb	ip, [r5, #1832]
	ldr	ip, [r3, #192]
	sub	ip, ip, #1
	str	ip, [r5, #1836]
	ldr	ip, [r3, #188]
	sub	ip, ip, #1
	str	ip, [r5, #1840]
	ldr	ip, [r4, #3516]
	str	ip, [r5, #1844]
	ldr	ip, [r4, #2392]
	ldr	lr, [ip, #84]
	sub	lr, lr, #2
	str	lr, [r5, #1852]
	ldrb	lr, [ip, #11]	@ zero_extendqisi2
	strb	lr, [r5, #1856]
	ldrb	ip, [ip, #10]	@ zero_extendqisi2
	strb	ip, [r5, #1857]
	ldr	ip, [r3, #164]
	str	ip, [r5, #1860]
	ldr	ip, [r3, #168]
	str	ip, [r5, #1864]
	ldr	ip, [r3, #156]
	str	ip, [r5, #1868]
	ldr	ip, [r3, #160]
	str	ip, [r5, #1872]
	ldr	ip, [r3, #148]
	str	ip, [r5, #1876]
	ldr	ip, [r3, #152]
	str	ip, [r5, #1880]
	ldr	lr, [r3, #172]
	ldr	ip, [r6, #52]
	str	lr, [r5, #1884]
	ldr	lr, [r3, #124]
	str	lr, [r5, #1888]
	ldr	lr, [r3, #128]
	str	lr, [r5, #1892]
	ldr	lr, [r3, #100]
	str	lr, [r5, #1896]
	ldr	lr, [r3, #92]
	str	lr, [r5, #1900]
	ldr	lr, [r3, #112]
	str	lr, [r5, #1904]
	ldr	lr, [r3, #108]
	str	lr, [r5, #1908]
	ldr	lr, [r3, #96]
	str	lr, [r5, #1912]
	ldr	r3, [r3, #88]
	str	r3, [r5, #1916]
	blx	ip
	ldr	ip, [r4, #2388]
	add	r2, r4, #8128
	add	r1, r4, #7616
	add	r3, r8, #52
	add	r2, r2, #36
	ldr	lr, [ip, #68]
	add	r1, r1, #36
	mov	r0, r4
	str	lr, [r5, #2008]
	ldr	ip, [ip, #64]
	str	ip, [r5, #2012]
	bl	HEVC_CalcTileInfo
	subs	r6, r0, #0
	bne	.L548
	ldr	r3, [r4, #2392]
	ldrb	r2, [r3, #16]	@ zero_extendqisi2
	strb	r2, [r5, #2036]
	ldrb	r2, [r3, #7]	@ zero_extendqisi2
	strb	r2, [r5, #2037]
	ldrb	r2, [r3, #3]	@ zero_extendqisi2
	strb	r2, [r5, #2038]
	ldrb	r2, [r3, #14]	@ zero_extendqisi2
	strb	r2, [r5, #2039]
	ldrb	r2, [r3, #15]	@ zero_extendqisi2
	strb	r2, [r5, #2040]
	ldrb	r2, [r3, #13]	@ zero_extendqisi2
	strb	r2, [r5, #2041]
	ldr	r2, [r4, #2388]
	ldr	r1, [r3, #56]
	ldr	r2, [r2, #128]
	rsb	r2, r1, r2
	str	r2, [r5, #2044]
	ldr	r2, [r3, #52]
	str	r2, [r5, #2048]
	ldrb	r2, [r3, #8]	@ zero_extendqisi2
	strb	r2, [r5, #2052]
	ldrb	r2, [r3, #12]	@ zero_extendqisi2
	strb	r2, [r5, #2053]
	ldrb	r2, [r3, #6]	@ zero_extendqisi2
	strb	r2, [r5, #2054]
	ldr	r2, [r3, #60]
	str	r2, [r5, #2056]
	ldr	r2, [r3, #64]
	str	r2, [r5, #2060]
	ldr	r2, [r3, #72]
	sub	r2, r2, #1
	str	r2, [r5, #2064]
	ldr	r2, [r3, #68]
	sub	r2, r2, #1
	str	r2, [r5, #2068]
	ldrb	r2, [r3, #10]	@ zero_extendqisi2
	strb	r2, [r5, #1857]
	ldrb	r3, [r3, #11]	@ zero_extendqisi2
	strb	r3, [r5, #1856]
	ldr	r3, [r4, #2332]
	str	r6, [r4, #2348]
	cmp	r3, #1
	beq	.L539
	ldr	r3, [r4, #3564]
	ldr	r0, [r4, #252]
	ldr	r1, [r3, #28]
	bl	FSP_GetLogicFs
	subs	r9, r0, #0
	beq	.L549
	ldr	r2, [r9, #28]
	ldr	r3, [r9, #32]
	cmp	r2, #0
	beq	.L532
	cmp	r3, #0
	beq	.L532
	add	r3, r4, #7488
	add	r2, r4, #7232
	add	r1, r4, #7360
	add	r3, r3, #36
	add	r2, r2, #24
	add	r1, r1, #24
	ldr	r0, [r4, #252]
	bl	FSP_GetDecFsAddrTab
	ldr	r3, [r9, #28]
	add	r2, r4, #7360
	add	r1, r4, #7488
	add	r2, r2, #28
	add	r1, r1, #28
	ldr	r3, [r3, #4]
	str	r3, [r5, #3104]
	ldr	r0, [r4, #252]
	bl	FSP_GetPmvAddrTab
	ldr	r1, [r4, #3540]
	add	r2, r4, r7
	movw	r3, #12520
	str	r1, [r5, #3108]
	ldr	r1, [r9, #12]
	str	r1, [r5, #3424]
	ldr	r1, [r9, #32]
	ldr	r1, [r1, #8]
	str	r1, [r8, #408]
	ldr	r1, [r9, #32]
	ldr	r1, [r1, #60]
	str	r1, [r8, #412]
	ldr	ip, [r2, r3]
	cmp	ip, #0
	str	ip, [r8, #204]
	beq	.L534
	add	r3, r7, #12544
	add	r2, r4, #8320
	add	r3, r3, #44
	add	r2, r2, #8
	add	r3, r4, r3
	mov	r0, r6
.L535:
	add	r0, r0, #1
	ldr	r1, [r3, #4]!
	cmp	r0, ip
	str	r1, [r2, #4]!
	bne	.L535
.L534:
	add	r7, r4, #6144
	mov	r6, #0
	add	r7, r7, #28
.L536:
	mov	r2, r7
	mov	r0, r6
	mov	r1, r4
	add	r6, r6, #1
	bl	HEVC_WriteQmatrix_8x8
	cmp	r6, #4
	add	r7, r7, #64
	bne	.L536
	add	r2, r4, #6400
	mov	r0, r6
	add	r2, r2, #28
	mov	r1, r4
	bl	HEVC_WriteQmatrix_8x8
	add	r2, r4, #6464
	add	r2, r2, #28
	mov	r1, r4
	mov	r0, #5
	add	r7, r4, #6656
	bl	HEVC_WriteQmatrix_8x8
	add	r2, r4, #6528
	add	r2, r2, #28
	mov	r1, r4
	mov	r0, #0
	add	r7, r7, #28
	bl	HEVC_WriteQmatrix_16x16
	add	r2, r4, #6592
	add	r2, r2, #28
	mov	r1, r4
	mov	r0, #1
	mov	r6, #2
	bl	HEVC_WriteQmatrix_16x16
.L537:
	mov	r2, r7
	mov	r0, r6
	mov	r1, r4
	add	r6, r6, #1
	bl	HEVC_WriteQmatrix_16x16
	cmp	r6, #6
	add	r7, r7, #64
	bne	.L537
	add	r2, r4, #6912
	mov	r1, r4
	add	r2, r2, #28
	mov	r0, #0
	bl	HEVC_WriteQmatrix_32x32
	add	r2, r4, #6976
	add	r2, r2, #28
	mov	r1, r4
	mov	r0, #1
	add	r7, r4, #7040
	bl	HEVC_WriteQmatrix_32x32
	add	r7, r7, #28
	mov	r6, #0
.L538:
	mov	r2, r7
	mov	r0, r6
	mov	r1, r4
	add	r6, r6, #1
	bl	HEVC_WriteQmatrix_4x4
	cmp	r6, #6
	add	r7, r7, #16
	bne	.L538
	ldr	r1, [r4, #2284]
	mov	r0, #0
	ldr	r3, [r4, #2288]
	ldr	r2, [r4, #2276]
	ldr	ip, [r4, #2280]
	mov	r1, r1, asl #16
	orr	r3, r1, r3, asl #24
	orr	r3, r3, r2
	orr	r3, r3, ip, asl #8
	str	r3, [r5, #3068]
	ldr	r1, [r4, #2300]
	ldr	r3, [r4, #2304]
	ldr	r2, [r4, #2292]
	ldr	ip, [r4, #2296]
	mov	r1, r1, asl #16
	orr	r3, r1, r3, asl #24
	orr	r3, r3, r2
	orr	r3, r3, ip, asl #8
	str	r3, [r5, #3072]
	ldr	r3, [r4, #3540]
	str	r3, [r5, #3100]
	ldmfd	sp, {r4, r5, r6, r7, r8, r9, fp, sp, pc}
.L539:
	mov	r0, r6
	ldmfd	sp, {r4, r5, r6, r7, r8, r9, fp, sp, pc}
.L548:
	ldr	r2, .L550+12
	mov	r0, #1
	ldr	r1, .L550+16
	bl	dprint_vfmw
	mvn	r0, #0
	ldmfd	sp, {r4, r5, r6, r7, r8, r9, fp, sp, pc}
.L532:
	ldr	r1, .L550+20
	mov	r0, #1
	bl	dprint_vfmw
	mvn	r0, #0
	ldmfd	sp, {r4, r5, r6, r7, r8, r9, fp, sp, pc}
.L549:
	ldr	r3, [r4, #3564]
	mov	r0, #1
	ldr	r1, .L550+24
	ldr	r2, [r3, #28]
	bl	dprint_vfmw
	mvn	r0, #0
	ldmfd	sp, {r4, r5, r6, r7, r8, r9, fp, sp, pc}
.L551:
	.align	2
.L550:
	.word	.LC59
	.word	.LC60
	.word	vfmw_Osal_Func_Ptr_S
	.word	.LANCHOR0+228
	.word	.LC61
	.word	.LC63
	.word	.LC62
	UNWIND(.fnend)
	.size	HEVC_WritePicMsg, .-HEVC_WritePicMsg
	.align	2
	.global	HEVC_CheckListX
	.type	HEVC_CheckListX, %function
HEVC_CheckListX:
	UNWIND(.fnstart)
	@ args = 0, pretend = 0, frame = 0
	@ frame_needed = 1, uses_anonymous_args = 0
	UNWIND(.movsp ip)
	mov	ip, sp
	stmfd	sp!, {fp, ip, lr, pc}
	UNWIND(.pad #4)
	UNWIND(.save {fp, ip, lr})
	UNWIND(.setfp fp, ip, #-4)
	sub	fp, ip, #4
	add	r3, r0, #4096
	ldrb	r3, [r3, #105]	@ zero_extendqisi2
	cmp	r3, #0
	addeq	r3, r0, #4160
	addeq	r3, r3, #40
	beq	.L554
	ldrsb	r3, [r0, #11]
	cmp	r3, #0
	addne	r3, r0, #11136
	addne	r3, r3, #28
	beq	.L587
.L554:
	ldr	ip, [r3, #68]
	ldr	lr, [r3, #72]
	cmp	ip, #16
	bhi	.L588
	cmp	lr, #16
	bhi	.L558
	cmp	ip, #0
	beq	.L559
	ldr	r3, [r0, #2416]
	cmp	r3, #0
	beq	.L572
	ldr	r3, [r3, #16]
	cmp	r3, #0
	addne	r1, r0, #2416
	movne	r2, #0
	bne	.L564
	b	.L589
.L565:
	ldr	r3, [r1, #4]!
	cmp	r3, #0
	beq	.L560
	ldr	r3, [r3, #16]
	cmp	r3, #0
	beq	.L561
.L564:
	add	r2, r2, #1
	cmp	r2, ip
	bne	.L565
.L559:
	cmp	lr, #0
	beq	.L584
	ldr	r3, [r0, #2484]
	cmp	r3, #0
	beq	.L575
	ldr	r3, [r3, #16]
	cmp	r3, #0
	addne	r0, r0, #2480
	movne	r2, #0
	addne	r0, r0, #4
	bne	.L570
	b	.L590
.L571:
	ldr	r3, [r0, #4]!
	cmp	r3, #0
	beq	.L566
	ldr	r3, [r3, #16]
	cmp	r3, #0
	beq	.L567
.L570:
	add	r2, r2, #1
	cmp	r2, lr
	bne	.L571
.L584:
	mov	r0, #0
	ldmfd	sp, {fp, sp, pc}
.L572:
	mov	r2, r3
.L560:
	ldr	r1, .L591
	mov	r0, #0
	bl	dprint_vfmw
	mvn	r0, #0
	ldmfd	sp, {fp, sp, pc}
.L589:
	mov	r2, r3
.L561:
	ldr	r1, .L591+4
	mov	r0, #0
	bl	dprint_vfmw
	mvn	r0, #0
	ldmfd	sp, {fp, sp, pc}
.L575:
	mov	r2, r3
.L566:
	ldr	r1, .L591+8
	mov	r0, #0
	bl	dprint_vfmw
	mvn	r0, #0
	ldmfd	sp, {fp, sp, pc}
.L590:
	mov	r2, r3
.L567:
	ldr	r1, .L591+12
	mov	r0, #0
	bl	dprint_vfmw
	mvn	r0, #0
	ldmfd	sp, {fp, sp, pc}
.L587:
	mov	r0, r3
	ldr	r2, .L591+16
	ldr	r1, .L591+20
	bl	dprint_vfmw
	mvn	r0, #0
	ldmfd	sp, {fp, sp, pc}
.L558:
	mov	r2, lr
	mov	r3, #17
	ldr	r1, .L591+24
	mov	r0, #0
	bl	dprint_vfmw
	mvn	r0, #0
	ldmfd	sp, {fp, sp, pc}
.L588:
	mov	r2, ip
	mov	r3, #17
	ldr	r1, .L591+28
	mov	r0, #0
	bl	dprint_vfmw
	mvn	r0, #0
	ldmfd	sp, {fp, sp, pc}
.L592:
	.align	2
.L591:
	.word	.LC67
	.word	.LC68
	.word	.LC69
	.word	.LC70
	.word	.LANCHOR0+248
	.word	.LC64
	.word	.LC66
	.word	.LC65
	UNWIND(.fnend)
	.size	HEVC_CheckListX, .-HEVC_CheckListX
	.align	2
	.global	HEVC_WriteSliceMsg
	.type	HEVC_WriteSliceMsg, %function
HEVC_WriteSliceMsg:
	UNWIND(.fnstart)
	@ args = 0, pretend = 0, frame = 80
	@ frame_needed = 1, uses_anonymous_args = 0
	UNWIND(.movsp ip)
	mov	ip, sp
	stmfd	sp!, {r4, r5, r6, r7, r8, r9, r10, fp, ip, lr, pc}
	UNWIND(.pad #4)
	UNWIND(.save {r4, r5, r6, r7, r8, r9, r10, fp, ip, lr})
	UNWIND(.setfp fp, ip, #-4)
	sub	fp, ip, #4
	UNWIND(.pad #84)
	sub	sp, sp, #84
	ldr	r3, [r0, #3512]
	mov	r4, r0
	str	r3, [fp, #-116]
	bl	HEVC_CheckListX
	subs	r3, r0, #0
	str	r3, [fp, #-112]
	bne	.L634
	ldr	r0, [r4, #204]
	ldr	r3, [r4, #152]
	cmp	r0, r3
	bcs	.L667
	ldr	r6, [r4, #2408]
	mov	r5, #1360
	ldr	r7, [fp, #-112]
	mov	r2, r5
	ldr	r8, .L671
	mla	r6, r5, r0, r6
	mov	r1, r7
	ldr	r3, [r8, #48]
	mov	r0, r6
	blx	r3
	mov	r1, r7
	ldr	r3, [r8, #48]
	mov	r2, #64
	sub	r0, fp, #108
	add	r7, r4, #4096
	blx	r3
	ldr	r3, [r4, #204]
	ldr	r2, [r4, #152]
	add	r3, r3, #1
	str	r3, [r4, #204]
	cmp	r3, r2
	ldrcc	r2, [r4, #2408]
	ldrcs	r3, [fp, #-112]
	mlacc	r3, r5, r3, r2
	str	r3, [r6, #1356]
	ldr	r1, [r7, #140]
	ldr	r2, [r4, #2376]
	ldr	r0, [r4, #176]
	ldr	r3, [r4, #236]
	add	r0, r0, #1
	str	r1, [r4, #208]
	str	r0, [r4, #176]
	add	r3, r3, #1
	str	r3, [r4, #236]
	ldrb	r1, [r2]	@ zero_extendqisi2
	ldr	r3, [r2, #8]
	str	r0, [fp, #-120]
	cmp	r1, #1
	cmpls	r1, r3
	bcs	.L598
	add	r0, r6, r1, lsl #2
.L599:
	mov	r3, r1, asl #5
	sub	r3, r3, r1, asl #2
	add	r1, r1, #1
	add	r2, r2, r3
	ldr	r2, [r2, #56]
	str	r2, [r0, #8]
	ldr	r2, [r4, #2376]
	add	r2, r2, r3
	ldr	r2, [r2, #52]
	str	r2, [r0], #4
	ldr	r2, [r4, #2376]
	add	r3, r2, r3
	ldr	r3, [r3, #60]
	str	r3, [r0, #12]
	ldr	r2, [r4, #2376]
	ldr	r3, [r2, #8]
	cmp	r3, r1
	movhi	ip, #1
	movls	ip, #0
	cmp	r1, #1
	movhi	ip, #0
	cmp	ip, #0
	bne	.L599
.L598:
	cmp	r3, #1
	addls	r3, r6, r3, lsl #2
	addls	r1, r6, #8
	movls	r2, #0
	bhi	.L604
.L603:
	str	r2, [r3, #8]
	str	r2, [r3], #4
	cmp	r3, r1
	str	r2, [r3, #12]
	bne	.L603
.L604:
	ldrb	r3, [r7, #105]	@ zero_extendqisi2
	cmp	r3, #0
	beq	.L668
.L602:
	add	r5, r4, #8192
	ldr	r3, [r5, #3040]
	cmp	r3, #0
	beq	.L605
	add	r0, r4, #2416
	add	r9, r6, #112
	add	lr, r6, #368
	mov	r1, #0
.L606:
	ldr	r3, [r0]
	sub	r10, fp, #44
	add	r1, r1, #1
	ldr	r3, [r3, #4]
	str	r3, [r9, #4]!
	ldr	r2, [r0], #4
	ldr	ip, [r2, #16]
	ldr	r3, [ip, #20]
	ldr	ip, [ip, #24]
	add	r3, r3, #1840
	add	r3, r3, #6
	add	ip, r10, ip, lsl #2
	add	r3, r4, r3, lsl #2
	ldr	r3, [r3, #4]
	str	r3, [ip, #-64]
	ldr	r3, [r2, #16]
	ldr	r3, [r3, #24]
	str	r3, [lr, #4]!
	ldr	r2, [r5, #3040]
	cmp	r2, r1
	bhi	.L606
	ldr	r0, [r5, #3044]
	cmp	r0, #0
	beq	.L607
.L633:
	add	r1, r4, #2480
	add	r10, r6, #176
	add	r1, r1, #4
	add	r9, r6, #432
	mov	lr, #0
.L608:
	ldr	r3, [r1]
	sub	ip, fp, #44
	add	lr, lr, #1
	ldr	r3, [r3, #4]
	str	r3, [r10, #4]!
	ldr	r2, [r1], #4
	ldr	r0, [r2, #16]
	ldr	r3, [r0, #20]
	ldr	r0, [r0, #24]
	add	r3, r3, #1840
	add	r3, r3, #6
	add	r0, ip, r0, lsl #2
	add	r3, r4, r3, lsl #2
	ldr	r3, [r3, #4]
	str	r3, [r0, #-64]
	ldr	r3, [r2, #16]
	ldr	r3, [r3, #24]
	str	r3, [r9, #4]!
	ldr	r0, [r5, #3044]
	cmp	r0, lr
	bhi	.L608
	ldr	r2, [r5, #3040]
.L607:
	cmp	r2, #0
	beq	.L609
	ldr	r1, [fp, #-116]
	mov	r9, #50
	ldr	r3, [r6, #372]
	ldr	r10, [r4, #3516]
	mul	r9, r9, r1
	add	r3, r9, r3
	add	r3, r3, #3152
	add	r3, r3, #12
	ldr	r3, [r4, r3, asl #2]
	cmp	r10, r3
	blt	.L640
	add	lr, r6, #372
	mov	r1, #0
	b	.L611
.L612:
	ldr	r3, [lr, #4]!
	add	r3, r9, r3
	add	r3, r3, #3152
	add	r3, r3, #12
	ldr	r3, [r4, r3, asl #2]
	cmp	r3, r10
	bgt	.L640
.L611:
	add	r1, r1, #1
	cmp	r1, r2
	bne	.L612
.L609:
	ldr	r2, [r5, #2992]
	cmp	r2, #0
	bne	.L665
	cmp	r0, #0
	beq	.L665
	ldr	r1, [fp, #-116]
	mov	lr, #50
	ldr	r3, [r6, #436]
	ldr	r9, [r4, #3516]
	mul	lr, lr, r1
	add	r3, lr, r3
	add	r3, r3, #3152
	add	r3, r3, #12
	ldr	r3, [r4, r3, asl #2]
	cmp	r9, r3
	blt	.L610
	add	r1, r6, #436
	b	.L613
.L614:
	ldr	r3, [r1, #4]!
	add	r3, lr, r3
	add	r3, r3, #3152
	add	r3, r3, #12
	ldr	r3, [r4, r3, asl #2]
	cmp	r3, r9
	bgt	.L640
.L613:
	add	r2, r2, #1
	cmp	r2, r0
	bne	.L614
.L665:
	mov	r2, #1
.L610:
	strb	r2, [r6, #24]
	ldrb	r3, [r7, #105]	@ zero_extendqisi2
	strb	r3, [r6, #25]
	ldr	r3, [r5, #2988]
	str	r3, [r6, #28]
	ldrb	r2, [r5, #2979]	@ zero_extendqisi2
	strb	r2, [r6, #32]
	ldr	r2, [r5, #3012]
	str	r2, [r6, #36]
	ldr	r2, [r4, #2332]
	cmp	r2, #0
	bne	.L615
	ldr	r9, [r4, #3564]
	ldr	r1, [r4, #204]
	ldr	r0, [r9, #316]
	sub	r2, r1, #1
	mla	r0, r0, r2, r3
	bl	__aeabi_uidiv
	str	r0, [r9, #68]
.L615:
	ldr	r3, [r5, #2992]
	cmp	r3, #0
	bne	.L616
	ldrb	r3, [r5, #2980]	@ zero_extendqisi2
	cmp	r3, #0
	bne	.L617
	ldr	r3, [r5, #3016]
	add	r3, r6, r3, lsl #2
	ldr	r9, [r3, #436]
.L618:
	str	r9, [r6, #40]
	ldr	r3, [r5, #3016]
	str	r3, [r6, #48]
	ldrb	r3, [r5, #2980]	@ zero_extendqisi2
	strb	r3, [r6, #52]
	ldr	r3, [r5, #3020]
	str	r3, [r6, #44]
	ldr	r3, [r5, #3048]
	cmp	r3, #0
	subne	r3, r3, #1
	str	r3, [r6, #60]
	ldr	r3, [r5, #3052]
	cmp	r3, #0
	subne	r3, r3, #1
	str	r3, [r6, #56]
	ldrb	r3, [r5, #2976]	@ zero_extendqisi2
	strb	r3, [r6, #64]
	ldrb	r3, [r5, #2978]	@ zero_extendqisi2
	strb	r3, [r6, #65]
	ldr	r3, [r5, #3040]
	str	r3, [r6, #68]
	ldr	r3, [r5, #3044]
	str	r3, [r6, #72]
	ldr	r3, [r5, #2992]
	str	r3, [r6, #76]
	ldr	r3, [r7, #144]
	str	r3, [r6, #80]
	ldr	r3, [r4, #2388]
	ldr	r0, [r7, #144]
	ldr	r1, [r3, #188]
	bl	__aeabi_uidivmod
	str	r1, [r6, #84]
	ldr	r3, [r4, #2388]
	ldr	r0, [r7, #144]
	ldr	r1, [r3, #188]
	bl	__aeabi_uidiv
	str	r0, [r6, #88]
	mov	r0, r4
	ldr	r1, [r7, #144]
	bl	HEVC_CtbRsAddrToTsAddr
	str	r0, [r6, #92]
	ldr	r3, [r5, #3024]
	str	r3, [r6, #96]
	ldr	r3, [r5, #3028]
	str	r3, [r6, #100]
	ldr	r3, [r5, #3036]
	str	r3, [r6, #104]
	ldr	r3, [r5, #3032]
	str	r3, [r6, #108]
	ldrb	r3, [r5, #2975]	@ zero_extendqisi2
	strb	r3, [r6, #112]
	ldrb	r3, [r5, #2974]	@ zero_extendqisi2
	strb	r3, [r6, #113]
	ldrb	r3, [r5, #2981]	@ zero_extendqisi2
	strb	r3, [r6, #114]
	ldrb	r3, [r5, #2982]	@ zero_extendqisi2
	strb	r3, [r6, #115]
	ldr	r3, [r4, #2392]
	ldrb	r2, [r3, #10]	@ zero_extendqisi2
	cmp	r2, #0
	beq	.L623
	ldr	r2, [r5, #2992]
	cmp	r2, #1
	beq	.L624
.L623:
	ldrb	r3, [r3, #11]	@ zero_extendqisi2
	cmp	r3, #1
	beq	.L669
.L626:
	ldrb	r3, [r5, #2976]	@ zero_extendqisi2
	cmp	r3, #0
	subne	r3, fp, #44
	addne	r9, r3, r9, lsl #2
	ldreq	r3, [r7, #3292]
	ldrne	r3, [r9, #-64]
	str	r3, [r6, #564]
	ldr	r3, [r4, #2332]
	cmp	r3, #0
	ldreq	r1, [r4, #2376]
	ldreq	r2, [r4, #2396]
	ldreq	r0, [fp, #-120]
	streq	r1, [r2, r0, asl #2]
	streq	r3, [r4, #2376]
	ldrb	r3, [r7, #2041]	@ zero_extendqisi2
	cmp	r3, #0
	beq	.L648
	ldr	r3, [r4, #236]
	cmp	r3, #1
	beq	.L670
	add	r1, r4, r3, lsl #3
	ldr	r0, [r6, #92]
	add	r1, r1, #9472
	add	r2, r3, #1184
	add	r2, r2, #1
	sub	r0, r0, #1
	str	r0, [r1, #8]
	sub	r3, r3, #1
	ldr	r1, [r6, #92]
	add	r2, r4, r2, lsl #3
	str	r1, [r2, #4]
.L632:
	ldr	r1, [r7, #1840]
	add	r3, r4, r3, lsl #3
	ldr	r2, [r7, #1836]
	add	r3, r3, #9472
	mla	r2, r1, r2, r2
	add	r2, r2, r1
	str	r2, [r3, #24]
	ldr	r1, [r6, #92]
	sub	r1, r1, #1
	cmp	r1, #36864
	bcs	.L648
	mov	r0, r4
	bl	HEVC_CtbTsAddrToRsAddr
	str	r0, [r6, #568]
.L648:
	ldr	r0, [fp, #-112]
	sub	sp, fp, #40
	ldmfd	sp, {r4, r5, r6, r7, r8, r9, r10, fp, sp, pc}
.L640:
	mov	r2, #0
	b	.L610
.L616:
	cmp	r3, #1
	movne	r9, #0
	bne	.L618
.L617:
	ldr	r3, [r5, #3016]
	add	r3, r6, r3, lsl #2
	ldr	r9, [r3, #372]
	b	.L618
.L668:
	add	r1, r4, #4160
	add	r0, r4, #11136
	ldr	r3, [r8, #52]
	add	r1, r1, #40
	add	r0, r0, #28
	movw	r2, #1356
	blx	r3
	mov	r3, #1
	strb	r3, [r4, #11]
	b	.L602
.L669:
	ldr	r3, [r5, #2992]
	cmp	r3, #0
	bne	.L626
.L624:
	ldr	lr, [r5, #3128]
	mov	r2, #64
	ldr	r3, [r8, #52]
	add	r1, r4, #11456
	add	r0, r6, #588
	ldr	r10, .L671
	str	lr, [r6, #580]
	ldr	lr, [r5, #3260]
	str	lr, [r6, #584]
	blx	r3
	add	r1, r4, #11264
	add	r1, r1, #60
	ldr	r3, [r8, #52]
	mov	r2, #64
	add	r0, r6, #716
	blx	r3
	ldr	r3, [r8, #52]
	mov	r2, #128
	add	r1, r4, #11520
	add	r0, r6, #844
	blx	r3
	add	r0, r6, #1088
	ldr	r3, [r8, #52]
	add	r0, r0, #12
	mov	r2, #128
	add	r1, r4, #11648
	blx	r3
	ldr	r3, [r5, #2992]
	cmp	r3, #0
	bne	.L626
	ldr	r3, [r10, #52]
	add	r1, r4, #11776
	mov	r2, #64
	add	r0, r6, #652
	blx	r3
	add	r1, r4, #11328
	ldr	r3, [r10, #52]
	add	r1, r1, #60
	mov	r2, #64
	add	r0, r6, #780
	blx	r3
	ldr	r3, [r10, #52]
	add	r1, r4, #11840
	mov	r2, #128
	add	r0, r6, #972
	blx	r3
	add	r0, r6, #1216
	ldr	r3, [r10, #52]
	mov	r2, #128
	add	r1, r4, #11968
	add	r0, r0, #12
	blx	r3
	b	.L626
.L670:
	ldr	r2, [r6, #92]
	mov	r3, #0
	str	r2, [r5, #1300]
	b	.L632
.L605:
	ldr	r3, [r5, #3044]
	cmp	r3, #0
	bne	.L633
	b	.L665
.L634:
	mvn	r3, #0
	str	r3, [fp, #-112]
	b	.L648
.L667:
	mov	r2, r0
	ldr	r1, .L671+4
	mov	r0, #1
	bl	dprint_vfmw
	mvn	r3, #0
	str	r3, [fp, #-112]
	b	.L648
.L672:
	.align	2
.L671:
	.word	vfmw_Osal_Func_Ptr_S
	.word	.LC71
	UNWIND(.fnend)
	.size	HEVC_WriteSliceMsg, .-HEVC_WriteSliceMsg
	.align	2
	.global	HEVC_GetVirAddr
	.type	HEVC_GetVirAddr, %function
HEVC_GetVirAddr:
	UNWIND(.fnstart)
	@ args = 0, pretend = 0, frame = 0
	@ frame_needed = 1, uses_anonymous_args = 0
	UNWIND(.movsp ip)
	mov	ip, sp
	stmfd	sp!, {fp, ip, lr, pc}
	UNWIND(.pad #4)
	UNWIND(.save {fp, ip, lr})
	UNWIND(.setfp fp, ip, #-4)
	sub	fp, ip, #4
	add	r0, r1, r0, lsl #2
	ldmfd	sp, {fp, sp, pc}
	UNWIND(.fnend)
	.size	HEVC_GetVirAddr, .-HEVC_GetVirAddr
	.align	2
	.global	HEVC_GetPhyAddr
	.type	HEVC_GetPhyAddr, %function
HEVC_GetPhyAddr:
	UNWIND(.fnstart)
	@ args = 0, pretend = 0, frame = 0
	@ frame_needed = 1, uses_anonymous_args = 0
	UNWIND(.movsp ip)
	mov	ip, sp
	stmfd	sp!, {fp, ip, lr, pc}
	UNWIND(.pad #4)
	UNWIND(.save {fp, ip, lr})
	UNWIND(.setfp fp, ip, #-4)
	sub	fp, ip, #4
	add	r0, r1, r0, lsl #2
	ldmfd	sp, {fp, sp, pc}
	UNWIND(.fnend)
	.size	HEVC_GetPhyAddr, .-HEVC_GetPhyAddr
	.align	2
	.global	HEVC_CfgVDMReg
	.type	HEVC_CfgVDMReg, %function
HEVC_CfgVDMReg:
	UNWIND(.fnstart)
	@ args = 0, pretend = 0, frame = 0
	@ frame_needed = 1, uses_anonymous_args = 0
	UNWIND(.movsp ip)
	mov	ip, sp
	stmfd	sp!, {fp, ip, lr, pc}
	UNWIND(.pad #4)
	UNWIND(.save {fp, ip, lr})
	UNWIND(.setfp fp, ip, #-4)
	sub	fp, ip, #4
	ldr	r2, [r0, #3532]
	add	r1, r0, #4096
	mov	r3, r0
	add	ip, r0, #8192
	clz	r2, r2
	mov	r0, #0
	mov	r2, r2, lsr #5
	str	r2, [r1, #3156]
	ldr	r2, [r3, #3536]
	str	r2, [r1, #3148]
	ldr	r3, [r3, #204]
	str	r3, [ip, #208]
	ldmfd	sp, {fp, sp, pc}
	UNWIND(.fnend)
	.size	HEVC_CfgVDMReg, .-HEVC_CfgVDMReg
	.align	2
	.global	HEVC_IsRefForCurrPic
	.type	HEVC_IsRefForCurrPic, %function
HEVC_IsRefForCurrPic:
	UNWIND(.fnstart)
	@ args = 0, pretend = 0, frame = 24
	@ frame_needed = 1, uses_anonymous_args = 0
	UNWIND(.movsp ip)
	mov	ip, sp
	stmfd	sp!, {r4, r5, r6, r7, r8, r9, r10, fp, ip, lr, pc}
	UNWIND(.pad #4)
	UNWIND(.save {r4, r5, r6, r7, r8, r9, r10, fp, ip, lr})
	UNWIND(.setfp fp, ip, #-4)
	sub	fp, ip, #4
	UNWIND(.pad #44)
	sub	sp, sp, #44
	add	ip, r0, #4096
	mov	r6, r0
	ldr	r2, [r0, #164]
	ldr	r3, [ip, #140]
	cmp	r3, #0
	blt	.L678
	cmp	r3, r2
	bge	.L678
	ldr	r2, [r0, #2368]
	mov	r1, #1888
	mla	r3, r1, r3, r2
	ldr	r2, [r0, #160]
	ldr	r3, [r3, #32]
	cmp	r3, #0
	blt	.L682
	cmp	r3, r2
	bge	.L682
	ldr	r2, [r0, #2364]
	movw	r1, #12660
	ldr	r0, [ip, #1036]
	mov	r10, #1
	ldr	lr, [ip, #1040]
	mla	r1, r1, r3, r2
	ldr	r3, [ip, #1044]
	add	r2, lr, r0
	str	r0, [fp, #-56]
	cmp	r2, r3
	str	lr, [fp, #-60]
	mov	r4, r2
	ldr	r1, [r1, #116]
	mov	r10, r10, asl r1
	bcs	.L693
	cmp	r2, #15
	bgt	.L685
	ldr	r9, [r6, #3516]
	add	r5, r2, #1296
	add	r5, r5, #11
	str	r6, [fp, #-48]
	str	r2, [fp, #-64]
	add	r5, r6, r5, lsl #2
	mov	r8, r9
	mov	r6, r3
	str	ip, [fp, #-52]
	b	.L687
.L705:
	cmp	r6, r4
	bls	.L703
	cmp	r4, #16
	beq	.L704
.L687:
	ldr	r7, [r5, #4]!
	mov	r1, r10
	mov	r0, r8
	mov	r9, r8
	ldr	lr, [r5, #-944]
	cmp	lr, #0
	bne	.L688
	bl	__aeabi_idivmod
	mov	r0, r7
	mov	r9, r1
	mov	r1, r10
	bl	__aeabi_idivmod
	mov	r7, r1
.L688:
	cmp	r9, r7
	add	r4, r4, #1
	bne	.L705
	ldr	r2, [fp, #-64]
	mov	r4, #1
	ldr	r6, [fp, #-48]
	ldr	ip, [fp, #-52]
.L684:
	cmp	r2, #0
	beq	.L680
	ldr	lr, [ip, #116]
	ldr	r3, [ip, #1068]
	ldr	r0, [r6, #3516]
	add	r3, lr, r3
	cmp	r0, r3
	beq	.L697
	add	r6, r6, #5120
	mov	r1, #0
	add	r6, r6, #44
	b	.L690
.L691:
	ldr	r3, [r6, #4]!
	add	r3, lr, r3
	cmp	r3, r0
	beq	.L697
.L690:
	add	r1, r1, #1
	cmp	r1, r2
	beq	.L680
	cmp	r1, #17
	bne	.L691
	ldr	r3, [fp, #-60]
	mov	r0, #0
	ldr	r2, [fp, #-56]
	str	r1, [sp]
	str	r3, [sp, #8]
	mov	r3, r1
	str	r2, [sp, #4]
	movw	r2, #8976
	ldr	r1, .L706
	bl	dprint_vfmw
	mov	r0, r4
	sub	sp, fp, #40
	ldmfd	sp, {r4, r5, r6, r7, r8, r9, r10, fp, sp, pc}
.L682:
	str	r2, [sp]
	mov	r0, #0
	movw	r2, #8927
	ldr	r1, .L706+4
	mov	r4, r0
	bl	dprint_vfmw
.L680:
	mov	r0, r4
	sub	sp, fp, #40
	ldmfd	sp, {r4, r5, r6, r7, r8, r9, r10, fp, sp, pc}
.L678:
	str	r2, [sp]
	mov	r0, #0
	movw	r2, #8915
	ldr	r1, .L706+8
	mov	r4, r0
	bl	dprint_vfmw
	mov	r0, r4
	sub	sp, fp, #40
	ldmfd	sp, {r4, r5, r6, r7, r8, r9, r10, fp, sp, pc}
.L704:
	mov	r3, r6
	ldr	ip, [fp, #-52]
	ldr	r6, [fp, #-48]
.L685:
	str	r3, [sp, #4]
	mov	r1, #16
	mov	r3, r4
	movw	r2, #8947
	str	r1, [sp]
	mov	r0, #0
	ldr	r1, .L706+12
	mov	r4, r0
	str	ip, [fp, #-48]
	bl	dprint_vfmw
	ldr	ip, [fp, #-48]
	ldr	r3, [ip, #1036]
	ldr	r2, [ip, #1040]
	str	r3, [fp, #-56]
	str	r2, [fp, #-60]
	add	r2, r2, r3
	b	.L684
.L703:
	ldr	r2, [fp, #-64]
	mov	r4, #0
	ldr	r6, [fp, #-48]
	ldr	ip, [fp, #-52]
	b	.L684
.L697:
	mov	r4, #1
	b	.L680
.L693:
	mov	r4, #0
	b	.L684
.L707:
	.align	2
.L706:
	.word	.LC75
	.word	.LC73
	.word	.LC72
	.word	.LC74
	UNWIND(.fnend)
	.size	HEVC_IsRefForCurrPic, .-HEVC_IsRefForCurrPic
	.align	2
	.global	HEVC_IsPicVPSRefresh
	.type	HEVC_IsPicVPSRefresh, %function
HEVC_IsPicVPSRefresh:
	UNWIND(.fnstart)
	@ args = 0, pretend = 0, frame = 0
	@ frame_needed = 1, uses_anonymous_args = 0
	UNWIND(.movsp ip)
	mov	ip, sp
	stmfd	sp!, {fp, ip, lr, pc}
	UNWIND(.pad #4)
	UNWIND(.save {fp, ip, lr})
	UNWIND(.setfp fp, ip, #-4)
	sub	fp, ip, #4
	ldr	r2, [r0, #2384]
	ldr	r3, [r1, #4]
	ldr	r2, [r2, #4]
	cmp	r2, r3
	beq	.L711
	mov	r0, #1
	ldmfd	sp, {fp, sp, pc}
.L711:
	ldrb	r0, [r1, #2]	@ zero_extendqisi2
	adds	r0, r0, #0
	movne	r0, #1
	ldmfd	sp, {fp, sp, pc}
	UNWIND(.fnend)
	.size	HEVC_IsPicVPSRefresh, .-HEVC_IsPicVPSRefresh
	.align	2
	.global	HEVC_UpdatePicVPS
	.type	HEVC_UpdatePicVPS, %function
HEVC_UpdatePicVPS:
	UNWIND(.fnstart)
	@ args = 0, pretend = 0, frame = 0
	@ frame_needed = 1, uses_anonymous_args = 0
	UNWIND(.movsp ip)
	mov	ip, sp
	stmfd	sp!, {r4, r5, fp, ip, lr, pc}
	UNWIND(.pad #4)
	UNWIND(.save {r4, r5, fp, ip, lr})
	UNWIND(.setfp fp, ip, #-4)
	sub	fp, ip, #4
	mov	r2, #0
	strb	r2, [r1, #2]
	ldr	ip, [r0, #156]
	mov	r4, r0
	ldr	lr, .L713
	mov	r2, #132
	ldr	r0, [r0, #2360]
	mov	r3, ip, asl #7
	add	r3, r3, ip, lsl #2
	ldr	ip, [lr, #52]
	sub	r3, r3, #132
	add	r0, r0, r3
	blx	ip
	ldr	r3, [r4, #156]
	ldr	r1, [r4, #2360]
	mov	r2, r3, asl #7
	add	r3, r2, r3, lsl #2
	sub	r3, r3, #132
	add	r3, r1, r3
	str	r3, [r4, #2384]
	ldmfd	sp, {r4, r5, fp, sp, pc}
.L714:
	.align	2
.L713:
	.word	vfmw_Osal_Func_Ptr_S
	UNWIND(.fnend)
	.size	HEVC_UpdatePicVPS, .-HEVC_UpdatePicVPS
	.align	2
	.global	HEVC_IsPicSPSRefresh
	.type	HEVC_IsPicSPSRefresh, %function
HEVC_IsPicSPSRefresh:
	UNWIND(.fnstart)
	@ args = 0, pretend = 0, frame = 0
	@ frame_needed = 1, uses_anonymous_args = 0
	UNWIND(.movsp ip)
	mov	ip, sp
	stmfd	sp!, {fp, ip, lr, pc}
	UNWIND(.pad #4)
	UNWIND(.save {fp, ip, lr})
	UNWIND(.setfp fp, ip, #-4)
	sub	fp, ip, #4
	ldr	r2, [r0, #2388]
	ldr	r3, [r1, #56]
	ldr	r2, [r2, #56]
	cmp	r2, r3
	beq	.L718
	mov	r0, #1
	ldmfd	sp, {fp, sp, pc}
.L718:
	ldrb	r0, [r1]	@ zero_extendqisi2
	adds	r0, r0, #0
	movne	r0, #1
	ldmfd	sp, {fp, sp, pc}
	UNWIND(.fnend)
	.size	HEVC_IsPicSPSRefresh, .-HEVC_IsPicSPSRefresh
	.align	2
	.global	HEVC_UpdatePicSPS
	.type	HEVC_UpdatePicSPS, %function
HEVC_UpdatePicSPS:
	UNWIND(.fnstart)
	@ args = 0, pretend = 0, frame = 0
	@ frame_needed = 1, uses_anonymous_args = 0
	UNWIND(.movsp ip)
	mov	ip, sp
	stmfd	sp!, {r4, r5, fp, ip, lr, pc}
	UNWIND(.pad #4)
	UNWIND(.save {r4, r5, fp, ip, lr})
	UNWIND(.setfp fp, ip, #-4)
	sub	fp, ip, #4
	mov	r2, #0
	strb	r2, [r1]
	ldr	r3, [r0, #160]
	movw	r5, #12660
	ldr	ip, .L720
	mov	r4, r0
	ldr	r0, [r0, #2364]
	mov	r2, r5
	mul	r3, r5, r3
	ldr	ip, [ip, #52]
	sub	r3, r3, #12608
	sub	r3, r3, #52
	add	r0, r0, r3
	blx	ip
	ldr	r2, [r4, #160]
	ldr	r3, [r4, #2364]
	mul	r5, r5, r2
	sub	r5, r5, #12608
	sub	r5, r5, #52
	add	r5, r3, r5
	str	r5, [r4, #2388]
	ldr	r3, [r5, #56]
	str	r3, [r4, #264]
	ldr	r3, [r5, #64]
	str	r3, [r4, #268]
	ldr	r3, [r5, #68]
	str	r3, [r4, #272]
	ldr	r3, [r5, #128]
	str	r3, [r4, #276]
	ldmfd	sp, {r4, r5, fp, sp, pc}
.L721:
	.align	2
.L720:
	.word	vfmw_Osal_Func_Ptr_S
	UNWIND(.fnend)
	.size	HEVC_UpdatePicSPS, .-HEVC_UpdatePicSPS
	.align	2
	.global	HEVC_IsPicPPSRefresh
	.type	HEVC_IsPicPPSRefresh, %function
HEVC_IsPicPPSRefresh:
	UNWIND(.fnstart)
	@ args = 0, pretend = 0, frame = 0
	@ frame_needed = 1, uses_anonymous_args = 0
	UNWIND(.movsp ip)
	mov	ip, sp
	stmfd	sp!, {fp, ip, lr, pc}
	UNWIND(.pad #4)
	UNWIND(.save {fp, ip, lr})
	UNWIND(.setfp fp, ip, #-4)
	sub	fp, ip, #4
	ldr	r2, [r0, #2392]
	ldr	r3, [r1, #28]
	ldr	r2, [r2, #28]
	cmp	r2, r3
	beq	.L725
	mov	r0, #1
	ldmfd	sp, {fp, sp, pc}
.L725:
	ldrb	r0, [r1, #1]	@ zero_extendqisi2
	adds	r0, r0, #0
	movne	r0, #1
	ldmfd	sp, {fp, sp, pc}
	UNWIND(.fnend)
	.size	HEVC_IsPicPPSRefresh, .-HEVC_IsPicPPSRefresh
	.align	2
	.global	HEVC_UpdatePicPPS
	.type	HEVC_UpdatePicPPS, %function
HEVC_UpdatePicPPS:
	UNWIND(.fnstart)
	@ args = 0, pretend = 0, frame = 8
	@ frame_needed = 1, uses_anonymous_args = 0
	UNWIND(.movsp ip)
	mov	ip, sp
	stmfd	sp!, {r4, r5, r6, r7, r8, r9, r10, fp, ip, lr, pc}
	UNWIND(.pad #4)
	UNWIND(.save {r4, r5, r6, r7, r8, r9, r10, fp, ip, lr})
	UNWIND(.setfp fp, ip, #-4)
	sub	fp, ip, #4
	UNWIND(.pad #12)
	sub	sp, sp, #12
	ldrb	r3, [r2, #13]	@ zero_extendqisi2
	mov	r4, #0
	mov	r5, r2
	cmp	r3, r4
	mov	r6, r0
	mov	r7, r1
	strb	r4, [r2, #1]
	beq	.L727
	ldrb	r3, [r2, #15]	@ zero_extendqisi2
	cmp	r3, r4
	bne	.L745
	ldr	lr, [r2, #68]
	ldr	r3, [r1, #188]
	cmp	lr, #1
	add	r0, r2, lr, lsl #1
	strh	r3, [r0, #170]	@ movhi
	ble	.L739
	add	lr, lr, #42
	add	r2, r2, #86
	add	ip, r5, #170
	add	lr, r5, lr, lsl #1
.L738:
	ldrh	r1, [r2, #2]!
	cmp	r2, lr
	strh	r1, [ip, #2]!	@ movhi
	ldrh	r3, [r0, #170]
	rsb	r3, r1, r3
	strh	r3, [r0, #170]	@ movhi
	bne	.L738
.L739:
	ldr	lr, [r5, #72]
	ldr	r3, [r7, #192]
	cmp	lr, #1
	add	r0, r5, lr, lsl #1
	strh	r3, [r0, #210]	@ movhi
	ble	.L734
	add	lr, lr, #62
	add	r2, r5, #126
	add	ip, r5, #210
	add	lr, r5, lr, lsl #1
.L740:
	ldrh	r1, [r2, #2]!
	cmp	r2, lr
	strh	r1, [ip, #2]!	@ movhi
	ldrh	r3, [r0, #210]
	rsb	r3, r1, r3
	strh	r3, [r0, #210]	@ movhi
	bne	.L740
	b	.L734
.L727:
	ldr	r3, [r1, #188]
	strh	r3, [r2, #172]	@ movhi
	ldr	r3, [r1, #192]
	strh	r3, [r2, #212]	@ movhi
.L734:
	ldr	r3, [r6, #164]
	mov	r4, #1888
	ldr	ip, .L746
	mov	r2, r4
	ldr	r0, [r6, #2368]
	mov	r1, r5
	mul	r3, r4, r3
	ldr	ip, [ip, #52]
	sub	r3, r3, #1888
	add	r0, r0, r3
	blx	ip
	ldr	r2, [r6, #164]
	ldr	r3, [r6, #2368]
	mul	r4, r4, r2
	sub	r4, r4, #1888
	add	r4, r3, r4
	str	r4, [r6, #2392]
	sub	sp, fp, #40
	ldmfd	sp, {r4, r5, r6, r7, r8, r9, r10, fp, sp, pc}
.L745:
	ldr	r9, [r2, #68]
	cmp	r9, r4
	addgt	r3, r2, #170
	ble	.L733
.L732:
	ldr	r10, [r7, #188]
	add	r4, r4, #1
	mov	r1, r9
	str	r3, [fp, #-48]
	mul	r0, r10, r4
	bl	__aeabi_uidiv
	mov	r1, r9
	mov	r8, r0
	sub	r0, r4, #1
	mul	r0, r0, r10
	bl	__aeabi_uidiv
	ldr	r3, [fp, #-48]
	cmp	r4, r9
	rsb	r0, r0, r8
	strh	r0, [r3, #2]!	@ movhi
	bne	.L732
.L733:
	ldr	r9, [r5, #72]
	cmp	r9, #0
	addgt	r3, r5, #210
	movgt	r4, #0
	ble	.L734
.L735:
	ldr	r10, [r7, #192]
	add	r4, r4, #1
	mov	r1, r9
	str	r3, [fp, #-48]
	mul	r0, r10, r4
	bl	__aeabi_uidiv
	mov	r1, r9
	mov	r8, r0
	sub	r0, r4, #1
	mul	r0, r0, r10
	bl	__aeabi_uidiv
	ldr	r3, [fp, #-48]
	cmp	r4, r9
	rsb	r0, r0, r8
	strh	r0, [r3, #2]!	@ movhi
	bne	.L735
	b	.L734
.L747:
	.align	2
.L746:
	.word	vfmw_Osal_Func_Ptr_S
	UNWIND(.fnend)
	.size	HEVC_UpdatePicPPS, .-HEVC_UpdatePicPPS
	.align	2
	.global	HEVC_InitPicInfo
	.type	HEVC_InitPicInfo, %function
HEVC_InitPicInfo:
	UNWIND(.fnstart)
	@ args = 0, pretend = 0, frame = 0
	@ frame_needed = 1, uses_anonymous_args = 0
	UNWIND(.movsp ip)
	mov	ip, sp
	stmfd	sp!, {r4, r5, r6, r7, r8, r9, fp, ip, lr, pc}
	UNWIND(.pad #4)
	UNWIND(.save {r4, r5, r6, r7, r8, r9, fp, ip, lr})
	UNWIND(.setfp fp, ip, #-4)
	sub	fp, ip, #4
	add	r5, r0, #4096
	mov	r3, #1
	strb	r3, [r0, #3505]
	mov	r4, r0
	ldr	r3, [r5, #132]
	mvn	r2, #0
	ldr	ip, [r0, #2388]
	mov	r1, #0
	ldr	r0, [r0, #252]
	str	r3, [r4, #3508]
	ldr	lr, [r5, #116]
	ldr	r3, .L762
	str	r2, [r4, #3536]
	str	lr, [r4, #3516]
	ldr	r2, [ip, #64]
	ldr	r3, [r3, r0, asl #2]
	str	r2, [r4, #3524]
	ldr	r2, [ip, #68]
	str	r1, [r4, #3532]
	str	r2, [r4, #3528]
	ldrsb	r2, [r3, #44]
	cmp	r2, #1
	beq	.L761
.L749:
	ldr	r3, [r4, #2332]
	cmp	r3, #0
	bne	.L752
	ldr	ip, [r4, #2404]
	add	lr, r4, #4160
	mvn	r2, #0
	mvn	r3, #0
	ldrd	r0, [ip, #56]
	strd	r0, [lr, #-8]
	ldrd	r0, [ip, #72]
	strd	r0, [lr]
	ldrd	r0, [ip, #88]
	strd	r0, [lr, #8]
	ldr	r1, [ip, #104]
	str	r1, [r4, #3568]
	ldr	r1, [ip, #108]
	str	r1, [r4, #3572]
	ldr	r1, [ip, #112]
	str	r1, [r4, #3576]
	ldr	r1, [ip, #128]
	str	r1, [r4, #3580]
	strd	r2, [ip, #56]
	ldr	ip, [r4, #2388]
.L752:
	ldr	r2, [ip, #64]
	mov	r6, #0
	ldrb	r3, [r4, #3632]	@ zero_extendqisi2
	add	r0, r4, #3568
	str	r2, [r4, #3636]
	ldr	r2, [ip, #68]
	str	r6, [r4, #3620]
	str	r2, [r4, #3640]
	ldr	r2, [ip, #60]
	ldr	r1, [ip, #2084]
	subs	r2, r2, #1
	bfi	r3, r1, #5, #3
	movne	r2, #1
	bfi	r3, r2, #2, #3
	strb	r3, [r4, #3632]
	ldr	r1, [ip, #2068]
	and	r1, r1, #7
	bl	SetAspectRatio
	ldr	r3, [r4, #2332]
	cmp	r3, #1
	ldmeqfd	sp, {r4, r5, r6, r7, r8, r9, fp, sp, pc}
	ldr	r2, [r5, #116]
	ldr	r3, [r4, #3564]
	str	r2, [r3, #8]
	ldr	r3, [r4, #3564]
	ldr	r2, [r4, #3632]
	str	r2, [r3, #144]
	ldr	r3, [r4, #3564]
	ldr	r2, [r4, #3620]
	str	r2, [r3, #132]
	ldr	r3, [r4, #3564]
	ldr	r2, [r4, #3672]
	str	r2, [r3, #184]
	ldr	r3, [r4, #3564]
	ldr	r2, [r4, #3668]
	str	r2, [r3, #180]
	ldr	r3, [r4, #3564]
	ldr	r2, [r4, #3636]
	str	r2, [r3, #148]
	ldr	r3, [r4, #3564]
	ldr	r2, [r4, #3640]
	str	r2, [r3, #152]
	ldr	r3, [r4, #3564]
	ldr	r0, [r4, #252]
	ldr	r1, [r3, #28]
	bl	FSP_GetDispPhyFs
	cmp	r0, #0
	beq	.L754
	ldr	r3, [r4, #3620]
	mov	r1, r6
	ldr	r2, [r0, #4]
	subs	r3, r3, r6
	ldr	r0, [r4, #252]
	movne	r3, #1
	bl	FSP_SetStoreType
.L754:
	ldr	r3, [r4, #2388]
	mov	r6, #0
	ldr	ip, [r4, #3564]
	ldr	r2, [r3, #72]
	str	r2, [r4, #3788]
	ldr	r5, [r3, #76]
	str	r5, [r4, #3792]
	ldr	r1, [r3, #80]
	str	r1, [r4, #3796]
	ldr	lr, [r3, #84]
	str	lr, [r4, #3800]
	ldr	r0, [r3, #64]
	rsb	r2, r2, r0
	rsb	r2, r5, r2
	str	r2, [r4, #3644]
	ldr	r0, [r3, #68]
	rsb	r1, r1, r0
	rsb	r1, lr, r1
	str	r1, [r4, #3648]
	ldr	r1, [r3, #60]
	str	r1, [r4, #3732]
	ldr	r1, [r3, #88]
	str	r1, [r4, #3736]
	ldr	r3, [r3, #96]
	str	r3, [r4, #3740]
	ldr	r3, [ip, #164]
	str	r3, [r4, #3652]
	ldr	r3, [ip, #168]
	str	r3, [r4, #3656]
	str	r2, [ip, #156]
	ldr	r2, [r4, #3648]
	ldr	r3, [r4, #3564]
	str	r2, [r3, #160]
	ldr	r2, [r4, #3652]
	ldr	r3, [r4, #3564]
	str	r2, [r3, #164]
	ldr	r2, [r4, #3656]
	ldr	r3, [r4, #3564]
	str	r2, [r3, #168]
	ldr	r3, [r4, #3564]
	ldr	r2, [r4, #3736]
	str	r2, [r3, #248]
	ldr	r3, [r4, #3564]
	ldr	r2, [r4, #3740]
	str	r2, [r3, #252]
	str	r6, [r4, #3520]
	ldmfd	sp, {r4, r5, r6, r7, r8, r9, fp, sp, pc}
.L761:
	ldr	r2, [r3, #156]
	cmp	r2, r1
	bne	.L749
	ldr	r3, [r3, #160]
	cmp	r3, #1
	bne	.L749
	add	r3, r4, #8192
	ldrb	r3, [r3, #2912]	@ zero_extendqisi2
	cmp	r3, #1
	bne	.L749
	add	r8, r4, #11136
	movw	r3, #11152
	ldrd	r2, [r3, r4]
	ldrd	r0, [r8]
	cmp	r1, r3
	cmpeq	r0, r2
	bls	.L750
	subs	r6, r0, r2
	sbc	r7, r1, r3
	cmp	r7, #0
	cmpeq	r6, #16
	bls	.L750
.L751:
	ldr	r1, [r4, #260]
	rsb	lr, r1, lr
	adds	r2, r2, lr
	adc	r3, r3, lr, asr #31
	strd	r2, [r8]
	b	.L749
.L750:
	cmp	r1, r3
	cmpeq	r0, r2
	bcs	.L749
	subs	r0, r2, r0
	sbc	r1, r3, r1
	cmp	r1, #0
	cmpeq	r0, #16
	bls	.L749
	b	.L751
.L763:
	.align	2
.L762:
	.word	s_pstVfmwChan
	UNWIND(.fnend)
	.size	HEVC_InitPicInfo, .-HEVC_InitPicInfo
	.align	2
	.global	HEVC_RepairList
	.type	HEVC_RepairList, %function
HEVC_RepairList:
	UNWIND(.fnstart)
	@ args = 0, pretend = 0, frame = 8
	@ frame_needed = 1, uses_anonymous_args = 0
	UNWIND(.movsp ip)
	mov	ip, sp
	stmfd	sp!, {r4, r5, r6, r7, r8, r9, r10, fp, ip, lr, pc}
	UNWIND(.pad #4)
	UNWIND(.save {r4, r5, r6, r7, r8, r9, r10, fp, ip, lr})
	UNWIND(.setfp fp, ip, #-4)
	sub	fp, ip, #4
	UNWIND(.pad #20)
	sub	sp, sp, #20
	add	r3, r0, #4096
	mov	ip, r0
	ldr	r3, [r3, #124]
	cmp	r3, #1
	beq	.L781
	cmp	r3, #2
	beq	.L782
	cmp	r3, #0
	moveq	r3, #2
	streq	r3, [fp, #-48]
	beq	.L766
	ldr	r2, .L791
	mov	r0, #1
	ldr	r1, .L791+4
	bl	dprint_vfmw
	mvn	r0, #0
	sub	sp, fp, #40
	ldmfd	sp, {r4, r5, r6, r7, r8, r9, r10, fp, sp, pc}
.L781:
	str	r3, [fp, #-48]
.L766:
	add	r8, ip, #4224
	add	r9, ip, #2416
	add	r8, r8, #40
	mov	r10, #0
.L779:
	ldr	r1, [r8, #4]!
	cmp	r1, #0
	beq	.L769
	ldr	r3, [r9]
	cmp	r3, #0
	bne	.L783
	mov	r2, r9
	mov	r4, r3
	b	.L771
.L773:
	ldr	r6, [r2, #4]!
	cmp	r6, #0
	bne	.L789
.L771:
	add	r4, r4, #1
	cmp	r4, r1
	bne	.L773
	mov	r4, #255
.L772:
	ldr	r2, [ip, #2404]
	ldr	r2, [r2, #24]
	cmp	r2, #2
	bne	.L774
	ldr	r6, [ip, #3564]
	add	r6, r6, #56
.L770:
	mov	r7, r9
	mov	r5, #0
	b	.L780
.L776:
	ldr	r3, [r7, #4]!
.L780:
	cmp	r3, #0
	beq	.L790
.L775:
	ldr	r3, [r8]
	add	r5, r5, #1
	cmp	r3, r5
	bhi	.L776
.L777:
	ldr	r3, [fp, #-48]
	add	r10, r10, #1
	add	r9, r9, #68
	cmp	r10, r3
	bcc	.L779
.L782:
	mov	r0, #0
	sub	sp, fp, #40
	ldmfd	sp, {r4, r5, r6, r7, r8, r9, r10, fp, sp, pc}
.L769:
	ldr	r3, [ip, #2404]
	ldr	r3, [r3, #24]
	cmp	r3, #2
	moveq	r3, #1
	streq	r3, [r8]
	ldreq	r3, [ip, #3564]
	addeq	r3, r3, #56
	streq	r3, [r9]
	b	.L777
.L790:
	sxtb	r2, r4
	str	r5, [sp]
	str	r2, [sp, #4]
	mov	r3, r10
	ldr	r2, .L791
	mov	r0, #1
	ldr	r1, .L791+8
	str	ip, [fp, #-52]
	bl	dprint_vfmw
	str	r6, [r7]
	ldr	ip, [fp, #-52]
	b	.L775
.L789:
	uxtb	r4, r4
	cmp	r4, #255
	bne	.L770
	b	.L772
.L783:
	mov	r6, r3
	mov	r4, #0
	b	.L770
.L774:
	mov	r3, r10
	ldr	r2, .L791
	ldr	r1, .L791+12
	mov	r0, #1
	bl	dprint_vfmw
	mvn	r0, #0
	sub	sp, fp, #40
	ldmfd	sp, {r4, r5, r6, r7, r8, r9, r10, fp, sp, pc}
.L792:
	.align	2
.L791:
	.word	.LANCHOR0+264
	.word	.LC76
	.word	.LC78
	.word	.LC77
	UNWIND(.fnend)
	.size	HEVC_RepairList, .-HEVC_RepairList
	.align	2
	.global	HEVC_InitListX
	.type	HEVC_InitListX, %function
HEVC_InitListX:
	UNWIND(.fnstart)
	@ args = 0, pretend = 0, frame = 144
	@ frame_needed = 1, uses_anonymous_args = 0
	UNWIND(.movsp ip)
	mov	ip, sp
	stmfd	sp!, {r4, r5, r6, r7, r8, r9, r10, fp, ip, lr, pc}
	UNWIND(.pad #4)
	UNWIND(.save {r4, r5, r6, r7, r8, r9, r10, fp, ip, lr})
	UNWIND(.setfp fp, ip, #-4)
	sub	fp, ip, #4
	UNWIND(.pad #148)
	sub	sp, sp, #148
	subs	r8, r0, #0
	beq	.L829
	ldr	r3, .L861
	mov	r2, #136
	mov	r1, #0
	sub	r0, fp, #180
	ldr	r3, [r3, #48]
	blx	r3
	ldr	lr, [r8, #2600]
	cmp	lr, #0
	beq	.L830
	mov	r1, #0
	add	r0, r8, #2672
	mov	r3, r1
	b	.L797
.L796:
	cmp	r3, lr
	beq	.L795
.L797:
	ldr	r2, [r0, #4]!
	add	r3, r3, #1
	ldrb	ip, [r2, #1]	@ zero_extendqisi2
	cmp	ip, #1
	bne	.L796
	ldr	ip, [r2, #60]
	cmp	ip, #0
	bne	.L796
	ldr	ip, [r2, #64]
	cmp	ip, #1
	subeq	ip, fp, #44
	addeq	r2, r2, #56
	addeq	ip, ip, r1, lsl #2
	addeq	r1, r1, #1
	streq	r2, [ip, #-136]
	cmp	r3, lr
	bne	.L797
.L795:
	ldr	r4, [r8, #2604]
	cmp	r4, #0
	beq	.L831
	add	ip, r8, #2736
	mov	r0, r1
	add	ip, ip, #4
	mov	r3, #0
	b	.L800
.L799:
	cmp	r3, r4
	beq	.L857
.L800:
	ldr	r2, [ip, #4]!
	add	r3, r3, #1
	ldrb	lr, [r2, #1]	@ zero_extendqisi2
	cmp	lr, #1
	bne	.L799
	ldr	lr, [r2, #60]
	cmp	lr, #0
	bne	.L799
	ldr	lr, [r2, #64]
	cmp	lr, #1
	subeq	lr, fp, #44
	addeq	r2, r2, #56
	addeq	lr, lr, r0, lsl #2
	addeq	r0, r0, #1
	streq	r2, [lr, #-136]
	cmp	r3, r4
	bne	.L800
.L857:
	rsb	r4, r1, r0
.L798:
	ldr	r5, [r8, #2596]
	cmp	r5, #0
	beq	.L832
	add	lr, r8, #2800
	mov	r10, r0
	add	lr, lr, #8
	mov	r3, #0
	b	.L803
.L802:
	cmp	r3, r5
	beq	.L858
.L803:
	ldr	r2, [lr, #4]!
	add	r3, r3, #1
	ldrb	r6, [r2, #1]	@ zero_extendqisi2
	cmp	r6, #1
	bne	.L802
	ldr	r6, [r2, #60]
	cmp	r6, #1
	bne	.L802
	ldr	r6, [r2, #64]
	sub	ip, fp, #44
	add	r9, ip, r10, lsl #2
	add	r2, r2, #56
	cmp	r6, #0
	addeq	r10, r10, #1
	streq	r2, [r9, #-136]
	cmp	r3, r5
	bne	.L803
.L858:
	rsb	r5, r1, r10
	rsb	r5, r4, r5
.L801:
	cmp	r10, #0
	beq	.L859
	add	r3, r8, #4096
	str	r3, [fp, #-184]
	ldr	r3, [r3, #124]
	cmp	r3, #0
	str	r3, [fp, #-188]
	beq	.L860
	ldr	r3, [fp, #-184]
	ldr	r4, [r3, #180]
	ldr	r5, [r3, #184]
	cmp	r4, #0
	str	r4, [r3, #172]
	str	r5, [r3, #176]
	beq	.L822
.L828:
	ldr	r3, [fp, #-184]
	add	r7, r8, #2400
	add	r7, r7, #12
	mov	r6, #0
	ldrb	r9, [r3, #1200]	@ zero_extendqisi2
.L815:
	cmp	r9, #0
	mov	r1, r10
	mov	r0, r6
	ldrne	r1, [r7, #2888]
	bne	.L814
	bl	__aeabi_uidivmod
.L814:
	sub	r3, fp, #44
	add	r6, r6, #1
	add	r1, r3, r1, lsl #2
	cmp	r4, r6
	ldr	r1, [r1, #-136]
	str	r1, [r7, #4]!
	bhi	.L815
	ldr	r3, [fp, #-188]
	cmp	r3, #0
	bne	.L856
.L816:
	cmp	r5, #0
	beq	.L818
	ldr	r3, [fp, #-184]
	add	r6, r8, #2480
	mov	r4, #0
	ldrb	r7, [r3, #1201]	@ zero_extendqisi2
.L821:
	cmp	r7, #0
	mov	r1, r10
	mov	r0, r4
	ldrne	r1, [r6, #2948]
	bne	.L820
	bl	__aeabi_uidivmod
.L820:
	sub	r3, fp, #44
	add	r4, r4, #1
	add	r1, r3, r1, lsl #2
	cmp	r4, r5
	ldr	r3, [r1, #-68]
	str	r3, [r6, #4]!
	bne	.L821
.L856:
	ldr	r3, [fp, #-184]
	ldr	r4, [r3, #172]
	ldr	r5, [r3, #176]
.L817:
	cmp	r4, #16
	bhi	.L826
.L822:
	add	r4, r4, #600
	add	r2, r8, #2480
	add	r4, r4, #3
	add	r4, r8, r4, lsl #2
.L825:
	ldr	r3, [r8, #2416]
	str	r3, [r4, #4]!
	cmp	r4, r2
	bne	.L825
.L826:
	cmp	r5, #16
	bhi	.L824
	add	r5, r5, #620
	add	r2, r8, #2544
	add	r2, r2, #4
	add	r5, r8, r5, lsl #2
.L827:
	ldr	r3, [r8, #2484]
	str	r3, [r5, #4]!
	cmp	r5, r2
	bne	.L827
.L824:
	mov	r0, #0
.L855:
	sub	sp, fp, #40
	ldmfd	sp, {r4, r5, r6, r7, r8, r9, r10, fp, sp, pc}
.L860:
	cmp	r4, #0
	beq	.L807
	sub	r3, fp, #180
	sub	r2, fp, #116
	add	lr, r3, r1, lsl #2
	ldr	r3, [fp, #-188]
.L808:
	add	r3, r3, #1
	ldr	r6, [lr], #4
	cmp	r3, r4
	str	r6, [r2, #4]!
	bne	.L808
.L807:
	cmp	r1, #0
	beq	.L809
	add	r2, r4, #16
	sub	lr, fp, #180
	mov	r3, #0
	add	r2, lr, r2, lsl #2
.L810:
	add	r3, r3, #1
	ldr	r6, [lr], #4
	cmp	r3, r1
	str	r6, [r2, #4]!
	bne	.L810
	add	r4, r4, r3
.L809:
	cmp	r5, #0
	beq	.L811
	add	r4, r4, #16
	sub	r2, fp, #180
	sub	r3, fp, #180
	add	r4, r2, r4, lsl #2
	add	r0, r3, r0, lsl #2
	mov	r3, #0
.L812:
	add	r3, r3, #1
	ldr	r2, [r0], #4
	cmp	r3, r5
	str	r2, [r4, #4]!
	bne	.L812
.L811:
	ldr	r3, [fp, #-184]
	ldr	r4, [r3, #180]
	ldr	r5, [r3, #184]
	cmp	r4, #0
	str	r4, [r3, #172]
	str	r5, [r3, #176]
	bne	.L828
	b	.L816
.L859:
	ldr	r3, .L861
	add	r4, r8, #4096
	mov	r2, #136
	mov	r1, r10
	str	r10, [r4, #172]
	add	r0, r8, #2416
	ldr	r3, [r3, #48]
	str	r10, [r4, #176]
	blx	r3
	ldr	r3, [r8, #2404]
	ldr	r3, [r3, #24]
	cmp	r3, #2
	bne	.L824
	mov	r3, #1
	str	r3, [r4, #172]
	ldr	r3, [r8, #3564]
	mov	r0, r10
	add	r3, r3, #56
	str	r3, [r8, #2416]
	b	.L855
.L830:
	mov	r1, lr
	b	.L795
.L831:
	mov	r0, r1
	b	.L798
.L832:
	mov	r10, r0
	b	.L801
.L818:
	ldr	r3, .L861
	add	r0, r8, #2480
	add	r0, r0, #4
	mov	r2, #68
	add	r1, r8, #2416
	ldr	r3, [r3, #52]
	blx	r3
	ldr	r3, [fp, #-184]
	ldr	r4, [r3, #172]
	str	r4, [r3, #176]
	mov	r5, r4
	b	.L817
.L829:
	mvn	r0, #0
	b	.L855
.L862:
	.align	2
.L861:
	.word	vfmw_Osal_Func_Ptr_S
	UNWIND(.fnend)
	.size	HEVC_InitListX, .-HEVC_InitListX
	.align	2
	.global	HEVC_DecList
	.type	HEVC_DecList, %function
HEVC_DecList:
	UNWIND(.fnstart)
	@ args = 0, pretend = 0, frame = 0
	@ frame_needed = 1, uses_anonymous_args = 0
	UNWIND(.movsp ip)
	mov	ip, sp
	stmfd	sp!, {r4, r5, fp, ip, lr, pc}
	UNWIND(.pad #4)
	UNWIND(.save {r4, r5, fp, ip, lr})
	UNWIND(.setfp fp, ip, #-4)
	sub	fp, ip, #4
	add	r3, r0, #4096
	mov	r4, r0
	ldr	r2, [r3, #124]
	cmp	r2, #2
	beq	.L868
	bl	HEVC_InitListX
	cmp	r0, #0
	bne	.L869
	mov	r0, r4
	bl	HEVC_RepairList
	cmp	r0, #0
	ldmeqfd	sp, {r4, r5, fp, sp, pc}
	ldr	r1, .L870
	mov	r0, #1
	bl	dprint_vfmw
	mvn	r0, #0
	ldmfd	sp, {r4, r5, fp, sp, pc}
.L868:
	mov	r0, #0
	str	r0, [r3, #172]
	str	r0, [r3, #176]
	ldmfd	sp, {r4, r5, fp, sp, pc}
.L869:
	ldr	r1, .L870+4
	mov	r0, #1
	bl	dprint_vfmw
	mvn	r0, #0
	ldmfd	sp, {r4, r5, fp, sp, pc}
.L871:
	.align	2
.L870:
	.word	.LC80
	.word	.LC79
	UNWIND(.fnend)
	.size	HEVC_DecList, .-HEVC_DecList
	.align	2
	.global	HEVC_ArrangeMem
	.type	HEVC_ArrangeMem, %function
HEVC_ArrangeMem:
	UNWIND(.fnstart)
	@ args = 0, pretend = 0, frame = 24
	@ frame_needed = 1, uses_anonymous_args = 0
	UNWIND(.movsp ip)
	mov	ip, sp
	stmfd	sp!, {r4, r5, r6, fp, ip, lr, pc}
	UNWIND(.pad #4)
	UNWIND(.save {r4, r5, r6, fp, ip, lr})
	UNWIND(.setfp fp, ip, #-4)
	sub	fp, ip, #4
	UNWIND(.pad #36)
	sub	sp, sp, #36
	ldr	r2, [r0, #2388]
	mov	r4, r0
	movw	r1, #8160
	ldr	r6, [r2, #188]
	ldr	r5, [r2, #192]
	ldr	r2, [r2, #128]
	mov	r5, r5, asl r2
	mov	r6, r6, asl r2
	sub	r0, r5, #32
	sub	r2, r6, #32
	cmp	r2, r1
	cmpls	r0, r1
	movhi	r1, #1
	movls	r1, #0
	bhi	.L879
	ldr	r3, .L881
	mov	r2, #20
	sub	r0, fp, #48
	ldr	r3, [r3, #48]
	blx	r3
	ldr	r3, [r4, #2404]
	str	r6, [fp, #-44]
	str	r5, [fp, #-40]
	ldr	r3, [r3, #28]
	str	r6, [fp, #-36]
	cmp	r3, #24
	str	r5, [fp, #-32]
	beq	.L875
	ldrb	r3, [r4, #2584]	@ zero_extendqisi2
	strb	r3, [fp, #-47]
.L877:
	sub	r1, fp, #48
	ldr	r0, [r4, #252]
	strb	r3, [fp, #-45]
	bl	FSP_ConfigInstance
	cmp	r0, #0
	bne	.L880
	ldr	r1, [r4, #2404]
	sub	r3, fp, #52
	ldr	r0, [r4, #252]
	ldr	r2, [r1, #20]
	ldr	r1, [r1, #16]
	bl	FSP_ConfigFrameBuf
.L878:
	sub	sp, fp, #24
	ldmfd	sp, {r4, r5, r6, fp, sp, pc}
.L875:
	mov	r3, #1
	strb	r3, [fp, #-47]
	b	.L877
.L879:
	str	r5, [sp]
	mov	r3, r6
	ldr	r2, .L881+4
	mov	r0, #0
	ldr	r1, .L881+8
	bl	dprint_vfmw
	mvn	r0, #19
	sub	sp, fp, #24
	ldmfd	sp, {r4, r5, r6, fp, sp, pc}
.L880:
	ldr	r2, .L881+4
	mov	r0, #1
	ldr	r1, .L881+12
	bl	dprint_vfmw
	mvn	r0, #0
	b	.L878
.L882:
	.align	2
.L881:
	.word	vfmw_Osal_Func_Ptr_S
	.word	.LANCHOR0+280
	.word	.LC81
	.word	.LC82
	UNWIND(.fnend)
	.size	HEVC_ArrangeMem, .-HEVC_ArrangeMem
	.align	2
	.global	HEVC_RemoveApcStore
	.type	HEVC_RemoveApcStore, %function
HEVC_RemoveApcStore:
	UNWIND(.fnstart)
	@ args = 0, pretend = 0, frame = 0
	@ frame_needed = 1, uses_anonymous_args = 0
	UNWIND(.movsp ip)
	mov	ip, sp
	stmfd	sp!, {fp, ip, lr, pc}
	UNWIND(.pad #4)
	UNWIND(.save {fp, ip, lr})
	UNWIND(.setfp fp, ip, #-4)
	sub	fp, ip, #4
	UNWIND(.pad #8)
	sub	sp, sp, #8
	add	r3, r1, #652
	ldr	ip, [r0, r3, asl #2]
	ldr	r2, [ip, #32]
	cmp	r2, #0
	bne	.L886
	ldr	r3, [ip, #24]
	cmp	r3, #15
	bhi	.L883
	add	r3, r0, r3, lsl #2
	add	r1, r0, #12288
	add	r3, r3, #12288
	mov	lr, #16
	str	r2, [r3, #240]
	str	r2, [r3, #304]
	str	r2, [r3, #368]
	ldr	r3, [ip, #20]
	add	r0, r0, r3, lsl #2
	str	r2, [r0, #2132]
	str	lr, [ip, #24]
	ldr	r3, [r1, #236]
	sub	r3, r3, #1
	str	r3, [r1, #236]
.L883:
	sub	sp, fp, #12
	ldmfd	sp, {fp, sp, pc}
.L886:
	str	r2, [sp]
	mov	r3, r1
	ldr	r2, .L887
	mov	r0, #1
	ldr	r1, .L887+4
	bl	dprint_vfmw
	sub	sp, fp, #12
	ldmfd	sp, {fp, sp, pc}
.L888:
	.align	2
.L887:
	.word	.LANCHOR0+296
	.word	.LC83
	UNWIND(.fnend)
	.size	HEVC_RemoveApcStore, .-HEVC_RemoveApcStore
	.align	2
	.global	HEVC_RemoveUnusedApcStore
	.type	HEVC_RemoveUnusedApcStore, %function
HEVC_RemoveUnusedApcStore:
	UNWIND(.fnstart)
	@ args = 0, pretend = 0, frame = 0
	@ frame_needed = 1, uses_anonymous_args = 0
	UNWIND(.movsp ip)
	mov	ip, sp
	stmfd	sp!, {r4, r5, r6, r7, fp, ip, lr, pc}
	UNWIND(.pad #4)
	UNWIND(.save {r4, r5, r6, r7, fp, ip, lr})
	UNWIND(.setfp fp, ip, #-4)
	sub	fp, ip, #4
	ldr	r3, [r0, #2588]
	mov	r6, r0
	cmp	r3, #0
	ldmeqfd	sp, {r4, r5, r6, r7, fp, sp, pc}
	add	r5, r0, #2592
	mov	r4, #0
	add	r5, r5, #12
	b	.L892
.L891:
	ldr	r3, [r6, #2588]
	add	r4, r4, #1
	cmp	r4, r3
	bcs	.L895
.L892:
	ldr	r3, [r5, #4]!
	ldrb	r3, [r3, #1]	@ zero_extendqisi2
	cmp	r3, #0
	bne	.L891
	mov	r1, r4
	mov	r0, r6
	bl	HEVC_RemoveApcStore
	ldr	r3, [r6, #2588]
	add	r4, r4, #1
	cmp	r4, r3
	bcc	.L892
.L895:
	ldmfd	sp, {r4, r5, r6, r7, fp, sp, pc}
	UNWIND(.fnend)
	.size	HEVC_RemoveUnusedApcStore, .-HEVC_RemoveUnusedApcStore
	.align	2
	.global	HEVC_ApplyReferencePictureSet
	.type	HEVC_ApplyReferencePictureSet, %function
HEVC_ApplyReferencePictureSet:
	UNWIND(.fnstart)
	@ args = 0, pretend = 0, frame = 24
	@ frame_needed = 1, uses_anonymous_args = 0
	UNWIND(.movsp ip)
	mov	ip, sp
	stmfd	sp!, {r4, r5, r6, r7, r8, r9, r10, fp, ip, lr, pc}
	UNWIND(.pad #4)
	UNWIND(.save {r4, r5, r6, r7, r8, r9, r10, fp, ip, lr})
	UNWIND(.setfp fp, ip, #-4)
	sub	fp, ip, #4
	UNWIND(.pad #28)
	sub	sp, sp, #28
	add	r5, r0, #4096
	ldr	r2, [r0, #2368]
	mov	r6, #1888
	ldr	r1, [r5, #140]
	movw	lr, #12660
	ldr	r3, [r0, #2364]
	mov	ip, r0
	ldr	r4, [ip, #2588]
	mov	r0, #1
	mla	r2, r6, r1, r2
	cmp	r4, #0
	ldr	r2, [r2, #32]
	mla	r3, lr, r2, r3
	ldr	r3, [r3, #116]
	mov	r3, r0, asl r3
	str	r3, [fp, #-48]
	beq	.L896
	add	r3, ip, #2592
	add	r2, ip, #5120
	add	r3, r3, #12
	add	r2, r2, #44
	mov	r10, #0
	str	r2, [fp, #-64]
	mov	r2, r3
	mov	r3, r10
	mov	r10, r2
	b	.L913
.L899:
	ldr	r2, [ip, #2588]
	add	r3, r3, #1
	cmp	r3, r2
	bcs	.L896
.L913:
	ldr	r7, [r10, #4]!
	ldr	r2, [r5, #136]
	ldr	r1, [r7, #32]
	cmp	r1, r2
	bne	.L899
	ldr	r0, [r5, #1036]
	ldr	r2, [r5, #1040]
	ldr	r1, [r5, #1044]
	add	r2, r2, r0
	cmp	r2, r1
	mov	r8, r2
	ldrcs	r0, [r7, #8]
	movcs	r4, #0
	bcs	.L901
	add	r6, r2, #1296
	ldr	r9, [r7, #8]
	add	r6, r6, #12
	str	r3, [fp, #-60]
	mov	r3, r5
	mov	r4, #0
	add	r6, ip, r6, lsl #2
	mov	r5, r10
	mov	r10, r3
	str	ip, [fp, #-56]
.L907:
	ldr	r2, [r6, #-944]
	cmp	r2, #0
	ldr	r2, [r7, #60]
	beq	.L902
	cmp	r2, #0
	beq	.L903
	ldr	r2, [r6]
	cmp	r2, r9
	beq	.L934
.L903:
	cmp	r4, #0
	bne	.L918
	ldr	r1, [r6]
	mov	r4, r9
	b	.L915
.L902:
	cmp	r2, #0
	beq	.L905
	ldr	r1, [fp, #-48]
	mov	r0, r9
	bl	__aeabi_idivmod
	ldr	r0, [r6]
	str	r1, [fp, #-52]
	ldr	r1, [fp, #-48]
	bl	__aeabi_idivmod
	ldr	r2, [fp, #-52]
	cmp	r2, r1
	beq	.L934
.L905:
	cmp	r4, #0
	bne	.L918
	ldr	r2, [r6]
	mov	r0, r9
	ldr	r1, [fp, #-48]
	str	r2, [fp, #-52]
	bl	__aeabi_idivmod
	ldr	r2, [fp, #-52]
	mov	r0, r2
	mov	r4, r1
	ldr	r1, [fp, #-48]
	bl	__aeabi_idivmod
.L915:
	ldrb	r2, [r7, #1]	@ zero_extendqisi2
	rsb	r4, r1, r4
	clz	r4, r4
	cmp	r2, #0
	mov	r4, r4, lsr #5
	moveq	r4, #0
	cmp	r4, #0
	bne	.L935
.L918:
	mov	r0, r9
.L906:
	ldr	r2, [r10, #1044]
	add	r8, r8, #1
	add	r6, r6, #4
	mov	r9, r0
	cmp	r8, r2
	bcc	.L907
	mov	r2, r10
	mov	r10, r5
	mov	r5, r2
	ldr	r2, [r2, #1040]
	ldr	r1, [r5, #1036]
	ldr	r3, [fp, #-60]
	ldr	ip, [fp, #-56]
	add	r2, r2, r1
.L901:
	cmp	r2, #0
	ldr	lr, [r5, #116]
	beq	.L909
	ldr	r8, [fp, #-64]
	mov	r1, r7
	mov	r6, #0
	mov	r9, #1
	mov	r7, ip
.L911:
	ldr	r2, [r1, #60]
	add	r6, r6, #1
	cmp	r2, #0
	bne	.L910
	ldr	r2, [r8]
	add	r2, lr, r2
	cmp	r2, r0
	beq	.L936
.L910:
	ldr	r2, [r5, #1040]
	add	r8, r8, #4
	ldr	ip, [r5, #1036]
	add	r2, r2, ip
	cmp	r6, r2
	bcc	.L911
	mov	ip, r7
	mov	r7, r1
.L909:
	eor	r4, r4, #1
	cmp	r0, lr
	moveq	r0, #0
	andne	r0, r4, #1
	cmp	r0, #0
	beq	.L899
	mov	r2, #0
	strb	r2, [r7, #1]
	ldr	r2, [r10]
	mov	r1, #0
	str	r1, [r2, #60]
	ldr	r2, [r10]
	ldr	r1, [r2, #52]
	cmp	r1, #1
	beq	.L899
	ldr	r1, [r2, #28]
	mov	r2, #0
	ldr	r0, [ip, #252]
	str	r3, [fp, #-56]
	str	ip, [fp, #-52]
	bl	FSP_SetRef
	ldr	ip, [fp, #-52]
	ldr	r3, [fp, #-56]
	ldr	r2, [ip, #2588]
	add	r3, r3, #1
	cmp	r3, r2
	bcc	.L913
.L896:
	sub	sp, fp, #40
	ldmfd	sp, {r4, r5, r6, r7, r8, r9, r10, fp, sp, pc}
.L935:
	mov	r3, #1
	strb	r3, [r7, #1]
	ldr	r1, [r5]
	mov	r2, r3
	mov	r4, r3
	str	r3, [r1, #60]
	ldr	r1, [r5]
	str	r3, [r1, #48]
	ldr	r3, [fp, #-56]
	ldr	r1, [r5]
	ldr	r0, [r3, #252]
	ldr	r1, [r1, #28]
	bl	FSP_SetRef
	ldr	r7, [r5]
	ldr	r0, [r7, #8]
	b	.L906
.L936:
	strb	r9, [r1, #1]
	mov	r2, #1
	ldr	r1, [r10]
	mov	r4, r2
	str	r3, [fp, #-52]
	str	r9, [r1, #48]
	ldr	r1, [r10]
	ldr	r0, [r7, #252]
	ldr	r1, [r1, #28]
	bl	FSP_SetRef
	ldr	r1, [r10]
	ldr	lr, [r5, #116]
	ldr	r3, [fp, #-52]
	ldr	r0, [r1, #8]
	b	.L910
.L934:
	mov	r3, #1
	strb	r3, [r7, #1]
	ldr	r1, [r5]
	mov	r2, r3
	mov	r4, #1
	str	r3, [r1, #48]
	ldr	r3, [fp, #-56]
	ldr	r1, [r5]
	ldr	r0, [r3, #252]
	ldr	r1, [r1, #28]
	bl	FSP_SetRef
	ldr	r7, [r5]
	ldr	r0, [r7, #8]
	b	.L906
	UNWIND(.fnend)
	.size	HEVC_ApplyReferencePictureSet, .-HEVC_ApplyReferencePictureSet
	.align	2
	.global	HEVC_CheckThatAllRefPicsAreAvailable
	.type	HEVC_CheckThatAllRefPicsAreAvailable, %function
HEVC_CheckThatAllRefPicsAreAvailable:
	UNWIND(.fnstart)
	@ args = 0, pretend = 0, frame = 0
	@ frame_needed = 1, uses_anonymous_args = 0
	UNWIND(.movsp ip)
	mov	ip, sp
	stmfd	sp!, {fp, ip, lr, pc}
	UNWIND(.pad #4)
	UNWIND(.save {fp, ip, lr})
	UNWIND(.setfp fp, ip, #-4)
	sub	fp, ip, #4
	add	r3, r0, #4096
	ldr	r3, [r3, #132]
	sub	r3, r3, #19
	cmp	r3, #2
	bls	.L938
	sub	sp, fp, #12
	ldmia	sp, {fp, sp, lr}
	b	HEVC_CheckThatAllRefPicsAreAvailable.part.8
.L938:
	mov	r0, #1
	ldmfd	sp, {fp, sp, pc}
	UNWIND(.fnend)
	.size	HEVC_CheckThatAllRefPicsAreAvailable, .-HEVC_CheckThatAllRefPicsAreAvailable
	.align	2
	.global	HEVC_SetFrmRepeatCount
	.type	HEVC_SetFrmRepeatCount, %function
HEVC_SetFrmRepeatCount:
	UNWIND(.fnstart)
	@ args = 0, pretend = 0, frame = 0
	@ frame_needed = 1, uses_anonymous_args = 0
	UNWIND(.movsp ip)
	mov	ip, sp
	stmfd	sp!, {fp, ip, lr, pc}
	UNWIND(.pad #4)
	UNWIND(.save {fp, ip, lr})
	UNWIND(.setfp fp, ip, #-4)
	sub	fp, ip, #4
	ldr	r3, [r0, #2404]
	ldr	r3, [r3, #612]
	add	r3, r3, #2032
	add	r3, r3, #15
	cmp	r3, #4096
	movcc	r3, #0
	strcc	r3, [r1, #16]
	ldmccfd	sp, {fp, sp, pc}
	sub	sp, fp, #12
	ldmia	sp, {fp, sp, lr}
	b	HEVC_SetFrmRepeatCount.part.9
	UNWIND(.fnend)
	.size	HEVC_SetFrmRepeatCount, .-HEVC_SetFrmRepeatCount
	.align	2
	.global	HEVC_GetFreeFrameStoreNum
	.type	HEVC_GetFreeFrameStoreNum, %function
HEVC_GetFreeFrameStoreNum:
	UNWIND(.fnstart)
	@ args = 0, pretend = 0, frame = 0
	@ frame_needed = 1, uses_anonymous_args = 0
	UNWIND(.movsp ip)
	mov	ip, sp
	stmfd	sp!, {r4, r5, fp, ip, lr, pc}
	UNWIND(.pad #4)
	UNWIND(.save {r4, r5, fp, ip, lr})
	UNWIND(.setfp fp, ip, #-4)
	sub	fp, ip, #4
	add	r2, r0, #12672
	add	r4, r0, #26880
	add	r2, r2, #48
	add	r4, r4, #80
	mov	r5, #0
.L946:
	ldr	r3, [r2, #48]
	cmp	r3, #0
	bne	.L942
	cmp	r2, #0
	beq	.L943
	ldr	lr, [r0, #2588]
	cmp	lr, #0
	beq	.L943
	ldr	r1, [r0, #2608]
	cmp	r1, r2
	beq	.L942
	add	r1, r0, #2608
	b	.L944
.L945:
	ldr	ip, [r1, #4]!
	cmp	ip, r2
	beq	.L942
.L944:
	add	r3, r3, #1
	cmp	r3, lr
	bne	.L945
.L943:
	add	r5, r5, #1
.L942:
	add	r2, r2, #712
	cmp	r2, r4
	bne	.L946
	mov	r0, r5
	ldmfd	sp, {r4, r5, fp, sp, pc}
	UNWIND(.fnend)
	.size	HEVC_GetFreeFrameStoreNum, .-HEVC_GetFreeFrameStoreNum
	.align	2
	.global	HEVC_UpdateReflist
	.type	HEVC_UpdateReflist, %function
HEVC_UpdateReflist:
	UNWIND(.fnstart)
	@ args = 0, pretend = 0, frame = 8
	@ frame_needed = 1, uses_anonymous_args = 0
	UNWIND(.movsp ip)
	mov	ip, sp
	stmfd	sp!, {r4, r5, r6, r7, r8, r9, r10, fp, ip, lr, pc}
	UNWIND(.pad #4)
	UNWIND(.save {r4, r5, r6, r7, r8, r9, r10, fp, ip, lr})
	UNWIND(.setfp fp, ip, #-4)
	sub	fp, ip, #4
	UNWIND(.pad #12)
	sub	sp, sp, #12
	add	r4, r0, #4096
	mov	r6, r0
	ldr	r1, [r4, #1036]
	cmp	r1, #0
	beq	.L976
	add	r9, r0, #5120
	mov	r7, #0
	mov	r5, r7
	mov	r8, r9
	add	r9, r9, #23
	add	r8, r8, #44
.L962:
	ldrb	r3, [r9, #1]!	@ zero_extendqisi2
	cmp	r3, #0
	beq	.L958
	ldr	lr, [r6, #2588]
	ldr	ip, [r4, #116]
	ldr	r3, [r8]
	cmp	lr, #0
	add	ip, ip, r3
	beq	.L958
	add	r1, r6, #2592
	mov	r3, #0
	add	r1, r1, #12
	b	.L961
.L959:
	add	r3, r3, #1
	cmp	r3, lr
	beq	.L958
.L961:
	ldr	r2, [r1, #4]!
	ldr	r0, [r2, #8]
	cmp	r0, ip
	bne	.L959
	ldr	r10, [r4, #136]
	ldr	r0, [r2, #32]
	cmp	r10, r0
	bne	.L959
	add	r10, r6, r3, lsl #2
	mov	r3, #1
	strb	r3, [r2, #1]
	ldr	r3, [r10, #2608]
	ldrb	r2, [r3, #1]	@ zero_extendqisi2
	cmp	r2, #0
	bne	.L1002
.L960:
	mov	r2, #1
	str	r2, [r3, #64]
	ldr	r2, [r10, #2608]
	mov	r1, #0
	add	r3, r6, r7, lsl #2
	add	r7, r7, #1
	str	r1, [r2, #60]
	ldr	r2, [r10, #2608]
	str	r2, [r3, #2676]
.L958:
	ldr	r1, [r4, #1036]
	add	r5, r5, #1
	add	r8, r8, #4
	cmp	r1, r5
	bhi	.L962
.L957:
	ldr	r2, [r6, #2584]
	str	r7, [r6, #2600]
	cmp	r2, r7
	addhi	r3, r7, #668
	movhi	r0, #0
	addhi	r3, r6, r3, lsl #2
	bls	.L967
.L966:
	add	r7, r7, #1
	str	r0, [r3, #4]!
	cmp	r7, r2
	bne	.L966
.L967:
	ldr	r3, [r4, #1040]
	add	r10, r1, r3
	cmp	r10, r5
	movls	r7, #0
	bls	.L965
	add	r8, r5, #1280
	add	r9, r5, #5120
	add	r8, r8, #11
	add	r9, r9, #23
	add	r9, r6, r9
	mov	r7, #0
	add	r8, r6, r8, lsl #2
	str	r7, [fp, #-48]
.L972:
	ldrb	r3, [r9, #1]!	@ zero_extendqisi2
	cmp	r3, #0
	beq	.L968
	ldr	ip, [r6, #2588]
	ldr	r0, [r4, #116]
	ldr	r3, [r8]
	cmp	ip, #0
	add	r0, r0, r3
	beq	.L968
	add	r1, r6, #2592
	mov	r3, #0
	add	r1, r1, #12
	b	.L971
.L969:
	add	r3, r3, #1
	cmp	r3, ip
	beq	.L968
.L971:
	ldr	r2, [r1, #4]!
	ldr	lr, [r2, #8]
	cmp	lr, r0
	bne	.L969
	ldr	r7, [r4, #136]
	ldr	lr, [r2, #32]
	cmp	r7, lr
	bne	.L969
	add	r7, r6, r3, lsl #2
	mov	r3, #1
	strb	r3, [r2, #1]
	ldr	r3, [r7, #2608]
	ldrb	r2, [r3, #1]	@ zero_extendqisi2
	cmp	r2, #0
	bne	.L1003
.L970:
	mov	r2, #1
	str	r2, [r3, #64]
	ldr	r2, [r7, #2608]
	ldr	r1, [fp, #-48]
	add	r3, r1, #684
	add	r1, r1, #1
	str	r1, [fp, #-48]
	mov	r1, #0
	str	r1, [r2, #60]
	add	r3, r3, #2
	ldr	r2, [r7, #2608]
	str	r2, [r6, r3, asl #2]
.L968:
	add	r5, r5, #1
	add	r8, r8, #4
	cmp	r10, r5
	bhi	.L972
	ldr	r7, [fp, #-48]
	ldr	r2, [r6, #2584]
.L965:
	cmp	r2, r7
	str	r7, [r6, #2604]
	bls	.L956
	add	r1, r7, #684
	mov	r3, #0
	add	r1, r1, #1
	add	r6, r6, r1, lsl #2
.L974:
	add	r7, r7, #1
	str	r3, [r6, #4]!
	cmp	r7, r2
	bne	.L974
.L956:
	sub	sp, fp, #40
	ldmfd	sp, {r4, r5, r6, r7, r8, r9, r10, fp, sp, pc}
.L1002:
	ldr	r1, [r3, #28]
	mov	r2, #1
	ldr	r0, [r6, #252]
	bl	FSP_SetRef
	ldr	r3, [r10, #2608]
	b	.L960
.L1003:
	ldr	r1, [r3, #28]
	mov	r2, #1
	ldr	r0, [r6, #252]
	bl	FSP_SetRef
	ldr	r3, [r7, #2608]
	b	.L970
.L976:
	mov	r7, r1
	mov	r5, r1
	b	.L957
	UNWIND(.fnend)
	.size	HEVC_UpdateReflist, .-HEVC_UpdateReflist
	.align	2
	.global	HEVC_UpdateLTReflist
	.type	HEVC_UpdateLTReflist, %function
HEVC_UpdateLTReflist:
	UNWIND(.fnstart)
	@ args = 0, pretend = 0, frame = 16
	@ frame_needed = 1, uses_anonymous_args = 0
	UNWIND(.movsp ip)
	mov	ip, sp
	stmfd	sp!, {r4, r5, r6, r7, r8, r9, r10, fp, ip, lr, pc}
	UNWIND(.pad #4)
	UNWIND(.save {r4, r5, r6, r7, r8, r9, r10, fp, ip, lr})
	UNWIND(.setfp fp, ip, #-4)
	sub	fp, ip, #4
	UNWIND(.pad #20)
	sub	sp, sp, #20
	add	r5, r0, #4096
	mov	r7, r0
	ldr	r0, [r0, #2368]
	ldr	r3, [r5, #140]
	mov	r4, #1888
	ldr	r2, [r5, #1036]
	movw	lr, #12660
	ldr	ip, [r7, #2364]
	mov	r1, #1
	mla	r0, r4, r3, r0
	ldr	r4, [r5, #1040]
	ldr	r3, [r5, #1044]
	add	r2, r2, r4
	sub	r2, r2, #1
	sub	r10, r3, #1
	cmp	r10, r2
	ldr	r0, [r0, #32]
	mla	r2, lr, r0, ip
	ldr	r2, [r2, #116]
	mov	r2, r1, asl r2
	ble	.L1015
	add	r9, r3, #1296
	add	r3, r3, #5120
	add	r9, r9, #11
	add	r3, r3, #24
	add	r3, r7, r3
	sub	r4, r2, #1
	add	r9, r7, r9, lsl #2
	mov	r8, #0
	str	r8, [fp, #-52]
	mov	r8, r3
	str	r1, [fp, #-56]
.L1011:
	ldrb	r3, [r8, #-1]!	@ zero_extendqisi2
	cmp	r3, #0
	beq	.L1006
	ldrb	r0, [r9, #-944]	@ zero_extendqisi2
	ldr	ip, [r9]
	ldr	lr, [r7, #2588]
	cmp	r0, #0
	andeq	ip, ip, r4
	cmp	lr, #0
	ble	.L1006
	add	r1, r7, #2592
	mov	r3, #0
	add	r1, r1, #12
	str	r7, [fp, #-48]
	b	.L1010
.L1009:
	add	r3, r3, #1
	cmp	r3, lr
	beq	.L1022
.L1010:
	ldr	r2, [r1, #4]!
	cmp	r0, #0
	ldr	r6, [r2, #8]
	andeq	r6, r6, r4
	cmp	ip, r6
	bne	.L1009
	ldr	r6, [r5, #136]
	ldr	r7, [r2, #32]
	cmp	r7, r6
	bne	.L1009
	ldr	r7, [fp, #-48]
	mov	ip, #0
	ldr	r1, [fp, #-52]
	ldr	r0, [fp, #-56]
	add	r3, r7, r3, lsl #2
	strb	r0, [r2, #1]
	add	r2, r7, r1, lsl #2
	add	r1, r1, #1
	str	r1, [fp, #-52]
	ldr	r1, [r3, #2608]
	str	ip, [r1, #64]
	ldr	r1, [r3, #2608]
	str	r0, [r1, #60]
	ldr	r3, [r3, #2608]
	str	r3, [r2, #2812]
.L1006:
	ldr	r3, [r5, #1036]
	sub	r10, r10, #1
	ldr	r2, [r5, #1040]
	sub	r9, r9, #4
	add	r3, r3, r2
	sub	r3, r3, #1
	cmp	r3, r10
	blt	.L1011
	ldr	r8, [fp, #-52]
	mov	r3, r8
.L1005:
	ldr	r2, [r7, #2584]
	str	r3, [r7, #2596]
	cmp	r2, r8
	ble	.L1004
	add	r3, r8, #700
	mov	r1, #0
	add	r3, r3, #2
	add	r3, r7, r3, lsl #2
.L1013:
	add	r8, r8, #1
	str	r1, [r3, #4]!
	cmp	r8, r2
	bne	.L1013
.L1004:
	sub	sp, fp, #40
	ldmfd	sp, {r4, r5, r6, r7, r8, r9, r10, fp, sp, pc}
.L1022:
	ldr	r7, [fp, #-48]
	b	.L1006
.L1015:
	mov	r3, #0
	mov	r8, r3
	b	.L1005
	UNWIND(.fnend)
	.size	HEVC_UpdateLTReflist, .-HEVC_UpdateLTReflist
	.align	2
	.global	HEVC_GetAPC
	.type	HEVC_GetAPC, %function
HEVC_GetAPC:
	UNWIND(.fnstart)
	@ args = 0, pretend = 0, frame = 0
	@ frame_needed = 1, uses_anonymous_args = 0
	UNWIND(.movsp ip)
	mov	ip, sp
	stmfd	sp!, {r4, r5, r6, r7, fp, ip, lr, pc}
	UNWIND(.pad #4)
	UNWIND(.save {r4, r5, r6, r7, fp, ip, lr})
	UNWIND(.setfp fp, ip, #-4)
	sub	fp, ip, #4
	UNWIND(.pad #16)
	sub	sp, sp, #16
	subs	r5, r1, #0
	mov	r6, r0
	beq	.L1041
	ldr	r7, [r0, #3512]
	mov	r3, #200
	movw	r1, #12520
	mul	r3, r3, r7
	add	r2, r0, r3
	ldr	ip, [r2, r1]
	cmp	ip, #0
	beq	.L1026
	movw	r1, #12528
	ldr	r4, [r2, r1]
	cmp	r4, #0
	addne	r3, r3, #12480
	addne	r3, r3, #48
	movne	r4, #0
	addne	r3, r0, r3
	bne	.L1029
	b	.L1027
.L1032:
	ldr	r2, [r3, #4]!
	cmp	r2, #0
	beq	.L1027
.L1029:
	add	r4, r4, #1
	cmp	r4, ip
	bne	.L1032
.L1026:
	ldr	r1, .L1042
	mov	r0, #0
	bl	dprint_vfmw
	mvn	r0, #0
.L1039:
	sub	sp, fp, #28
	ldmfd	sp, {r4, r5, r6, r7, fp, sp, pc}
.L1027:
	ldr	r1, [r5, #28]
	ldr	r0, [r6, #252]
	bl	FSP_GetLogicFs
	subs	ip, r0, #0
	beq	.L1030
	ldr	r3, [ip, #28]
	cmp	r3, #0
	beq	.L1030
	mov	r2, #50
	mov	r3, #200
	mla	r2, r2, r7, r4
	mov	lr, #1
	mla	r7, r3, r7, r6
	ldr	r1, .L1042+4
	mov	r3, r4
	mov	r0, #13
	add	r6, r6, r2, lsl #2
	add	r7, r7, #12480
	add	r6, r6, #12288
	str	lr, [r6, #240]
	ldr	r2, [ip, #28]
	ldr	r2, [r2, #4]
	str	r2, [r6, #304]
	ldr	r2, [r5, #8]
	str	r2, [r6, #368]
	ldr	r2, [r7, #44]
	add	r2, r2, lr
	str	r2, [r7, #44]
	ldr	r2, [r5, #228]
	bl	dprint_vfmw
	mov	r0, #0
	str	r4, [r5, #24]
	sub	sp, fp, #28
	ldmfd	sp, {r4, r5, r6, r7, fp, sp, pc}
.L1030:
	ldrb	r1, [r5, #1]	@ zero_extendqisi2
	mov	r0, #0
	ldr	r2, [r5, #28]
	ldr	r3, [r5, #8]
	stmia	sp, {r1, ip}
	str	r0, [sp, #8]
	ldr	r1, .L1042+8
	bl	dprint_vfmw
	mvn	r0, #0
	b	.L1039
.L1041:
	mov	r0, r5
	movw	r3, #11486
	ldr	r2, .L1042+12
	ldr	r1, .L1042+16
	bl	dprint_vfmw
	mvn	r0, #0
	b	.L1039
.L1043:
	.align	2
.L1042:
	.word	.LC88
	.word	.LC86
	.word	.LC87
	.word	.LC84
	.word	.LC85
	UNWIND(.fnend)
	.size	HEVC_GetAPC, .-HEVC_GetAPC
	.align	2
	.global	HEVC_CheckFrameStore
	.type	HEVC_CheckFrameStore, %function
HEVC_CheckFrameStore:
	UNWIND(.fnstart)
	@ args = 0, pretend = 0, frame = 0
	@ frame_needed = 1, uses_anonymous_args = 0
	UNWIND(.movsp ip)
	mov	ip, sp
	stmfd	sp!, {r4, fp, ip, lr, pc}
	UNWIND(.pad #4)
	UNWIND(.save {r4, fp, ip, lr})
	UNWIND(.setfp fp, ip, #-4)
	sub	fp, ip, #4
	UNWIND(.pad #12)
	sub	sp, sp, #12
	mov	r4, r1
	ldr	r0, [r0, #252]
	ldr	r1, [r1, #28]
	bl	FSP_GetLogicFs
	cmp	r0, #0
	beq	.L1045
	ldrsb	r2, [r0, #1]
	cmp	r2, #3
	cmpne	r2, #0
	moveq	r0, #1
	movne	r0, #0
	beq	.L1064
	ldr	r3, [r4, #52]
	cmp	r3, #1
	beq	.L1051
	ldr	r2, [r4, #48]
	ldrb	r3, [r4]	@ zero_extendqisi2
	cmp	r2, #0
	beq	.L1050
	cmp	r3, #1
	beq	.L1050
.L1061:
	sub	sp, fp, #16
	ldmfd	sp, {r4, fp, sp, pc}
.L1064:
	ldr	r3, [r4, #28]
	mov	r0, #13
	str	r2, [sp]
	ldr	r1, .L1065
	ldr	r2, .L1065+4
	bl	dprint_vfmw
.L1047:
	ldr	r3, [r4, #52]
	cmp	r3, #1
	beq	.L1051
	ldr	r3, [r4, #8]
	mov	r0, #1
	ldr	r2, .L1065+4
	ldr	r1, .L1065+8
	bl	dprint_vfmw
	mvn	r0, #2
	b	.L1061
.L1045:
	ldr	lr, [r4, #28]
	mov	r2, r4
	ldr	ip, [r4, #52]
	mov	r0, #1
	ldr	r3, [r4, #8]
	ldr	r1, .L1065+12
	stmia	sp, {ip, lr}
	bl	dprint_vfmw
	b	.L1047
.L1050:
	str	r3, [sp, #4]
	mov	r0, #1
	str	r2, [sp]
	mov	r3, r4
	ldr	r2, .L1065+4
	ldr	r1, .L1065+16
	bl	dprint_vfmw
	mvn	r0, #0
	b	.L1061
.L1051:
	mov	r2, #1
	mov	r3, #2
	strb	r2, [r4, #2]
	mvn	r0, #2
	str	r3, [r4, #52]
	b	.L1061
.L1066:
	.align	2
.L1065:
	.word	.LC89
	.word	.LANCHOR0+316
	.word	.LC91
	.word	.LC90
	.word	.LC92
	UNWIND(.fnend)
	.size	HEVC_CheckFrameStore, .-HEVC_CheckFrameStore
	.align	2
	.global	HEVC_GetImagePara
	.type	HEVC_GetImagePara, %function
HEVC_GetImagePara:
	UNWIND(.fnstart)
	@ args = 0, pretend = 0, frame = 8
	@ frame_needed = 1, uses_anonymous_args = 0
	UNWIND(.movsp ip)
	mov	ip, sp
	stmfd	sp!, {r4, r5, r6, r7, r8, r9, r10, fp, ip, lr, pc}
	UNWIND(.pad #4)
	UNWIND(.save {r4, r5, r6, r7, r8, r9, r10, fp, ip, lr})
	UNWIND(.setfp fp, ip, #-4)
	sub	fp, ip, #4
	UNWIND(.pad #20)
	sub	sp, sp, #20
	add	r8, r1, #672
	mov	r4, r1
	mvn	r7, #0
	ldrd	r2, [r8, #-8]
	mvn	r6, #0
	ldr	r1, [r1, #12]
	mov	r5, r0
	cmp	r3, r7
	cmpeq	r2, r6
	str	r1, [fp, #-52]
	beq	.L1069
	ldr	r3, [r0, #2588]
	cmp	r3, #0
	beq	.L1069
	add	r10, r0, #2592
	mvn	r6, #1
	add	r10, r10, #12
	mvn	r7, #0
	mov	r9, #0
	mvn	r3, #0
	str	r3, [fp, #-48]
.L1072:
	ldr	r2, [r10, #4]!
	cmp	r2, #0
	beq	.L1071
	ldr	r1, [r2, #28]
	ldr	r0, [r5, #252]
	bl	FSP_GetLogicFs
	cmp	r0, #0
	beq	.L1071
	ldrsb	r2, [r0, #1]
	cmp	r2, #3
	cmpne	r2, #0
	beq	.L1071
	ldr	r2, [r10]
	add	r2, r2, #672
	ldrd	r0, [r2, #-8]
	cmp	r1, r7
	cmpeq	r0, r6
	strcc	r9, [fp, #-48]
	movcc	r6, r0
	movcc	r7, r1
.L1071:
	ldr	r2, [r5, #2588]
	add	r9, r9, #1
	cmp	r9, r2
	bcc	.L1072
	ldr	r3, [fp, #-48]
	cmn	r3, #1
	beq	.L1069
	ldrd	r2, [r8, #-8]
	cmp	r3, r7
	cmpeq	r2, r6
	bhi	.L1104
.L1069:
	ldrb	r3, [r4, #145]	@ zero_extendqisi2
	ldrb	r2, [r4, #144]	@ zero_extendqisi2
	and	r3, r3, #195
	bfc	r3, #0, #2
	bfc	r2, #0, #2
	strb	r3, [r4, #145]
	strb	r2, [r4, #144]
	ldr	r3, [r5, #144]
	str	r3, [r4, #188]
	ldr	r3, [r5, #2384]
	ldrh	r3, [r3, #124]
	cmp	r3, #1
	moveq	r2, #0
	beq	.L1073
	movw	r2, #257
	cmp	r3, r2
	movne	r2, #1
	bne	.L1073
	ldr	r2, [r5, #2892]
	subs	r2, r2, #1
	movne	r2, #1
.L1073:
	ldr	r3, [r5, #2388]
	ldrb	r3, [r3, #2066]	@ zero_extendqisi2
	cmp	r3, #0
	moveq	ip, #3
	beq	.L1074
	ldr	r3, [r4, #40]
	cmp	r3, #1
	cmpne	r3, #11
	moveq	ip, #1
	bne	.L1105
.L1075:
	ldr	r2, [r4, #44]
	clz	r2, r2
	mov	r2, r2, lsr #5
.L1074:
	ldrb	r3, [r4, #145]	@ zero_extendqisi2
	mov	r0, #2
	ldr	r1, [r4, #48]
	bfi	r3, r0, #4, #2
	ldr	r6, [fp, #-52]
	cmp	r1, #0
	bfi	r3, ip, #2, #2
	bfi	r3, r2, #0, #2
	ldrb	lr, [r4, #4]	@ zero_extendqisi2
	strb	r3, [r4, #145]
	ldrne	r3, [r4, #16]
	ldrb	r0, [r4, #144]	@ zero_extendqisi2
	ldrb	r1, [r4, #146]	@ zero_extendqisi2
	ldrb	ip, [r4, #3]	@ zero_extendqisi2
	bfi	r0, r6, #0, #2
	strne	r3, [r4, #232]
	str	lr, [r4, #200]
	bfi	r1, ip, #1, #1
	strb	r0, [r4, #144]
	strb	r1, [r4, #146]
	ldr	r3, [r5, #2404]
	ldr	r1, [r4, #28]
	ldr	r3, [r3, #596]
	str	r3, [r4, #204]
	ldr	r3, [r5, #2404]
	ldr	r3, [r3, #600]
	str	r3, [r4, #208]
	ldr	r3, [r5, #2404]
	ldr	r3, [r3, #604]
	str	r3, [r4, #212]
	ldr	r0, [r5, #252]
	bl	FSP_GetFsImagePtr
	subs	r5, r0, #0
	beq	.L1067
	ldr	r3, .L1106
	mov	r2, #632
	add	r1, r4, #80
	ldr	r3, [r3, #52]
	blx	r3
	mov	r3, #16
	str	r3, [r5, #296]
	mov	r3, #1
	ldr	r2, [r4, #56]
	strb	r3, [r5, #291]
	cmp	r2, #0
	strb	r3, [r5, #289]
	moveq	r3, #0
	movne	r3, #4
	strb	r3, [r5, #284]
	ldr	r3, [r4, #68]
	str	r3, [r5, #236]
.L1067:
	sub	sp, fp, #40
	ldmfd	sp, {r4, r5, r6, r7, r8, r9, r10, fp, sp, pc}
.L1105:
	bic	r3, r3, #8
	cmp	r3, #2
	moveq	ip, #2
	movne	ip, #3
	b	.L1075
.L1104:
	ldr	r0, [r5, #252]
	strd	r6, [sp]
	bl	IsPtsRewind
	cmp	r0, #0
	bne	.L1069
	ldrd	r2, [r8, #-8]
	mov	r0, #29
	ldr	r1, .L1106+4
	strd	r6, [sp]
	bl	dprint_vfmw
	ldr	r3, [fp, #-48]
	add	r10, r3, #652
	ldrd	r2, [r8, #-8]
	ldr	r1, [r5, r10, asl #2]
	add	r1, r1, #672
	strd	r2, [r1, #-8]
	strd	r6, [r8, #-8]
	b	.L1069
.L1107:
	.align	2
.L1106:
	.word	vfmw_Osal_Func_Ptr_S
	.word	.LC93
	UNWIND(.fnend)
	.size	HEVC_GetImagePara, .-HEVC_GetImagePara
	.align	2
	.global	HEVC_CheckOutputImage
	.type	HEVC_CheckOutputImage, %function
HEVC_CheckOutputImage:
	UNWIND(.fnstart)
	@ args = 0, pretend = 0, frame = 0
	@ frame_needed = 1, uses_anonymous_args = 0
	UNWIND(.movsp ip)
	mov	ip, sp
	stmfd	sp!, {fp, ip, lr, pc}
	UNWIND(.pad #4)
	UNWIND(.save {fp, ip, lr})
	UNWIND(.setfp fp, ip, #-4)
	sub	fp, ip, #4
	cmp	r1, #19
	bhi	.L1110
	mov	r3, #712
	mla	r1, r3, r1, r0
	add	r1, r1, #12672
	ldrb	r0, [r1, #49]	@ zero_extendqisi2
	adds	r0, r0, #0
	movne	r0, #1
	ldmfd	sp, {fp, sp, pc}
.L1110:
	mvn	r0, #0
	ldmfd	sp, {fp, sp, pc}
	UNWIND(.fnend)
	.size	HEVC_CheckOutputImage, .-HEVC_CheckOutputImage
	.align	2
	.global	HEVC_DECRecycleImage
	.type	HEVC_DECRecycleImage, %function
HEVC_DECRecycleImage:
	UNWIND(.fnstart)
	@ args = 0, pretend = 0, frame = 0
	@ frame_needed = 1, uses_anonymous_args = 0
	UNWIND(.movsp ip)
	mov	ip, sp
	stmfd	sp!, {r4, r5, r6, r7, r8, r9, fp, ip, lr, pc}
	UNWIND(.pad #4)
	UNWIND(.save {r4, r5, r6, r7, r8, r9, fp, ip, lr})
	UNWIND(.setfp fp, ip, #-4)
	sub	fp, ip, #4
	mov	r8, r0
	ldr	r0, [r0, #252]
	mov	r9, r1
	bl	FSP_GetLogicFs
	cmp	r0, #0
	beq	.L1116
	ldrsb	r3, [r0, #1]
	cmp	r3, #0
	addne	r4, r0, #576
	addne	r5, r0, #608
	movne	r6, #0
	movne	r7, #0
	beq	.L1121
.L1115:
	ldr	r1, [r4, #8]!
	cmp	r1, #0
	beq	.L1114
	ldr	r0, [r8, #252]
	bl	FreeUsdByDec
	strd	r6, [r4]
.L1114:
	cmp	r4, r5
	bne	.L1115
	ldr	r0, [r8, #252]
	mov	r1, r9
	mov	r2, #0
	bl	FSP_SetDisplay
	mov	r0, #0
	ldmfd	sp, {r4, r5, r6, r7, r8, r9, fp, sp, pc}
.L1121:
	ldr	r1, .L1122
	mov	r0, #1
	bl	dprint_vfmw
	mvn	r0, #0
	ldmfd	sp, {r4, r5, r6, r7, r8, r9, fp, sp, pc}
.L1116:
	mvn	r0, #0
	ldmfd	sp, {r4, r5, r6, r7, r8, r9, fp, sp, pc}
.L1123:
	.align	2
.L1122:
	.word	.LC94
	UNWIND(.fnend)
	.size	HEVC_DECRecycleImage, .-HEVC_DECRecycleImage
	.align	2
	.global	HEVC_GetSLHDR1MasteringDisplayInfo
	.type	HEVC_GetSLHDR1MasteringDisplayInfo, %function
HEVC_GetSLHDR1MasteringDisplayInfo:
	UNWIND(.fnstart)
	@ args = 0, pretend = 0, frame = 0
	@ frame_needed = 1, uses_anonymous_args = 0
	UNWIND(.movsp ip)
	mov	ip, sp
	stmfd	sp!, {r4, fp, ip, lr, pc}
	UNWIND(.pad #4)
	UNWIND(.save {r4, fp, ip, lr})
	UNWIND(.setfp fp, ip, #-4)
	sub	fp, ip, #4
	ldr	r3, [r1, #572]
	movw	r2, #14999
	cmp	r3, r2
	bhi	.L1128
	sub	r2, r3, #8448
	movw	ip, #4749
	sub	r2, r2, #52
	cmp	r2, ip
	movls	r3, #1
	strlsb	r3, [r0, #3]
	bls	.L1126
	sub	r3, r3, #13248
	movw	r2, #1749
	sub	r3, r3, #2
	cmp	r3, r2
	bhi	.L1128
	mov	r3, #2
	strb	r3, [r0, #3]
.L1126:
	ldr	r3, [r1, #604]
	movw	r2, #56963
	movt	r2, 17179
	mov	ip, #50
	add	r3, r3, #249856
	movw	lr, #10000
	add	r3, r3, #144
	movw	r4, #2063
	movt	r4, 1526
	umull	r2, r3, r3, r2
	mov	r3, r3, lsr #17
	mul	r3, ip, r3
	cmp	r3, lr
	movcs	r3, lr
	strh	r3, [r0, #4]	@ movhi
	ldr	r3, [r1, #608]
	cmp	r3, r4
	movwls	r2, #5977
	movtls	r2, 53687
	umullls	r2, r3, r3, r2
	ubfxls	lr, r3, #13, #16
	strh	lr, [r0, #6]	@ movhi
	ldmfd	sp, {r4, fp, sp, pc}
.L1128:
	mov	r3, #0
	strb	r3, [r0, #3]
	b	.L1126
	UNWIND(.fnend)
	.size	HEVC_GetSLHDR1MasteringDisplayInfo, .-HEVC_GetSLHDR1MasteringDisplayInfo
	.align	2
	.global	HEVC_PrintSLHDR1Info
	.type	HEVC_PrintSLHDR1Info, %function
HEVC_PrintSLHDR1Info:
	UNWIND(.fnstart)
	@ args = 0, pretend = 0, frame = 0
	@ frame_needed = 1, uses_anonymous_args = 0
	UNWIND(.movsp ip)
	mov	ip, sp
	stmfd	sp!, {r4, r5, r6, r7, fp, ip, lr, pc}
	UNWIND(.pad #4)
	UNWIND(.save {r4, r5, r6, r7, fp, ip, lr})
	UNWIND(.setfp fp, ip, #-4)
	sub	fp, ip, #4
	ldr	r1, .L1150
	mov	r4, r0
	ldrb	r2, [r0]	@ zero_extendqisi2
	mov	r0, #32
	bl	dprint_vfmw
	ldrb	r2, [r4, #1]	@ zero_extendqisi2
	ldr	r1, .L1150+4
	mov	r0, #32
	bl	dprint_vfmw
	ldrb	r2, [r4, #2]	@ zero_extendqisi2
	ldr	r1, .L1150+8
	mov	r0, #32
	bl	dprint_vfmw
	ldrb	r2, [r4, #3]	@ zero_extendqisi2
	ldr	r1, .L1150+12
	mov	r0, #32
	bl	dprint_vfmw
	ldrh	r2, [r4, #4]
	ldr	r1, .L1150+16
	mov	r0, #32
	bl	dprint_vfmw
	ldrh	r2, [r4, #6]
	ldr	r1, .L1150+20
	mov	r0, #32
	bl	dprint_vfmw
	ldrb	r2, [r4, #8]	@ zero_extendqisi2
	ldr	r1, .L1150+24
	mov	r0, #32
	bl	dprint_vfmw
	ldrb	r2, [r4, #9]	@ zero_extendqisi2
	ldr	r1, .L1150+28
	mov	r0, #32
	bl	dprint_vfmw
	ldrb	r5, [r4, #1]	@ zero_extendqisi2
	ldrb	r2, [r4, #10]	@ zero_extendqisi2
	mov	r0, #32
	cmp	r5, #0
	bne	.L1132
	ldr	r1, .L1150+32
	bl	dprint_vfmw
	ldrb	r2, [r4, #11]	@ zero_extendqisi2
	ldr	r1, .L1150+36
	mov	r0, #32
	bl	dprint_vfmw
	ldrb	r2, [r4, #12]	@ zero_extendqisi2
	ldr	r1, .L1150+40
	mov	r0, #32
	bl	dprint_vfmw
	ldrb	r2, [r4, #13]	@ zero_extendqisi2
	ldr	r1, .L1150+44
	mov	r0, #32
	bl	dprint_vfmw
	ldrb	r2, [r4, #14]	@ zero_extendqisi2
	ldr	r1, .L1150+48
	mov	r0, #32
	bl	dprint_vfmw
	ldrb	r2, [r4, #15]	@ zero_extendqisi2
	ldr	r1, .L1150+52
	mov	r0, #32
	bl	dprint_vfmw
	ldrb	r3, [r4, #15]	@ zero_extendqisi2
	cmp	r3, #0
	addne	r7, r4, #15
	addne	r6, r4, #26
	beq	.L1137
.L1136:
	mov	r3, r5
	ldrb	r2, [r7, #1]!	@ zero_extendqisi2
	ldr	r1, .L1150+56
	mov	r0, #32
	bl	dprint_vfmw
	mov	r3, r5
	ldrb	r2, [r6, #1]!	@ zero_extendqisi2
	mov	r0, #32
	ldr	r1, .L1150+60
	add	r5, r5, #1
	bl	dprint_vfmw
	ldrb	r3, [r4, #15]	@ zero_extendqisi2
	cmp	r3, r5
	bhi	.L1136
.L1137:
	ldrb	r2, [r4, #38]	@ zero_extendqisi2
	mov	r0, #32
	ldr	r1, .L1150+64
	bl	dprint_vfmw
	ldrb	r3, [r4, #38]	@ zero_extendqisi2
	cmp	r3, #0
	addne	r7, r4, #38
	addne	r6, r4, #45
	movne	r5, #0
	beq	.L1138
.L1139:
	mov	r3, r5
	ldrb	r2, [r7, #1]!	@ zero_extendqisi2
	ldr	r1, .L1150+68
	mov	r0, #32
	bl	dprint_vfmw
	mov	r3, r5
	ldrb	r2, [r6, #1]!	@ zero_extendqisi2
	mov	r0, #32
	ldr	r1, .L1150+72
	add	r5, r5, #1
	bl	dprint_vfmw
	ldrb	r3, [r4, #38]	@ zero_extendqisi2
	cmp	r3, r5
	bhi	.L1139
.L1138:
	movw	r2, #290
	ldr	r1, .L1150+76
	mov	r0, #32
	sub	sp, fp, #28
	ldmfd	sp, {r4, r5, r6, r7, fp, sp, lr}
	b	dprint_vfmw
.L1132:
	ldr	r1, .L1150+80
	bl	dprint_vfmw
	ldrb	r3, [r4, #10]	@ zero_extendqisi2
	cmp	r3, #0
	addne	r7, r4, #10
	addne	r6, r4, #78
	movne	r5, #0
	beq	.L1144
.L1143:
	mov	r2, r5
	ldrh	r3, [r7, #2]!
	ldr	r1, .L1150+84
	mov	r0, #32
	bl	dprint_vfmw
	ldrh	r3, [r6, #2]!
	mov	r2, r5
	ldr	r1, .L1150+88
	mov	r0, #32
	add	r5, r5, #1
	bl	dprint_vfmw
	ldrb	r3, [r4, #10]	@ zero_extendqisi2
	cmp	r3, r5
	bhi	.L1143
.L1144:
	ldrb	r2, [r4, #148]	@ zero_extendqisi2
	mov	r0, #32
	ldr	r1, .L1150+92
	bl	dprint_vfmw
	ldrb	r3, [r4, #148]	@ zero_extendqisi2
	cmp	r3, #0
	addne	r7, r4, #148
	addne	r6, r4, #216
	movne	r5, #0
	beq	.L1142
.L1145:
	mov	r3, r5
	ldrh	r2, [r7, #2]!
	ldr	r1, .L1150+96
	mov	r0, #32
	bl	dprint_vfmw
	mov	r3, r5
	ldrh	r2, [r6, #2]!
	mov	r0, #32
	ldr	r1, .L1150+100
	add	r5, r5, #1
	bl	dprint_vfmw
	ldrb	r3, [r4, #148]	@ zero_extendqisi2
	cmp	r3, r5
	bhi	.L1145
.L1142:
	movw	r3, #286
	ldr	r1, .L1150+104
	ldrh	r2, [r4, r3]
	add	r4, r4, #288
	mov	r0, #32
	bl	dprint_vfmw
	ldr	r1, .L1150+108
	ldrh	r2, [r4]
	mov	r0, #32
	bl	dprint_vfmw
	b	.L1138
.L1151:
	.align	2
.L1150:
	.word	.LC95
	.word	.LC96
	.word	.LC97
	.word	.LC98
	.word	.LC99
	.word	.LC100
	.word	.LC101
	.word	.LC102
	.word	.LC103
	.word	.LC104
	.word	.LC105
	.word	.LC106
	.word	.LC107
	.word	.LC108
	.word	.LC110
	.word	.LC111
	.word	.LC109
	.word	.LC112
	.word	.LC113
	.word	.LC122
	.word	.LC114
	.word	.LC116
	.word	.LC117
	.word	.LC115
	.word	.LC120
	.word	.LC121
	.word	.LC118
	.word	.LC119
	UNWIND(.fnend)
	.size	HEVC_PrintSLHDR1Info, .-HEVC_PrintSLHDR1Info
	.align	2
	.global	HEVC_GetSLHDR1Info
	.type	HEVC_GetSLHDR1Info, %function
HEVC_GetSLHDR1Info:
	UNWIND(.fnstart)
	@ args = 0, pretend = 0, frame = 296
	@ frame_needed = 1, uses_anonymous_args = 0
	UNWIND(.movsp ip)
	mov	ip, sp
	stmfd	sp!, {r4, r5, r6, r7, fp, ip, lr, pc}
	UNWIND(.pad #4)
	UNWIND(.save {r4, r5, r6, r7, fp, ip, lr})
	UNWIND(.setfp fp, ip, #-4)
	sub	fp, ip, #4
	UNWIND(.pad #312)
	sub	sp, sp, #312
	mov	r6, r1
	mov	r5, r0
	mov	r4, r2
	sub	r0, fp, #320
	movw	r2, #290
	mov	r1, #0
	bl	memset
	ldrb	r3, [r6, #1]	@ zero_extendqisi2
	cmp	r3, #0
	beq	.L1155
	ldrb	r2, [r4, #56]	@ zero_extendqisi2
	cmp	r2, #0
	bne	.L1198
.L1155:
	ldrb	r2, [r4, #56]	@ zero_extendqisi2
	ldrb	ip, [r4, #568]	@ zero_extendqisi2
	ldrb	r0, [r4, #59]	@ zero_extendqisi2
	ldrb	r1, [r4, #128]	@ zero_extendqisi2
.L1154:
	str	r1, [sp, #12]
	str	r0, [sp, #8]
	mov	r0, #22
	stmia	sp, {r2, ip}
	ldr	r1, .L1201
	ldr	r2, .L1201+4
	bl	dprint_vfmw
	mov	r3, #0
	strb	r3, [r5, #458]
.L1152:
	sub	sp, fp, #28
	ldmfd	sp, {r4, r5, r6, r7, fp, sp, pc}
.L1198:
	ldrb	ip, [r4, #568]	@ zero_extendqisi2
	cmp	ip, #0
	beq	.L1155
	ldrb	r1, [r4, #59]	@ zero_extendqisi2
	cmp	r1, #0
	bne	.L1156
	ldrb	r1, [r4, #128]	@ zero_extendqisi2
	cmp	r1, #0
	beq	.L1199
.L1156:
	mov	r3, #1
	strb	r3, [r5, #458]
	ldr	r0, [r6, #24]
	ldrb	r1, [r4, #57]	@ zero_extendqisi2
	ldrb	r2, [r4, #58]	@ zero_extendqisi2
	cmp	r0, #9
	strb	r1, [fp, #-320]
	strb	r2, [fp, #-319]
	bne	.L1158
	ldr	r2, [r6, #32]
	cmp	r2, #9
	streqb	r3, [fp, #-312]
.L1158:
	ldrb	r3, [r4, #60]	@ zero_extendqisi2
	cmp	r3, #1
	beq	.L1159
	ldrb	r2, [r4, #129]	@ zero_extendqisi2
	cmp	r2, #1
	beq	.L1159
	cmp	r2, #9
	cmpne	r3, #9
	ldrneb	r3, [fp, #-312]	@ zero_extendqisi2
	moveq	r3, #1
	strb	r3, [fp, #-318]
.L1159:
	mov	r1, r4
	sub	r0, fp, #320
	bl	HEVC_GetSLHDR1MasteringDisplayInfo
	ldrb	r3, [fp, #-318]	@ zero_extendqisi2
	ldrb	r2, [fp, #-312]	@ zero_extendqisi2
	cmp	r2, r3
	ldreqb	r3, [fp, #-317]	@ zero_extendqisi2
	movne	r3, #0
	strb	r3, [fp, #-311]
	ldrb	r3, [fp, #-319]	@ zero_extendqisi2
	cmp	r3, #0
	bne	.L1163
	ldrb	r7, [r4, #66]	@ zero_extendqisi2
	ldrb	lr, [r4, #61]	@ zero_extendqisi2
	ldrb	ip, [r4, #62]	@ zero_extendqisi2
	cmp	r7, #0
	ldrb	r0, [r4, #63]	@ zero_extendqisi2
	ldrb	r1, [r4, #64]	@ zero_extendqisi2
	ldrb	r2, [r4, #65]	@ zero_extendqisi2
	strb	r7, [fp, #-305]
	strb	lr, [fp, #-310]
	strb	ip, [fp, #-309]
	strb	r0, [fp, #-308]
	strb	r1, [fp, #-307]
	strb	r2, [fp, #-306]
	beq	.L1168
	sub	r2, fp, #320
	add	ip, r4, #66
	add	r0, r2, #15
	add	r1, r4, #81
	add	r2, r2, #26
.L1167:
	add	r3, r3, #1
	ldrb	r6, [ip, #1]!	@ zero_extendqisi2
	ldrb	lr, [r1, #1]!	@ zero_extendqisi2
	cmp	r3, r7
	strb	r6, [r0, #1]!
	strb	lr, [r2, #1]!
	bne	.L1167
.L1168:
	ldrb	r6, [r4, #97]	@ zero_extendqisi2
	cmp	r6, #0
	strb	r6, [fp, #-282]
	beq	.L1166
	sub	r1, fp, #280
	sub	r2, fp, #272
	add	r0, r4, #97
	sub	r1, r1, #2
	add	r4, r4, #112
	sub	r2, r2, #3
	mov	r3, #0
.L1171:
	add	r3, r3, #1
	ldrb	lr, [r0, #1]!	@ zero_extendqisi2
	ldrb	ip, [r4, #1]!	@ zero_extendqisi2
	cmp	r3, r6
	strb	lr, [r1, #1]!
	strb	ip, [r2, #1]!
	bne	.L1171
.L1166:
	ldr	r3, [r5, #464]
	cmp	r3, #0
	bne	.L1200
	ldr	r2, .L1201+4
	mov	r0, #1
	ldr	r1, .L1201+8
	bl	dprint_vfmw
	b	.L1152
.L1163:
	ldrb	r6, [r4, #168]	@ zero_extendqisi2
	ldr	r2, [r4, #136]
	add	r6, r6, #1
	ldr	r3, [r4, #140]
	uxtb	r6, r6
	strh	r2, [fp, #-34]	@ movhi
	cmp	r6, #0
	strh	r3, [fp, #-32]	@ movhi
	strb	r6, [fp, #-310]
	addne	r0, r4, #170
	addne	r1, r4, #368
	subne	r3, fp, #320
	movne	r2, #0
	beq	.L1175
.L1174:
	add	r2, r2, #1
	ldrh	lr, [r0, #2]!
	ldrh	ip, [r1, #2]!
	cmp	r2, r6
	add	r3, r3, #2
	strh	lr, [r3, #10]	@ movhi
	strh	ip, [r3, #78]	@ movhi
	bcc	.L1174
.L1175:
	ldrb	lr, [r4, #169]	@ zero_extendqisi2
	add	lr, lr, #1
	uxtb	lr, lr
	strb	lr, [fp, #-172]
	cmp	lr, #0
	beq	.L1166
	add	r1, r4, #432
	sub	r3, fp, #320
	add	r4, r4, #236
	add	r1, r1, #2
	mov	r2, #0
.L1176:
	add	r2, r2, #1
	ldrh	ip, [r4, #2]!
	ldrh	r0, [r1, #2]!
	cmp	r2, lr
	add	r3, r3, #2
	strh	ip, [r3, #148]	@ movhi
	strh	r0, [r3, #216]	@ movhi
	bcc	.L1176
	b	.L1166
.L1200:
	ldr	r3, .L1201+12
	sub	r1, fp, #320
	movw	r2, #290
	ldr	r0, [r5, #472]
	ldr	r3, [r3, #52]
	blx	r3
	movw	r3, #290
	str	r3, [r5, #460]
	b	.L1152
.L1199:
	mov	r0, r1
	b	.L1154
.L1202:
	.align	2
.L1201:
	.word	.LC123
	.word	.LANCHOR0+340
	.word	.LC124
	.word	vfmw_Osal_Func_Ptr_S
	UNWIND(.fnend)
	.size	HEVC_GetSLHDR1Info, .-HEVC_GetSLHDR1Info
	.align	2
	.global	HEVC_ConvertHDRInfo
	.type	HEVC_ConvertHDRInfo, %function
HEVC_ConvertHDRInfo:
	UNWIND(.fnstart)
	@ args = 0, pretend = 0, frame = 0
	@ frame_needed = 1, uses_anonymous_args = 0
	UNWIND(.movsp ip)
	mov	ip, sp
	stmfd	sp!, {r4, r5, r6, fp, ip, lr, pc}
	UNWIND(.pad #4)
	UNWIND(.save {r4, r5, r6, fp, ip, lr})
	UNWIND(.setfp fp, ip, #-4)
	sub	fp, ip, #4
	ldrb	r5, [r1]	@ zero_extendqisi2
	mov	r3, r0
	mov	ip, r2
	add	lr, r0, #484
	add	lr, lr, #2
	add	r4, r0, #492
	strb	r5, [r3, #480]
	mov	r0, r2
	ldr	r5, [r1, #24]
	mov	r2, #0
	strb	r5, [r3, #481]
	ldr	r5, [r1, #32]
	strb	r5, [r3, #482]
	ldr	r5, [r1, #28]
	str	r5, [r3, #484]
	ldrb	r5, [ip, #568]	@ zero_extendqisi2
	strb	r5, [r3, #456]
.L1204:
	ldr	r5, [r0, #572]
	add	r2, r2, #1
	cmp	r2, #3
	add	r0, r0, #4
	strh	r5, [lr, #2]!	@ movhi
	ldr	r5, [r0, #580]
	strh	r5, [r4, #2]!	@ movhi
	bne	.L1204
	ldr	r0, [ip, #596]
	add	lr, r3, #456
	movw	r5, #614
	add	r4, ip, #616
	mov	r2, ip
	strh	r0, [lr, #44]	@ movhi
	mov	r0, r3
	ldr	r6, [ip, #600]
	strh	r6, [lr, #46]	@ movhi
	ldr	lr, [ip, #604]
	str	lr, [r3, #504]
	ldr	lr, [ip, #608]
	str	lr, [r3, #508]
	ldrb	lr, [ip, #612]	@ zero_extendqisi2
	strb	lr, [r3, #457]
	ldrh	lr, [ip, r5]
	str	lr, [r3, #512]
	ldrh	lr, [r4]
	str	lr, [r3, #516]
	ldrb	ip, [ip, #618]	@ zero_extendqisi2
	strb	ip, [r3, #520]
	sub	sp, fp, #24
	ldmfd	sp, {r4, r5, r6, fp, sp, lr}
	b	HEVC_GetSLHDR1Info
	UNWIND(.fnend)
	.size	HEVC_ConvertHDRInfo, .-HEVC_ConvertHDRInfo
	.align	2
	.global	HEVC_AllocFrameStore
	.type	HEVC_AllocFrameStore, %function
HEVC_AllocFrameStore:
	UNWIND(.fnstart)
	@ args = 0, pretend = 0, frame = 0
	@ frame_needed = 1, uses_anonymous_args = 0
	UNWIND(.movsp ip)
	mov	ip, sp
	stmfd	sp!, {r4, r5, r6, r7, r8, r9, fp, ip, lr, pc}
	UNWIND(.pad #4)
	UNWIND(.save {r4, r5, r6, r7, r8, r9, fp, ip, lr})
	UNWIND(.setfp fp, ip, #-4)
	sub	fp, ip, #4
	add	r2, r0, #4096
	ldr	r3, [r0, #2368]
	mov	ip, #1888
	mov	r6, r0
	ldr	r2, [r2, #140]
	movw	r5, #12660
	ldr	r0, [r0, #2364]
	add	lr, r6, #12672
	mov	r1, #0
	add	lr, lr, #48
	mla	r3, ip, r2, r3
	mov	r7, r1
	ldr	r3, [r3, #32]
	strb	r1, [r6, #3505]
	mla	r5, r5, r3, r0
.L1211:
	ldr	r3, [lr, #48]
	cmp	r3, #0
	bne	.L1207
	cmp	lr, #0
	beq	.L1218
	ldr	r1, [r6, #2588]
	cmp	r1, #0
	beq	.L1218
	ldr	r2, [r6, #2608]
	cmp	r2, lr
	beq	.L1207
	add	r2, r6, #2608
	b	.L1209
.L1210:
	ldr	ip, [r2, #4]!
	cmp	ip, lr
	beq	.L1207
.L1209:
	add	r3, r3, #1
	cmp	r3, r1
	bne	.L1210
.L1218:
	mov	r3, #712
	add	r8, r6, #3568
	mla	r7, r3, r7, r6
	mov	r2, #101
	mov	r3, #1
	str	r2, [r6, #3544]
	strb	r3, [r6, #3505]
	mov	r0, r8
	add	r1, r7, #12800
	mov	r2, #632
	mov	r4, lr
	bl	memcpy
	add	r3, r7, #12672
	add	r7, r7, #12736
	str	r4, [r6, #3564]
	mov	r9, #0
	str	r9, [r6, #3720]
	str	r9, [r7]
	strb	r9, [r3, #50]
	strb	r9, [r4]
	ldr	r3, [r6, #3564]
	str	r9, [r3, #60]
	ldr	r3, [r6, #3564]
	str	r9, [r3, #64]
	ldr	r3, [r6, #3564]
	str	r9, [r3, #52]
	ldrb	r1, [r6, #3505]	@ zero_extendqisi2
	cmp	r1, #1
	bne	.L1215
	ldr	r0, [r6, #252]
	bl	FSP_NewLogicFs
	mov	r7, r0
	mov	r1, r0
	ldr	r0, [r6, #252]
	bl	FSP_GetLogicFs
	mvn	r3, r7
	mov	r3, r3, lsr #31
	cmp	r0, #0
	mov	r4, r0
	moveq	r3, #0
	cmp	r3, #0
	beq	.L1213
	add	r1, r5, #2064
	add	r2, r6, #2880
	bl	HEVC_ConvertHDRInfo
	ldr	r3, [r6, #2404]
	ldr	r3, [r3, #28]
	cmp	r3, #25
	beq	.L1222
.L1214:
	ldr	r5, .L1223
	add	r1, r4, #40
	ldr	r0, [r6, #3564]
	mov	r2, #632
	ldr	r3, [r5, #52]
	add	r0, r0, #80
	blx	r3
	ldr	r1, [r6, #3564]
	ldr	r3, [r5, #52]
	mov	r0, r8
	add	r1, r1, #80
	mov	r2, #632
	blx	r3
	ldr	r3, [r6, #3564]
	mov	r0, #0
	str	r7, [r3, #28]
	ldrsb	r3, [r4, #4]
	str	r3, [r6, #3540]
	ldmfd	sp, {r4, r5, r6, r7, r8, r9, fp, sp, pc}
.L1207:
	add	r7, r7, #1
	add	lr, lr, #712
	cmp	r7, #20
	bne	.L1211
.L1215:
	ldr	r1, .L1223+4
	mov	r0, #0
	bl	dprint_vfmw
	mvn	r0, #0
	ldmfd	sp, {r4, r5, r6, r7, r8, r9, fp, sp, pc}
.L1222:
	ldr	r1, [r6, #2388]
	ldr	r5, [r4, #152]
	ldr	r3, [r4, #76]
	ldr	r2, [r1, #68]
	ldr	r1, [r1, #64]
	str	r9, [r4, #280]
	mul	r5, r5, r2
	str	r2, [r4, #112]
	str	r1, [r4, #108]
	str	r9, [r4, #284]
	add	r3, r5, r3
	str	r9, [r4, #288]
	str	r3, [r4, #80]
	mov	r0, r3
	str	r9, [r4, #292]
	str	r9, [r4, #296]
	bl	MEM_Phy2Vir
	ldr	r2, [r4, #60]
	ldr	r3, [r4, #156]
	add	r5, r5, r2
	str	r9, [r4, #556]
	str	r5, [r4, #64]
	add	r5, r5, r3
	str	r5, [r4, #72]
	str	r0, [r4, #552]
	b	.L1214
.L1213:
	strb	r3, [r6, #3505]
	mov	r0, r3
	ldr	r1, .L1223+8
	bl	dprint_vfmw
	mvn	r0, #0
	ldmfd	sp, {r4, r5, r6, r7, r8, r9, fp, sp, pc}
.L1224:
	.align	2
.L1223:
	.word	vfmw_Osal_Func_Ptr_S
	.word	.LC125
	.word	.LC126
	UNWIND(.fnend)
	.size	HEVC_AllocFrameStore, .-HEVC_AllocFrameStore
	.align	2
	.global	HEVC_IsVoFinish
	.type	HEVC_IsVoFinish, %function
HEVC_IsVoFinish:
	UNWIND(.fnstart)
	@ args = 0, pretend = 0, frame = 0
	@ frame_needed = 1, uses_anonymous_args = 0
	UNWIND(.movsp ip)
	mov	ip, sp
	stmfd	sp!, {r4, r5, fp, ip, lr, pc}
	UNWIND(.pad #4)
	UNWIND(.save {r4, r5, fp, ip, lr})
	UNWIND(.setfp fp, ip, #-4)
	sub	fp, ip, #4
	mov	r5, r0
	ldr	r0, [r0, #252]
	bl	FSP_GetFspType
	cmn	r0, #1
	mov	r4, r0
	movne	r4, #0
	bne	.L1229
	b	.L1232
.L1228:
	ldrsb	r3, [r0, #1]
	cmp	r3, #3
	beq	.L1230
	cmp	r4, #32
	beq	.L1233
.L1229:
	mov	r1, r4
	ldr	r0, [r5, #252]
	bl	FSP_GetLogicFs
	add	r4, r4, #1
	cmp	r0, #0
	bne	.L1228
	ldr	r1, .L1234
	mov	r0, #1
	bl	dprint_vfmw
	mvn	r0, #0
	ldmfd	sp, {r4, r5, fp, sp, pc}
.L1232:
	ldr	r1, .L1234+4
	mov	r0, #1
	bl	dprint_vfmw
	mov	r0, r4
	ldmfd	sp, {r4, r5, fp, sp, pc}
.L1230:
	mov	r0, #0
	ldmfd	sp, {r4, r5, fp, sp, pc}
.L1233:
	mov	r0, #1
	ldmfd	sp, {r4, r5, fp, sp, pc}
.L1235:
	.align	2
.L1234:
	.word	.LC128
	.word	.LC127
	UNWIND(.fnend)
	.size	HEVC_IsVoFinish, .-HEVC_IsVoFinish
	.align	2
	.global	HEVC_GetBackPicFromVOQueue
	.type	HEVC_GetBackPicFromVOQueue, %function
HEVC_GetBackPicFromVOQueue:
	UNWIND(.fnstart)
	@ args = 0, pretend = 0, frame = 0
	@ frame_needed = 1, uses_anonymous_args = 0
	UNWIND(.movsp ip)
	mov	ip, sp
	stmfd	sp!, {r4, r5, r6, r7, r8, r9, fp, ip, lr, pc}
	UNWIND(.pad #4)
	UNWIND(.save {r4, r5, r6, r7, r8, r9, fp, ip, lr})
	UNWIND(.setfp fp, ip, #-4)
	sub	fp, ip, #4
	mov	r8, r0
	add	r0, r0, #5504
	add	r0, r0, #56
	add	r5, r8, #13312
	bl	ResetVoQueue
	add	r9, r8, #27392
	add	r5, r5, #56
	add	r9, r9, #216
	mov	r6, #0
	mov	r7, #0
.L1239:
	sub	r4, r5, #32
	mov	r3, #0
	strb	r3, [r5, #-647]
	str	r3, [r5, #-600]
.L1238:
	ldr	r1, [r4, #8]!
	cmp	r1, #0
	beq	.L1237
	ldr	r0, [r8, #252]
	bl	FreeUsdByDec
	strd	r6, [r4]
.L1237:
	cmp	r4, r5
	bne	.L1238
	add	r5, r4, #712
	cmp	r5, r9
	bne	.L1239
	ldr	r2, [r8, #184]
	cmp	r2, #0
	ldmeqfd	sp, {r4, r5, r6, r7, r8, r9, fp, sp, pc}
	mov	r3, #0
	add	r8, r8, #2128
	mov	r1, r3
.L1241:
	add	r3, r3, #1
	str	r1, [r8, #4]!
	cmp	r3, r2
	bne	.L1241
	ldmfd	sp, {r4, r5, r6, r7, r8, r9, fp, sp, pc}
	UNWIND(.fnend)
	.size	HEVC_GetBackPicFromVOQueue, .-HEVC_GetBackPicFromVOQueue
	.align	2
	.global	HEVC_RemoveFrameStoreOutDPB
	.type	HEVC_RemoveFrameStoreOutDPB, %function
HEVC_RemoveFrameStoreOutDPB:
	UNWIND(.fnstart)
	@ args = 0, pretend = 0, frame = 0
	@ frame_needed = 1, uses_anonymous_args = 0
	UNWIND(.movsp ip)
	mov	ip, sp
	stmfd	sp!, {r4, r5, r6, r7, fp, ip, lr, pc}
	UNWIND(.pad #4)
	UNWIND(.save {r4, r5, r6, r7, fp, ip, lr})
	UNWIND(.setfp fp, ip, #-4)
	sub	fp, ip, #4
	add	r6, r0, r1, lsl #2
	mov	r7, #0
	mov	r4, r1
	mov	r5, r0
	ldr	r3, [r6, #2608]
	str	r7, [r3, #48]
	ldr	r3, [r6, #2608]
	ldr	r0, [r0, #252]
	ldr	r1, [r3, #28]
	bl	FSP_GetLogicFs
	cmp	r0, #0
	beq	.L1250
	ldrsb	r3, [r0, #1]
	cmp	r3, #3
	beq	.L1251
	ldr	r3, [r6, #2608]
	mov	r2, r7
	ldr	r0, [r5, #252]
	ldr	r1, [r3, #28]
	bl	FSP_SetDisplay
.L1251:
	ldr	r3, [r6, #2608]
	mov	r2, #0
	ldr	r0, [r5, #252]
	ldr	r1, [r3, #28]
	bl	FSP_SetRef
.L1250:
	ldr	r1, [r5, #2588]
	sub	r1, r1, #1
	cmp	r4, r1
	addls	r3, r4, #652
	addls	r3, r5, r3, lsl #2
	bhi	.L1254
.L1253:
	add	r4, r4, #1
	ldr	r2, [r3, #4]!
	cmp	r4, r1
	str	r2, [r3, #-4]
	bls	.L1253
.L1254:
	add	r3, r1, #652
	mov	r2, #0
	str	r2, [r5, r3, asl #2]
	str	r1, [r5, #2588]
	ldmfd	sp, {r4, r5, r6, r7, fp, sp, pc}
	UNWIND(.fnend)
	.size	HEVC_RemoveFrameStoreOutDPB, .-HEVC_RemoveFrameStoreOutDPB
	.align	2
	.global	HEVC_RemoveDummyFrame
	.type	HEVC_RemoveDummyFrame, %function
HEVC_RemoveDummyFrame:
	UNWIND(.fnstart)
	@ args = 0, pretend = 0, frame = 0
	@ frame_needed = 1, uses_anonymous_args = 0
	UNWIND(.movsp ip)
	mov	ip, sp
	stmfd	sp!, {r4, r5, r6, r7, fp, ip, lr, pc}
	UNWIND(.pad #4)
	UNWIND(.save {r4, r5, r6, r7, fp, ip, lr})
	UNWIND(.setfp fp, ip, #-4)
	sub	fp, ip, #4
	ldr	r3, [r0, #2588]
	mov	r5, r0
	cmp	r3, #0
	ldmeqfd	sp, {r4, r5, r6, r7, fp, sp, pc}
	mov	r7, #0
	mov	r4, r7
	mov	r6, r7
	b	.L1266
.L1265:
	ldr	r3, [r5, #2588]
	add	r4, r4, #1
	cmp	r4, r3
	mov	r7, r4
	bcs	.L1272
.L1266:
	add	r3, r4, #652
	ldr	r3, [r5, r3, asl #2]
	ldrb	r2, [r3]	@ zero_extendqisi2
	cmp	r2, #0
	beq	.L1265
	mov	r1, r7
	mov	r0, r5
	strb	r6, [r3]
	sub	r4, r4, #1
	bl	HEVC_RemoveApcStore
	mov	r1, r7
	mov	r0, r5
	bl	HEVC_RemoveFrameStoreOutDPB
	b	.L1265
.L1272:
	ldmfd	sp, {r4, r5, r6, r7, fp, sp, pc}
	UNWIND(.fnend)
	.size	HEVC_RemoveDummyFrame, .-HEVC_RemoveDummyFrame
	.align	2
	.global	HEVC_RemoveUnUsedFrameStore
	.type	HEVC_RemoveUnUsedFrameStore, %function
HEVC_RemoveUnUsedFrameStore:
	UNWIND(.fnstart)
	@ args = 0, pretend = 0, frame = 0
	@ frame_needed = 1, uses_anonymous_args = 0
	UNWIND(.movsp ip)
	mov	ip, sp
	stmfd	sp!, {r3, r4, r5, r6, r7, r8, r9, r10, fp, ip, lr, pc}
	UNWIND(.pad #4)
	UNWIND(.save {r3, r4, r5, r6, r7, r8, r9, r10, fp, ip, lr})
	UNWIND(.setfp fp, ip, #-4)
	sub	fp, ip, #4
	ldr	r5, [r0, #2588]
	mov	r7, r0
	cmp	r5, #0
	beq	.L1282
	mov	r6, #0
	mvn	r8, #0
	mov	r10, r6
	mov	r9, r6
	b	.L1281
.L1292:
	ldrsb	r3, [r0, #1]
	cmp	r3, #0
	cmpne	r3, #3
	ldr	r3, [r4, #2608]
	bne	.L1277
	ldr	r0, [r3, #52]
	cmp	r0, #1
	beq	.L1277
	str	r8, [r3, #28]
	mov	r2, #1
	ldr	r3, [r4, #2608]
	strb	r1, [r3, #1]
	ldr	r3, [r4, #2608]
	strb	r2, [r3, #2]
	ldr	r3, [r4, #2608]
.L1277:
	ldr	r3, [r3]
	bic	r3, r3, #-16777216
	bic	r3, r3, #255
	cmp	r3, #65536
	addne	r10, r10, #1
	beq	.L1291
	add	r9, r9, #1
	cmp	r9, r5
	beq	.L1274
.L1281:
	add	r4, r7, r10, lsl #2
	ldr	r0, [r7, #252]
	ldr	r3, [r4, #2608]
	ldr	r1, [r3, #28]
	bl	FSP_GetLogicFs
	cmp	r0, #0
	beq	.L1275
	ldrsb	r1, [r0]
	cmp	r1, #0
	beq	.L1292
	ldr	r3, [r4, #2608]
	b	.L1277
.L1275:
	ldr	r3, [r4, #2608]
	ldr	r1, [r3, #52]
	cmp	r1, #1
	beq	.L1277
	str	r8, [r3, #28]
	mov	r2, #1
	ldr	r3, [r4, #2608]
	strb	r0, [r3, #1]
	ldr	r3, [r4, #2608]
	strb	r2, [r3, #2]
	ldr	r3, [r4, #2608]
	b	.L1277
.L1291:
	mov	r1, r10
	mov	r0, r7
	add	r9, r9, #1
	bl	HEVC_RemoveFrameStoreOutDPB
	cmp	r9, r5
	mov	r6, #1
	bne	.L1281
.L1274:
	mov	r0, r6
	ldmfd	sp, {r3, r4, r5, r6, r7, r8, r9, r10, fp, sp, pc}
.L1282:
	mov	r6, r5
	b	.L1274
	UNWIND(.fnend)
	.size	HEVC_RemoveUnUsedFrameStore, .-HEVC_RemoveUnUsedFrameStore
	.align	2
	.global	HEVC_SimpleSlideDPB
	.type	HEVC_SimpleSlideDPB, %function
HEVC_SimpleSlideDPB:
	UNWIND(.fnstart)
	@ args = 0, pretend = 0, frame = 0
	@ frame_needed = 1, uses_anonymous_args = 0
	UNWIND(.movsp ip)
	mov	ip, sp
	stmfd	sp!, {r4, r5, fp, ip, lr, pc}
	UNWIND(.pad #4)
	UNWIND(.save {r4, r5, fp, ip, lr})
	UNWIND(.setfp fp, ip, #-4)
	sub	fp, ip, #4
	add	r3, r0, #12288
	mov	r4, r0
	ldr	r2, [r3, #236]
	ldr	r3, [r3, #232]
	cmp	r2, r3
	bcs	.L1297
	ldr	r3, [r0, #2584]
	ldr	r2, [r0, #2588]
	cmp	r2, r3
	ldmccfd	sp, {r4, r5, fp, sp, pc}
	cmp	r3, #15
	bls	.L1299
.L1297:
	ldr	r3, [r4, #2608]
	mov	r5, #0
	mov	r2, r5
	strb	r5, [r3, #1]
	ldr	r1, [r3, #28]
	ldr	r0, [r4, #252]
	bl	FSP_SetRef
	mov	r1, r5
	mov	r0, r4
	bl	HEVC_RemoveApcStore
	mov	r1, r5
	mov	r0, r4
	sub	sp, fp, #20
	ldmfd	sp, {r4, r5, fp, sp, lr}
	b	HEVC_RemoveFrameStoreOutDPB
.L1299:
	bl	HEVC_IncreaseDPBSize
	cmp	r0, #0
	bne	.L1297
	ldmfd	sp, {r4, r5, fp, sp, pc}
	UNWIND(.fnend)
	.size	HEVC_SimpleSlideDPB, .-HEVC_SimpleSlideDPB
	.align	2
	.global	HEVC_GetMinPOC
	.type	HEVC_GetMinPOC, %function
HEVC_GetMinPOC:
	UNWIND(.fnstart)
	@ args = 0, pretend = 0, frame = 0
	@ frame_needed = 1, uses_anonymous_args = 0
	UNWIND(.movsp ip)
	mov	ip, sp
	stmfd	sp!, {r4, r5, r6, r7, fp, ip, lr, pc}
	UNWIND(.pad #4)
	UNWIND(.save {r4, r5, r6, r7, fp, ip, lr})
	UNWIND(.setfp fp, ip, #-4)
	sub	fp, ip, #4
	mov	r7, r2
	mvn	r3, #-2147483648
	mov	r2, #0
	str	r2, [r7]
	str	r3, [r1]
	mov	r5, r1
	ldr	r2, [r0, #2588]
	mov	r6, r0
	ldr	r3, [r0, #2584]
	cmp	r2, r3
	bhi	.L1307
	cmp	r2, #0
	ldmeqfd	sp, {r4, r5, r6, r7, fp, sp, pc}
.L1308:
	add	lr, r6, #2592
	mov	r3, #0
	add	lr, lr, #12
.L1304:
	ldr	r2, [lr, #4]!
	ldr	r4, [r5]
	ldr	ip, [r2, #8]
	cmp	r4, ip
	strgt	ip, [r5]
	strgt	r3, [r7]
	add	r3, r3, #1
	ldr	ip, [r6, #2588]
	cmp	ip, r3
	bhi	.L1304
	ldmfd	sp, {r4, r5, r6, r7, fp, sp, pc}
.L1307:
	ldr	r1, .L1309
	mov	r0, #1
	bl	dprint_vfmw
	ldr	r2, [r6, #2584]
	cmp	r2, #0
	str	r2, [r6, #2588]
	bne	.L1308
	ldmfd	sp, {r4, r5, r6, r7, fp, sp, pc}
.L1310:
	.align	2
.L1309:
	.word	.LC129
	UNWIND(.fnend)
	.size	HEVC_GetMinPOC, .-HEVC_GetMinPOC
	.align	2
	.global	HEVC_GetReRangeFlag
	.type	HEVC_GetReRangeFlag, %function
HEVC_GetReRangeFlag:
	UNWIND(.fnstart)
	@ args = 4, pretend = 0, frame = 0
	@ frame_needed = 1, uses_anonymous_args = 0
	UNWIND(.movsp ip)
	mov	ip, sp
	stmfd	sp!, {r4, r5, r6, fp, ip, lr, pc}
	UNWIND(.pad #4)
	UNWIND(.save {r4, r5, r6, fp, ip, lr})
	UNWIND(.setfp fp, ip, #-4)
	sub	fp, ip, #4
	add	r3, r0, #4096
	ldr	r5, [r0, #2368]
	mov	r6, #1888
	movw	r4, #12660
	ldr	ip, [r3, #140]
	ldr	r3, [r0, #2364]
	ldr	lr, [fp, #4]
	mla	ip, r6, ip, r5
	ldr	ip, [ip, #32]
	mla	r3, r4, ip, r3
	ldr	ip, [r3, #64]
	ldr	r3, [r3, #68]
	cmp	r1, ip
	cmpeq	lr, #0
	bne	.L1315
	cmp	r2, r3
	beq	.L1316
.L1315:
	mov	r0, #1
	ldmfd	sp, {r4, r5, r6, fp, sp, pc}
.L1316:
	ldr	r3, [r0, #172]
	cmp	r3, #0
	beq	.L1315
	ldr	r3, [r0, #2404]
	ldr	r0, [r3, #904]
	adds	r0, r0, #0
	movne	r0, #1
	ldmfd	sp, {r4, r5, r6, fp, sp, pc}
	UNWIND(.fnend)
	.size	HEVC_GetReRangeFlag, .-HEVC_GetReRangeFlag
	.align	2
	.global	HEVC_CalcStreamBits
	.type	HEVC_CalcStreamBits, %function
HEVC_CalcStreamBits:
	UNWIND(.fnstart)
	@ args = 0, pretend = 0, frame = 0
	@ frame_needed = 1, uses_anonymous_args = 0
	UNWIND(.movsp ip)
	mov	ip, sp
	stmfd	sp!, {r4, fp, ip, lr, pc}
	UNWIND(.pad #4)
	UNWIND(.save {r4, fp, ip, lr})
	UNWIND(.setfp fp, ip, #-4)
	sub	fp, ip, #4
	ldr	r4, [r0, #2376]
	ldrb	ip, [r4]	@ zero_extendqisi2
	cmp	ip, #0
	beq	.L1328
	mov	r3, #0
	mov	r2, r4
	mov	lr, r3
.L1319:
	add	r3, r3, #1
	ldr	r1, [r2, #44]
	cmp	r3, ip
	add	r2, r2, #28
	add	lr, lr, r1
	bne	.L1319
.L1318:
	ldr	r2, [r0, #2356]
	mov	r3, ip, asl #5
	sub	ip, r3, ip, asl #2
	add	r4, r4, ip
	ldr	r3, [r2, #24]
	and	r3, r3, #7
	str	r3, [r4, #56]
	ldr	r2, [r0, #2376]
	ldr	r3, [r0, #2356]
	ldrb	r1, [r2]	@ zero_extendqisi2
	ldr	ip, [r3, #24]
	mov	r3, r1, asl #5
	sub	r3, r3, r1, asl #2
	add	r3, r2, r3
	ldr	r2, [r3, #48]
	add	r2, r2, ip, lsr #3
	rsb	r2, lr, r2
	str	r2, [r3, #60]
	ldr	r1, [r0, #2376]
	ldr	r3, [r0, #2356]
	ldrb	r2, [r1]	@ zero_extendqisi2
	ldr	ip, [r3, #24]
	mov	r3, r2, asl #5
	sub	r2, r3, r2, asl #2
	add	r2, r1, r2
	ldr	r3, [r2, #44]
	add	r3, lr, r3
	rsb	r3, ip, r3, lsl #3
	str	r3, [r2, #52]
	ldr	r2, [r0, #2376]
	ldrb	r1, [r2]	@ zero_extendqisi2
	mov	r3, r1, asl #5
	sub	r3, r3, r1, asl #2
	add	r3, r2, r3
	ldr	r2, [r3, #60]
	ldr	r1, [r3, #56]
	and	r2, r2, #3
	add	r2, r1, r2, lsl #3
	str	r2, [r3, #56]
	ldr	r2, [r0, #2376]
	ldrb	r1, [r2]	@ zero_extendqisi2
	mov	r3, r1, asl #5
	sub	r3, r3, r1, asl #2
	add	r3, r2, r3
	ldr	r2, [r3, #60]
	bic	r2, r2, #3
	str	r2, [r3, #60]
	ldr	r1, [r0, #2376]
	ldr	r2, [r1, #8]
	sub	r3, r2, #1
	cmp	r3, #1
	bhi	.L1335
	ldrb	ip, [r1]	@ zero_extendqisi2
	add	lr, ip, #1
	cmp	r2, lr
	movhi	r2, #1
	movls	r2, #0
	cmp	lr, #1
	movhi	r2, #0
	cmp	r2, #0
	beq	.L1321
	add	ip, ip, #2
	mov	lr, #0
.L1322:
	sub	r3, ip, #1
	mov	r2, r3, asl #5
	sub	r3, r2, r3, asl #2
	add	r1, r1, r3
	str	lr, [r1, #56]
	ldr	r2, [r0, #2376]
	add	r2, r2, r3
	ldr	r1, [r2, #48]
	str	r1, [r2, #60]
	ldr	r2, [r0, #2376]
	add	r2, r2, r3
	ldr	r1, [r2, #44]
	mov	r1, r1, asl #3
	str	r1, [r2, #52]
	ldr	r2, [r0, #2376]
	add	r2, r2, r3
	ldr	r1, [r2, #60]
	ldr	r4, [r2, #56]
	and	r1, r1, #15
	add	r1, r4, r1, lsl #3
	str	r1, [r2, #56]
	ldr	r2, [r0, #2376]
	add	r3, r2, r3
	ldr	r2, [r3, #60]
	bic	r2, r2, #15
	str	r2, [r3, #60]
	ldr	r1, [r0, #2376]
	ldr	r3, [r1, #8]
	cmp	ip, #1
	cmpls	ip, r3
	add	ip, ip, #1
	movcc	r2, #1
	movcs	r2, #0
	cmp	r2, #0
	bne	.L1322
	sub	r3, r3, #1
.L1321:
	mov	r2, r3, asl #5
	ldr	ip, [r1, #12]
	sub	r3, r2, r3, asl #2
	add	r1, r1, r3
	ldr	r3, [r1, #52]
	rsb	r3, ip, r3
	str	r3, [r1, #52]
	ldr	lr, [r0, #2376]
	ldrb	r2, [lr]	@ zero_extendqisi2
	ldr	r3, [lr, #8]
	cmp	r2, r3
	ldmcsfd	sp, {r4, fp, sp, pc}
	sxth	r1, r2
	mov	r3, r1, asl #5
	sub	r3, r3, r1, asl #2
	add	r3, lr, r3
.L1326:
	ldr	r1, [r3, #60]
	add	r2, r2, #1
	ldr	ip, [r0, #3536]
	add	r3, r3, #28
	cmp	r1, ip
	strcc	r1, [r0, #3536]
	ldr	r1, [lr, #8]
	cmp	r1, r2
	bhi	.L1326
	ldmfd	sp, {r4, fp, sp, pc}
.L1335:
	ldr	r1, .L1336
	mov	r0, #0
	sub	sp, fp, #16
	ldmia	sp, {r4, fp, sp, lr}
	b	dprint_vfmw
.L1328:
	mov	lr, ip
	b	.L1318
.L1337:
	.align	2
.L1336:
	.word	.LC130
	UNWIND(.fnend)
	.size	HEVC_CalcStreamBits, .-HEVC_CalcStreamBits
	.align	2
	.global	HEVC_VpsSpsPpsCheck
	.type	HEVC_VpsSpsPpsCheck, %function
HEVC_VpsSpsPpsCheck:
	UNWIND(.fnstart)
	@ args = 0, pretend = 0, frame = 0
	@ frame_needed = 1, uses_anonymous_args = 0
	UNWIND(.movsp ip)
	mov	ip, sp
	stmfd	sp!, {fp, ip, lr, pc}
	UNWIND(.pad #4)
	UNWIND(.save {fp, ip, lr})
	UNWIND(.setfp fp, ip, #-4)
	sub	fp, ip, #4
	add	r2, r0, #4096
	ldr	r3, [r0, #164]
	ldr	r2, [r2, #140]
	cmp	r2, r3
	bge	.L1346
	mov	r3, #1888
	ldr	r1, [r0, #2368]
	mul	r3, r3, r2
	add	ip, r1, r3
	ldrb	r3, [r1, r3]	@ zero_extendqisi2
	cmp	r3, #0
	beq	.L1347
	ldr	r2, [ip, #32]
	ldr	r3, [r0, #160]
	cmp	r2, r3
	bge	.L1348
	ldr	r1, [r0, #2364]
	movw	r3, #12660
	mla	r3, r3, r2, r1
	ldrb	r1, [r3, #1]	@ zero_extendqisi2
	cmp	r1, #0
	beq	.L1349
	ldr	r2, [r3, #48]
	ldr	r3, [r0, #156]
	cmp	r2, r3
	bcs	.L1350
	ldr	r1, [r0, #2360]
	mov	r3, r2, asl #7
	add	r3, r3, r2, lsl #2
	ldrb	r3, [r1, r3]	@ zero_extendqisi2
	cmp	r3, #0
	beq	.L1351
	mov	r0, #0
	ldmfd	sp, {fp, sp, pc}
.L1346:
	ldr	r1, .L1352
	mov	r0, #1
	bl	dprint_vfmw
	mvn	r0, #0
	ldmfd	sp, {fp, sp, pc}
.L1347:
	ldr	r1, .L1352+4
	mov	r0, #1
	bl	dprint_vfmw
	mvn	r0, #0
	ldmfd	sp, {fp, sp, pc}
.L1348:
	ldr	r1, .L1352+8
	mov	r0, #1
	bl	dprint_vfmw
	mvn	r0, #0
	ldmfd	sp, {fp, sp, pc}
.L1349:
	ldr	r1, .L1352+12
	mov	r0, #1
	bl	dprint_vfmw
	mvn	r0, #0
	ldmfd	sp, {fp, sp, pc}
.L1350:
	ldr	r1, .L1352+16
	mov	r0, #1
	bl	dprint_vfmw
	mvn	r0, #0
	ldmfd	sp, {fp, sp, pc}
.L1351:
	ldr	r1, .L1352+20
	mov	r0, #1
	bl	dprint_vfmw
	mvn	r0, #0
	ldmfd	sp, {fp, sp, pc}
.L1353:
	.align	2
.L1352:
	.word	.LC131
	.word	.LC132
	.word	.LC133
	.word	.LC134
	.word	.LC135
	.word	.LC136
	UNWIND(.fnend)
	.size	HEVC_VpsSpsPpsCheck, .-HEVC_VpsSpsPpsCheck
	.align	2
	.global	HEVC_IsNewPic
	.type	HEVC_IsNewPic, %function
HEVC_IsNewPic:
	UNWIND(.fnstart)
	@ args = 0, pretend = 0, frame = 0
	@ frame_needed = 1, uses_anonymous_args = 0
	UNWIND(.movsp ip)
	mov	ip, sp
	stmfd	sp!, {r4, r5, r6, r7, fp, ip, lr, pc}
	UNWIND(.pad #4)
	UNWIND(.save {r4, r5, r6, r7, fp, ip, lr})
	UNWIND(.setfp fp, ip, #-4)
	sub	fp, ip, #4
	UNWIND(.pad #16)
	sub	sp, sp, #16
	add	r1, r0, #4096
	ldr	ip, [r0, #2376]
	ldr	r2, [r1, #136]
	ldr	r3, [ip, #16]
	add	r4, r0, r2, lsl #2
	sub	r5, r3, #16
	ldr	lr, [r4, #228]
	cmn	lr, #-2147483647
	beq	.L1388
	cmp	r3, #21
	cmpne	r5, #2
	bls	.L1384
.L1368:
	sub	r3, r3, #19
	cmp	r3, #1
	movls	lr, #-2147483647
	strls	lr, [r4, #228]
.L1384:
	ldr	r5, [r1, #116]
	cmp	r5, lr
	bge	.L1358
	ldr	r3, [ip, #16]
	sub	r6, r3, #8
	cmp	r6, #1
	addhi	r2, r0, r2
	bls	.L1389
.L1361:
	ldrb	lr, [r2, #10]	@ zero_extendqisi2
	cmp	lr, #0
	beq	.L1362
	ldr	r6, [r4, #232]
	cmp	r5, r6
	blt	.L1390
.L1362:
	ldrb	r3, [r1, #105]	@ zero_extendqisi2
	cmp	r3, #0
	bne	.L1363
	ldr	ip, [ip, #16]
	sub	lr, ip, #19
	cmp	lr, #1
	bls	.L1385
	cmp	ip, #21
	beq	.L1385
	sub	ip, ip, #16
	cmp	ip, #2
	strls	r5, [r4, #232]
	movls	r3, #1
	strlsb	r3, [r2, #10]
.L1363:
	ldr	r2, [r0, #236]
	ldrb	r3, [r1, #104]	@ zero_extendqisi2
	cmp	r2, #0
	ldr	r2, [r1, #140]
	beq	.L1367
	ldr	r1, [r0, #208]
	cmp	r2, r1
	movne	r3, #1
.L1367:
	ldr	r1, [r0, #296]
	cmp	r1, r2
	movne	r0, #1
	beq	.L1391
.L1382:
	sub	sp, fp, #28
	ldmfd	sp, {r4, r5, r6, r7, fp, sp, pc}
.L1388:
	cmp	r5, #5
	bhi	.L1386
	cmp	r3, #21
	cmpne	r5, #2
	bhi	.L1368
	ldr	r5, [r1, #116]
	str	r5, [r4, #228]
.L1358:
	add	r2, r0, r2
	ldrb	lr, [r2, #5]	@ zero_extendqisi2
	cmp	lr, #0
	beq	.L1361
	ldr	r3, [ip, #16]
	sub	r6, r3, #8
	cmp	r6, #1
	bhi	.L1361
	str	r3, [sp, #8]
	mov	r0, #1
	movw	r3, #12854
	str	lr, [sp, #4]
	str	r5, [sp]
	ldr	r2, .L1392
	ldr	r1, .L1392+4
	bl	dprint_vfmw
	mov	r0, #2
	b	.L1382
.L1390:
	ldr	r3, [ip, #16]
	sub	r7, r3, #8
	cmp	r7, #1
	bhi	.L1362
	str	r3, [sp, #12]
	mov	r0, #1
	movw	r3, #12863
	str	r6, [sp, #8]
	str	r5, [sp, #4]
	str	lr, [sp]
	ldr	r2, .L1392
	ldr	r1, .L1392+8
	bl	dprint_vfmw
.L1386:
	mov	r0, #2
	sub	sp, fp, #28
	ldmfd	sp, {r4, r5, r6, r7, fp, sp, pc}
.L1385:
	str	r5, [r4, #232]
	strb	r3, [r2, #10]
	b	.L1363
.L1391:
	ldr	r0, [r0, #260]
	cmp	r5, r0
	moveq	r0, r3
	movne	r0, #1
	sub	sp, fp, #28
	ldmfd	sp, {r4, r5, r6, r7, fp, sp, pc}
.L1389:
	str	r3, [sp, #8]
	mov	r0, #1
	movw	r3, #12847
	str	lr, [sp, #4]
	str	r5, [sp]
	ldr	r2, .L1392
	ldr	r1, .L1392+12
	bl	dprint_vfmw
	mov	r0, #2
	b	.L1382
.L1393:
	.align	2
.L1392:
	.word	.LANCHOR0+360
	.word	.LC138
	.word	.LC139
	.word	.LC137
	UNWIND(.fnend)
	.size	HEVC_IsNewPic, .-HEVC_IsNewPic
	.align	2
	.global	HEVC_ReadByteAlignment
	.type	HEVC_ReadByteAlignment, %function
HEVC_ReadByteAlignment:
	UNWIND(.fnstart)
	@ args = 0, pretend = 0, frame = 0
	@ frame_needed = 1, uses_anonymous_args = 0
	UNWIND(.movsp ip)
	mov	ip, sp
	stmfd	sp!, {r4, r5, fp, ip, lr, pc}
	UNWIND(.pad #4)
	UNWIND(.save {r4, r5, fp, ip, lr})
	UNWIND(.setfp fp, ip, #-4)
	sub	fp, ip, #4
	mov	r1, #1
	mov	r4, r0
	ldr	r0, [r0, #2356]
	bl	BsGet
	cmp	r0, #0
	beq	.L1399
	ldr	r0, [r4, #2356]
	bl	BsBitsToNextByte
	subs	r1, r0, #0
	beq	.L1398
	ldr	r0, [r4, #2356]
	bl	BsGet
	ldr	r1, .L1400
	mov	r2, r0
	mov	r0, #19
	bl	dprint_vfmw
.L1398:
	mov	r0, #0
	ldmfd	sp, {r4, r5, fp, sp, pc}
.L1399:
	ldr	r1, .L1400+4
	mov	r0, #1
	bl	dprint_vfmw
	mvn	r0, #0
	ldmfd	sp, {r4, r5, fp, sp, pc}
.L1401:
	.align	2
.L1400:
	.word	.LC141
	.word	.LC140
	UNWIND(.fnend)
	.size	HEVC_ReadByteAlignment, .-HEVC_ReadByteAlignment
	.align	2
	.global	HEVC_GetRapPicFlag
	.type	HEVC_GetRapPicFlag, %function
HEVC_GetRapPicFlag:
	UNWIND(.fnstart)
	@ args = 0, pretend = 0, frame = 0
	@ frame_needed = 1, uses_anonymous_args = 0
	UNWIND(.movsp ip)
	mov	ip, sp
	stmfd	sp!, {fp, ip, lr, pc}
	UNWIND(.pad #4)
	UNWIND(.save {fp, ip, lr})
	UNWIND(.setfp fp, ip, #-4)
	sub	fp, ip, #4
	add	r0, r0, #4096
	ldr	r0, [r0, #132]
	sub	r0, r0, #16
	cmp	r0, #5
	movhi	r0, #0
	movls	r0, #1
	ldmfd	sp, {fp, sp, pc}
	UNWIND(.fnend)
	.size	HEVC_GetRapPicFlag, .-HEVC_GetRapPicFlag
	.align	2
	.global	HEVC_GetIdrPicFlag
	.type	HEVC_GetIdrPicFlag, %function
HEVC_GetIdrPicFlag:
	UNWIND(.fnstart)
	@ args = 0, pretend = 0, frame = 0
	@ frame_needed = 1, uses_anonymous_args = 0
	UNWIND(.movsp ip)
	mov	ip, sp
	stmfd	sp!, {fp, ip, lr, pc}
	UNWIND(.pad #4)
	UNWIND(.save {fp, ip, lr})
	UNWIND(.setfp fp, ip, #-4)
	sub	fp, ip, #4
	add	r0, r0, #4096
	ldr	r0, [r0, #132]
	sub	r0, r0, #19
	cmp	r0, #1
	movhi	r0, #0
	movls	r0, #1
	ldmfd	sp, {fp, sp, pc}
	UNWIND(.fnend)
	.size	HEVC_GetIdrPicFlag, .-HEVC_GetIdrPicFlag
	.align	2
	.global	HEVC_DecPTL
	.type	HEVC_DecPTL, %function
HEVC_DecPTL:
	UNWIND(.fnstart)
	@ args = 0, pretend = 0, frame = 48
	@ frame_needed = 1, uses_anonymous_args = 0
	UNWIND(.movsp ip)
	mov	ip, sp
	stmfd	sp!, {r4, r5, r6, r7, r8, r9, r10, fp, ip, lr, pc}
	UNWIND(.pad #4)
	UNWIND(.save {r4, r5, r6, r7, r8, r9, r10, fp, ip, lr})
	UNWIND(.setfp fp, ip, #-4)
	sub	fp, ip, #4
	UNWIND(.pad #52)
	sub	sp, sp, #52
	subs	r8, r2, #0
	mov	r9, r1
	mov	r5, r0
	mov	r6, r3
	moveq	r1, #8
	bne	.L1441
.L1439:
	ldr	r0, [r5, #2356]
	bl	BsGet
	cmp	r6, #0
	str	r0, [r9, #4]
	ble	.L1410
	sub	r3, fp, #84
	sub	r7, fp, #92
	add	r10, r3, r6
	mov	r4, r3
	mov	r9, r7
.L1411:
	mov	r1, #1
	ldr	r0, [r5, #2356]
	bl	BsGet
	mov	r1, #1
	strb	r0, [r4], #1
	ldr	r0, [r5, #2356]
	bl	BsGet
	cmp	r4, r10
	strb	r0, [r9], #1
	bne	.L1411
	cmp	r6, #7
	movle	r4, r6
	ble	.L1415
	b	.L1421
.L1414:
	cmp	r4, #8
	beq	.L1421
.L1415:
	mov	r1, #2
	ldr	r0, [r5, #2356]
	bl	BsGet
	add	r4, r4, #1
	cmp	r0, #0
	beq	.L1414
	ldr	r1, .L1443
	mov	r0, #1
	bl	dprint_vfmw
	mvn	r0, #0
	sub	sp, fp, #40
	ldmfd	sp, {r4, r5, r6, r7, r8, r9, r10, fp, sp, pc}
.L1410:
	mov	r0, #0
	sub	sp, fp, #40
	ldmfd	sp, {r4, r5, r6, r7, r8, r9, r10, fp, sp, pc}
.L1421:
	mov	r10, #0
	b	.L1419
.L1418:
	add	r10, r10, #1
	cmp	r6, r10
	ble	.L1410
.L1419:
	cmp	r8, #0
	beq	.L1416
	sub	r3, fp, #84
	ldrb	r3, [r3, r10]	@ zero_extendqisi2
	cmp	r3, #0
	bne	.L1442
.L1416:
	ldrb	r3, [r7, r10]	@ zero_extendqisi2
	cmp	r3, #0
	beq	.L1418
	mov	r1, #8
	ldr	r0, [r5, #2356]
	bl	BsGet
	b	.L1418
.L1442:
	mov	r1, #2
	ldr	r0, [r5, #2356]
	bl	BsGet
	mov	r1, #1
	ldr	r0, [r5, #2356]
	mov	r4, #32
	bl	BsGet
	mov	r1, #5
	ldr	r0, [r5, #2356]
	bl	BsGet
.L1417:
	mov	r1, #1
	ldr	r0, [r5, #2356]
	bl	BsGet
	subs	r4, r4, #1
	bne	.L1417
	mov	r1, #1
	ldr	r0, [r5, #2356]
	bl	BsGet
	mov	r1, #1
	ldr	r0, [r5, #2356]
	bl	BsGet
	mov	r1, #1
	ldr	r0, [r5, #2356]
	bl	BsGet
	mov	r1, #1
	ldr	r0, [r5, #2356]
	bl	BsGet
	mov	r1, #16
	ldr	r0, [r5, #2356]
	bl	BsGet
	mov	r1, #16
	ldr	r0, [r5, #2356]
	bl	BsGet
	mov	r1, #12
	ldr	r0, [r5, #2356]
	bl	BsGet
	b	.L1416
.L1441:
	mov	r1, #2
	ldr	r0, [r0, #2356]
	bl	BsGet
	mov	r1, #1
	ldr	r0, [r5, #2356]
	sub	r4, fp, #77
	bl	BsGet
	mov	r1, #5
	ldr	r0, [r5, #2356]
	sub	r7, fp, #45
	bl	BsGet
	mov	r10, r0
.L1406:
	mov	r1, #1
	ldr	r0, [r5, #2356]
	bl	BsGet
	strb	r0, [r4, #1]!
	cmp	r4, r7
	bne	.L1406
	mov	r1, #1
	ldr	r0, [r5, #2356]
	bl	BsGet
	mov	r1, #1
	strb	r0, [r9]
	ldr	r0, [r5, #2356]
	bl	BsGet
	mov	r1, #1
	strb	r0, [r9, #1]
	ldr	r0, [r5, #2356]
	bl	BsGet
	mov	r1, #1
	ldr	r0, [r5, #2356]
	bl	BsGet
	sub	r3, r10, #4
	cmp	r3, #3
	bls	.L1407
	ldrb	r3, [fp, #-72]	@ zero_extendqisi2
	cmp	r3, #0
	bne	.L1407
	ldrb	r3, [fp, #-71]	@ zero_extendqisi2
	cmp	r3, #0
	bne	.L1407
	ldrb	r3, [fp, #-70]	@ zero_extendqisi2
	cmp	r3, #0
	bne	.L1407
	ldrb	r3, [fp, #-69]	@ zero_extendqisi2
	cmp	r3, #0
	bne	.L1407
	mov	r1, #16
	ldr	r0, [r5, #2356]
	bl	BsGet
	mov	r1, #16
	ldr	r0, [r5, #2356]
	bl	BsGet
	mov	r1, #11
	ldr	r0, [r5, #2356]
	bl	BsGet
	b	.L1409
.L1407:
	mov	r1, #1
	ldr	r0, [r5, #2356]
	bl	BsGet
	mov	r1, #1
	ldr	r0, [r5, #2356]
	bl	BsGet
	mov	r1, #1
	ldr	r0, [r5, #2356]
	bl	BsGet
	mov	r1, #1
	ldr	r0, [r5, #2356]
	bl	BsGet
	mov	r1, #1
	ldr	r0, [r5, #2356]
	bl	BsGet
	mov	r1, #1
	ldr	r0, [r5, #2356]
	bl	BsGet
	mov	r1, #1
	ldr	r0, [r5, #2356]
	bl	BsGet
	mov	r1, #1
	ldr	r0, [r5, #2356]
	bl	BsGet
	mov	r1, #1
	ldr	r0, [r5, #2356]
	bl	BsGet
	mov	r1, #16
	ldr	r0, [r5, #2356]
	bl	BsGet
	mov	r1, #16
	ldr	r0, [r5, #2356]
	bl	BsGet
	mov	r1, #2
	ldr	r0, [r5, #2356]
	bl	BsGet
.L1409:
	mov	r1, #1
	ldr	r0, [r5, #2356]
	bl	BsGet
	ldrb	r2, [fp, #-75]	@ zero_extendqisi2
	ldrb	r3, [fp, #-74]	@ zero_extendqisi2
	mov	r1, #8
	str	r10, [r5, #300]
	str	r2, [r5, #304]
	str	r3, [r5, #308]
	b	.L1439
.L1444:
	.align	2
.L1443:
	.word	.LC142
	UNWIND(.fnend)
	.size	HEVC_DecPTL, .-HEVC_DecPTL
	.align	2
	.global	HEVC_SetDefaultScalingList
	.type	HEVC_SetDefaultScalingList, %function
HEVC_SetDefaultScalingList:
	UNWIND(.fnstart)
	@ args = 0, pretend = 0, frame = 8
	@ frame_needed = 1, uses_anonymous_args = 0
	UNWIND(.movsp ip)
	mov	ip, sp
	stmfd	sp!, {r4, r5, r6, r7, r8, r9, r10, fp, ip, lr, pc}
	UNWIND(.pad #4)
	UNWIND(.save {r4, r5, r6, r7, r8, r9, r10, fp, ip, lr})
	UNWIND(.setfp fp, ip, #-4)
	sub	fp, ip, #4
	UNWIND(.pad #12)
	sub	sp, sp, #12
	ldr	r9, .L1463
	add	r10, r0, #2208
	mov	r6, #0
	add	r3, r0, #2224
	str	r0, [fp, #-52]
	str	r3, [fp, #-48]
.L1446:
	ldr	r3, [r10, #4]!
	cmp	r3, #0
	beq	.L1454
	ldr	r3, [fp, #-52]
	mov	r8, r6, asl #9
	ldr	r7, [fp, #-48]
	sub	r8, r8, r6, asl #7
	add	r5, r3, #596
	mov	r4, #0
.L1452:
	cmp	r6, #0
	add	r0, r5, r8
	mov	r2, #64
	ldr	r3, [r9, #52]
	beq	.L1461
	cmp	r6, #3
	beq	.L1462
	ldr	ip, .L1463+4
	cmp	r4, #2
	ldr	r1, .L1463+8
	movhi	r1, ip
	blx	r3
.L1448:
	mov	r3, #16
	str	r3, [r7, #4]!
	ldr	r3, [r10]
	add	r4, r4, #1
	add	r5, r5, #64
	cmp	r3, r4
	bhi	.L1452
.L1454:
	add	r6, r6, #1
	ldr	r3, [fp, #-48]
	cmp	r6, #4
	add	r3, r3, #24
	str	r3, [fp, #-48]
	bne	.L1446
	sub	sp, fp, #40
	ldmfd	sp, {r4, r5, r6, r7, r8, r9, r10, fp, sp, pc}
.L1461:
	mov	r2, #16
	ldr	r1, .L1463+12
	mov	r0, r5
	blx	r3
	b	.L1448
.L1462:
	ldr	r0, .L1463+4
	cmp	r4, #0
	ldr	r1, .L1463+8
	mov	r2, #64
	movne	r1, r0
	add	r0, r5, #1152
	blx	r3
	b	.L1448
.L1464:
	.align	2
.L1463:
	.word	vfmw_Osal_Func_Ptr_S
	.word	.LANCHOR0+376
	.word	.LANCHOR4
	.word	.LANCHOR0+440
	UNWIND(.fnend)
	.size	HEVC_SetDefaultScalingList, .-HEVC_SetDefaultScalingList
	.align	2
	.global	HEVC_CalScalingList
	.type	HEVC_CalScalingList, %function
HEVC_CalScalingList:
	UNWIND(.fnstart)
	@ args = 0, pretend = 0, frame = 0
	@ frame_needed = 1, uses_anonymous_args = 0
	UNWIND(.movsp ip)
	mov	ip, sp
	stmfd	sp!, {r4, r5, r6, r7, r8, r9, fp, ip, lr, pc}
	UNWIND(.pad #4)
	UNWIND(.save {r4, r5, r6, r7, r8, r9, fp, ip, lr})
	UNWIND(.setfp fp, ip, #-4)
	sub	fp, ip, #4
	add	lr, r0, r2, lsl #2
	mov	ip, r2, asl #3
	sub	r2, ip, r2, asl #1
	mov	r5, #0
	ldr	r7, [lr, #324]
	add	r3, r3, r2
	cmp	r7, #64
	mov	r6, r3, asl #4
	movcs	r7, #64
	mov	r8, r7, lsr #2
.L1466:
	cmp	r5, r8
	ldmcsfd	sp, {r4, r5, r6, r7, r8, r9, fp, sp, pc}
	cmp	r7, #0
	beq	.L1466
	add	r3, r5, r6
	ldrb	ip, [r1]	@ zero_extendqisi2
	mov	r4, r1
	mov	r2, #0
	add	r3, r0, r3, lsl #2
	ldr	lr, [r3, #596]
	orr	ip, lr, ip
	str	ip, [r3, #596]
.L1472:
	add	r2, r2, #1
	add	r3, r5, r6
	and	lr, r2, #3
	cmp	r2, r7
	add	r3, r0, r3, lsl #2
	mov	ip, lr, asl #3
	beq	.L1466
	ldrb	r9, [r4, #1]!	@ zero_extendqisi2
	cmp	lr, #3
	ldr	lr, [r3, #596]
	addeq	r5, r5, #1
	orr	ip, lr, r9, asl ip
	str	ip, [r3, #596]
	b	.L1472
	UNWIND(.fnend)
	.size	HEVC_CalScalingList, .-HEVC_CalScalingList
	.align	2
	.global	HEVC_SetScalingList
	.type	HEVC_SetScalingList, %function
HEVC_SetScalingList:
	UNWIND(.fnstart)
	@ args = 0, pretend = 0, frame = 8
	@ frame_needed = 1, uses_anonymous_args = 0
	UNWIND(.movsp ip)
	mov	ip, sp
	stmfd	sp!, {r4, r5, r6, r7, r8, r9, r10, fp, ip, lr, pc}
	UNWIND(.pad #4)
	UNWIND(.save {r4, r5, r6, r7, r8, r9, r10, fp, ip, lr})
	UNWIND(.setfp fp, ip, #-4)
	sub	fp, ip, #4
	UNWIND(.pad #12)
	sub	sp, sp, #12
	ldr	r3, [r0, #2388]
	mov	r7, r0
	ldrb	r2, [r3, #3]	@ zero_extendqisi2
	cmp	r2, #0
	beq	.L1474
	ldr	r9, [r0, #2392]
	ldrb	r2, [r9, #21]	@ zero_extendqisi2
	cmp	r2, #0
	addne	r3, r9, #256
	strne	r3, [fp, #-48]
	beq	.L1491
.L1476:
	ldr	r3, [fp, #-48]
	cmp	r3, #0
	beq	.L1477
	ldr	r10, .L1492
	mov	r1, #0
	mov	r2, #1536
	add	r0, r7, #596
	add	r9, r7, #2208
	ldr	r8, [fp, #-48]
	ldr	r3, [r10, #48]
	mov	r6, r1
	blx	r3
.L1479:
	ldr	r3, [r9, #4]!
	cmp	r3, #0
	movne	r5, r8
	movne	r4, #0
	beq	.L1482
.L1480:
	mov	r3, r4
	mov	r1, r5
	mov	r2, r6
	mov	r0, r7
	bl	HEVC_CalScalingList
	ldr	r3, [r9]
	add	r4, r4, #1
	add	r5, r5, #64
	cmp	r3, r4
	bhi	.L1480
.L1482:
	add	r6, r6, #1
	add	r8, r8, #384
	cmp	r6, #4
	bne	.L1479
	ldr	r2, [fp, #-48]
	add	r0, r7, #2224
	ldr	r3, [r10, #52]
	add	r0, r0, #4
	add	r1, r2, #1536
	mov	r2, #96
	blx	r3
.L1474:
	mov	r0, #0
	sub	sp, fp, #40
	ldmfd	sp, {r4, r5, r6, r7, r8, r9, r10, fp, sp, pc}
.L1491:
	ldrb	r2, [r3, #4]	@ zero_extendqisi2
	cmp	r2, #0
	addne	r3, r3, #432
	strne	r3, [fp, #-48]
	bne	.L1476
.L1477:
	mov	r0, r7
	bl	HEVC_SetDefaultScalingList
	b	.L1474
.L1493:
	.align	2
.L1492:
	.word	vfmw_Osal_Func_Ptr_S
	UNWIND(.fnend)
	.size	HEVC_SetScalingList, .-HEVC_SetScalingList
	.align	2
	.global	HEVC_GetScalingListDefaultAddress
	.type	HEVC_GetScalingListDefaultAddress, %function
HEVC_GetScalingListDefaultAddress:
	UNWIND(.fnstart)
	@ args = 0, pretend = 0, frame = 0
	@ frame_needed = 1, uses_anonymous_args = 0
	UNWIND(.movsp ip)
	mov	ip, sp
	stmfd	sp!, {fp, ip, lr, pc}
	UNWIND(.pad #4)
	UNWIND(.save {fp, ip, lr})
	UNWIND(.setfp fp, ip, #-4)
	sub	fp, ip, #4
	cmp	r0, #3
	ldrls	pc, [pc, r0, asl #2]
	b	.L1495
.L1497:
	.word	.L1501
	.word	.L1499
	.word	.L1499
	.word	.L1500
.L1499:
	ldr	r3, .L1505
	cmp	r1, #2
	add	r0, r3, #64
	movhi	r0, r3
	ldmfd	sp, {fp, sp, pc}
.L1501:
	ldr	r0, .L1505+4
	ldmfd	sp, {fp, sp, pc}
.L1500:
	ldr	r3, .L1505
	cmp	r1, #0
	add	r0, r3, #64
	movne	r0, r3
	ldmfd	sp, {fp, sp, pc}
.L1495:
	ldr	r1, .L1505+8
	mov	r0, #1
	bl	dprint_vfmw
	mov	r0, #0
	ldmfd	sp, {fp, sp, pc}
.L1506:
	.align	2
.L1505:
	.word	.LANCHOR4+80
	.word	.LANCHOR4+64
	.word	.LC143
	UNWIND(.fnend)
	.size	HEVC_GetScalingListDefaultAddress, .-HEVC_GetScalingListDefaultAddress
	.align	2
	.global	HEVC_DecRefPicListsModification
	.type	HEVC_DecRefPicListsModification, %function
HEVC_DecRefPicListsModification:
	UNWIND(.fnstart)
	@ args = 0, pretend = 0, frame = 0
	@ frame_needed = 1, uses_anonymous_args = 0
	UNWIND(.movsp ip)
	mov	ip, sp
	stmfd	sp!, {r3, r4, r5, r6, r7, r8, r9, r10, fp, ip, lr, pc}
	UNWIND(.pad #4)
	UNWIND(.save {r3, r4, r5, r6, r7, r8, r9, r10, fp, ip, lr})
	UNWIND(.setfp fp, ip, #-4)
	sub	fp, ip, #4
	cmp	r2, #0
	cmpne	r1, #0
	mov	r5, r3
	mov	r7, r1
	mov	r8, r2
	moveq	ip, #1
	movne	ip, #0
	cmp	r0, #0
	orreq	ip, ip, #1
	mov	r6, r0
	cmp	ip, #0
	bne	.L1517
	sub	ip, r3, #1
	mov	r4, #1
	movs	ip, ip, asr #1
	beq	.L1509
.L1510:
	movs	ip, ip, asr #1
	add	r4, r4, #1
	bne	.L1510
.L1509:
	mov	r1, #1
	ldr	r0, [r6, #2356]
	bl	BsGet
	cmp	r5, #1
	movls	r10, #0
	movhi	r10, #1
	uxtb	r0, r0
	strb	r0, [r8]
	cmp	r0, #0
	cmpne	r5, #1
	bls	.L1514
	ldr	r3, [r7, #76]
	cmp	r3, #0
	beq	.L1514
	mov	r9, r8
	mov	r5, #0
.L1515:
	mov	r1, r4
	ldr	r0, [r6, #2356]
	bl	BsGet
	add	r5, r5, #1
	str	r0, [r9, #4]!
	ldr	r3, [r7, #76]
	cmp	r3, r5
	bhi	.L1515
.L1514:
	ldr	r5, [r7, #20]
	cmp	r5, #0
	beq	.L1532
.L1513:
	mov	r0, #0
	ldmfd	sp, {r3, r4, r5, r6, r7, r8, r9, r10, fp, sp, pc}
.L1532:
	mov	r1, #1
	ldr	r0, [r6, #2356]
	bl	BsGet
	uxtb	r0, r0
	strb	r0, [r8, #1]
	cmp	r0, #0
	moveq	r10, #0
	andne	r10, r10, #1
	cmp	r10, #0
	beq	.L1513
	ldr	r3, [r7, #80]
	cmp	r3, #0
	beq	.L1513
	add	r8, r8, #128
.L1516:
	mov	r1, r4
	ldr	r0, [r6, #2356]
	bl	BsGet
	add	r5, r5, #1
	str	r0, [r8, #4]!
	ldr	r3, [r7, #80]
	cmp	r3, r5
	bhi	.L1516
	mov	r0, #0
	ldmfd	sp, {r3, r4, r5, r6, r7, r8, r9, r10, fp, sp, pc}
.L1517:
	mvn	r0, #0
	ldmfd	sp, {r3, r4, r5, r6, r7, r8, r9, r10, fp, sp, pc}
	UNWIND(.fnend)
	.size	HEVC_DecRefPicListsModification, .-HEVC_DecRefPicListsModification
	.align	2
	.global	HEVC_MoreRbspData
	.type	HEVC_MoreRbspData, %function
HEVC_MoreRbspData:
	UNWIND(.fnstart)
	@ args = 0, pretend = 0, frame = 0
	@ frame_needed = 1, uses_anonymous_args = 0
	UNWIND(.movsp ip)
	mov	ip, sp
	stmfd	sp!, {r4, r5, fp, ip, lr, pc}
	UNWIND(.pad #4)
	UNWIND(.save {r4, r5, fp, ip, lr})
	UNWIND(.setfp fp, ip, #-4)
	sub	fp, ip, #4
	mov	r4, r0
	ldr	r0, [r0, #2356]
	bl	BsResidBits
	subs	r3, r0, #0
	ble	.L1535
	ldr	r2, [r4, #2376]
	ldr	r0, [r2, #12]
	add	r0, r0, #3
	cmp	r3, r0
	movls	r0, #0
	movhi	r0, #1
	ldmfd	sp, {r4, r5, fp, sp, pc}
.L1535:
	mov	r0, #0
	ldmfd	sp, {r4, r5, fp, sp, pc}
	UNWIND(.fnend)
	.size	HEVC_MoreRbspData, .-HEVC_MoreRbspData
	.align	2
	.global	HEVC_More_Rbsp_Data
	.type	HEVC_More_Rbsp_Data, %function
HEVC_More_Rbsp_Data:
	UNWIND(.fnstart)
	@ args = 0, pretend = 0, frame = 0
	@ frame_needed = 1, uses_anonymous_args = 0
	UNWIND(.movsp ip)
	mov	ip, sp
	stmfd	sp!, {fp, ip, lr, pc}
	UNWIND(.pad #4)
	UNWIND(.save {fp, ip, lr})
	UNWIND(.setfp fp, ip, #-4)
	sub	fp, ip, #4
	ldr	r0, [r0, #2356]
	ldr	r2, [r0, #16]
	ldr	r3, [r0, #24]
	mov	r2, r2, asl #3
	cmp	r2, r3
	bls	.L1539
	mov	r1, #8
	bl	BsShow
	subs	r0, r0, #128
	movne	r0, #1
	ldmfd	sp, {fp, sp, pc}
.L1539:
	ldr	r1, .L1540
	mov	r0, #1
	bl	dprint_vfmw
	mov	r0, #0
	ldmfd	sp, {fp, sp, pc}
.L1541:
	.align	2
.L1540:
	.word	.LC144
	UNWIND(.fnend)
	.size	HEVC_More_Rbsp_Data, .-HEVC_More_Rbsp_Data
	.align	2
	.global	HEVC_FindTrailZeros
	.type	HEVC_FindTrailZeros, %function
HEVC_FindTrailZeros:
	UNWIND(.fnstart)
	@ args = 0, pretend = 0, frame = 0
	@ frame_needed = 1, uses_anonymous_args = 0
	UNWIND(.movsp ip)
	mov	ip, sp
	stmfd	sp!, {r4, r5, r6, r7, fp, ip, lr, pc}
	UNWIND(.pad #4)
	UNWIND(.save {r4, r5, r6, r7, fp, ip, lr})
	UNWIND(.setfp fp, ip, #-4)
	sub	fp, ip, #4
	mov	r1, #0
	mov	r6, r0
.L1554:
	ldr	r3, [r6, #2376]
	ldr	ip, [r3, #8]
	sub	ip, ip, #1
	mov	r0, ip, asl #2
	mov	ip, ip, asl #5
	rsb	r2, r0, ip
	add	r2, r3, r2
	ldr	r3, [r2, #44]
	ldr	r2, [r2, #40]
	sub	r3, r3, #1
	add	r3, r2, r3
.L1543:
	ldrb	r4, [r3]	@ zero_extendqisi2
	rsb	r5, r0, ip
	cmp	r4, #0
	bne	.L1555
	ldr	r2, [r6, #2376]
	add	r1, r1, #1
	add	lr, r2, r5
	ldr	r2, [r2, #40]
	cmp	r2, r3
	beq	.L1556
	ldr	r2, [lr, #40]
	cmp	r2, r3
	sub	r3, r3, #1
	bne	.L1543
	ldr	r1, [lr, #64]
	ldr	r0, [r6, #252]
	bl	SM_ReleaseStreamSeg
	ldr	r3, [r6, #2376]
	mov	r1, r4
	add	r5, r3, r5
	str	r4, [r5, #40]
	ldr	r2, [r6, #2376]
	ldr	r3, [r2, #8]
	sub	r3, r3, #1
	str	r3, [r2, #8]
	b	.L1554
.L1555:
	tst	r4, #1
	mov	r3, #1
	moveq	r2, r3
	bne	.L1550
.L1551:
	ands	r0, r4, r2, asl r3
	add	r3, r3, #1
	bne	.L1550
	cmp	r3, #8
	bne	.L1551
	ldr	r1, .L1557
	mov	r0, #1
	bl	dprint_vfmw
	mvn	r0, #0
	ldmfd	sp, {r4, r5, r6, r7, fp, sp, pc}
.L1556:
	ldr	r1, .L1557+4
	mov	r0, #1
	bl	dprint_vfmw
	mvn	r0, #0
	ldmfd	sp, {r4, r5, r6, r7, fp, sp, pc}
.L1550:
	ldr	ip, [r6, #2376]
	mov	r2, #0
	add	r1, r3, r1, lsl #3
	mov	r0, r2
	str	r2, [ip, #4]
	ldr	r3, [r6, #2376]
	str	r1, [r3, #12]
	ldmfd	sp, {r4, r5, r6, r7, fp, sp, pc}
.L1558:
	.align	2
.L1557:
	.word	.LC146
	.word	.LC145
	UNWIND(.fnend)
	.size	HEVC_FindTrailZeros, .-HEVC_FindTrailZeros
	.align	2
	.global	HEVC_FindNaluArraySlot
	.type	HEVC_FindNaluArraySlot, %function
HEVC_FindNaluArraySlot:
	UNWIND(.fnstart)
	@ args = 0, pretend = 0, frame = 0
	@ frame_needed = 1, uses_anonymous_args = 0
	UNWIND(.movsp ip)
	mov	ip, sp
	stmfd	sp!, {r4, r5, r6, r7, r8, r9, fp, ip, lr, pc}
	UNWIND(.pad #4)
	UNWIND(.save {r4, r5, r6, r7, r8, r9, fp, ip, lr})
	UNWIND(.setfp fp, ip, #-4)
	sub	fp, ip, #4
	ldr	r5, [r0, #168]
	mov	r8, r0
	ldr	r3, [r0, #148]
	cmp	r5, #0
	blt	.L1560
	add	r6, r5, #1
	mov	r0, r3
	mov	r1, r6
	bl	__aeabi_uidivmod
	ldr	r7, [r8, #2400]
	mov	r3, r1
	mov	r1, r1, asl #5
	mov	ip, r3, asl #7
	rsb	r2, r1, ip
	add	r2, r7, r2
	ldr	r2, [r2, #32]
	cmp	r2, #0
	beq	.L1561
	mov	r4, #0
	b	.L1563
.L1564:
	bl	__aeabi_uidivmod
	mov	r3, r1
	mov	r1, r1, asl #5
	mov	ip, r3, asl #7
	rsb	r2, r1, ip
	add	r2, r7, r2
	ldr	r2, [r2, #32]
	cmp	r2, #0
	beq	.L1561
.L1563:
	add	r4, r4, #1
	mov	r1, r6
	cmp	r4, r5
	add	r0, r3, r4
	ble	.L1564
.L1560:
	mvn	r0, #0
	str	r3, [r8, #148]
	ldmfd	sp, {r4, r5, r6, r7, r8, r9, fp, sp, pc}
.L1561:
	cmp	r3, r6
	mov	r0, r3
	str	r3, [r8, #148]
	bcs	.L1574
	rsb	r1, r1, ip
	mov	r3, #1
	add	r7, r7, r1
	str	r3, [r7, #32]
	ldmfd	sp, {r4, r5, r6, r7, r8, r9, fp, sp, pc}
.L1574:
	mvn	r0, #0
	ldmfd	sp, {r4, r5, r6, r7, r8, r9, fp, sp, pc}
	UNWIND(.fnend)
	.size	HEVC_FindNaluArraySlot, .-HEVC_FindNaluArraySlot
	.align	2
	.global	HEVC_ReleaseNAL
	.type	HEVC_ReleaseNAL, %function
HEVC_ReleaseNAL:
	UNWIND(.fnstart)
	@ args = 0, pretend = 0, frame = 0
	@ frame_needed = 1, uses_anonymous_args = 0
	UNWIND(.movsp ip)
	mov	ip, sp
	stmfd	sp!, {r4, r5, r6, r7, fp, ip, lr, pc}
	UNWIND(.pad #4)
	UNWIND(.save {r4, r5, r6, r7, fp, ip, lr})
	UNWIND(.setfp fp, ip, #-4)
	sub	fp, ip, #4
	UNWIND(.pad #8)
	sub	sp, sp, #8
	subs	r5, r1, #0
	mov	r6, r0
	beq	.L1583
	add	r7, r5, #56
	mov	r4, r5
	mov	r3, #0
	str	r3, [r5, #32]
	str	r3, [r5, #36]
.L1578:
	ldr	r3, [r4, #40]
	mov	r0, r6
	cmp	r3, #0
	beq	.L1577
	ldr	r1, [r4, #64]
	bl	SM_ReleaseStreamSeg
	ldr	ip, [r4, #44]
	ldr	r3, [r4, #40]
	mov	r0, #7
	ldr	r2, .L1584
	ldr	r1, .L1584+4
	str	ip, [sp]
	bl	dprint_vfmw
	mov	r3, #0
	str	r3, [r4, #40]
	str	r3, [r4, #56]
	str	r3, [r4, #44]
.L1577:
	add	r4, r4, #28
	cmp	r4, r7
	bne	.L1578
	ldr	r3, .L1584+8
	mov	r0, r5
	mov	r2, #96
	mov	r1, #0
	ldr	r3, [r3, #48]
	sub	sp, fp, #28
	ldmfd	sp, {r4, r5, r6, r7, fp, sp, lr}
	bx	r3
.L1583:
	mov	r0, r5
	movw	r3, #14174
	ldr	r2, .L1584+12
	ldr	r1, .L1584+16
	sub	sp, fp, #28
	ldmfd	sp, {r4, r5, r6, r7, fp, sp, lr}
	b	dprint_vfmw
.L1585:
	.align	2
.L1584:
	.word	.LANCHOR0+456
	.word	.LC147
	.word	vfmw_Osal_Func_Ptr_S
	.word	.LC84
	.word	.LC85
	UNWIND(.fnend)
	.size	HEVC_ReleaseNAL, .-HEVC_ReleaseNAL
	.align	2
	.global	HEVC_InitDecBuffers
	.type	HEVC_InitDecBuffers, %function
HEVC_InitDecBuffers:
	UNWIND(.fnstart)
	@ args = 0, pretend = 0, frame = 0
	@ frame_needed = 1, uses_anonymous_args = 0
	UNWIND(.movsp ip)
	mov	ip, sp
	stmfd	sp!, {r4, r5, r6, r7, r8, r9, fp, ip, lr, pc}
	UNWIND(.pad #4)
	UNWIND(.save {r4, r5, r6, r7, r8, r9, fp, ip, lr})
	UNWIND(.setfp fp, ip, #-4)
	sub	fp, ip, #4
	UNWIND(.pad #8)
	sub	sp, sp, #8
	ldr	r3, [r0, #2388]
	mov	r6, r0
	ldr	r3, [r3, #184]
	add	r3, r3, #1
	str	r3, [r0, #2584]
	cmp	r3, #17
	bhi	.L1621
.L1587:
	add	r0, r6, #2800
	add	r1, r6, #2736
	add	r2, r6, #2592
	mov	lr, #0
	add	r0, r0, #8
	add	r1, r1, #4
	add	r2, r2, #12
	add	ip, r6, #2672
	mov	r3, lr
	mov	r7, #17
	str	lr, [r6, #2588]
	str	lr, [r6, #2600]
	str	lr, [r6, #2604]
	str	lr, [r6, #2596]
	str	lr, [r6, #2592]
.L1588:
	subs	r7, r7, #1
	str	r3, [r0, #4]!
	str	r3, [ip, #4]!
	str	r3, [r1, #4]!
	str	r3, [r2, #4]!
	bne	.L1588
	ldr	r9, .L1622
	add	r4, r6, #12800
.L1589:
	ldr	r3, [r9, #48]
	mov	r2, #632
	mov	r0, r4
	mov	r1, #0
	blx	r3
	str	r7, [r4, #148]
	add	r7, r7, #1
	mov	r5, #0
	cmp	r7, #20
	sub	r3, r4, #80
	strb	r5, [r4, #-80]
	mov	r2, #20
	str	r3, [r4, #-8]
	mov	r8, #16
	str	r5, [r4, #-32]
	add	r4, r4, #712
	strb	r5, [r4, #-791]
	str	r5, [r4, #-784]
	strb	r5, [r4, #-790]
	str	r5, [r4, #-736]
	str	r2, [r4, #-772]
	str	r8, [r4, #-768]
	ldr	r3, .L1622
	bne	.L1589
	add	r0, r6, #12480
	ldr	r3, [r3, #48]
	mov	r2, #200
	mov	r1, r5
	add	r0, r0, #40
	blx	r3
	add	r2, r6, #12288
	add	r3, r6, #2400
	mov	r1, r5
	str	r8, [r2, #232]
	add	r3, r3, #12
	str	r5, [r2, #236]
	add	r2, r6, #2480
.L1591:
	str	r1, [r3, #4]!
	cmp	r3, r2
	mov	r0, #0
	bne	.L1591
	add	r1, r6, #2544
	add	lr, r6, #4096
	add	r1, r1, #4
	mov	ip, r0
	str	r0, [lr, #172]
.L1592:
	str	ip, [r2, #4]!
	cmp	r2, r1
	mov	r3, #0
	bne	.L1592
	str	r3, [lr, #176]
	ldr	r1, [r6, #184]
	cmp	r1, r3
	addne	r2, r6, #2128
	movne	r0, r3
	beq	.L1597
.L1596:
	add	r3, r3, #1
	str	r0, [r2, #4]!
	cmp	r3, r1
	bne	.L1596
.L1597:
	ldr	r3, [r6, #168]
	cmp	r3, #0
	movne	r4, #0
	movne	r5, r4
	beq	.L1586
.L1602:
	ldr	r3, [r6, #2396]
	mov	r7, r4, asl #2
	ldr	r1, [r3, r4, asl #2]
	cmp	r1, #0
	beq	.L1598
	ldr	r3, [r6, #2376]
	cmp	r1, r3
	beq	.L1598
	ldr	r0, [r6, #252]
	bl	HEVC_ReleaseNAL
	ldr	r3, [r6, #2396]
	str	r5, [r3, r7]
	ldr	r3, [r6, #204]
	ldr	r2, [r6, #236]
	cmp	r3, #0
	subne	r3, r3, #1
	str	r3, [r6, #204]
	ldr	r3, [r6, #176]
	cmp	r2, #0
	subne	r2, r2, #1
	str	r2, [r6, #236]
	cmp	r3, #2
	subhi	r3, r3, #1
	movls	r3, #2
	str	r3, [r6, #176]
.L1598:
	ldr	r3, [r6, #168]
	add	r4, r4, #1
	cmp	r3, r4
	bhi	.L1602
.L1586:
	sub	sp, fp, #36
	ldmfd	sp, {r4, r5, r6, r7, r8, r9, fp, sp, pc}
.L1621:
	mov	r4, #17
	ldr	r2, .L1622+4
	str	r4, [sp]
	mov	r3, r4
	ldr	r1, .L1622+8
	mov	r0, #1
	bl	dprint_vfmw
	str	r4, [r6, #2584]
	b	.L1587
.L1623:
	.align	2
.L1622:
	.word	vfmw_Osal_Func_Ptr_S
	.word	.LANCHOR0+472
	.word	.LC148
	UNWIND(.fnend)
	.size	HEVC_InitDecBuffers, .-HEVC_InitDecBuffers
	.align	2
	.global	HEVC_EmptyFrmFromDPB
	.type	HEVC_EmptyFrmFromDPB, %function
HEVC_EmptyFrmFromDPB:
	UNWIND(.fnstart)
	@ args = 0, pretend = 0, frame = 0
	@ frame_needed = 1, uses_anonymous_args = 0
	UNWIND(.movsp ip)
	mov	ip, sp
	stmfd	sp!, {r4, r5, r6, r7, r8, r9, fp, ip, lr, pc}
	UNWIND(.pad #4)
	UNWIND(.save {r4, r5, r6, r7, r8, r9, fp, ip, lr})
	UNWIND(.setfp fp, ip, #-4)
	sub	fp, ip, #4
	subs	r6, r0, #0
	beq	.L1634
	ldr	r3, [r6, #2588]
	add	r8, r6, #2592
	cmp	r3, #0
	addeq	r8, r8, #12
	beq	.L1626
	add	r8, r8, #12
	mov	r3, #0
	mov	ip, #1
	mov	r1, r8
.L1628:
	ldr	r2, [r1, #4]!
	add	r3, r3, #1
	ldrb	r0, [r2, #2]	@ zero_extendqisi2
	cmp	r0, #0
	streqb	ip, [r2, #2]
	ldr	r2, [r6, #2588]
	cmp	r2, r3
	bhi	.L1628
.L1626:
	mov	r4, r6
	mov	r7, #17
	mov	r5, #0
	mov	r3, #-2147483647
	str	r3, [r6, #212]
.L1633:
	ldr	r3, [r8, #4]!
	mov	r2, #1
	cmp	r3, #0
	beq	.L1629
	ldr	r1, [r3, #28]
	ldr	r0, [r6, #252]
	bl	FSP_ClearLogicFs
.L1629:
	ldr	r3, [r4, #2676]
	mov	r2, #1
	cmp	r3, #0
	beq	.L1630
	ldr	r1, [r3, #28]
	ldr	r0, [r6, #252]
	bl	FSP_ClearLogicFs
.L1630:
	ldr	r3, [r4, #2744]
	mov	r2, #1
	cmp	r3, #0
	beq	.L1631
	ldr	r1, [r3, #28]
	ldr	r0, [r6, #252]
	bl	FSP_ClearLogicFs
.L1631:
	ldr	r3, [r4, #2812]
	mov	r2, #1
	cmp	r3, #0
	beq	.L1632
	ldr	r1, [r3, #28]
	ldr	r0, [r6, #252]
	bl	FSP_ClearLogicFs
.L1632:
	subs	r7, r7, #1
	str	r5, [r4, #2812]
	str	r5, [r4, #2744]
	add	r4, r4, #4
	str	r5, [r4, #2672]
	str	r5, [r4, #2604]
	bne	.L1633
	mov	r0, r6
	bl	HEVC_InitDecBuffers
	mov	r0, r7
	ldmfd	sp, {r4, r5, r6, r7, r8, r9, fp, sp, pc}
.L1634:
	mvn	r0, #0
	ldmfd	sp, {r4, r5, r6, r7, r8, r9, fp, sp, pc}
	UNWIND(.fnend)
	.size	HEVC_EmptyFrmFromDPB, .-HEVC_EmptyFrmFromDPB
	.align	2
	.global	HEVC_CombinePacket
	.type	HEVC_CombinePacket, %function
HEVC_CombinePacket:
	UNWIND(.fnstart)
	@ args = 0, pretend = 0, frame = 0
	@ frame_needed = 1, uses_anonymous_args = 0
	UNWIND(.movsp ip)
	mov	ip, sp
	stmfd	sp!, {r4, r5, fp, ip, lr, pc}
	UNWIND(.pad #4)
	UNWIND(.save {r4, r5, fp, ip, lr})
	UNWIND(.setfp fp, ip, #-4)
	sub	fp, ip, #4
	mov	r4, r0
	ldr	r0, [r0, #2376]
	cmp	r0, #0
	beq	.L1656
	ldr	r3, [r0, #44]
	cmp	r3, #4096
	ldmcsfd	sp, {r4, r5, fp, sp, pc}
	ldr	r1, .L1657
	mov	r0, #7
	bl	dprint_vfmw
	ldr	r3, [r4, #2376]
	ldr	ip, .L1657+4
	mov	r5, #0
	ldr	r2, [r3, #44]
	ldr	r0, [r3, #68]
	ldr	r1, [r3, #40]
	rsb	r0, r2, r0
	ldr	r3, [ip, #52]
	blx	r3
	ldr	r3, [r4, #2376]
	mov	r0, #1
	ldr	r2, [r3, #92]
	ldr	r1, [r3, #64]
	str	r2, [r3, #64]
	ldr	r3, [r4, #2376]
	str	r5, [r3, #56]
	ldr	r3, [r4, #2376]
	ldr	ip, [r3, #44]
	ldr	r2, [r3, #68]
	rsb	r2, ip, r2
	str	r2, [r3, #40]
	ldr	r3, [r4, #2376]
	ldr	ip, [r3, #44]
	ldr	r2, [r3, #76]
	rsb	r2, ip, r2
	str	r2, [r3, #48]
	ldr	r3, [r4, #2376]
	ldr	r2, [r3, #44]
	ldr	ip, [r3, #72]
	add	r2, r2, ip
	str	r2, [r3, #44]
	ldr	r3, [r4, #2376]
	str	r0, [r3, #8]
	ldr	r0, [r4, #252]
	bl	SM_ReleaseStreamSeg
	ldr	r3, [r4, #2376]
	str	r5, [r3, #68]
	ldr	r3, [r4, #2376]
	str	r5, [r3, #84]
	ldr	r3, [r4, #2376]
	str	r5, [r3, #72]
	ldmfd	sp, {r4, r5, fp, sp, pc}
.L1656:
	ldr	r1, .L1657+8
	sub	sp, fp, #20
	ldmfd	sp, {r4, r5, fp, sp, lr}
	b	dprint_vfmw
.L1658:
	.align	2
.L1657:
	.word	.LC150
	.word	vfmw_Osal_Func_Ptr_S
	.word	.LC149
	UNWIND(.fnend)
	.size	HEVC_CombinePacket, .-HEVC_CombinePacket
	.align	2
	.global	HEVC_IsOutDPB
	.type	HEVC_IsOutDPB, %function
HEVC_IsOutDPB:
	UNWIND(.fnstart)
	@ args = 0, pretend = 0, frame = 0
	@ frame_needed = 1, uses_anonymous_args = 0
	UNWIND(.movsp ip)
	mov	ip, sp
	stmfd	sp!, {fp, ip, lr, pc}
	UNWIND(.pad #4)
	UNWIND(.save {fp, ip, lr})
	UNWIND(.setfp fp, ip, #-4)
	sub	fp, ip, #4
	cmp	r1, #0
	beq	.L1664
	ldr	ip, [r0, #2588]
	cmp	ip, #0
	beq	.L1664
	ldr	r3, [r0, #2608]
	cmp	r3, r1
	beq	.L1666
	add	r0, r0, #2608
	mov	r3, #0
	b	.L1661
.L1662:
	ldr	r2, [r0, #4]!
	cmp	r2, r1
	beq	.L1666
.L1661:
	add	r3, r3, #1
	cmp	r3, ip
	bne	.L1662
.L1664:
	mov	r0, #1
	ldmfd	sp, {fp, sp, pc}
.L1666:
	mov	r0, #0
	ldmfd	sp, {fp, sp, pc}
	UNWIND(.fnend)
	.size	HEVC_IsOutDPB, .-HEVC_IsOutDPB
	.align	2
	.global	HEVC_IsNewPicNal
	.type	HEVC_IsNewPicNal, %function
HEVC_IsNewPicNal:
	UNWIND(.fnstart)
	@ args = 0, pretend = 0, frame = 0
	@ frame_needed = 1, uses_anonymous_args = 0
	UNWIND(.movsp ip)
	mov	ip, sp
	stmfd	sp!, {fp, ip, lr, pc}
	UNWIND(.pad #4)
	UNWIND(.save {fp, ip, lr})
	UNWIND(.setfp fp, ip, #-4)
	sub	fp, ip, #4
	mov	r0, #0
	ldmfd	sp, {fp, sp, pc}
	UNWIND(.fnend)
	.size	HEVC_IsNewPicNal, .-HEVC_IsNewPicNal
	.align	2
	.global	HEVC_u_v
	.type	HEVC_u_v, %function
HEVC_u_v:
	UNWIND(.fnstart)
	@ args = 0, pretend = 0, frame = 0
	@ frame_needed = 1, uses_anonymous_args = 0
	UNWIND(.movsp ip)
	mov	ip, sp
	stmfd	sp!, {fp, ip, lr, pc}
	UNWIND(.pad #4)
	UNWIND(.save {fp, ip, lr})
	UNWIND(.setfp fp, ip, #-4)
	sub	fp, ip, #4
	sub	sp, fp, #12
	ldmia	sp, {fp, sp, lr}
	b	BsGet
	UNWIND(.fnend)
	.size	HEVC_u_v, .-HEVC_u_v
	.align	2
	.global	HEVC_f_v
	.type	HEVC_f_v, %function
HEVC_f_v:
	UNWIND(.fnstart)
	@ args = 0, pretend = 0, frame = 0
	@ frame_needed = 1, uses_anonymous_args = 0
	UNWIND(.movsp ip)
	mov	ip, sp
	stmfd	sp!, {fp, ip, lr, pc}
	UNWIND(.pad #4)
	UNWIND(.save {fp, ip, lr})
	UNWIND(.setfp fp, ip, #-4)
	sub	fp, ip, #4
	sub	sp, fp, #12
	ldmia	sp, {fp, sp, lr}
	b	BsGet
	UNWIND(.fnend)
	.size	HEVC_f_v, .-HEVC_f_v
	.align	2
	.global	HEVC_ue_v
	.type	HEVC_ue_v, %function
HEVC_ue_v:
	UNWIND(.fnstart)
	@ args = 0, pretend = 0, frame = 0
	@ frame_needed = 1, uses_anonymous_args = 0
	UNWIND(.movsp ip)
	mov	ip, sp
	stmfd	sp!, {r4, r5, fp, ip, lr, pc}
	UNWIND(.pad #4)
	UNWIND(.save {r4, r5, fp, ip, lr})
	UNWIND(.setfp fp, ip, #-4)
	sub	fp, ip, #4
	mov	r1, #32
	mov	r5, r0
	bl	BsShow
	bl	ZerosMS_32
	cmp	r0, #31
	bls	.L1673
	movw	r0, #61166
	movt	r0, 65535
	ldmfd	sp, {r4, r5, fp, sp, pc}
.L1673:
	add	r4, r0, #1
	mov	r1, r0
	mov	r0, r5
	bl	BsSkip
	mov	r1, r4
	mov	r0, r5
	bl	BsShow
	mov	r1, r4
	sub	r4, r0, #1
	mov	r0, r5
	bl	BsSkip
	mov	r0, r4
	ldmfd	sp, {r4, r5, fp, sp, pc}
	UNWIND(.fnend)
	.size	HEVC_ue_v, .-HEVC_ue_v
	.align	2
	.global	HEVC_Sei_Tone_Mapping_Info
	.type	HEVC_Sei_Tone_Mapping_Info, %function
HEVC_Sei_Tone_Mapping_Info:
	UNWIND(.fnstart)
	@ args = 0, pretend = 0, frame = 0
	@ frame_needed = 1, uses_anonymous_args = 0
	UNWIND(.movsp ip)
	mov	ip, sp
	stmfd	sp!, {r4, r5, r6, r7, r8, r9, fp, ip, lr, pc}
	UNWIND(.pad #4)
	UNWIND(.save {r4, r5, r6, r7, r8, r9, fp, ip, lr})
	UNWIND(.setfp fp, ip, #-4)
	sub	fp, ip, #4
	ldr	r1, .L1696
	mov	r4, r0
	ldr	r0, [r0, #2356]
	bl	HEVC_ue_v
	ldr	r0, [r4, #2356]
	mov	r1, #1
	bl	BsGet
	tst	r0, #255
	beq	.L1693
.L1679:
	mov	r1, #32
	ldr	r0, [r4, #2356]
	bl	BsGet
	ldr	r0, [r4, #2356]
	mov	r1, #32
	bl	BsGet
	mov	r0, #0
	ldmfd	sp, {r4, r5, r6, r7, r8, r9, fp, sp, pc}
.L1693:
	mov	r1, #1
	ldr	r0, [r4, #2356]
	bl	BsGet
	mov	r1, #8
	ldr	r0, [r4, #2356]
	bl	BsGet
	mov	r1, #8
	mov	r6, r0
	ldr	r0, [r4, #2356]
	bl	BsGet
	cmp	r0, #8
	mov	r7, r0
	bhi	.L1694
	mov	r1, #8
	ldr	r0, [r4, #2356]
	bl	BsGet
	cmp	r0, #4
	ldrls	pc, [pc, r0, asl #2]
	b	.L1690
.L1678:
	.word	.L1679
	.word	.L1679
	.word	.L1680
	.word	.L1681
	.word	.L1682
.L1681:
	mov	r1, #16
	ldr	r0, [r4, #2356]
	bl	BsGet
	cmp	r0, #256
	mov	r8, r0
	bhi	.L1686
	cmp	r0, #0
	beq	.L1690
	add	r6, r6, #7
	add	r7, r7, #7
	bic	r6, r6, #7
	bic	r7, r7, #7
	mov	r5, #0
.L1688:
	mov	r1, r6
	ldr	r0, [r4, #2356]
	bl	BsGet
	add	r5, r5, #1
	mov	r1, r7
	ldr	r0, [r4, #2356]
	bl	BsGet
	cmp	r5, r8
	bne	.L1688
.L1690:
	mov	r0, #0
	ldmfd	sp, {r4, r5, r6, r7, r8, r9, fp, sp, pc}
.L1680:
	mov	r2, #1
	movs	r7, r2, asl r7
	addne	r6, r6, #7
	movne	r5, #0
	bicne	r6, r6, #7
	beq	.L1690
.L1684:
	add	r5, r5, #1
	mov	r1, r6
	ldr	r0, [r4, #2356]
	bl	BsGet
	cmp	r7, r5
	bne	.L1684
	mov	r0, #0
	ldmfd	sp, {r4, r5, r6, r7, r8, r9, fp, sp, pc}
.L1682:
	mov	r1, #8
	ldr	r0, [r4, #2356]
	bl	BsGet
	cmp	r0, #255
	beq	.L1695
.L1689:
	mov	r1, #1
	ldr	r0, [r4, #2356]
	bl	BsGet
	mov	r1, #16
	ldr	r0, [r4, #2356]
	bl	BsGet
	mov	r1, #16
	ldr	r0, [r4, #2356]
	bl	BsGet
	mov	r1, #32
	ldr	r0, [r4, #2356]
	bl	BsGet
	mov	r1, #32
	ldr	r0, [r4, #2356]
	bl	BsGet
	mov	r1, #16
	ldr	r0, [r4, #2356]
	bl	BsGet
	mov	r1, #16
	ldr	r0, [r4, #2356]
	bl	BsGet
	mov	r1, #16
	ldr	r0, [r4, #2356]
	bl	BsGet
	ldr	r0, [r4, #2356]
	mov	r1, #16
	bl	BsGet
	mov	r0, #0
	ldmfd	sp, {r4, r5, r6, r7, r8, r9, fp, sp, pc}
.L1695:
	mov	r1, #32
	ldr	r0, [r4, #2356]
	bl	BsGet
	b	.L1689
.L1694:
	mov	r2, r0
	ldr	r1, .L1696+4
	mov	r0, #1
	bl	dprint_vfmw
	mvn	r0, #0
	ldmfd	sp, {r4, r5, r6, r7, r8, r9, fp, sp, pc}
.L1686:
	ldr	r1, .L1696+8
	mov	r0, #1
	bl	dprint_vfmw
	mvn	r0, #0
	ldmfd	sp, {r4, r5, r6, r7, r8, r9, fp, sp, pc}
.L1697:
	.align	2
.L1696:
	.word	.LC151
	.word	.LC152
	.word	.LC153
	UNWIND(.fnend)
	.size	HEVC_Sei_Tone_Mapping_Info, .-HEVC_Sei_Tone_Mapping_Info
	.align	2
	.global	HEVC_Sei_Frame_Packing_Arrangement
	.type	HEVC_Sei_Frame_Packing_Arrangement, %function
HEVC_Sei_Frame_Packing_Arrangement:
	UNWIND(.fnstart)
	@ args = 0, pretend = 0, frame = 0
	@ frame_needed = 1, uses_anonymous_args = 0
	UNWIND(.movsp ip)
	mov	ip, sp
	stmfd	sp!, {r4, r5, r6, r7, fp, ip, lr, pc}
	UNWIND(.pad #4)
	UNWIND(.save {r4, r5, r6, r7, fp, ip, lr})
	UNWIND(.setfp fp, ip, #-4)
	sub	fp, ip, #4
	ldr	r1, .L1708
	mov	r4, r0
	ldr	r0, [r0, #2356]
	bl	HEVC_ue_v
	ldr	r0, [r4, #2356]
	mov	r1, #1
	bl	BsGet
	tst	r0, #255
	bne	.L1699
	mov	r1, #7
	ldr	r0, [r4, #2356]
	bl	BsGet
	sub	r3, r0, #3
	mov	r6, r0
	cmp	r3, #2
	bhi	.L1706
	mov	r1, #1
	ldr	r0, [r4, #2356]
	bl	BsGet
	mov	r1, #6
	mov	r5, r0
	ldr	r0, [r4, #2356]
	bl	BsGet
	mov	r1, #1
	ldr	r0, [r4, #2356]
	uxtb	r5, r5
	bl	BsGet
	mov	r1, #1
	ldr	r0, [r4, #2356]
	clz	r5, r5
	bl	BsGet
	mov	r1, #1
	ldr	r0, [r4, #2356]
	mov	r5, r5, lsr #5
	bl	BsGet
	mov	r1, #1
	ldr	r0, [r4, #2356]
	bl	BsGet
	mov	r1, #1
	ldr	r0, [r4, #2356]
	bl	BsGet
	mov	r1, #1
	ldr	r0, [r4, #2356]
	bl	BsGet
	cmp	r6, #5
	moveq	r5, #0
	cmp	r5, #0
	bne	.L1707
.L1702:
	mov	r1, #8
	ldr	r0, [r4, #2356]
	bl	BsGet
	mov	r1, #1
	ldr	r0, [r4, #2356]
	bl	BsGet
.L1699:
	mov	r1, #1
	ldr	r0, [r4, #2356]
	bl	BsGet
	ldr	r0, [r4, #2356]
	bl	BsToNextByte
	mov	r0, #0
	ldmfd	sp, {r4, r5, r6, r7, fp, sp, pc}
.L1707:
	mov	r1, #4
	ldr	r0, [r4, #2356]
	bl	BsGet
	mov	r1, #4
	ldr	r0, [r4, #2356]
	bl	BsGet
	mov	r1, #4
	ldr	r0, [r4, #2356]
	bl	BsGet
	mov	r1, #4
	ldr	r0, [r4, #2356]
	bl	BsGet
	b	.L1702
.L1706:
	mov	r2, r0
	ldr	r1, .L1708+4
	mov	r0, #1
	bl	dprint_vfmw
	mvn	r0, #0
	ldmfd	sp, {r4, r5, r6, r7, fp, sp, pc}
.L1709:
	.align	2
.L1708:
	.word	.LC154
	.word	.LC155
	UNWIND(.fnend)
	.size	HEVC_Sei_Frame_Packing_Arrangement, .-HEVC_Sei_Frame_Packing_Arrangement
	.align	2
	.global	HEVC_Sei_Dec_Unit_Info
	.type	HEVC_Sei_Dec_Unit_Info, %function
HEVC_Sei_Dec_Unit_Info:
	UNWIND(.fnstart)
	@ args = 0, pretend = 0, frame = 0
	@ frame_needed = 1, uses_anonymous_args = 0
	UNWIND(.movsp ip)
	mov	ip, sp
	stmfd	sp!, {r4, r5, fp, ip, lr, pc}
	UNWIND(.pad #4)
	UNWIND(.save {r4, r5, fp, ip, lr})
	UNWIND(.setfp fp, ip, #-4)
	sub	fp, ip, #4
	cmp	r2, #0
	cmpne	r1, #0
	mov	r5, r2
	mov	r4, r0
	moveq	r1, #1
	movne	r1, #0
	cmp	r0, #0
	orreq	r1, r1, #1
	cmp	r1, #0
	bne	.L1714
	ldr	r1, .L1723
	ldr	r0, [r0, #2356]
	bl	HEVC_ue_v
	ldrb	r3, [r5, #3]	@ zero_extendqisi2
	cmp	r3, #0
	bne	.L1721
.L1712:
	mov	r1, #1
	ldr	r0, [r4, #2356]
	bl	BsGet
	tst	r0, #255
	bne	.L1722
.L1713:
	ldr	r0, [r4, #2356]
	bl	BsToNextByte
	mov	r0, #0
	ldmfd	sp, {r4, r5, fp, sp, pc}
.L1721:
	ldr	r1, [r5, #4]
	ldr	r0, [r4, #2356]
	add	r1, r1, #1
	bl	BsGet
	b	.L1712
.L1722:
	ldr	r1, [r5, #8]
	ldr	r0, [r4, #2356]
	add	r1, r1, #1
	bl	BsGet
	b	.L1713
.L1714:
	mvn	r0, #0
	ldmfd	sp, {r4, r5, fp, sp, pc}
.L1724:
	.align	2
.L1723:
	.word	.LC156
	UNWIND(.fnend)
	.size	HEVC_Sei_Dec_Unit_Info, .-HEVC_Sei_Dec_Unit_Info
	.align	2
	.global	HEVC_Sei_Active_Param_sets
	.type	HEVC_Sei_Active_Param_sets, %function
HEVC_Sei_Active_Param_sets:
	UNWIND(.fnstart)
	@ args = 0, pretend = 0, frame = 0
	@ frame_needed = 1, uses_anonymous_args = 0
	UNWIND(.movsp ip)
	mov	ip, sp
	stmfd	sp!, {r4, r5, r6, r7, fp, ip, lr, pc}
	UNWIND(.pad #4)
	UNWIND(.save {r4, r5, r6, r7, fp, ip, lr})
	UNWIND(.setfp fp, ip, #-4)
	sub	fp, ip, #4
	mov	r1, #4
	mov	r5, r0
	ldr	r0, [r0, #2356]
	bl	BsGet
	mov	r1, #1
	ldr	r0, [r5, #2356]
	bl	BsGet
	mov	r1, #1
	ldr	r0, [r5, #2356]
	bl	BsGet
	ldr	r0, [r5, #2356]
	ldr	r1, .L1732
	bl	HEVC_ue_v
	cmp	r0, #15
	bgt	.L1726
	cmp	r0, #0
	addge	r6, r0, #1
	movge	r4, #0
	blt	.L1730
.L1729:
	add	r4, r4, #1
	ldr	r1, .L1732+4
	ldr	r0, [r5, #2356]
	bl	HEVC_ue_v
	cmp	r4, r6
	bne	.L1729
.L1730:
	ldr	r0, [r5, #2356]
	bl	BsToNextByte
	mov	r0, #0
	ldmfd	sp, {r4, r5, r6, r7, fp, sp, pc}
.L1726:
	ldr	r1, .L1732+8
	mov	r0, #1
	bl	dprint_vfmw
	mvn	r0, #0
	ldmfd	sp, {r4, r5, r6, r7, fp, sp, pc}
.L1733:
	.align	2
.L1732:
	.word	.LC157
	.word	.LC159
	.word	.LC158
	UNWIND(.fnend)
	.size	HEVC_Sei_Active_Param_sets, .-HEVC_Sei_Active_Param_sets
	.align	2
	.global	HEVC_Sei_Buf_Period
	.type	HEVC_Sei_Buf_Period, %function
HEVC_Sei_Buf_Period:
	UNWIND(.fnstart)
	@ args = 0, pretend = 0, frame = 0
	@ frame_needed = 1, uses_anonymous_args = 0
	UNWIND(.movsp ip)
	mov	ip, sp
	stmfd	sp!, {r4, r5, r6, r7, r8, r9, fp, ip, lr, pc}
	UNWIND(.pad #4)
	UNWIND(.save {r4, r5, r6, r7, r8, r9, fp, ip, lr})
	UNWIND(.setfp fp, ip, #-4)
	sub	fp, ip, #4
	add	r4, r0, #8192
	mov	r5, r0
	mov	r9, r1
	mov	r6, #0
	ldr	r1, .L1763
	mov	r7, r2
	str	r6, [r4, #2920]
	ldr	r0, [r0, #2356]
	bl	HEVC_ue_v
	cmp	r0, #15
	bhi	.L1759
	mov	r1, #1
	strb	r1, [r4, #2913]
	ldrb	r3, [r7, #2]	@ zero_extendqisi2
	cmp	r3, #0
	movne	r8, r6
	beq	.L1760
.L1737:
	mov	r1, #1
	ldr	r0, [r5, #2356]
	bl	BsGet
	mov	r4, #1
	strb	r0, [r9]
	ldr	r1, [r7, #16]
	ldr	r0, [r5, #2356]
	add	r1, r1, r4
	bl	BsGet
	subs	r3, r4, #1
	beq	.L1761
.L1739:
	cmp	r3, #1
	beq	.L1762
.L1743:
	cmp	r4, #1
	bhi	.L1742
.L1741:
	add	r4, r4, #1
	subs	r3, r4, #1
	bne	.L1739
.L1761:
	ldrb	r2, [r7]	@ zero_extendqisi2
	cmp	r2, #0
	beq	.L1743
	ldr	r2, [r7, #24]
	cmn	r2, #1
	beq	.L1741
.L1750:
	mov	r6, #0
	b	.L1746
.L1745:
	ldr	r3, [r7, #24]
	add	r3, r3, #1
	cmp	r3, r6
	bls	.L1743
.L1746:
	ldr	r1, [r7, #12]
	add	r6, r6, #1
	ldr	r0, [r5, #2356]
	add	r1, r1, #1
	bl	BsGet
	ldr	r1, [r7, #12]
	ldr	r0, [r5, #2356]
	add	r1, r1, #1
	bl	BsGet
	ldrb	r3, [r7, #2]	@ zero_extendqisi2
	orrs	r3, r8, r3
	beq	.L1745
	ldr	r1, [r7, #12]
	ldr	r0, [r5, #2356]
	add	r1, r1, #1
	bl	BsGet
	ldr	r1, [r7, #12]
	ldr	r0, [r5, #2356]
	add	r1, r1, #1
	bl	BsGet
	b	.L1745
.L1762:
	ldrb	r3, [r7, #1]	@ zero_extendqisi2
	cmp	r3, #0
	beq	.L1742
	ldr	r3, [r7, #24]
	cmn	r3, #1
	bne	.L1750
.L1742:
	ldr	r0, [r5, #2356]
	bl	BsToNextByte
	mov	r0, #0
	ldmfd	sp, {r4, r5, r6, r7, r8, r9, fp, sp, pc}
.L1760:
	ldr	r0, [r5, #2356]
	bl	BsGet
	uxtb	r8, r0
	cmp	r8, #0
	beq	.L1737
	ldr	r1, [r7, #16]
	ldr	r0, [r5, #2356]
	add	r1, r1, #1
	bl	BsGet
	ldr	r1, [r7, #20]
	ldr	r0, [r5, #2356]
	add	r1, r1, #1
	bl	BsGet
	b	.L1737
.L1759:
	mov	r2, r0
	ldr	r1, .L1763+4
	mov	r0, #1
	bl	dprint_vfmw
	mvn	r0, #0
	ldmfd	sp, {r4, r5, r6, r7, r8, r9, fp, sp, pc}
.L1764:
	.align	2
.L1763:
	.word	.LC160
	.word	.LC161
	UNWIND(.fnend)
	.size	HEVC_Sei_Buf_Period, .-HEVC_Sei_Buf_Period
	.align	2
	.global	HEVC_Sei_Pic_Timming
	.type	HEVC_Sei_Pic_Timming, %function
HEVC_Sei_Pic_Timming:
	UNWIND(.fnstart)
	@ args = 0, pretend = 0, frame = 0
	@ frame_needed = 1, uses_anonymous_args = 0
	UNWIND(.movsp ip)
	mov	ip, sp
	stmfd	sp!, {r4, r5, r6, r7, r8, r9, fp, ip, lr, pc}
	UNWIND(.pad #4)
	UNWIND(.save {r4, r5, r6, r7, r8, r9, fp, ip, lr})
	UNWIND(.setfp fp, ip, #-4)
	sub	fp, ip, #4
	add	r3, r0, #8192
	mov	r5, r2
	mov	r4, r0
	mov	r6, r1
	ldr	r0, [r3, #2916]
	ldr	r2, [r3, #2920]
	add	r0, r0, #1
	str	r0, [r3, #2916]
	add	r2, r2, #1
	str	r2, [r3, #2920]
	ldrb	r3, [r5, #2]	@ zero_extendqisi2
	cmp	r3, #0
	bne	.L1793
.L1766:
	ldrh	r3, [r5, #44]
	cmp	r3, #0
	beq	.L1768
	ldr	r1, [r5, #60]
	ldr	r0, [r4, #2356]
	add	r1, r1, #1
	bl	BsGet
	add	r0, r0, #1
	str	r0, [r6, #8]
	ldr	r1, [r5, #64]
	ldr	r0, [r4, #2356]
	add	r1, r1, #1
	bl	BsGet
	str	r0, [r6, #12]
	ldrb	r3, [r5, #46]	@ zero_extendqisi2
	cmp	r3, #0
	bne	.L1769
.L1772:
	ldr	r2, [r4, #252]
	ldr	r3, .L1796
	ldr	r3, [r3, r2, asl #2]
	ldrsb	r2, [r3, #44]
	cmp	r2, #1
	beq	.L1794
.L1768:
	ldr	r0, [r4, #2356]
	bl	BsToNextByte
	mov	r0, #0
	ldmfd	sp, {r4, r5, r6, r7, r8, r9, fp, sp, pc}
.L1793:
	mov	r1, #4
	ldr	r0, [r4, #2356]
	bl	BsGet
	mov	r1, #2
	str	r0, [r6]
	ldr	r0, [r4, #2356]
	bl	BsGet
	mov	r1, #1
	str	r0, [r6, #4]
	ldr	r0, [r4, #2356]
	bl	BsGet
	b	.L1766
.L1794:
	ldr	r2, [r3, #156]
	cmp	r2, #0
	bne	.L1768
	ldr	r3, [r3, #160]
	cmp	r3, #1
	bne	.L1768
	mov	r2, r5
	mov	r1, r6
	mov	r0, r4
	bl	HEVC_Sei_Get_Dpb_Output_Time
	b	.L1768
.L1769:
	ldr	r1, [r5, #52]
	ldr	r0, [r4, #2356]
	add	r1, r1, #1
	bl	BsGet
	ldrb	r3, [r5, #46]	@ zero_extendqisi2
	cmp	r3, #0
	beq	.L1772
	ldrb	r3, [r5, #47]	@ zero_extendqisi2
	cmp	r3, #0
	beq	.L1772
	ldr	r1, .L1796+4
	ldr	r0, [r4, #2356]
	bl	HEVC_ue_v
	mov	r1, #1
	mov	r8, r0
	ldr	r0, [r4, #2356]
	bl	BsGet
	uxtb	r9, r0
	cmp	r9, #0
	bne	.L1795
.L1773:
	cmp	r8, #255
	bhi	.L1777
	add	r8, r8, #1
	mov	r7, #0
	b	.L1776
.L1775:
	cmp	r7, r8
	beq	.L1772
.L1776:
	ldr	r1, .L1796+8
	add	r7, r7, #1
	ldr	r0, [r4, #2356]
	bl	HEVC_ue_v
	cmp	r9, #0
	bne	.L1775
	ldr	r1, [r5, #48]
	ldr	r0, [r4, #2356]
	add	r1, r1, #1
	bl	BsGet
	b	.L1775
.L1795:
	ldr	r1, [r5, #48]
	ldr	r0, [r4, #2356]
	add	r1, r1, #1
	bl	BsGet
	b	.L1773
.L1777:
	ldr	r1, .L1796+12
	mov	r0, #1
	bl	dprint_vfmw
	mvn	r0, #0
	ldmfd	sp, {r4, r5, r6, r7, r8, r9, fp, sp, pc}
.L1797:
	.align	2
.L1796:
	.word	s_pstVfmwChan
	.word	.LC162
	.word	.LC164
	.word	.LC163
	UNWIND(.fnend)
	.size	HEVC_Sei_Pic_Timming, .-HEVC_Sei_Pic_Timming
	.align	2
	.global	HEVC_Sei_Color_Volume_Reconstruction_Info
	.type	HEVC_Sei_Color_Volume_Reconstruction_Info, %function
HEVC_Sei_Color_Volume_Reconstruction_Info:
	UNWIND(.fnstart)
	@ args = 0, pretend = 0, frame = 0
	@ frame_needed = 1, uses_anonymous_args = 0
	UNWIND(.movsp ip)
	mov	ip, sp
	stmfd	sp!, {r4, r5, r6, r7, fp, ip, lr, pc}
	UNWIND(.pad #4)
	UNWIND(.save {r4, r5, r6, r7, fp, ip, lr})
	UNWIND(.setfp fp, ip, #-4)
	sub	fp, ip, #4
	cmp	r1, #0
	cmpne	r0, #0
	mov	r4, r0
	mov	r5, r1
	beq	.L1808
	ldr	r1, .L1812
	ldr	r0, [r0, #2356]
	bl	HEVC_ue_v
	mov	r1, #1
	ldr	r0, [r4, #2356]
	bl	BsGet
	tst	r0, #255
	beq	.L1800
.L1804:
	mov	r3, #1
	mov	r0, #0
	strb	r3, [r5]
	ldmfd	sp, {r4, r5, r6, r7, fp, sp, pc}
.L1800:
	mov	r1, #1
	ldr	r0, [r4, #2356]
	bl	BsGet
	mov	r1, #1
	ldr	r0, [r4, #2356]
	bl	BsGet
	uxtb	r0, r0
	cmp	r0, #1
	beq	.L1811
.L1801:
	mov	r1, #8
	ldr	r0, [r4, #2356]
	bl	BsGet
	mov	r1, #8
	strb	r0, [r5, #2]
	ldr	r0, [r4, #2356]
	bl	BsGet
	mov	r1, #8
	strb	r0, [r5, #3]
	ldr	r0, [r4, #2356]
	bl	BsGet
	mov	r1, #8
	strb	r0, [r5, #4]
	ldr	r0, [r4, #2356]
	bl	BsGet
	mov	r1, #8
	strb	r0, [r5, #5]
	ldr	r0, [r4, #2356]
	bl	BsGet
	mov	r1, #4
	strb	r0, [r5, #6]
	ldr	r0, [r4, #2356]
	bl	BsGet
	tst	r0, #255
	strb	r0, [r5, #7]
	addne	r7, r5, #7
	movne	r6, #0
	beq	.L1806
.L1805:
	mov	r1, #8
	ldr	r0, [r4, #2356]
	bl	BsGet
	mov	r1, #8
	add	r6, r6, #1
	strb	r0, [r7, #1]!
	ldr	r0, [r4, #2356]
	bl	BsGet
	strb	r0, [r7, #15]
	ldrb	r3, [r5, #7]	@ zero_extendqisi2
	cmp	r3, r6
	bhi	.L1805
.L1806:
	mov	r1, #4
	ldr	r0, [r4, #2356]
	bl	BsGet
	tst	r0, #255
	strb	r0, [r5, #38]
	addne	r7, r5, #38
	movne	r6, #0
	beq	.L1804
.L1807:
	mov	r1, #8
	ldr	r0, [r4, #2356]
	bl	BsGet
	mov	r1, #8
	add	r6, r6, #1
	strb	r0, [r7, #1]!
	ldr	r0, [r4, #2356]
	bl	BsGet
	strb	r0, [r7, #15]
	ldrb	r3, [r5, #38]	@ zero_extendqisi2
	cmp	r3, r6
	bhi	.L1807
	b	.L1804
.L1808:
	mvn	r0, #0
	ldmfd	sp, {r4, r5, r6, r7, fp, sp, pc}
.L1811:
	mov	r1, #8
	ldr	r0, [r4, #2356]
	bl	BsGet
	mov	r1, #8
	strb	r0, [r5, #1]
	ldr	r0, [r4, #2356]
	bl	BsGet
	b	.L1801
.L1813:
	.align	2
.L1812:
	.word	.LC165
	UNWIND(.fnend)
	.size	HEVC_Sei_Color_Volume_Reconstruction_Info, .-HEVC_Sei_Color_Volume_Reconstruction_Info
	.align	2
	.global	HEVC_Sei_User_Data_Registered_Itu_T_T35
	.type	HEVC_Sei_User_Data_Registered_Itu_T_T35, %function
HEVC_Sei_User_Data_Registered_Itu_T_T35:
	UNWIND(.fnstart)
	@ args = 0, pretend = 0, frame = 0
	@ frame_needed = 1, uses_anonymous_args = 0
	UNWIND(.movsp ip)
	mov	ip, sp
	stmfd	sp!, {r4, r5, r6, r7, fp, ip, lr, pc}
	UNWIND(.pad #4)
	UNWIND(.save {r4, r5, r6, r7, fp, ip, lr})
	UNWIND(.setfp fp, ip, #-4)
	sub	fp, ip, #4
	cmp	r1, #0
	cmpne	r0, #0
	mov	r6, r2
	mov	r5, r0
	moveq	r4, #1
	movne	r4, #0
	beq	.L1821
	cmp	r2, #3
	bls	.L1824
	mov	r1, #8
	ldr	r0, [r0, #2356]
	bl	BsGet
	mov	r1, #16
	ldr	r0, [r5, #2356]
	bl	BsGet
	mov	r1, #8
	ldr	r0, [r5, #2356]
	bl	BsGet
	uxtb	r0, r0
	cmp	r0, #2
	beq	.L1825
	cmp	r0, #4
	beq	.L1826
	subs	r6, r6, #4
	beq	.L1820
.L1819:
	add	r4, r4, #1
	mov	r1, #8
	ldr	r0, [r5, #2356]
	bl	BsGet
	cmp	r6, r4
	bne	.L1819
.L1820:
	mov	r0, #0
	ldmfd	sp, {r4, r5, r6, r7, fp, sp, pc}
.L1825:
	add	r1, r5, #2928
	mov	r0, r5
	add	r1, r1, #8
	bl	HEVC_Sei_TSI
	cmn	r0, #1
	movne	r0, #0
	moveq	r0, #1
	rsb	r0, r0, #0
	ldmfd	sp, {r4, r5, r6, r7, fp, sp, pc}
.L1826:
	add	r1, r5, #2928
	mov	r0, r5
	add	r1, r1, #11
	bl	HEVC_Sei_Color_Volume_Reconstruction_Info
	cmn	r0, #1
	movne	r0, #0
	moveq	r0, #1
	rsb	r0, r0, #0
	ldmfd	sp, {r4, r5, r6, r7, fp, sp, pc}
.L1821:
	mvn	r0, #0
	ldmfd	sp, {r4, r5, r6, r7, fp, sp, pc}
.L1824:
	ldr	r1, .L1827
	mov	r0, #1
	bl	dprint_vfmw
	mvn	r0, #0
	ldmfd	sp, {r4, r5, r6, r7, fp, sp, pc}
.L1828:
	.align	2
.L1827:
	.word	.LC166
	UNWIND(.fnend)
	.size	HEVC_Sei_User_Data_Registered_Itu_T_T35, .-HEVC_Sei_User_Data_Registered_Itu_T_T35
	.align	2
	.global	HEVC_DecShortTermRefPicSet
	.type	HEVC_DecShortTermRefPicSet, %function
HEVC_DecShortTermRefPicSet:
	UNWIND(.fnstart)
	@ args = 0, pretend = 0, frame = 16
	@ frame_needed = 1, uses_anonymous_args = 0
	UNWIND(.movsp ip)
	mov	ip, sp
	stmfd	sp!, {r4, r5, r6, r7, r8, r9, r10, fp, ip, lr, pc}
	UNWIND(.pad #4)
	UNWIND(.save {r4, r5, r6, r7, r8, r9, r10, fp, ip, lr})
	UNWIND(.setfp fp, ip, #-4)
	sub	fp, ip, #4
	UNWIND(.pad #20)
	sub	sp, sp, #20
	subs	r6, r3, #0
	mov	r5, r0
	mov	r9, r1
	mov	r4, r2
	bne	.L1874
.L1830:
	ldr	r1, .L1883
	ldr	r0, [r5, #2356]
	bl	HEVC_ue_v
	cmp	r0, #16
	str	r0, [r4]
	bhi	.L1875
	ldr	r1, .L1883+4
	ldr	r0, [r5, #2356]
	bl	HEVC_ue_v
	cmp	r0, #16
	str	r0, [r4, #4]
	bhi	.L1876
	ldr	r6, [r4]
	add	r2, r0, r6
	str	r2, [r4, #8]
	cmp	r2, #16
	bhi	.L1853
	cmp	r6, #0
	addne	r10, r4, #28
	addne	r9, r4, #11
	movne	r7, #0
	movne	r8, r7
	bne	.L1857
	b	.L1855
.L1856:
	str	r8, [r10, #4]!
	ldr	r0, [r5, #2356]
	bl	BsGet
	strb	r0, [r9, #1]!
	ldr	r6, [r4]
	cmp	r6, r7
	bls	.L1877
.L1857:
	ldr	r1, .L1883+8
	add	r7, r7, #1
	ldr	r0, [r5, #2356]
	bl	HEVC_ue_v
	mov	r1, #1
	cmp	r0, #32768
	mvn	r3, r0
	add	r8, r8, r3
	bcc	.L1856
	mov	r2, r0
	ldr	r1, .L1883+12
	mov	r0, #1
	bl	dprint_vfmw
	mvn	r0, #0
	sub	sp, fp, #40
	ldmfd	sp, {r4, r5, r6, r7, r8, r9, r10, fp, sp, pc}
.L1874:
	mov	r1, #1
	ldr	r0, [r0, #2356]
	bl	BsGet
	cmp	r0, #0
	beq	.L1830
	ldr	r7, [r9, #176]
	cmp	r7, r6
	movne	r0, #0
	beq	.L1878
.L1831:
	sub	r3, r6, #1
	rsb	r8, r0, r3
	cmp	r8, r3
	bhi	.L1879
	mov	r1, #1
	ldr	r0, [r5, #2356]
	bl	BsGet
	ldr	r1, .L1883+16
	mov	r6, r0
	ldr	r0, [r5, #2356]
	bl	HEVC_ue_v
	mov	r3, #164
	mul	r8, r3, r8
	mov	r3, r6, asl #1
	rsb	r3, r3, #1
	add	r2, r9, r8
	ldr	r2, [r2, #2172]
	cmp	r2, #16
	mla	r3, r0, r3, r3
	str	r3, [fp, #-56]
	bhi	.L1880
	add	r6, r8, #2192
	mov	r10, #0
	add	r6, r6, #4
	str	r10, [fp, #-48]
	add	r6, r9, r6
	str	r10, [fp, #-52]
	mov	r7, r10
	b	.L1840
.L1835:
	sub	r3, r0, #1
	cmp	r3, #1
	bls	.L1881
.L1836:
	add	r3, r9, r8
	add	r10, r10, #1
	add	r6, r6, #4
	ldr	r3, [r3, #2172]
	cmp	r3, r10
	bcc	.L1882
.L1840:
	mov	r1, #1
	ldr	r0, [r5, #2356]
	bl	BsGet
	cmp	r0, #0
	bne	.L1835
	mov	r1, #1
	ldr	r0, [r5, #2356]
	bl	BsGet
	mov	r0, r0, asl #1
	sub	r3, r0, #1
	cmp	r3, #1
	bhi	.L1836
.L1881:
	add	r3, r9, r8
	ldr	r2, [fp, #-56]
	add	r1, r4, r7
	add	ip, r7, #8
	ldr	r3, [r3, #2172]
	sub	r0, r0, #1
	clz	r0, r0
	add	r7, r7, #1
	cmp	r3, r10
	mov	r0, r0, lsr #5
	ldrhi	r3, [r6]
	movls	r3, #0
	add	r3, r3, r2
	str	r3, [r4, ip, asl #2]
	cmp	r3, #0
	mov	r3, r1
	strb	r0, [r1, #12]
	ldrlt	r3, [fp, #-52]
	ldrge	r3, [fp, #-48]
	addlt	r3, r3, #1
	addge	r3, r3, #1
	strlt	r3, [fp, #-52]
	strge	r3, [fp, #-48]
	b	.L1836
.L1882:
	ldr	r3, [fp, #-52]
	cmp	r7, #16
	ldr	r2, [fp, #-48]
	str	r7, [r4, #8]
	str	r3, [r4]
	str	r2, [r4, #4]
	bhi	.L1841
	cmp	r3, #16
	bhi	.L1841
	cmp	r2, #16
	bhi	.L1841
	cmp	r7, #1
	subhi	r7, r7, #1
	addhi	r8, r4, #32
	addhi	r6, r4, #12
	movhi	r5, #0
	bls	.L1847
.L1846:
	ldr	ip, [r8, #4]!
	cmp	r5, #0
	ldrb	lr, [r6, #1]!	@ zero_extendqisi2
	mov	r2, r5
	movge	r1, r8
	movge	r3, r6
	blt	.L1849
.L1845:
	ldr	r0, [r1, #-4]!
	sub	r3, r3, #1
	cmp	ip, r0
	strlt	r0, [r1, #4]
	ldrltb	r0, [r3]	@ zero_extendqisi2
	strltb	r0, [r3, #1]
	strlt	ip, [r1]
	strltb	lr, [r3]
	subs	r2, r2, #1
	bpl	.L1845
.L1849:
	add	r5, r5, #1
	cmp	r5, r7
	bne	.L1846
.L1847:
	ldr	r3, [fp, #-52]
	movs	r6, r3, lsr #1
	beq	.L1844
	ldr	r3, [fp, #-52]
	add	r0, r4, #32
	mov	r1, #0
	add	r2, r3, #7
	add	r3, r3, #11
	add	r3, r4, r3
	add	r2, r4, r2, lsl #2
	add	r4, r4, #12
.L1850:
	ldr	r5, [r2]
	add	r1, r1, #1
	ldr	lr, [r0]
	cmp	r1, r6
	ldrb	ip, [r4]	@ zero_extendqisi2
	str	r5, [r0], #4
	ldrb	r5, [r3]	@ zero_extendqisi2
	strb	r5, [r4], #1
	str	lr, [r2], #-4
	strb	ip, [r3], #-1
	bne	.L1850
.L1844:
	mov	r0, #0
.L1832:
	sub	sp, fp, #40
	ldmfd	sp, {r4, r5, r6, r7, r8, r9, r10, fp, sp, pc}
.L1877:
	ldr	r2, [r4, #8]
.L1855:
	cmp	r2, r6
	bls	.L1844
	add	r8, r6, #7
	add	r9, r6, #11
	add	r9, r4, r9
	mov	r7, #0
	add	r8, r4, r8, lsl #2
.L1858:
	ldr	r1, .L1883+20
	add	r6, r6, #1
	ldr	r0, [r5, #2356]
	bl	HEVC_ue_v
	mov	r1, #1
	add	r0, r0, r1
	add	r7, r7, r0
	str	r7, [r8, #4]!
	ldr	r0, [r5, #2356]
	bl	BsGet
	strb	r0, [r9, #1]!
	ldr	r3, [r4, #8]
	cmp	r3, r6
	bhi	.L1858
	b	.L1844
.L1878:
	ldr	r1, .L1883+24
	ldr	r0, [r5, #2356]
	bl	HEVC_ue_v
	add	r2, r0, #1
	cmp	r7, r2
	bcs	.L1831
	mov	r3, r7
	ldr	r1, .L1883+28
	mov	r0, #1
	bl	dprint_vfmw
	mvn	r0, #0
	b	.L1832
.L1841:
	ldr	r1, .L1883+32
	mov	r0, #1
	bl	dprint_vfmw
	mvn	r0, #0
	b	.L1832
.L1876:
	ldr	r2, [r4]
	mov	r0, #1
	ldr	r1, .L1883+36
	bl	dprint_vfmw
	mvn	r0, #0
	b	.L1832
.L1879:
	mov	r2, r8
	ldr	r1, .L1883+40
	mov	r0, #1
	bl	dprint_vfmw
	mvn	r0, #0
	b	.L1832
.L1880:
	ldr	r1, .L1883+44
	mov	r0, #1
	bl	dprint_vfmw
	mvn	r0, #0
	b	.L1832
.L1875:
	mov	r2, r0
	ldr	r1, .L1883+48
	mov	r0, #1
	bl	dprint_vfmw
	mvn	r0, #0
	b	.L1832
.L1853:
	mov	r3, #16
	ldr	r1, .L1883+52
	mov	r0, #1
	bl	dprint_vfmw
	mvn	r0, #0
	b	.L1832
.L1884:
	.align	2
.L1883:
	.word	.LC173
	.word	.LC175
	.word	.LC178
	.word	.LC179
	.word	.LC170
	.word	.LC180
	.word	.LC167
	.word	.LC168
	.word	.LC172
	.word	.LC176
	.word	.LC169
	.word	.LC171
	.word	.LC174
	.word	.LC177
	UNWIND(.fnend)
	.size	HEVC_DecShortTermRefPicSet, .-HEVC_DecShortTermRefPicSet
	.align	2
	.global	HEVC_DecHrdParam
	.type	HEVC_DecHrdParam, %function
HEVC_DecHrdParam:
	UNWIND(.fnstart)
	@ args = 0, pretend = 0, frame = 0
	@ frame_needed = 1, uses_anonymous_args = 0
	UNWIND(.movsp ip)
	mov	ip, sp
	stmfd	sp!, {r3, r4, r5, r6, r7, r8, r9, r10, fp, ip, lr, pc}
	UNWIND(.pad #4)
	UNWIND(.save {r3, r4, r5, r6, r7, r8, r9, r10, fp, ip, lr})
	UNWIND(.setfp fp, ip, #-4)
	sub	fp, ip, #4
	cmp	r1, #0
	cmpne	r0, #0
	mov	r8, r3
	mov	r6, r0
	mov	r9, r1
	beq	.L1907
	cmp	r2, #0
	bne	.L1934
.L1890:
	add	r5, r9, #24
	mov	r7, #0
.L1902:
	mov	r1, #1
	ldr	r0, [r6, #2356]
	bl	BsGet
	uxtb	r4, r0
	cmp	r4, #0
	movne	r3, #0
	strne	r3, [r5]
	beq	.L1935
.L1905:
	ldr	r1, .L1940
	ldr	r0, [r6, #2356]
	bl	HEVC_ue_v
.L1893:
	ldr	r1, .L1940+4
	ldr	r0, [r6, #2356]
	bl	HEVC_ue_v
	mov	r2, r0
	str	r0, [r5]
.L1894:
	cmp	r2, #31
	bhi	.L1936
.L1895:
	mov	r4, #0
.L1906:
	cmp	r4, #0
	beq	.L1937
	cmp	r4, #1
	beq	.L1932
.L1901:
	add	r4, r4, #1
	cmp	r4, #2
	bne	.L1906
.L1900:
	add	r7, r7, #1
	add	r5, r5, #4
	cmp	r8, r7
	bcs	.L1902
	mov	r0, #0
	ldmfd	sp, {r3, r4, r5, r6, r7, r8, r9, r10, fp, sp, pc}
.L1936:
	ldr	r1, .L1940+8
	mov	r0, #1
	bl	dprint_vfmw
	mov	r3, #0
	str	r3, [r5]
	b	.L1895
.L1935:
	mov	r1, #1
	ldr	r0, [r6, #2356]
	bl	BsGet
	str	r4, [r5]
	tst	r0, #255
	bne	.L1905
	mov	r1, #1
	ldr	r0, [r6, #2356]
	bl	BsGet
	tst	r0, #255
	beq	.L1893
	ldr	r2, [r5]
	b	.L1894
.L1934:
	mov	r1, #1
	ldr	r0, [r0, #2356]
	bl	BsGet
	mov	r1, #1
	strb	r0, [r9]
	ldr	r0, [r6, #2356]
	bl	BsGet
	strb	r0, [r9, #1]
	ldrh	r3, [r9]
	cmp	r3, #0
	beq	.L1890
	mov	r1, #1
	ldr	r0, [r6, #2356]
	bl	BsGet
	uxtb	r0, r0
	strb	r0, [r9, #2]
	cmp	r0, #0
	bne	.L1938
.L1888:
	mov	r1, #4
	ldr	r0, [r6, #2356]
	bl	BsGet
	mov	r1, #4
	ldr	r0, [r6, #2356]
	bl	BsGet
	ldrb	r3, [r9, #2]	@ zero_extendqisi2
	cmp	r3, #0
	bne	.L1939
.L1889:
	mov	r1, #5
	ldr	r0, [r6, #2356]
	bl	BsGet
	mov	r1, #5
	str	r0, [r9, #12]
	ldr	r0, [r6, #2356]
	bl	BsGet
	mov	r1, #5
	str	r0, [r9, #16]
	ldr	r0, [r6, #2356]
	bl	BsGet
	str	r0, [r9, #20]
	b	.L1890
.L1907:
	mvn	r0, #0
	ldmfd	sp, {r3, r4, r5, r6, r7, r8, r9, r10, fp, sp, pc}
.L1939:
	mov	r1, #4
	ldr	r0, [r6, #2356]
	bl	BsGet
	b	.L1889
.L1938:
	mov	r1, #8
	ldr	r0, [r6, #2356]
	bl	BsGet
	mov	r1, #5
	ldr	r0, [r6, #2356]
	bl	BsGet
	mov	r1, #1
	str	r0, [r9, #4]
	ldr	r0, [r6, #2356]
	bl	BsGet
	mov	r1, #5
	strb	r0, [r9, #3]
	ldr	r0, [r6, #2356]
	bl	BsGet
	str	r0, [r9, #20]
	b	.L1888
.L1937:
	ldrb	r3, [r9]	@ zero_extendqisi2
	cmp	r3, #0
	bne	.L1909
	mov	r4, #1
.L1932:
	ldrb	r3, [r9, #1]	@ zero_extendqisi2
	cmp	r3, #0
	beq	.L1900
.L1909:
	mov	r10, #0
	b	.L1904
.L1903:
	mov	r1, #1
	ldr	r0, [r6, #2356]
	bl	BsGet
	ldr	r3, [r5]
	cmp	r3, r10
	bcc	.L1901
.L1904:
	ldr	r1, .L1940+12
	add	r10, r10, #1
	ldr	r0, [r6, #2356]
	bl	HEVC_ue_v
	ldr	r1, .L1940+16
	ldr	r0, [r6, #2356]
	bl	HEVC_ue_v
	ldrb	r3, [r9, #2]	@ zero_extendqisi2
	cmp	r3, #0
	beq	.L1903
	ldr	r1, .L1940+20
	ldr	r0, [r6, #2356]
	bl	HEVC_ue_v
	ldr	r1, .L1940+24
	ldr	r0, [r6, #2356]
	bl	HEVC_ue_v
	b	.L1903
.L1941:
	.align	2
.L1940:
	.word	.LC181
	.word	.LC182
	.word	.LC183
	.word	.LC184
	.word	.LC185
	.word	.LC186
	.word	.LC187
	UNWIND(.fnend)
	.size	HEVC_DecHrdParam, .-HEVC_DecHrdParam
	.align	2
	.global	HEVC_ProcessVPS
	.type	HEVC_ProcessVPS, %function
HEVC_ProcessVPS:
	UNWIND(.fnstart)
	@ args = 0, pretend = 0, frame = 56
	@ frame_needed = 1, uses_anonymous_args = 0
	UNWIND(.movsp ip)
	mov	ip, sp
	stmfd	sp!, {r4, r5, r6, r7, r8, r9, r10, fp, ip, lr, pc}
	UNWIND(.pad #4)
	UNWIND(.save {r4, r5, r6, r7, r8, r9, r10, fp, ip, lr})
	UNWIND(.setfp fp, ip, #-4)
	sub	fp, ip, #4
	UNWIND(.pad #60)
	sub	sp, sp, #60
	mov	r5, r0
	mov	r6, r1
	ldr	r0, [r0, #2356]
	mov	r1, #1
	bl	BsGet
	mov	r1, #1
	strb	r0, [r6, #3]
	ldr	r0, [r5, #2356]
	bl	BsGet
	uxtb	r2, r0
	cmp	r2, #1
	beq	.L1943
	ldr	r1, .L1994
	mov	r0, #1
	bl	dprint_vfmw
.L1943:
	mov	r1, #6
	ldr	r0, [r5, #2356]
	bl	BsGet
	cmp	r0, #63
	str	r0, [r6, #8]
	bhi	.L1987
	mov	r1, #3
	ldr	r0, [r5, #2356]
	bl	BsGet
	cmp	r0, #7
	mov	r7, r0
	bhi	.L1988
	str	r0, [r6, #12]
	mov	r1, #1
	ldr	r0, [r5, #2356]
	bl	BsGet
	mov	r1, #16
	strb	r0, [r6, #1]
	ldr	r0, [r5, #2356]
	bl	BsGet
	movw	r3, #65535
	cmp	r0, r3
	bne	.L1989
	mov	r3, r7
	mov	r2, #1
	add	r1, r6, #124
	mov	r0, r5
	bl	HEVC_DecPTL
	subs	r4, r0, #0
	bne	.L1990
	mov	r1, #1
	ldr	r0, [r5, #2356]
	bl	BsGet
	cmp	r7, #0
	addge	r8, r6, #24
	addge	r9, r7, #1
	uxtb	r10, r0
	bge	.L1955
	b	.L1953
.L1952:
	add	r4, r4, #1
	cmp	r4, r9
	beq	.L1953
.L1955:
	ldr	r1, .L1994+4
	ldr	r0, [r5, #2356]
	bl	HEVC_ue_v
	ldr	r1, .L1994+8
	add	r0, r0, #1
	str	r0, [r8, #4]!
	ldr	r0, [r5, #2356]
	bl	HEVC_ue_v
	ldr	r1, .L1994+12
	str	r0, [r8, #32]
	ldr	r0, [r5, #2356]
	bl	HEVC_ue_v
	cmp	r10, #0
	str	r0, [r8, #64]
	bne	.L1952
	add	r3, r4, #1
	cmp	r7, r3
	blt	.L1953
	add	r1, r4, #7
	add	r1, r6, r1, lsl #2
.L1954:
	ldr	r2, [r6, #28]
	add	r3, r3, #1
	cmp	r9, r3
	str	r2, [r1, #4]!
	ldr	r2, [r6, #60]
	str	r2, [r1, #32]
	ldr	r2, [r6, #92]
	str	r2, [r1, #64]
	bne	.L1954
.L1953:
	mov	r1, #6
	ldr	r0, [r5, #2356]
	bl	BsGet
	ldr	r1, .L1994+16
	str	r0, [r6, #16]
	ldr	r0, [r5, #2356]
	bl	HEVC_ue_v
	cmp	r0, #1024
	str	r0, [r6, #20]
	bcs	.L1991
	cmp	r0, #0
	movgt	r8, #1
	ble	.L1957
.L1959:
	mov	r4, #0
.L1958:
	mov	r1, #1
	ldr	r0, [r5, #2356]
	bl	BsGet
	ldr	ip, [r6, #16]
	add	r4, r4, #1
	cmp	r4, ip
	bls	.L1958
	ldr	r3, [r6, #20]
	add	r8, r8, #1
	cmp	r3, r8
	bge	.L1959
.L1957:
	mov	r1, #1
	ldr	r0, [r5, #2356]
	bl	BsGet
	tst	r0, #255
	beq	.L1966
	mov	r1, #32
	ldr	r0, [r5, #2356]
	bl	BsGet
	mov	r1, #32
	ldr	r0, [r5, #2356]
	bl	BsGet
	mov	r1, #1
	ldr	r0, [r5, #2356]
	bl	BsGet
	tst	r0, #255
	bne	.L1992
.L1963:
	ldr	r1, .L1994+20
	ldr	r0, [r5, #2356]
	bl	HEVC_ue_v
	cmp	r0, #1024
	str	r0, [r6, #24]
	bhi	.L1964
	cmp	r0, #0
	ble	.L1966
	ldr	r1, .L1994+24
	mov	r4, #0
	ldr	r0, [r5, #2356]
	bl	HEVC_ue_v
	mov	r0, #1
.L1971:
	uxtb	r2, r0
	sub	r1, fp, #100
	mov	r3, r7
	mov	r0, r5
	bl	HEVC_DecHrdParam
	add	r4, r4, #1
	ldr	r1, .L1994+24
	cmp	r0, #0
	bne	.L1993
	ldr	r3, [r6, #24]
	cmp	r3, r4
	ble	.L1966
	ldr	r0, [r5, #2356]
	bl	HEVC_ue_v
	cmp	r4, #0
	mov	r0, #1
	beq	.L1971
	mov	r1, r0
	ldr	r0, [r5, #2356]
	bl	BsGet
	b	.L1971
.L1966:
	mov	r1, #1
	ldr	r0, [r5, #2356]
	bl	BsGet
	tst	r0, #255
	bne	.L1983
.L1962:
	mov	r0, #0
.L1984:
	sub	sp, fp, #40
	ldmfd	sp, {r4, r5, r6, r7, r8, r9, r10, fp, sp, pc}
.L1970:
	ldr	r0, [r5, #2356]
	bl	BsGet
.L1983:
	mov	r0, r5
	bl	HEVC_MoreRbspData
	mov	r1, #1
	cmp	r0, #0
	bne	.L1970
	b	.L1962
.L1993:
	ldr	r1, .L1994+28
	mov	r0, #1
	bl	dprint_vfmw
	mvn	r0, #0
	sub	sp, fp, #40
	ldmfd	sp, {r4, r5, r6, r7, r8, r9, r10, fp, sp, pc}
.L1992:
	ldr	r1, .L1994+32
	ldr	r0, [r5, #2356]
	bl	HEVC_ue_v
	b	.L1963
.L1989:
	ldr	r1, .L1994+36
	mov	r0, #1
	bl	dprint_vfmw
	mvn	r0, #0
	b	.L1984
.L1987:
	mov	r2, r0
	ldr	r1, .L1994+40
	mov	r0, #1
	bl	dprint_vfmw
	mvn	r0, #0
	b	.L1984
.L1990:
	ldr	r1, .L1994+44
	mov	r0, #1
	bl	dprint_vfmw
	mvn	r0, #0
	b	.L1984
.L1988:
	mov	r2, r0
	ldr	r1, .L1994+48
	mov	r0, #1
	bl	dprint_vfmw
	mvn	r0, #0
	b	.L1984
.L1991:
	mov	r2, r0
	mov	r3, #1024
	ldr	r1, .L1994+52
	mov	r0, #1
	bl	dprint_vfmw
	mvn	r0, #0
	b	.L1984
.L1964:
	mov	r2, r0
	mov	r3, #1024
	ldr	r1, .L1994+56
	mov	r0, #1
	bl	dprint_vfmw
	mvn	r0, #0
	b	.L1984
.L1995:
	.align	2
.L1994:
	.word	.LC188
	.word	.LC194
	.word	.LC195
	.word	.LC196
	.word	.LC193
	.word	.LC199
	.word	.LC201
	.word	.LC202
	.word	.LC198
	.word	.LC191
	.word	.LC189
	.word	.LC192
	.word	.LC190
	.word	.LC197
	.word	.LC200
	UNWIND(.fnend)
	.size	HEVC_ProcessVPS, .-HEVC_ProcessVPS
	.align	2
	.global	HEVC_DecVPS
	.type	HEVC_DecVPS, %function
HEVC_DecVPS:
	UNWIND(.fnstart)
	@ args = 0, pretend = 0, frame = 0
	@ frame_needed = 1, uses_anonymous_args = 0
	UNWIND(.movsp ip)
	mov	ip, sp
	stmfd	sp!, {r4, r5, r6, r7, r8, r9, fp, ip, lr, pc}
	UNWIND(.pad #4)
	UNWIND(.save {r4, r5, r6, r7, r8, r9, fp, ip, lr})
	UNWIND(.setfp fp, ip, #-4)
	sub	fp, ip, #4
	mov	r1, #4
	mov	r5, r0
	ldr	r0, [r0, #2356]
	bl	BsGet
	cmp	r0, #15
	mov	r6, r0
	bhi	.L2002
	ldr	r3, [r5, #2360]
	mov	r4, r0, asl #7
	add	r4, r4, r0, lsl #2
	add	r2, r3, r4
	ldrb	r8, [r3, r4]	@ zero_extendqisi2
	cmp	r8, #0
	bne	.L2003
	str	r0, [r2, #4]
	mov	r0, r5
	ldr	r1, [r5, #2360]
	add	r1, r1, r4
	bl	HEVC_ProcessVPS
	subs	r7, r0, #0
	bne	.L2004
	ldr	r3, [r5, #2360]
	mov	r2, #1
	add	r3, r3, r4
	strb	r2, [r3, #2]
	ldr	r3, [r5, #2360]
	strb	r2, [r3, r4]
.L1998:
	mov	r0, r7
	ldmfd	sp, {r4, r5, r6, r7, r8, r9, fp, sp, pc}
.L2003:
	ldr	r9, .L2006
	mov	r2, #132
	ldr	r8, .L2006+4
	mov	r1, #0
	ldr	r0, .L2006+8
	ldr	r3, [r9, #48]
	blx	r3
	ldr	r1, .L2006+8
	mov	r0, r5
	str	r6, [r8, #-3460]
	bl	HEVC_ProcessVPS
	subs	r7, r0, #0
	bne	.L2005
	ldr	r0, [r5, #2360]
	mov	r3, #1
	ldr	ip, [r9, #56]
	mov	r2, #132
	add	r0, r0, r4
	strb	r3, [r8, #-3462]
	strb	r3, [r8, #-3464]
	ldr	r1, .L2006+8
	blx	ip
	mov	r0, r7
	ldmfd	sp, {r4, r5, r6, r7, r8, r9, fp, sp, pc}
.L2005:
	mov	r2, r6
	ldr	r1, .L2006+12
	mov	r0, #1
	mvn	r7, #0
	bl	dprint_vfmw
	b	.L1998
.L2002:
	ldr	r1, .L2006+16
	mov	r0, #1
	bl	dprint_vfmw
	mvn	r7, #0
	b	.L1998
.L2004:
	mov	r2, r6
	ldr	r1, .L2006+20
	mov	r0, #1
	mvn	r7, #0
	bl	dprint_vfmw
	ldr	r3, [r5, #2360]
	mov	r2, #1
	add	r3, r3, r4
	strb	r2, [r3, #2]
	ldr	r3, [r5, #2360]
	strb	r8, [r3, r4]
	b	.L1998
.L2007:
	.align	2
.L2006:
	.word	vfmw_Osal_Func_Ptr_S
	.word	.LANCHOR5
	.word	.LANCHOR5-3464
	.word	.LC204
	.word	.LC203
	.word	.LC205
	UNWIND(.fnend)
	.size	HEVC_DecVPS, .-HEVC_DecVPS
	.align	2
	.global	HEVC_DecVuiParam
	.type	HEVC_DecVuiParam, %function
HEVC_DecVuiParam:
	UNWIND(.fnstart)
	@ args = 0, pretend = 0, frame = 0
	@ frame_needed = 1, uses_anonymous_args = 0
	UNWIND(.movsp ip)
	mov	ip, sp
	stmfd	sp!, {r4, r5, r6, r7, fp, ip, lr, pc}
	UNWIND(.pad #4)
	UNWIND(.save {r4, r5, r6, r7, fp, ip, lr})
	UNWIND(.setfp fp, ip, #-4)
	sub	fp, ip, #4
	mov	r4, r0
	mov	r5, r1
	ldr	r0, [r0, #2356]
	mov	r1, #1
	mov	r6, r2
	bl	BsGet
	tst	r0, #255
	bne	.L2052
.L2010:
	mov	r1, #1
	ldr	r0, [r4, #2356]
	bl	BsGet
	tst	r0, #255
	bne	.L2053
.L2012:
	mov	r1, #1
	ldr	r0, [r4, #2356]
	bl	BsGet
	tst	r0, #255
	bne	.L2054
.L2014:
	mov	r1, #1
	ldr	r0, [r4, #2356]
	bl	BsGet
	tst	r0, #255
	bne	.L2055
.L2016:
	mov	r1, #1
	ldr	r0, [r4, #2356]
	bl	BsGet
	mov	r1, #1
	ldr	r0, [r4, #2356]
	bl	BsGet
	mov	r1, #1
	ldr	r0, [r4, #2356]
	bl	BsGet
	mov	r1, #1
	strb	r0, [r5, #2]
	ldr	r0, [r4, #2356]
	bl	BsGet
	tst	r0, #255
	beq	.L2017
	ldr	r1, .L2061
	ldr	r0, [r4, #2356]
	bl	HEVC_ue_v
	ldr	r3, [r6, #60]
	cmp	r3, #3
	bhi	.L2056
	ldr	r1, .L2061+4
	ldr	r0, [r4, #2356]
	bl	HEVC_ue_v
	ldr	r1, .L2061+8
	ldr	r0, [r4, #2356]
	bl	HEVC_ue_v
	ldr	r1, .L2061+12
	ldr	r0, [r4, #2356]
	bl	HEVC_ue_v
.L2017:
	mov	r1, #1
	ldr	r0, [r4, #2356]
	bl	BsGet
	tst	r0, #255
	beq	.L2020
	mov	r1, #32
	ldr	r0, [r4, #2356]
	bl	BsGet
	mov	r1, #32
	str	r0, [r5, #36]
	ldr	r0, [r4, #2356]
	bl	BsGet
	ldr	r2, [r5, #36]
	cmp	r2, #0
	str	r0, [r5, #40]
	bne	.L2057
.L2021:
	mov	r1, #1
	ldr	r0, [r4, #2356]
	bl	BsGet
	tst	r0, #255
	bne	.L2058
.L2022:
	mov	r1, #1
	ldr	r0, [r4, #2356]
	bl	BsGet
	tst	r0, #255
	bne	.L2059
.L2020:
	mov	r1, #1
	ldr	r0, [r4, #2356]
	bl	BsGet
	uxtb	r0, r0
	cmp	r0, #0
	ldmeqfd	sp, {r4, r5, r6, r7, fp, sp, pc}
	mov	r1, #1
	ldr	r0, [r4, #2356]
	bl	BsGet
	mov	r1, #1
	ldr	r0, [r4, #2356]
	bl	BsGet
	mov	r1, #1
	ldr	r0, [r4, #2356]
	bl	BsGet
	ldr	r1, .L2061+16
	ldr	r0, [r4, #2356]
	bl	HEVC_ue_v
	cmp	r0, #4096
	bcs	.L2060
.L2023:
	ldr	r1, .L2061+20
	ldr	r0, [r4, #2356]
	bl	HEVC_ue_v
	ldr	r1, .L2061+24
	ldr	r0, [r4, #2356]
	bl	HEVC_ue_v
	ldr	r1, .L2061+28
	ldr	r0, [r4, #2356]
	bl	HEVC_ue_v
	ldr	r0, [r4, #2356]
	ldr	r1, .L2061+32
	bl	HEVC_ue_v
	mov	r0, #0
	ldmfd	sp, {r4, r5, r6, r7, fp, sp, pc}
.L2052:
	mov	r1, #8
	ldr	r0, [r4, #2356]
	bl	BsGet
	cmp	r0, #255
	str	r0, [r5, #8]
	bne	.L2010
	mov	r1, #16
	ldr	r0, [r4, #2356]
	bl	BsGet
	mov	r1, #16
	str	r0, [r5, #12]
	ldr	r0, [r4, #2356]
	bl	BsGet
	str	r0, [r5, #16]
	b	.L2010
.L2055:
	ldr	r1, .L2061+36
	ldr	r0, [r4, #2356]
	bl	HEVC_ue_v
	ldr	r1, .L2061+40
	ldr	r0, [r4, #2356]
	bl	HEVC_ue_v
	b	.L2016
.L2054:
	mov	r1, #3
	ldr	r0, [r4, #2356]
	bl	BsGet
	mov	r1, #1
	str	r0, [r5, #20]
	ldr	r0, [r4, #2356]
	bl	BsGet
	mov	r1, #1
	strb	r0, [r5]
	ldr	r0, [r4, #2356]
	bl	BsGet
	uxtb	r0, r0
	strb	r0, [r5, #1]
	cmp	r0, #0
	beq	.L2014
	mov	r1, #8
	ldr	r0, [r4, #2356]
	bl	BsGet
	mov	r1, #8
	str	r0, [r5, #24]
	ldr	r0, [r4, #2356]
	bl	BsGet
	mov	r1, #8
	str	r0, [r5, #28]
	ldr	r0, [r4, #2356]
	bl	BsGet
	str	r0, [r5, #32]
	b	.L2014
.L2053:
	mov	r1, #1
	ldr	r0, [r4, #2356]
	bl	BsGet
	b	.L2012
.L2059:
	ldr	r3, [r6, #52]
	add	r1, r5, #44
	mov	r2, #1
	mov	r0, r4
	bl	HEVC_DecHrdParam
	cmp	r0, #0
	beq	.L2020
	ldr	r1, .L2061+44
	mov	r0, #1
	bl	dprint_vfmw
	mvn	r0, #0
	ldmfd	sp, {r4, r5, r6, r7, fp, sp, pc}
.L2058:
	ldr	r1, .L2061+48
	ldr	r0, [r4, #2356]
	bl	HEVC_ue_v
	b	.L2022
.L2057:
	ldr	r3, .L2061+52
	movw	r1, #10000
	umull	r0, r1, r0, r1
	ldr	r3, [r3, #236]
	blx	r3
	movw	r3, #52429
	movt	r3, 52428
	add	r0, r0, #5
	umull	r0, r1, r0, r3
	mov	r3, r1, lsr #3
	str	r3, [r4, #144]
	b	.L2021
.L2060:
	ldr	r1, .L2061+56
	mov	r0, #1
	bl	dprint_vfmw
	b	.L2023
.L2056:
	ldr	r1, .L2061+60
	mov	r0, #1
	bl	dprint_vfmw
	mvn	r0, #0
	ldmfd	sp, {r4, r5, r6, r7, fp, sp, pc}
.L2062:
	.align	2
.L2061:
	.word	.LC208
	.word	.LC210
	.word	.LC211
	.word	.LC212
	.word	.LC215
	.word	.LC217
	.word	.LC218
	.word	.LC219
	.word	.LC220
	.word	.LC206
	.word	.LC207
	.word	.LC214
	.word	.LC213
	.word	vfmw_Osal_Func_Ptr_S
	.word	.LC216
	.word	.LC209
	UNWIND(.fnend)
	.size	HEVC_DecVuiParam, .-HEVC_DecVuiParam
	.align	2
	.global	HEVC_se_v
	.type	HEVC_se_v, %function
HEVC_se_v:
	UNWIND(.fnstart)
	@ args = 0, pretend = 0, frame = 0
	@ frame_needed = 1, uses_anonymous_args = 0
	UNWIND(.movsp ip)
	mov	ip, sp
	stmfd	sp!, {r4, r5, r6, r7, fp, ip, lr, pc}
	UNWIND(.pad #4)
	UNWIND(.save {r4, r5, r6, r7, fp, ip, lr})
	UNWIND(.setfp fp, ip, #-4)
	sub	fp, ip, #4
	mov	r1, #32
	mov	r5, r0
	bl	BsShow
	bl	ZerosMS_32
	cmp	r0, #31
	bls	.L2068
	mvn	r0, #-2147483648
	ldmfd	sp, {r4, r5, r6, r7, fp, sp, pc}
.L2068:
	add	r6, r0, #1
	mov	r1, r0
	mov	r0, r5
	bl	BsSkip
	mov	r1, r6
	mov	r0, r5
	bl	BsShow
	mov	r1, r6
	sub	r0, r0, #1
	tst	r0, #1
	mov	r3, r0, asr #1
	mov	r0, r5
	addne	r4, r3, #1
	rsbeq	r4, r3, #0
	bl	BsSkip
	mov	r0, r4
	ldmfd	sp, {r4, r5, r6, r7, fp, sp, pc}
	UNWIND(.fnend)
	.size	HEVC_se_v, .-HEVC_se_v
	.align	2
	.global	HEVC_Sei_Structure_Of_Pictures_Info
	.type	HEVC_Sei_Structure_Of_Pictures_Info, %function
HEVC_Sei_Structure_Of_Pictures_Info:
	UNWIND(.fnstart)
	@ args = 0, pretend = 0, frame = 0
	@ frame_needed = 1, uses_anonymous_args = 0
	UNWIND(.movsp ip)
	mov	ip, sp
	stmfd	sp!, {r4, r5, r6, r7, fp, ip, lr, pc}
	UNWIND(.pad #4)
	UNWIND(.save {r4, r5, r6, r7, fp, ip, lr})
	UNWIND(.setfp fp, ip, #-4)
	sub	fp, ip, #4
	ldr	r1, .L2081
	mov	r6, r0
	ldr	r0, [r0, #2356]
	bl	HEVC_ue_v
	ldr	r0, [r6, #2356]
	ldr	r1, .L2081+4
	bl	HEVC_ue_v
	cmp	r0, #1024
	mov	r7, r0
	bhi	.L2070
	cmp	r0, #0
	movne	r4, #0
	beq	.L2076
.L2075:
	mov	r1, #6
	ldr	r0, [r6, #2356]
	bl	BsGet
	mov	r1, #3
	mov	r5, r0
	ldr	r0, [r6, #2356]
	sub	r5, r5, #19
	bl	BsGet
	cmp	r5, #1
	ldr	r1, .L2081+8
	bls	.L2073
	ldr	r0, [r6, #2356]
	bl	HEVC_ue_v
.L2073:
	cmp	r4, #0
	ldr	r1, .L2081+12
	add	r4, r4, #1
	beq	.L2074
	ldr	r0, [r6, #2356]
	bl	HEVC_se_v
.L2074:
	cmp	r4, r7
	bne	.L2075
.L2076:
	ldr	r0, [r6, #2356]
	bl	BsToNextByte
	mov	r0, #0
	ldmfd	sp, {r4, r5, r6, r7, fp, sp, pc}
.L2070:
	ldr	r1, .L2081+16
	mov	r0, #1
	bl	dprint_vfmw
	mvn	r0, #0
	ldmfd	sp, {r4, r5, r6, r7, fp, sp, pc}
.L2082:
	.align	2
.L2081:
	.word	.LC221
	.word	.LC222
	.word	.LC224
	.word	.LC225
	.word	.LC223
	UNWIND(.fnend)
	.size	HEVC_Sei_Structure_Of_Pictures_Info, .-HEVC_Sei_Structure_Of_Pictures_Info
	.align	2
	.global	HEVC_Sei_Recovery_Point
	.type	HEVC_Sei_Recovery_Point, %function
HEVC_Sei_Recovery_Point:
	UNWIND(.fnstart)
	@ args = 0, pretend = 0, frame = 0
	@ frame_needed = 1, uses_anonymous_args = 0
	UNWIND(.movsp ip)
	mov	ip, sp
	stmfd	sp!, {r4, r5, fp, ip, lr, pc}
	UNWIND(.pad #4)
	UNWIND(.save {r4, r5, fp, ip, lr})
	UNWIND(.setfp fp, ip, #-4)
	sub	fp, ip, #4
	cmp	r1, #0
	cmpne	r0, #0
	mov	r4, r0
	moveq	r5, #1
	movne	r5, #0
	beq	.L2085
	ldr	r1, .L2086
	ldr	r0, [r0, #2356]
	bl	HEVC_se_v
	mov	r1, #1
	ldr	r0, [r4, #2356]
	bl	BsGet
	mov	r1, #1
	ldr	r0, [r4, #2356]
	bl	BsGet
	ldr	r0, [r4, #2356]
	bl	BsToNextByte
	mov	r0, r5
	ldmfd	sp, {r4, r5, fp, sp, pc}
.L2085:
	mvn	r0, #0
	ldmfd	sp, {r4, r5, fp, sp, pc}
.L2087:
	.align	2
.L2086:
	.word	.LC226
	UNWIND(.fnend)
	.size	HEVC_Sei_Recovery_Point, .-HEVC_Sei_Recovery_Point
	.align	2
	.global	HEVC_Sei_Color_Remapping_Info
	.type	HEVC_Sei_Color_Remapping_Info, %function
HEVC_Sei_Color_Remapping_Info:
	UNWIND(.fnstart)
	@ args = 0, pretend = 0, frame = 0
	@ frame_needed = 1, uses_anonymous_args = 0
	UNWIND(.movsp ip)
	mov	ip, sp
	stmfd	sp!, {r3, r4, r5, r6, r7, r8, r9, r10, fp, ip, lr, pc}
	UNWIND(.pad #4)
	UNWIND(.save {r3, r4, r5, r6, r7, r8, r9, r10, fp, ip, lr})
	UNWIND(.setfp fp, ip, #-4)
	sub	fp, ip, #4
	cmp	r1, #0
	cmpne	r0, #0
	mov	r4, r0
	mov	r8, r1
	beq	.L2104
	ldr	r1, .L2116
	ldr	r0, [r0, #2356]
	bl	HEVC_ue_v
	mov	r1, #1
	ldr	r0, [r4, #2356]
	bl	BsGet
	tst	r0, #255
	beq	.L2090
.L2102:
	mov	r3, #1
	mov	r0, #0
	strb	r3, [r8]
	ldmfd	sp, {r3, r4, r5, r6, r7, r8, r9, r10, fp, sp, pc}
.L2090:
	mov	r1, #1
	ldr	r0, [r4, #2356]
	bl	BsGet
	mov	r1, #1
	ldr	r0, [r4, #2356]
	bl	BsGet
	uxtb	r1, r0
	cmp	r1, #1
	beq	.L2114
.L2091:
	mov	r1, #8
	ldr	r0, [r4, #2356]
	bl	BsGet
	mov	r1, #8
	ldr	r0, [r4, #2356]
	mov	r7, #3
	bl	BsGet
.L2093:
	mov	r1, #8
	ldr	r0, [r4, #2356]
	bl	BsGet
	uxtb	r0, r0
	cmp	r0, #0
	beq	.L2096
	add	r6, r0, #1
	mov	r5, #0
.L2095:
	mov	r1, #16
	ldr	r0, [r4, #2356]
	bl	BsGet
	add	r5, r5, #1
	mov	r1, #16
	ldr	r0, [r4, #2356]
	bl	BsGet
	cmp	r5, r6
	bne	.L2095
.L2096:
	subs	r7, r7, #1
	bne	.L2093
	mov	r1, #1
	ldr	r0, [r4, #2356]
	bl	BsGet
	uxtb	r0, r0
	cmp	r0, #1
	beq	.L2115
.L2097:
	add	r10, r8, #42
	add	r7, r8, #39
	mov	r9, r10
.L2101:
	mov	r1, #8
	ldr	r0, [r4, #2356]
	bl	BsGet
	uxtb	r0, r0
	strb	r0, [r7, #1]!
	cmp	r0, #0
	beq	.L2103
	mov	r6, r9
	mov	r5, #0
.L2100:
	mov	r1, #16
	ldr	r0, [r4, #2356]
	bl	BsGet
	mov	r1, #16
	add	r5, r5, #1
	strh	r0, [r6, #2]!	@ movhi
	ldr	r0, [r4, #2356]
	bl	BsGet
	strh	r0, [r6, #198]	@ movhi
	ldrb	r3, [r7]	@ zero_extendqisi2
	add	r3, r3, #1
	cmp	r3, r5
	bhi	.L2100
.L2103:
	cmp	r7, r10
	add	r9, r9, #66
	bne	.L2101
	b	.L2102
.L2104:
	mvn	r0, #0
	ldmfd	sp, {r3, r4, r5, r6, r7, r8, r9, r10, fp, sp, pc}
.L2115:
	mov	r1, #4
	ldr	r0, [r4, #2356]
	bl	BsGet
	add	r7, r8, #36
	mov	r5, r8
.L2098:
	add	r6, r5, #12
.L2099:
	ldr	r1, .L2116+4
	ldr	r0, [r4, #2356]
	bl	HEVC_se_v
	str	r0, [r5, #4]!
	cmp	r5, r6
	bne	.L2099
	cmp	r7, r5
	bne	.L2098
	b	.L2097
.L2114:
	ldr	r0, [r4, #2356]
	bl	BsGet
	mov	r1, #8
	ldr	r0, [r4, #2356]
	bl	BsGet
	mov	r1, #8
	strb	r0, [r8, #1]
	ldr	r0, [r4, #2356]
	bl	BsGet
	mov	r1, #8
	ldr	r0, [r4, #2356]
	bl	BsGet
	b	.L2091
.L2117:
	.align	2
.L2116:
	.word	.LC227
	.word	.LC228
	UNWIND(.fnend)
	.size	HEVC_Sei_Color_Remapping_Info, .-HEVC_Sei_Color_Remapping_Info
	.align	2
	.global	HEVC_Sei_Payload
	.type	HEVC_Sei_Payload, %function
HEVC_Sei_Payload:
	UNWIND(.fnstart)
	@ args = 4, pretend = 0, frame = 0
	@ frame_needed = 1, uses_anonymous_args = 0
	UNWIND(.movsp ip)
	mov	ip, sp
	stmfd	sp!, {r4, r5, r6, r7, fp, ip, lr, pc}
	UNWIND(.pad #4)
	UNWIND(.save {r4, r5, r6, r7, fp, ip, lr})
	UNWIND(.setfp fp, ip, #-4)
	sub	fp, ip, #4
	ldr	ip, [r0, #2376]
	mov	r4, r0
	ldr	r6, [fp, #4]
	ldr	ip, [ip, #16]
	cmp	ip, #39
	beq	.L2164
	cmp	r3, #5
	beq	.L2147
	cmp	r3, #132
	beq	.L2148
	cmp	r6, #0
	movne	r5, #0
	beq	.L2141
.L2150:
	add	r5, r5, #1
	mov	r1, #8
	ldr	r0, [r4, #2356]
	bl	BsGet
	cmp	r5, r6
	bne	.L2150
	b	.L2141
.L2147:
	add	r1, r1, #568
	mov	r2, r6
	bl	HEVC_Sei_User_Data_Unregistered
	cmp	r0, #0
	bne	.L2144
.L2141:
	mov	r1, r6
	mov	r0, r4
	bl	HEVC_Sei_More_Data_In_Payload
	cmp	r0, #0
	bne	.L2151
	mov	r0, #0
	ldmfd	sp, {r4, r5, r6, r7, fp, sp, pc}
.L2151:
	mov	r1, r6
	mov	r0, r4
	bl	HEVC_Sei_Payload_Extension_Present
	cmp	r0, #0
	bne	.L2165
.L2152:
	mov	r1, #1
	ldr	r0, [r4, #2356]
	bl	BsGet
	b	.L2153
.L2154:
	ldr	r0, [r4, #2356]
	bl	BsGet
.L2153:
	ldr	r0, [r4, #2356]
	bl	BsIsByteAligned
	mov	r1, #1
	cmp	r0, #0
	beq	.L2154
	mov	r0, #0
	ldmfd	sp, {r4, r5, r6, r7, fp, sp, pc}
.L2164:
	cmp	r3, #147
	ldrls	pc, [pc, r3, asl #2]
	b	.L2120
.L2122:
	.word	.L2121
	.word	.L2123
	.word	.L2120
	.word	.L2120
	.word	.L2124
	.word	.L2125
	.word	.L2126
	.word	.L2120
	.word	.L2120
	.word	.L2120
	.word	.L2120
	.word	.L2120
	.word	.L2120
	.word	.L2120
	.word	.L2120
	.word	.L2120
	.word	.L2120
	.word	.L2120
	.word	.L2120
	.word	.L2120
	.word	.L2120
	.word	.L2120
	.word	.L2120
	.word	.L2127
	.word	.L2120
	.word	.L2120
	.word	.L2120
	.word	.L2120
	.word	.L2120
	.word	.L2120
	.word	.L2120
	.word	.L2120
	.word	.L2120
	.word	.L2120
	.word	.L2120
	.word	.L2120
	.word	.L2120
	.word	.L2120
	.word	.L2120
	.word	.L2120
	.word	.L2120
	.word	.L2120
	.word	.L2120
	.word	.L2120
	.word	.L2120
	.word	.L2128
	.word	.L2120
	.word	.L2129
	.word	.L2120
	.word	.L2120
	.word	.L2120
	.word	.L2120
	.word	.L2120
	.word	.L2120
	.word	.L2120
	.word	.L2120
	.word	.L2120
	.word	.L2120
	.word	.L2120
	.word	.L2120
	.word	.L2120
	.word	.L2120
	.word	.L2120
	.word	.L2120
	.word	.L2120
	.word	.L2120
	.word	.L2120
	.word	.L2120
	.word	.L2120
	.word	.L2120
	.word	.L2120
	.word	.L2120
	.word	.L2120
	.word	.L2120
	.word	.L2120
	.word	.L2120
	.word	.L2120
	.word	.L2120
	.word	.L2120
	.word	.L2120
	.word	.L2120
	.word	.L2120
	.word	.L2120
	.word	.L2120
	.word	.L2120
	.word	.L2120
	.word	.L2120
	.word	.L2120
	.word	.L2120
	.word	.L2120
	.word	.L2120
	.word	.L2120
	.word	.L2120
	.word	.L2120
	.word	.L2120
	.word	.L2120
	.word	.L2120
	.word	.L2120
	.word	.L2120
	.word	.L2120
	.word	.L2120
	.word	.L2120
	.word	.L2120
	.word	.L2120
	.word	.L2120
	.word	.L2120
	.word	.L2120
	.word	.L2120
	.word	.L2120
	.word	.L2120
	.word	.L2120
	.word	.L2120
	.word	.L2120
	.word	.L2120
	.word	.L2120
	.word	.L2120
	.word	.L2120
	.word	.L2120
	.word	.L2120
	.word	.L2120
	.word	.L2120
	.word	.L2120
	.word	.L2120
	.word	.L2120
	.word	.L2120
	.word	.L2120
	.word	.L2120
	.word	.L2120
	.word	.L2130
	.word	.L2131
	.word	.L2132
	.word	.L2133
	.word	.L2120
	.word	.L2134
	.word	.L2135
	.word	.L2120
	.word	.L2120
	.word	.L2136
	.word	.L2120
	.word	.L2120
	.word	.L2120
	.word	.L2120
	.word	.L2137
	.word	.L2120
	.word	.L2138
	.word	.L2120
	.word	.L2120
	.word	.L2139
.L2148:
	add	r1, r1, #616
	add	r1, r1, #3
	bl	HEVC_Sei_Decoded_Picture_Hash
	cmp	r0, #0
	beq	.L2141
	b	.L2144
.L2165:
	ldr	r1, .L2166
	ldr	r0, [r4, #2356]
	bl	HEVC_ue_v
	b	.L2152
.L2139:
	add	r1, r1, #616
	add	r1, r1, #2
	bl	HEVC_Sei_HLGHDR_Comapitibility_Info
	cmp	r0, #0
	beq	.L2141
.L2144:
	mvn	r0, #0
	ldmfd	sp, {r4, r5, r6, r7, fp, sp, pc}
.L2121:
	add	r2, r2, #2096
	add	r2, r2, #12
	bl	HEVC_Sei_Buf_Period
	cmp	r0, #0
	beq	.L2141
	b	.L2144
.L2123:
	add	r2, r2, #2064
	add	r1, r1, #8
	bl	HEVC_Sei_Pic_Timming
	cmp	r0, #0
	beq	.L2141
	b	.L2144
.L2124:
	add	r1, r1, #56
	mov	r2, r6
	bl	HEVC_Sei_User_Data_Registered_Itu_T_T35
	cmp	r0, #0
	beq	.L2141
	b	.L2144
.L2125:
	add	r1, r1, #568
	mov	r2, r6
	bl	HEVC_Sei_User_Data_Unregistered
	cmp	r0, #0
	beq	.L2141
	b	.L2144
.L2126:
	add	r1, r1, #568
	bl	HEVC_Sei_Recovery_Point
	cmp	r0, #0
	beq	.L2141
	b	.L2144
.L2127:
	add	r1, r1, #616
	add	r1, r1, #3
	bl	HEVC_Sei_Tone_Mapping_Info
	cmp	r0, #0
	beq	.L2141
	b	.L2144
.L2128:
	add	r1, r1, #568
	bl	HEVC_Sei_Frame_Packing_Arrangement
	cmp	r0, #0
	beq	.L2141
	b	.L2144
.L2129:
	add	r1, r1, #568
	bl	HEVC_Sei_Display_Orientation
	cmp	r0, #0
	beq	.L2141
	b	.L2144
.L2130:
	add	r1, r1, #616
	mov	r2, r6
	add	r1, r1, #3
	bl	HEVC_Sei_Structure_Of_Pictures_Info
	cmp	r0, #0
	beq	.L2141
	b	.L2144
.L2131:
	add	r1, r1, #568
	bl	HEVC_Sei_Active_Param_sets
	cmp	r0, #0
	beq	.L2141
	b	.L2144
.L2132:
	add	r2, r2, #2096
	add	r1, r1, #568
	add	r2, r2, #12
	bl	HEVC_Sei_Dec_Unit_Info
	cmp	r0, #0
	beq	.L2141
	b	.L2144
.L2133:
	add	r1, r1, #568
	bl	HEVC_Sei_Temporal_Sub_Layer_Zero_Index
	cmp	r0, #0
	beq	.L2141
	b	.L2144
.L2134:
	mov	r3, r6
	bl	HEVC_Sei_Scalable_Nesting
	cmp	r0, #0
	beq	.L2141
	b	.L2144
.L2135:
	cmn	r1, #568
	cmpne	r0, #0
	beq	.L2144
	mov	r1, #1
	ldr	r0, [r0, #2356]
	bl	BsGet
	b	.L2141
.L2136:
	add	r1, r1, #568
	bl	HEVC_Sei_Mastering_Display_Colour_Volume
	cmp	r0, #0
	beq	.L2141
	b	.L2144
.L2137:
	add	r1, r1, #128
	bl	HEVC_Sei_Color_Remapping_Info
	cmp	r0, #0
	beq	.L2141
	b	.L2144
.L2138:
	add	r1, r1, #612
	bl	HEVC_Sei_Content_Light_Level_Information
	cmp	r0, #0
	beq	.L2141
	b	.L2144
.L2120:
	cmp	r6, #0
	movne	r5, #0
	beq	.L2141
.L2145:
	add	r5, r5, #1
	mov	r1, #8
	ldr	r0, [r4, #2356]
	bl	BsGet
	cmp	r5, r6
	bne	.L2145
	b	.L2141
.L2167:
	.align	2
.L2166:
	.word	.LC229
	UNWIND(.fnend)
	.size	HEVC_Sei_Payload, .-HEVC_Sei_Payload
	.align	2
	.global	HEVC_SeiMessage
	.type	HEVC_SeiMessage, %function
HEVC_SeiMessage:
	UNWIND(.fnstart)
	@ args = 0, pretend = 0, frame = 0
	@ frame_needed = 1, uses_anonymous_args = 0
	UNWIND(.movsp ip)
	mov	ip, sp
	stmfd	sp!, {r4, r5, r6, r7, r8, r9, fp, ip, lr, pc}
	UNWIND(.pad #4)
	UNWIND(.save {r4, r5, r6, r7, r8, r9, fp, ip, lr})
	UNWIND(.setfp fp, ip, #-4)
	sub	fp, ip, #4
	UNWIND(.pad #8)
	sub	sp, sp, #8
	mov	r5, #0
	mov	r4, r0
	mov	r6, r1
	mov	r7, r2
	ldr	r0, [r0, #2356]
	b	.L2169
.L2171:
	bl	BsSkip
	ldr	r0, [r4, #2356]
	add	r5, r5, #255
	ldr	r3, [r0, #24]
	ldr	r2, [r0, #16]
	add	r1, r3, #8
	cmp	r1, r2
	bhi	.L2177
.L2169:
	mov	r1, #8
	bl	BsShow
	mov	r1, #8
	cmp	r0, #255
	ldr	r0, [r4, #2356]
	beq	.L2171
	bl	BsGet
	mov	r8, #0
	mov	r9, r0
	ldr	r0, [r4, #2356]
	b	.L2172
.L2173:
	bl	BsSkip
	ldr	r0, [r4, #2356]
	add	r8, r8, #255
	ldr	r3, [r0, #24]
	ldr	r2, [r0, #16]
	add	r1, r3, #8
	cmp	r1, r2
	bhi	.L2178
.L2172:
	mov	r1, #8
	bl	BsShow
	mov	r1, #8
	cmp	r0, #255
	ldr	r0, [r4, #2356]
	beq	.L2173
	bl	BsGet
	add	r3, r9, r5
	mov	r2, r7
	mov	r1, r6
	add	r8, r0, r8
	mov	r0, r4
	str	r8, [sp]
	bl	HEVC_Sei_Payload
	cmp	r0, #0
	bne	.L2179
.L2170:
	sub	sp, fp, #36
	ldmfd	sp, {r4, r5, r6, r7, r8, r9, fp, sp, pc}
.L2177:
	str	r2, [sp]
	mov	r0, #1
	movw	r2, #5022
	ldr	r1, .L2180
	bl	dprint_vfmw
	mvn	r0, #0
	sub	sp, fp, #36
	ldmfd	sp, {r4, r5, r6, r7, r8, r9, fp, sp, pc}
.L2178:
	str	r2, [sp]
	mov	r0, #1
	movw	r2, #5043
	ldr	r1, .L2180
	bl	dprint_vfmw
	mvn	r0, #0
	sub	sp, fp, #36
	ldmfd	sp, {r4, r5, r6, r7, r8, r9, fp, sp, pc}
.L2179:
	ldr	r1, .L2180+4
	mov	r0, #1
	bl	dprint_vfmw
	mvn	r0, #0
	b	.L2170
.L2181:
	.align	2
.L2180:
	.word	.LC230
	.word	.LC231
	UNWIND(.fnend)
	.size	HEVC_SeiMessage, .-HEVC_SeiMessage
	.align	2
	.global	HEVC_DecSEI
	.type	HEVC_DecSEI, %function
HEVC_DecSEI:
	UNWIND(.fnstart)
	@ args = 0, pretend = 0, frame = 0
	@ frame_needed = 1, uses_anonymous_args = 0
	UNWIND(.movsp ip)
	mov	ip, sp
	stmfd	sp!, {r4, r5, r6, r7, fp, ip, lr, pc}
	UNWIND(.pad #4)
	UNWIND(.save {r4, r5, r6, r7, fp, ip, lr})
	UNWIND(.setfp fp, ip, #-4)
	sub	fp, ip, #4
	ldrb	r3, [r0, #1]	@ zero_extendqisi2
	mov	r4, r0
	cmp	r3, #1
	beq	.L2188
	ldr	r5, [r0, #2372]
	add	r6, r0, #2880
	cmp	r5, #0
	bne	.L2191
	b	.L2194
.L2186:
	ldr	r0, [r4, #2356]
	bl	BsIsByteAligned
	cmp	r0, #0
	mov	r0, r4
	beq	.L2195
	bl	HEVC_More_Rbsp_Data
	cmp	r0, #0
	beq	.L2196
.L2191:
	mov	r2, r5
	mov	r1, r6
	mov	r0, r4
	bl	HEVC_SeiMessage
	cmp	r0, #0
	beq	.L2186
	ldr	r1, .L2198
	mov	r0, #1
	bl	dprint_vfmw
	mvn	r0, #0
	ldmfd	sp, {r4, r5, r6, r7, fp, sp, pc}
.L2196:
	ldr	r0, [r4, #2356]
	mov	r1, #8
	bl	BsGet
	cmp	r0, #128
	bne	.L2197
.L2188:
	mov	r0, #0
	ldmfd	sp, {r4, r5, r6, r7, fp, sp, pc}
.L2195:
	ldr	r1, .L2198+4
	mov	r0, #1
	bl	dprint_vfmw
	mvn	r0, #0
	ldmfd	sp, {r4, r5, r6, r7, fp, sp, pc}
.L2197:
	mov	r2, r0
	ldr	r1, .L2198+8
	mov	r0, #1
	bl	dprint_vfmw
	mvn	r0, #0
	ldmfd	sp, {r4, r5, r6, r7, fp, sp, pc}
.L2194:
	ldr	r1, .L2198+12
	mov	r0, #1
	bl	dprint_vfmw
	mvn	r0, #0
	ldmfd	sp, {r4, r5, r6, r7, fp, sp, pc}
.L2199:
	.align	2
.L2198:
	.word	.LC233
	.word	.LC234
	.word	.LC235
	.word	.LC232
	UNWIND(.fnend)
	.size	HEVC_DecSEI, .-HEVC_DecSEI
	.align	2
	.global	HEVC_Sei_Scalable_Nesting
	.type	HEVC_Sei_Scalable_Nesting, %function
HEVC_Sei_Scalable_Nesting:
	UNWIND(.fnstart)
	@ args = 0, pretend = 0, frame = 0
	@ frame_needed = 1, uses_anonymous_args = 0
	UNWIND(.movsp ip)
	mov	ip, sp
	stmfd	sp!, {r4, r5, r6, r7, r8, r9, fp, ip, lr, pc}
	UNWIND(.pad #4)
	UNWIND(.save {r4, r5, r6, r7, r8, r9, fp, ip, lr})
	UNWIND(.setfp fp, ip, #-4)
	sub	fp, ip, #4
	mov	r4, r0
	mov	r6, r1
	ldr	r0, [r0, #2356]
	mov	r1, #1
	mov	r7, r2
	bl	BsGet
	mov	r1, #1
	ldr	r0, [r4, #2356]
	bl	BsGet
	mov	r1, #1
	tst	r0, #255
	ldr	r0, [r4, #2356]
	beq	.L2201
	bl	BsGet
	ldr	r1, .L2217
	mov	r5, r0
	ldr	r0, [r4, #2356]
	bl	HEVC_ue_v
	cmp	r0, #63
	mov	r8, r0
	bhi	.L2214
	uxtb	r5, r5
	cmp	r0, r5
	bcc	.L2207
.L2206:
	mov	r1, #3
	ldr	r0, [r4, #2356]
	bl	BsGet
	add	r5, r5, #1
	ldr	r1, .L2217+4
	ldr	r0, [r4, #2356]
	bl	HEVC_ue_v
	cmp	r8, r5
	bcs	.L2206
.L2207:
	ldr	r0, [r4, #2356]
	bl	BsToNextByte
	b	.L2205
.L2210:
	bl	HEVC_MoreRbspData
	cmp	r0, #0
	beq	.L2215
.L2205:
	mov	r2, r7
	mov	r1, r6
	mov	r0, r4
	bl	HEVC_SeiMessage
	cmp	r0, #0
	mov	r0, r4
	beq	.L2210
	ldr	r1, .L2217+8
	mov	r0, #1
	bl	dprint_vfmw
	mvn	r0, #0
	ldmfd	sp, {r4, r5, r6, r7, r8, r9, fp, sp, pc}
.L2201:
	bl	BsGet
	uxtb	r5, r0
	cmp	r5, #0
	bne	.L2207
	mov	r1, #3
	ldr	r0, [r4, #2356]
	bl	BsGet
	ldr	r1, .L2217+12
	ldr	r0, [r4, #2356]
	bl	HEVC_ue_v
	cmp	r0, #63
	addls	r8, r0, #1
	bhi	.L2216
.L2209:
	add	r5, r5, #1
	mov	r1, #6
	ldr	r0, [r4, #2356]
	bl	BsGet
	cmp	r5, r8
	bne	.L2209
	b	.L2207
.L2215:
	ldmfd	sp, {r4, r5, r6, r7, r8, r9, fp, sp, pc}
.L2214:
	mov	r2, #64
	ldr	r1, .L2217+16
	mov	r0, #1
	bl	dprint_vfmw
	mvn	r0, #0
	ldmfd	sp, {r4, r5, r6, r7, r8, r9, fp, sp, pc}
.L2216:
	ldr	r1, .L2217+20
	mov	r0, #1
	bl	dprint_vfmw
	mvn	r0, #0
	ldmfd	sp, {r4, r5, r6, r7, r8, r9, fp, sp, pc}
.L2218:
	.align	2
.L2217:
	.word	.LC236
	.word	.LC238
	.word	.LC233
	.word	.LC239
	.word	.LC237
	.word	.LC240
	UNWIND(.fnend)
	.size	HEVC_Sei_Scalable_Nesting, .-HEVC_Sei_Scalable_Nesting
	.align	2
	.global	HEVC_DecScalingListData
	.type	HEVC_DecScalingListData, %function
HEVC_DecScalingListData:
	UNWIND(.fnstart)
	@ args = 0, pretend = 0, frame = 24
	@ frame_needed = 1, uses_anonymous_args = 0
	UNWIND(.movsp ip)
	mov	ip, sp
	stmfd	sp!, {r4, r5, r6, r7, r8, r9, r10, fp, ip, lr, pc}
	UNWIND(.pad #4)
	UNWIND(.save {r4, r5, r6, r7, r8, r9, r10, fp, ip, lr})
	UNWIND(.setfp fp, ip, #-4)
	sub	fp, ip, #4
	UNWIND(.pad #28)
	sub	sp, sp, #28
	ldr	r3, .L2257
	mov	r6, r0
	add	r9, r6, #2208
	mov	r4, r1
	str	r1, [fp, #-68]
	ldr	r3, [r3, #52]
	mov	r2, #64
	add	r1, r1, #1216
	add	r0, r4, #1344
	blx	r3
	add	r3, r4, #1536
	str	r4, [fp, #-60]
	str	r3, [fp, #-64]
	mov	r3, #0
