#include "hi_asm_define.h"
	.arch armv7-a
	.fpu softvfp
	.eabi_attribute 20, 1
	.eabi_attribute 21, 1
	.eabi_attribute 23, 3
	.eabi_attribute 24, 1
	.eabi_attribute 25, 1
	.eabi_attribute 26, 2
	.eabi_attribute 30, 2
	.eabi_attribute 34, 0
	.eabi_attribute 18, 4
	.file	"h264.c"
	.text
	.align	2
	.global	IsSTRefFlg
	.type	IsSTRefFlg, %function
IsSTRefFlg:
	UNWIND(.fnstart)
	@ args = 0, pretend = 0, frame = 0
	@ frame_needed = 1, uses_anonymous_args = 0
	UNWIND(.movsp ip)
	mov	ip, sp
	stmfd	sp!, {fp, ip, lr, pc}
	UNWIND(.pad #4)
	UNWIND(.save {fp, ip, lr})
	UNWIND(.setfp fp, ip, #-4)
	sub	fp, ip, #4
	ldr	r0, [r0]
	bic	r0, r0, #-16777216
	bic	r0, r0, #255
	sub	r0, r0, #65536
	clz	r0, r0
	mov	r0, r0, lsr #5
	ldmfd	sp, {fp, sp, pc}
	UNWIND(.fnend)
	.size	IsSTRefFlg, .-IsSTRefFlg
	.align	2
	.global	IsLTRefFlg
	.type	IsLTRefFlg, %function
IsLTRefFlg:
	UNWIND(.fnstart)
	@ args = 0, pretend = 0, frame = 0
	@ frame_needed = 1, uses_anonymous_args = 0
	UNWIND(.movsp ip)
	mov	ip, sp
	stmfd	sp!, {fp, ip, lr, pc}
	UNWIND(.pad #4)
	UNWIND(.save {fp, ip, lr})
	UNWIND(.setfp fp, ip, #-4)
	sub	fp, ip, #4
	ldr	r0, [r0]
	bic	r0, r0, #-16777216
	bic	r0, r0, #255
	sub	r0, r0, #256
	clz	r0, r0
	mov	r0, r0, lsr #5
	ldmfd	sp, {fp, sp, pc}
	UNWIND(.fnend)
	.size	IsLTRefFlg, .-IsLTRefFlg
	.align	2
	.global	compare_pic_by_pic_num_desc
	.type	compare_pic_by_pic_num_desc, %function
compare_pic_by_pic_num_desc:
	UNWIND(.fnstart)
	@ args = 0, pretend = 0, frame = 0
	@ frame_needed = 1, uses_anonymous_args = 0
	UNWIND(.movsp ip)
	mov	ip, sp
	stmfd	sp!, {fp, ip, lr, pc}
	UNWIND(.pad #4)
	UNWIND(.save {fp, ip, lr})
	UNWIND(.setfp fp, ip, #-4)
	sub	fp, ip, #4
	ldr	r2, [r0]
	ldr	r3, [r1]
	ldr	r2, [r2, #8]
	ldr	r3, [r3, #8]
	cmp	r2, r3
	blt	.L5
	mvngt	r0, #0
	movle	r0, #0
	ldmfd	sp, {fp, sp, pc}
.L5:
	mov	r0, #1
	ldmfd	sp, {fp, sp, pc}
	UNWIND(.fnend)
	.size	compare_pic_by_pic_num_desc, .-compare_pic_by_pic_num_desc
	.align	2
	.global	compare_pic_by_lt_pic_num_asc
	.type	compare_pic_by_lt_pic_num_asc, %function
compare_pic_by_lt_pic_num_asc:
	UNWIND(.fnstart)
	@ args = 0, pretend = 0, frame = 0
	@ frame_needed = 1, uses_anonymous_args = 0
	UNWIND(.movsp ip)
	mov	ip, sp
	stmfd	sp!, {fp, ip, lr, pc}
	UNWIND(.pad #4)
	UNWIND(.save {fp, ip, lr})
	UNWIND(.setfp fp, ip, #-4)
	sub	fp, ip, #4
	ldr	r2, [r0]
	ldr	r3, [r1]
	ldr	r2, [r2, #4]
	ldr	r3, [r3, #4]
	cmp	r2, r3
	blt	.L9
	movgt	r0, #1
	movle	r0, #0
	ldmfd	sp, {fp, sp, pc}
.L9:
	mvn	r0, #0
	ldmfd	sp, {fp, sp, pc}
	UNWIND(.fnend)
	.size	compare_pic_by_lt_pic_num_asc, .-compare_pic_by_lt_pic_num_asc
	.align	2
	.global	compare_fs_by_frame_num_desc
	.type	compare_fs_by_frame_num_desc, %function
compare_fs_by_frame_num_desc:
	UNWIND(.fnstart)
	@ args = 0, pretend = 0, frame = 0
	@ frame_needed = 1, uses_anonymous_args = 0
	UNWIND(.movsp ip)
	mov	ip, sp
	stmfd	sp!, {fp, ip, lr, pc}
	UNWIND(.pad #4)
	UNWIND(.save {fp, ip, lr})
	UNWIND(.setfp fp, ip, #-4)
	sub	fp, ip, #4
	ldr	r2, [r0]
	ldr	r3, [r1]
	ldr	r2, [r2, #656]
	ldr	r3, [r3, #656]
	cmp	r2, r3
	blt	.L12
	mvngt	r0, #0
	movle	r0, #0
	ldmfd	sp, {fp, sp, pc}
.L12:
	mov	r0, #1
	ldmfd	sp, {fp, sp, pc}
	UNWIND(.fnend)
	.size	compare_fs_by_frame_num_desc, .-compare_fs_by_frame_num_desc
	.align	2
	.global	compare_fs_by_lt_pic_idx_asc
	.type	compare_fs_by_lt_pic_idx_asc, %function
compare_fs_by_lt_pic_idx_asc:
	UNWIND(.fnstart)
	@ args = 0, pretend = 0, frame = 0
	@ frame_needed = 1, uses_anonymous_args = 0
	UNWIND(.movsp ip)
	mov	ip, sp
	stmfd	sp!, {fp, ip, lr, pc}
	UNWIND(.pad #4)
	UNWIND(.save {fp, ip, lr})
	UNWIND(.setfp fp, ip, #-4)
	sub	fp, ip, #4
	ldr	r2, [r0]
	ldr	r3, [r1]
	ldr	r2, [r2, #660]
	ldr	r3, [r3, #660]
	cmp	r2, r3
	bcc	.L15
	movhi	r0, #1
	movls	r0, #0
	ldmfd	sp, {fp, sp, pc}
.L15:
	mvn	r0, #0
	ldmfd	sp, {fp, sp, pc}
	UNWIND(.fnend)
	.size	compare_fs_by_lt_pic_idx_asc, .-compare_fs_by_lt_pic_idx_asc
	.align	2
	.global	compare_pic_by_poc_asc
	.type	compare_pic_by_poc_asc, %function
compare_pic_by_poc_asc:
	UNWIND(.fnstart)
	@ args = 0, pretend = 0, frame = 0
	@ frame_needed = 1, uses_anonymous_args = 0
	UNWIND(.movsp ip)
	mov	ip, sp
	stmfd	sp!, {fp, ip, lr, pc}
	UNWIND(.pad #4)
	UNWIND(.save {fp, ip, lr})
	UNWIND(.setfp fp, ip, #-4)
	sub	fp, ip, #4
	ldr	r2, [r0]
	ldr	r3, [r1]
	ldr	r2, [r2, #12]
	ldr	r3, [r3, #12]
	cmp	r2, r3
	blt	.L18
	movgt	r0, #1
	movle	r0, #0
	ldmfd	sp, {fp, sp, pc}
.L18:
	mvn	r0, #0
	ldmfd	sp, {fp, sp, pc}
	UNWIND(.fnend)
	.size	compare_pic_by_poc_asc, .-compare_pic_by_poc_asc
	.align	2
	.global	compare_pic_by_poc_desc
	.type	compare_pic_by_poc_desc, %function
compare_pic_by_poc_desc:
	UNWIND(.fnstart)
	@ args = 0, pretend = 0, frame = 0
	@ frame_needed = 1, uses_anonymous_args = 0
	UNWIND(.movsp ip)
	mov	ip, sp
	stmfd	sp!, {fp, ip, lr, pc}
	UNWIND(.pad #4)
	UNWIND(.save {fp, ip, lr})
	UNWIND(.setfp fp, ip, #-4)
	sub	fp, ip, #4
	ldr	r2, [r0]
	ldr	r3, [r1]
	ldr	r2, [r2, #12]
	ldr	r3, [r3, #12]
	cmp	r2, r3
	blt	.L21
	mvngt	r0, #0
	movle	r0, #0
	ldmfd	sp, {fp, sp, pc}
.L21:
	mov	r0, #1
	ldmfd	sp, {fp, sp, pc}
	UNWIND(.fnend)
	.size	compare_pic_by_poc_desc, .-compare_pic_by_poc_desc
	.align	2
	.global	compare_fs_by_poc_asc
	.type	compare_fs_by_poc_asc, %function
compare_fs_by_poc_asc:
	UNWIND(.fnstart)
	@ args = 0, pretend = 0, frame = 0
	@ frame_needed = 1, uses_anonymous_args = 0
	UNWIND(.movsp ip)
	mov	ip, sp
	stmfd	sp!, {fp, ip, lr, pc}
	UNWIND(.pad #4)
	UNWIND(.save {fp, ip, lr})
	UNWIND(.setfp fp, ip, #-4)
	sub	fp, ip, #4
	ldr	r2, [r0]
	ldr	r3, [r1]
	ldr	r2, [r2, #664]
	ldr	r3, [r3, #664]
	cmp	r2, r3
	blt	.L24
	movgt	r0, #1
	movle	r0, #0
	ldmfd	sp, {fp, sp, pc}
.L24:
	mvn	r0, #0
	ldmfd	sp, {fp, sp, pc}
	UNWIND(.fnend)
	.size	compare_fs_by_poc_asc, .-compare_fs_by_poc_asc
	.align	2
	.global	compare_fs_by_poc_desc
	.type	compare_fs_by_poc_desc, %function
compare_fs_by_poc_desc:
	UNWIND(.fnstart)
	@ args = 0, pretend = 0, frame = 0
	@ frame_needed = 1, uses_anonymous_args = 0
	UNWIND(.movsp ip)
	mov	ip, sp
	stmfd	sp!, {fp, ip, lr, pc}
	UNWIND(.pad #4)
	UNWIND(.save {fp, ip, lr})
	UNWIND(.setfp fp, ip, #-4)
	sub	fp, ip, #4
	ldr	r2, [r0]
	ldr	r3, [r1]
	ldr	r2, [r2, #664]
	ldr	r3, [r3, #664]
	cmp	r2, r3
	blt	.L27
	mvngt	r0, #0
	movle	r0, #0
	ldmfd	sp, {fp, sp, pc}
.L27:
	mov	r0, #1
	ldmfd	sp, {fp, sp, pc}
	UNWIND(.fnend)
	.size	compare_fs_by_poc_desc, .-compare_fs_by_poc_desc
	.align	2
	.type	SetFrmRepeatCount.part.3, %function
SetFrmRepeatCount.part.3:
	UNWIND(.fnstart)
	@ args = 0, pretend = 0, frame = 0
	@ frame_needed = 1, uses_anonymous_args = 0
	UNWIND(.movsp ip)
	mov	ip, sp
	stmfd	sp!, {fp, ip, lr, pc}
	UNWIND(.pad #4)
	UNWIND(.save {fp, ip, lr})
	UNWIND(.setfp fp, ip, #-4)
	sub	fp, ip, #4
	add	ip, r0, #61440
	add	r0, r0, #24576
	ldr	lr, [ip, #2400]
	ldr	r2, [r0, #2136]
	ldr	r3, [ip, #2396]
	add	r2, r2, lr, lsr #1
	add	r0, r2, #1
	mov	r3, r3, lsr #1
	cmp	r3, r0
	movcc	r3, #0
	strcc	r3, [r1, #16]
	ldmccfd	sp, {fp, sp, pc}
	sub	r3, r3, #1
	rsb	r3, r2, r3
	cmp	r3, #1
	movhi	r3, #2
	movls	r3, #1
	strhi	r3, [r1, #16]
	strls	r3, [r1, #16]
	ldrhi	r3, [ip, #2400]
	ldrls	r3, [ip, #2400]
	addhi	r3, r3, #4
	addls	r3, r3, #2
	str	r3, [ip, #2400]
	ldmfd	sp, {fp, sp, pc}
	UNWIND(.fnend)
	.size	SetFrmRepeatCount.part.3, .-SetFrmRepeatCount.part.3
	.align	2
	.type	DumpList.part.7, %function
DumpList.part.7:
	UNWIND(.fnstart)
	@ args = 0, pretend = 0, frame = 0
	@ frame_needed = 1, uses_anonymous_args = 0
	UNWIND(.movsp ip)
	mov	ip, sp
	stmfd	sp!, {r4, r5, r6, r7, r8, r9, r10, fp, ip, lr, pc}
	UNWIND(.pad #4)
	UNWIND(.save {r4, r5, r6, r7, r8, r9, r10, fp, ip, lr})
	UNWIND(.setfp fp, ip, #-4)
	sub	fp, ip, #4
	UNWIND(.pad #12)
	sub	sp, sp, #12
	add	r8, r0, #26880
	add	r8, r8, #240
	add	r10, r0, #20480
	add	r10, r10, #244
	mov	r7, r0
	mov	r6, #0
	mov	r9, r8
.L33:
	ldr	r3, [r10, #4]!
	cmp	r3, #0
	movne	r5, r9
	movne	r4, #0
	beq	.L36
.L34:
	ldr	ip, [r5, #4]!
	mov	r3, r4
	mov	r2, r6
	ldr	r1, .L64
	mov	r0, #13
	add	r4, r4, #1
	ldr	ip, [ip, #36]
	ldr	lr, [ip, #664]
	str	lr, [sp, #4]
	ldr	ip, [ip, #652]
	str	ip, [sp]
	bl	dprint_vfmw
	ldr	r3, [r10]
	cmp	r4, r3
	bcc	.L34
.L36:
	add	r6, r6, #1
	add	r9, r9, #132
	cmp	r6, #2
	bne	.L33
	add	r5, r7, #20480
	ldr	r3, [r5, #248]
	cmp	r3, #0
	bne	.L60
.L37:
	ldr	r3, [r5, #252]
	cmp	r3, #0
	bne	.L61
	sub	sp, fp, #40
	ldmfd	sp, {r4, r5, r6, r7, r8, r9, r10, fp, sp, pc}
.L61:
	ldr	r1, .L64+4
	mov	r0, #13
	bl	dprint_vfmw
	ldr	r3, [r5, #252]
	cmp	r3, #0
	addne	r7, r7, #27136
	movne	r4, #0
	addne	r7, r7, #116
	bne	.L50
	b	.L51
.L62:
	bcc	.L48
	cmp	r2, #2
	ldr	r1, .L64+8
	mov	r0, #13
	bne	.L46
	ldr	r3, [r3, #36]
	ldr	r2, [r3, #664]
	bl	dprint_vfmw
.L46:
	ldr	r3, [r5, #252]
	add	r4, r4, #1
	cmp	r4, r3
	bcs	.L51
.L50:
	ldr	r3, [r7, #4]!
	ldrb	r2, [r3]	@ zero_extendqisi2
	cmp	r2, #1
	bne	.L62
	ldr	r3, [r3, #36]
	mov	r0, #13
	ldr	r1, .L64+12
	add	r4, r4, #1
	ldr	r2, [r3, #664]
	bl	dprint_vfmw
	ldr	r3, [r5, #252]
	cmp	r4, r3
	bcc	.L50
.L51:
	ldr	r1, .L64+16
	mov	r0, #13
	sub	sp, fp, #40
	ldmfd	sp, {r4, r5, r6, r7, r8, r9, r10, fp, sp, lr}
	b	dprint_vfmw
.L48:
	ldr	r3, [r3, #36]
	mov	r0, #13
	ldr	r1, .L64+20
	ldr	r2, [r3, #664]
	bl	dprint_vfmw
	b	.L46
.L60:
	ldr	r1, .L64+24
	mov	r0, #13
	bl	dprint_vfmw
	ldr	r3, [r5, #248]
	cmp	r3, #0
	movne	r4, #0
	bne	.L38
	b	.L43
.L63:
	bcc	.L41
	cmp	r2, #2
	ldr	r1, .L64+8
	mov	r0, #13
	bne	.L39
	ldr	r3, [r3, #36]
	ldr	r2, [r3, #664]
	bl	dprint_vfmw
.L39:
	ldr	r3, [r5, #248]
	add	r4, r4, #1
	cmp	r4, r3
	bcs	.L43
.L38:
	ldr	r3, [r8, #4]!
	ldrb	r2, [r3]	@ zero_extendqisi2
	cmp	r2, #1
	bne	.L63
	ldr	r3, [r3, #36]
	mov	r0, #13
	ldr	r1, .L64+12
	add	r4, r4, #1
	ldr	r2, [r3, #664]
	bl	dprint_vfmw
	ldr	r3, [r5, #248]
	cmp	r4, r3
	bcc	.L38
.L43:
	ldr	r1, .L64+16
	mov	r0, #13
	bl	dprint_vfmw
	b	.L37
.L41:
	ldr	r3, [r3, #36]
	mov	r0, #13
	ldr	r1, .L64+20
	ldr	r2, [r3, #664]
	bl	dprint_vfmw
	b	.L39
.L65:
	.align	2
.L64:
	.word	.LC0
	.word	.LC6
	.word	.LC5
	.word	.LC4
	.word	.LC2
	.word	.LC3
	.word	.LC1
	UNWIND(.fnend)
	.size	DumpList.part.7, .-DumpList.part.7
	.align	2
	.type	CombinePacket.part.13, %function
CombinePacket.part.13:
	UNWIND(.fnstart)
	@ args = 0, pretend = 0, frame = 0
	@ frame_needed = 1, uses_anonymous_args = 0
	UNWIND(.movsp ip)
	mov	ip, sp
	stmfd	sp!, {r4, r5, r6, fp, ip, lr, pc}
	UNWIND(.pad #4)
	UNWIND(.save {r4, r5, r6, fp, ip, lr})
	UNWIND(.setfp fp, ip, #-4)
	sub	fp, ip, #4
	UNWIND(.pad #12)
	sub	sp, sp, #12
	ldr	r1, .L67
	mov	r4, r0
	mov	r0, #7
	bl	dprint_vfmw
	ldr	ip, [r4, #368]
	ldr	r1, .L67+4
	mov	r0, #7
	mov	r5, #0
	ldr	lr, [ip, #40]
	ldr	r3, [ip, #44]
	ldr	r2, [ip, #16]
	str	lr, [sp, #4]
	ldr	ip, [ip, #12]
	str	ip, [sp]
	bl	dprint_vfmw
	ldr	r3, [r4, #368]
	ldr	ip, .L67+8
	ldr	r2, [r3, #12]
	ldr	r0, [r3, #36]
	ldr	r1, [r3, #8]
	rsb	r0, r2, r0
	ldr	r3, [ip, #52]
	blx	r3
	ldr	r3, [r4, #368]
	mov	ip, #1
	ldr	r1, .L67+12
	mov	r0, #7
	ldr	r2, [r3, #60]
	ldr	r6, [r3, #32]
	str	r2, [r3, #32]
	ldr	r3, [r4, #368]
	str	r5, [r3, #24]
	ldr	r3, [r4, #368]
	ldr	lr, [r3, #12]
	ldr	r2, [r3, #36]
	rsb	r2, lr, r2
	str	r2, [r3, #8]
	ldr	r3, [r4, #368]
	ldr	lr, [r3, #12]
	ldr	r2, [r3, #44]
	rsb	r2, lr, r2
	str	r2, [r3, #16]
	ldr	r3, [r4, #368]
	ldr	lr, [r3, #40]
	ldr	r2, [r3, #12]
	add	r2, r2, lr
	str	r2, [r3, #12]
	ldr	r3, [r4, #368]
	str	ip, [r3, #68]
	ldr	r2, [r4, #368]
	ldr	r3, [r2, #12]
	ldr	r2, [r2, #16]
	bl	dprint_vfmw
	add	r3, r4, #61440
	mov	r1, r6
	ldr	r0, [r3, #2352]
	bl	SM_ReleaseStreamSeg
	ldr	r3, [r4, #368]
	str	r5, [r3, #36]
	ldr	r3, [r4, #368]
	str	r5, [r3, #52]
	ldr	r3, [r4, #368]
	str	r5, [r3, #40]
	sub	sp, fp, #24
	ldmfd	sp, {r4, r5, r6, fp, sp, pc}
.L68:
	.align	2
.L67:
	.word	.LC7
	.word	.LC8
	.word	vfmw_Osal_Func_Ptr_S
	.word	.LC9
	UNWIND(.fnend)
	.size	CombinePacket.part.13, .-CombinePacket.part.13
	.align	2
	.global	ue_v
	.type	ue_v, %function
ue_v:
	UNWIND(.fnstart)
	@ args = 0, pretend = 0, frame = 0
	@ frame_needed = 1, uses_anonymous_args = 0
	UNWIND(.movsp ip)
	mov	ip, sp
	stmfd	sp!, {r4, r5, r6, r7, r8, r9, fp, ip, lr, pc}
	UNWIND(.pad #4)
	UNWIND(.save {r4, r5, r6, r7, r8, r9, fp, ip, lr})
	UNWIND(.setfp fp, ip, #-4)
	sub	fp, ip, #4
	add	r7, r0, #13504
	mov	r8, r0
	add	r7, r7, #24
	mov	r6, r1
	mov	r1, #32
	mov	r0, r7
	bl	BsShow
	mov	r5, r0
	bl	ZerosMS_32
	cmp	r0, #15
	mov	r4, r0
	bls	.L73
	cmp	r0, #31
	bls	.L74
	add	r3, r8, #61440
	mvn	r5, #0
	mov	r7, #32
	mov	r2, #1
	str	r2, [r3, #2292]
.L71:
	ldr	ip, [r8, #368]
	mov	r2, r6
	mov	r3, r5
	ldr	r1, .L75
	mov	r0, #21
	ldr	lr, [ip, #64]
	add	r4, lr, r7
	str	r4, [ip, #64]
	bl	dprint_vfmw
	mov	r0, r5
	ldmfd	sp, {r4, r5, r6, r7, r8, r9, fp, sp, pc}
.L73:
	mov	r4, r0, asl #1
	mov	r0, r7
	add	r7, r4, #1
	rsb	r4, r4, #31
	mov	r4, r5, lsr r4
	mov	r1, r7
	sub	r5, r4, #1
	bl	BsSkip
	b	.L71
.L74:
	add	r5, r0, #1
	mov	r1, r0
	mov	r0, r7
	bl	BsSkip
	mov	r1, r5
	mov	r0, r7
	bl	BsShow
	mov	r1, r5
	sub	r5, r0, #1
	mov	r0, r7
	bl	BsSkip
	mov	ip, r4, asl #1
	add	r7, ip, #1
	b	.L71
.L76:
	.align	2
.L75:
	.word	.LC10
	UNWIND(.fnend)
	.size	ue_v, .-ue_v
	.align	2
	.global	se_v
	.type	se_v, %function
se_v:
	UNWIND(.fnstart)
	@ args = 0, pretend = 0, frame = 0
	@ frame_needed = 1, uses_anonymous_args = 0
	UNWIND(.movsp ip)
	mov	ip, sp
	stmfd	sp!, {r4, r5, r6, r7, r8, r9, fp, ip, lr, pc}
	UNWIND(.pad #4)
	UNWIND(.save {r4, r5, r6, r7, r8, r9, fp, ip, lr})
	UNWIND(.setfp fp, ip, #-4)
	sub	fp, ip, #4
	add	r6, r0, #13504
	mov	r8, r0
	add	r6, r6, #24
	mov	r7, r1
	mov	r1, #32
	mov	r0, r6
	bl	BsShow
	mov	r4, r0
	bl	ZerosMS_32
	cmp	r0, #15
	mov	r5, r0
	bhi	.L78
	mov	r5, r0, asl #1
	mov	r0, r6
	rsb	r3, r5, #31
	add	r5, r5, #1
	mov	r3, r4, lsr r3
	and	r2, r3, #1
	mov	r1, r5
	rsb	r4, r2, #0
	eor	r4, r4, r3, lsr #1
	add	r4, r4, r2
	bl	BsSkip
.L79:
	ldr	lr, [r8, #368]
	mov	r2, r7
	mov	r3, r4
	ldr	r1, .L82
	mov	r0, #21
	ldr	ip, [lr, #64]
	add	r5, ip, r5
	str	r5, [lr, #64]
	bl	dprint_vfmw
	mov	r0, r4
	ldmfd	sp, {r4, r5, r6, r7, r8, r9, fp, sp, pc}
.L78:
	cmp	r0, #31
	bls	.L81
	add	r3, r8, #61440
	mov	r2, #1
	mvn	r4, #-2147483648
	mov	r5, #32
	str	r2, [r3, #2292]
	b	.L79
.L81:
	mov	r1, r0
	mov	r0, r6
	bl	BsSkip
	mov	r1, r5
	mov	r0, r6
	mov	r5, r5, asl #1
	bl	BsGet
	mov	r1, #1
	add	r5, r5, #1
	mov	r9, r0
	mov	r0, r6
	bl	BsGet
	and	r0, r0, #1
	rsb	r4, r0, #0
	eor	r9, r9, r4
	add	r4, r9, r0
	b	.L79
.L83:
	.align	2
.L82:
	.word	.LC10
	UNWIND(.fnend)
	.size	se_v, .-se_v
	.align	2
	.global	u_v
	.type	u_v, %function
u_v:
	UNWIND(.fnstart)
	@ args = 0, pretend = 0, frame = 0
	@ frame_needed = 1, uses_anonymous_args = 0
	UNWIND(.movsp ip)
	mov	ip, sp
	stmfd	sp!, {r4, r5, r6, r7, fp, ip, lr, pc}
	UNWIND(.pad #4)
	UNWIND(.save {r4, r5, r6, r7, fp, ip, lr})
	UNWIND(.setfp fp, ip, #-4)
	sub	fp, ip, #4
	mov	r5, r0
	add	r0, r0, #13504
	add	r0, r0, #24
	mov	r6, r1
	mov	r7, r2
	bl	BsGet
	ldr	lr, [r5, #368]
	mov	r2, r7
	ldr	r1, .L85
	ldr	ip, [lr, #64]
	add	ip, ip, r6
	str	ip, [lr, #64]
	mov	r4, r0
	mov	r0, #21
	mov	r3, r4
	bl	dprint_vfmw
	mov	r0, r4
	ldmfd	sp, {r4, r5, r6, r7, fp, sp, pc}
.L86:
	.align	2
.L85:
	.word	.LC10
	UNWIND(.fnend)
	.size	u_v, .-u_v
	.align	2
	.global	u_1
	.type	u_1, %function
u_1:
	UNWIND(.fnstart)
	@ args = 0, pretend = 0, frame = 0
	@ frame_needed = 1, uses_anonymous_args = 0
	UNWIND(.movsp ip)
	mov	ip, sp
	stmfd	sp!, {r4, r5, r6, r7, fp, ip, lr, pc}
	UNWIND(.pad #4)
	UNWIND(.save {r4, r5, r6, r7, fp, ip, lr})
	UNWIND(.setfp fp, ip, #-4)
	sub	fp, ip, #4
	mov	r5, r0
	add	r0, r0, #13504
	mov	r6, r1
	add	r0, r0, #24
	mov	r1, #1
	bl	BsGet
	ldr	lr, [r5, #368]
	mov	r2, r6
	ldr	r1, .L88
	ldr	ip, [lr, #64]
	add	ip, ip, #1
	str	ip, [lr, #64]
	mov	r4, r0
	mov	r3, r0
	mov	r0, #21
	bl	dprint_vfmw
	mov	r0, r4
	ldmfd	sp, {r4, r5, r6, r7, fp, sp, pc}
.L89:
	.align	2
.L88:
	.word	.LC10
	UNWIND(.fnend)
	.size	u_1, .-u_1
	.align	2
	.global	H264_IsEosNal
	.type	H264_IsEosNal, %function
H264_IsEosNal:
	UNWIND(.fnstart)
	@ args = 0, pretend = 0, frame = 0
	@ frame_needed = 1, uses_anonymous_args = 0
	UNWIND(.movsp ip)
	mov	ip, sp
	stmfd	sp!, {r4, r5, fp, ip, lr, pc}
	UNWIND(.pad #4)
	UNWIND(.save {r4, r5, fp, ip, lr})
	UNWIND(.setfp fp, ip, #-4)
	sub	fp, ip, #4
	add	r4, r0, #13504
	mov	r1, #32
	add	r4, r4, #24
	mov	r0, r4
	bl	BsGet
	mov	r1, #32
	mov	r5, r0
	mov	r0, r4
	bl	BsGet
	movw	r2, #20036
	movw	r3, #20553
	movt	r2, 17221
	movt	r3, 18515
	cmp	r0, r2
	cmpeq	r5, r3
	moveq	r0, #1
	movne	r0, #0
	ldmfd	sp, {r4, r5, fp, sp, pc}
	UNWIND(.fnend)
	.size	H264_IsEosNal, .-H264_IsEosNal
	.align	2
	.global	GetMinPOC
	.type	GetMinPOC, %function
GetMinPOC:
	UNWIND(.fnstart)
	@ args = 0, pretend = 0, frame = 0
	@ frame_needed = 1, uses_anonymous_args = 0
	UNWIND(.movsp ip)
	mov	ip, sp
	stmfd	sp!, {r4, r5, fp, ip, lr, pc}
	UNWIND(.pad #4)
	UNWIND(.save {r4, r5, fp, ip, lr})
	UNWIND(.setfp fp, ip, #-4)
	sub	fp, ip, #4
	add	r5, r0, #24576
	mov	ip, #0
	mvn	r3, #-2147483648
	str	ip, [r2]
	str	r3, [r1]
	ldr	r3, [r5, #2140]
	ldr	ip, [r5, #2136]
	cmp	r3, ip
	strhi	ip, [r5, #2140]
	movhi	r3, ip
	cmp	r3, #0
	ldmeqfd	sp, {r4, r5, fp, sp, pc}
	add	r0, r0, #26368
	mov	r3, #0
	add	r0, r0, #148
.L95:
	ldr	ip, [r0, #4]!
	ldr	r4, [r1]
	ldr	lr, [ip, #664]
	cmp	r4, lr
	ble	.L94
	ldrb	ip, [ip, #4]	@ zero_extendqisi2
	cmp	ip, #0
	strne	lr, [r1]
	strne	r3, [r2]
.L94:
	ldr	ip, [r5, #2140]
	add	r3, r3, #1
	cmp	ip, r3
	bhi	.L95
	ldmfd	sp, {r4, r5, fp, sp, pc}
	UNWIND(.fnend)
	.size	GetMinPOC, .-GetMinPOC
	.align	2
	.global	GetMinPOCInDPB
	.type	GetMinPOCInDPB, %function
GetMinPOCInDPB:
	UNWIND(.fnstart)
	@ args = 0, pretend = 0, frame = 0
	@ frame_needed = 1, uses_anonymous_args = 0
	UNWIND(.movsp ip)
	mov	ip, sp
	stmfd	sp!, {r4, fp, ip, lr, pc}
	UNWIND(.pad #4)
	UNWIND(.save {r4, fp, ip, lr})
	UNWIND(.setfp fp, ip, #-4)
	sub	fp, ip, #4
	add	r4, r0, #24576
	mov	ip, #0
	mvn	r3, #-2147483648
	str	ip, [r2]
	str	r3, [r1]
	ldr	r3, [r4, #2140]
	ldr	ip, [r4, #2136]
	cmp	r3, ip
	strhi	ip, [r4, #2140]
	movhi	r3, ip
	cmp	r3, #0
	ldmeqfd	sp, {r4, fp, sp, pc}
	add	r0, r0, #26368
	mov	r3, #0
	add	r0, r0, #148
.L105:
	ldr	ip, [r0, #4]!
	ldr	lr, [r1]
	ldr	ip, [ip, #664]
	cmp	lr, ip
	strgt	ip, [r1]
	strgt	r3, [r2]
	add	r3, r3, #1
	ldr	ip, [r4, #2140]
	cmp	ip, r3
	bhi	.L105
	ldmfd	sp, {r4, fp, sp, pc}
	UNWIND(.fnend)
	.size	GetMinPOCInDPB, .-GetMinPOCInDPB
	.align	2
	.global	GetMaxPOC
	.type	GetMaxPOC, %function
GetMaxPOC:
	UNWIND(.fnstart)
	@ args = 0, pretend = 0, frame = 0
	@ frame_needed = 1, uses_anonymous_args = 0
	UNWIND(.movsp ip)
	mov	ip, sp
	stmfd	sp!, {r4, r5, fp, ip, lr, pc}
	UNWIND(.pad #4)
	UNWIND(.save {r4, r5, fp, ip, lr})
	UNWIND(.setfp fp, ip, #-4)
	sub	fp, ip, #4
	add	r5, r0, #24576
	mov	r3, #0
	str	r3, [r2]
	str	r3, [r1]
	ldr	r3, [r5, #2140]
	ldr	ip, [r5, #2136]
	cmp	r3, ip
	strhi	ip, [r5, #2140]
	movhi	r3, ip
	cmp	r3, #0
	ldmeqfd	sp, {r4, r5, fp, sp, pc}
	add	r0, r0, #26368
	mov	r3, #0
	add	r0, r0, #148
.L112:
	ldr	ip, [r0, #4]!
	ldr	r4, [r1]
	ldr	lr, [ip, #664]
	cmp	r4, lr
	bge	.L111
	ldrb	ip, [ip, #4]	@ zero_extendqisi2
	cmp	ip, #0
	strne	lr, [r1]
	strne	r3, [r2]
.L111:
	ldr	ip, [r5, #2140]
	add	r3, r3, #1
	cmp	ip, r3
	bhi	.L112
	ldmfd	sp, {r4, r5, fp, sp, pc}
	UNWIND(.fnend)
	.size	GetMaxPOC, .-GetMaxPOC
	.align	2
	.global	FrameStoreRefFlg
	.type	FrameStoreRefFlg, %function
FrameStoreRefFlg:
	UNWIND(.fnstart)
	@ args = 0, pretend = 0, frame = 0
	@ frame_needed = 1, uses_anonymous_args = 0
	UNWIND(.movsp ip)
	mov	ip, sp
	stmfd	sp!, {fp, ip, lr, pc}
	UNWIND(.pad #4)
	UNWIND(.save {fp, ip, lr})
	UNWIND(.setfp fp, ip, #-4)
	sub	fp, ip, #4
	ldrb	r0, [r0, #2]	@ zero_extendqisi2
	adds	r0, r0, #0
	movne	r0, #1
	ldmfd	sp, {fp, sp, pc}
	UNWIND(.fnend)
	.size	FrameStoreRefFlg, .-FrameStoreRefFlg
	.align	2
	.global	ShortTermRefFlg
	.type	ShortTermRefFlg, %function
ShortTermRefFlg:
	UNWIND(.fnstart)
	@ args = 0, pretend = 0, frame = 0
	@ frame_needed = 1, uses_anonymous_args = 0
	UNWIND(.movsp ip)
	mov	ip, sp
	stmfd	sp!, {fp, ip, lr, pc}
	UNWIND(.pad #4)
	UNWIND(.save {fp, ip, lr})
	UNWIND(.setfp fp, ip, #-4)
	sub	fp, ip, #4
	ldrb	r3, [r0, #2]	@ zero_extendqisi2
	cmp	r3, #3
	beq	.L134
	tst	r3, #1
	bne	.L135
.L123:
	and	r3, r3, #2
	ands	r3, r3, #255
	beq	.L127
.L124:
	ldr	r0, [r0, #776]
	bic	r0, r0, #-16777216
	bic	r0, r0, #255
	sub	r0, r0, #65536
	clz	r0, r0
	mov	r0, r0, lsr #5
	ldmfd	sp, {fp, sp, pc}
.L127:
	mov	r0, r3
	ldmfd	sp, {fp, sp, pc}
.L135:
	ldr	r2, [r0, #736]
	bic	r2, r2, #-16777216
	bic	r2, r2, #255
	cmp	r2, #65536
	bne	.L123
.L128:
	mov	r0, #1
	ldmfd	sp, {fp, sp, pc}
.L134:
	ldr	r3, [r0, #696]
	bic	r3, r3, #-16777216
	bic	r3, r3, #255
	cmp	r3, #65536
	beq	.L128
	ldr	r3, [r0, #736]
	bic	r3, r3, #-16777216
	bic	r3, r3, #255
	cmp	r3, #65536
	bne	.L124
	b	.L128
	UNWIND(.fnend)
	.size	ShortTermRefFlg, .-ShortTermRefFlg
	.align	2
	.global	LongTermRefFlg
	.type	LongTermRefFlg, %function
LongTermRefFlg:
	UNWIND(.fnstart)
	@ args = 0, pretend = 0, frame = 0
	@ frame_needed = 1, uses_anonymous_args = 0
	UNWIND(.movsp ip)
	mov	ip, sp
	stmfd	sp!, {fp, ip, lr, pc}
	UNWIND(.pad #4)
	UNWIND(.save {fp, ip, lr})
	UNWIND(.setfp fp, ip, #-4)
	sub	fp, ip, #4
	ldrb	r3, [r0, #2]	@ zero_extendqisi2
	cmp	r3, #3
	beq	.L151
	tst	r3, #1
	bne	.L152
.L140:
	and	r3, r3, #2
	ands	r3, r3, #255
	beq	.L144
.L141:
	ldr	r0, [r0, #776]
	bic	r0, r0, #-16777216
	bic	r0, r0, #255
	sub	r0, r0, #256
	clz	r0, r0
	mov	r0, r0, lsr #5
	ldmfd	sp, {fp, sp, pc}
.L144:
	mov	r0, r3
	ldmfd	sp, {fp, sp, pc}
.L152:
	ldr	r2, [r0, #736]
	bic	r2, r2, #-16777216
	bic	r2, r2, #255
	cmp	r2, #256
	bne	.L140
.L145:
	mov	r0, #1
	ldmfd	sp, {fp, sp, pc}
.L151:
	ldr	r3, [r0, #696]
	bic	r3, r3, #-16777216
	bic	r3, r3, #255
	cmp	r3, #256
	beq	.L145
	ldr	r3, [r0, #736]
	bic	r3, r3, #-16777216
	bic	r3, r3, #255
	cmp	r3, #256
	bne	.L141
	b	.L145
	UNWIND(.fnend)
	.size	LongTermRefFlg, .-LongTermRefFlg
	.align	2
	.global	UpdateLTReflist
	.type	UpdateLTReflist, %function
UpdateLTReflist:
	UNWIND(.fnstart)
	@ args = 0, pretend = 0, frame = 0
	@ frame_needed = 1, uses_anonymous_args = 0
	UNWIND(.movsp ip)
	mov	ip, sp
	stmfd	sp!, {r3, r4, r5, r6, r7, r8, r9, r10, fp, ip, lr, pc}
	UNWIND(.pad #4)
	UNWIND(.save {r3, r4, r5, r6, r7, r8, r9, r10, fp, ip, lr})
	UNWIND(.setfp fp, ip, #-4)
	sub	fp, ip, #4
	add	r9, r0, #24576
	mov	r6, r0
	ldr	r8, [r9, #2140]
	cmp	r8, #0
	beq	.L160
	add	r10, r0, #26368
	mov	r4, #0
	add	r10, r10, #148
	mov	r5, r4
.L156:
	ldr	r7, [r10, #4]!
	add	r5, r5, #1
	mov	r0, r7
	bl	LongTermRefFlg
	add	r3, r4, #6656
	add	r3, r3, #6
	cmp	r0, #0
	strne	r7, [r6, r3, asl #2]
	addne	r4, r4, #1
	cmp	r5, r8
	bne	.L156
.L154:
	ldr	r3, [r9, #2136]
	str	r4, [r9, #2148]
	cmp	r3, r4
	ldmlsfd	sp, {r3, r4, r5, r6, r7, r8, r9, r10, fp, sp, pc}
	add	r0, r4, #6656
	mov	r2, #0
	add	r0, r0, #5
	add	r0, r6, r0, lsl #2
.L158:
	add	r4, r4, #1
	str	r2, [r0, #4]!
	cmp	r4, r3
	bne	.L158
	ldmfd	sp, {r3, r4, r5, r6, r7, r8, r9, r10, fp, sp, pc}
.L160:
	mov	r4, r8
	b	.L154
	UNWIND(.fnend)
	.size	UpdateLTReflist, .-UpdateLTReflist
	.align	2
	.global	UpdateReflist
	.type	UpdateReflist, %function
UpdateReflist:
	UNWIND(.fnstart)
	@ args = 0, pretend = 0, frame = 0
	@ frame_needed = 1, uses_anonymous_args = 0
	UNWIND(.movsp ip)
	mov	ip, sp
	stmfd	sp!, {r3, r4, r5, r6, r7, r8, r9, r10, fp, ip, lr, pc}
	UNWIND(.pad #4)
	UNWIND(.save {r3, r4, r5, r6, r7, r8, r9, r10, fp, ip, lr})
	UNWIND(.setfp fp, ip, #-4)
	sub	fp, ip, #4
	add	r9, r0, #24576
	mov	r6, r0
	ldr	r8, [r9, #2140]
	cmp	r8, #0
	beq	.L173
	add	r10, r0, #26368
	mov	r4, #0
	add	r10, r10, #148
	mov	r5, r4
.L169:
	ldr	r7, [r10, #4]!
	add	r5, r5, #1
	mov	r0, r7
	bl	ShortTermRefFlg
	add	r3, r4, #6592
	add	r3, r3, #54
	cmp	r0, #0
	strne	r7, [r6, r3, asl #2]
	addne	r4, r4, #1
	cmp	r5, r8
	bne	.L169
.L167:
	ldr	r3, [r9, #2136]
	str	r4, [r9, #2144]
	cmp	r3, r4
	ldmlsfd	sp, {r3, r4, r5, r6, r7, r8, r9, r10, fp, sp, pc}
	add	r0, r4, #6592
	mov	r2, #0
	add	r0, r0, #53
	add	r0, r6, r0, lsl #2
.L171:
	add	r4, r4, #1
	str	r2, [r0, #4]!
	cmp	r4, r3
	bne	.L171
	ldmfd	sp, {r3, r4, r5, r6, r7, r8, r9, r10, fp, sp, pc}
.L173:
	mov	r4, r8
	b	.L167
	UNWIND(.fnend)
	.size	UpdateReflist, .-UpdateReflist
	.align	2
	.global	GetPicNumX
	.type	GetPicNumX, %function
GetPicNumX:
	UNWIND(.fnstart)
	@ args = 0, pretend = 0, frame = 0
	@ frame_needed = 1, uses_anonymous_args = 0
	UNWIND(.movsp ip)
	mov	ip, sp
	stmfd	sp!, {fp, ip, lr, pc}
	UNWIND(.pad #4)
	UNWIND(.save {fp, ip, lr})
	UNWIND(.setfp fp, ip, #-4)
	sub	fp, ip, #4
	ldrb	r3, [r0, #3]	@ zero_extendqisi2
	cmp	r3, #0
	ldr	r3, [r0, #656]
	mvn	r0, r1
	movne	r3, r3, asl #1
	addne	r3, r3, #1
	add	r0, r0, r3
	ldmfd	sp, {fp, sp, pc}
	UNWIND(.fnend)
	.size	GetPicNumX, .-GetPicNumX
	.align	2
	.global	UnMarkFrameStoreRef
	.type	UnMarkFrameStoreRef, %function
UnMarkFrameStoreRef:
	UNWIND(.fnstart)
	@ args = 0, pretend = 0, frame = 0
	@ frame_needed = 1, uses_anonymous_args = 0
	UNWIND(.movsp ip)
	mov	ip, sp
	stmfd	sp!, {fp, ip, lr, pc}
	UNWIND(.pad #4)
	UNWIND(.save {fp, ip, lr})
	UNWIND(.setfp fp, ip, #-4)
	sub	fp, ip, #4
	ldrb	r3, [r1, #1]	@ zero_extendqisi2
	tst	r3, #1
	beq	.L183
	ldrb	r2, [r1, #2]	@ zero_extendqisi2
	mov	ip, #0
	strb	ip, [r1, #737]
	and	r2, r2, #2
	strb	ip, [r1, #738]
	strb	r2, [r1, #2]
.L183:
	tst	r3, #2
	beq	.L184
	ldrb	r2, [r1, #2]	@ zero_extendqisi2
	mov	ip, #0
	strb	ip, [r1, #777]
	and	r2, r2, #1
	strb	ip, [r1, #778]
	strb	r2, [r1, #2]
.L184:
	cmp	r3, #3
	add	r0, r0, #61440
	moveq	r3, #0
	streqb	r3, [r1, #698]
	streqb	r3, [r1, #697]
	mov	r3, #0
	mov	r2, r3
	strb	r3, [r1, #2]
	ldr	r1, [r1, #648]
	ldr	r0, [r0, #2352]
	sub	sp, fp, #12
	ldmia	sp, {fp, sp, lr}
	b	FSP_SetRef
	UNWIND(.fnend)
	.size	UnMarkFrameStoreRef, .-UnMarkFrameStoreRef
	.align	2
	.type	SlidingWinMark.part.4, %function
SlidingWinMark.part.4:
	UNWIND(.fnstart)
	@ args = 0, pretend = 0, frame = 0
	@ frame_needed = 1, uses_anonymous_args = 0
	UNWIND(.movsp ip)
	mov	ip, sp
	stmfd	sp!, {r4, r5, r6, r7, r8, r9, fp, ip, lr, pc}
	UNWIND(.pad #4)
	UNWIND(.save {r4, r5, r6, r7, r8, r9, fp, ip, lr})
	UNWIND(.setfp fp, ip, #-4)
	sub	fp, ip, #4
	add	r3, r0, #24576
	mov	r8, r0
	ldr	r7, [r3, #2140]
	cmp	r7, #0
	ldmeqfd	sp, {r4, r5, r6, r7, r8, r9, fp, sp, pc}
	add	r6, r0, #26368
	mov	r4, #0
	add	r6, r6, #148
.L195:
	ldr	r5, [r6, #4]!
	add	r4, r4, #1
	ldrb	r3, [r5, #2]	@ zero_extendqisi2
	mov	r0, r5
	cmp	r3, #0
	beq	.L194
	bl	ShortTermRefFlg
	cmp	r0, #0
	bne	.L206
.L194:
	cmp	r4, r7
	bne	.L195
	ldmfd	sp, {r4, r5, r6, r7, r8, r9, fp, sp, pc}
.L206:
	mov	r0, r8
	mov	r1, r5
	bl	UnMarkFrameStoreRef
	mov	r0, r8
	sub	sp, fp, #36
	ldmfd	sp, {r4, r5, r6, r7, r8, r9, fp, sp, lr}
	b	UpdateReflist
	UNWIND(.fnend)
	.size	SlidingWinMark.part.4, .-SlidingWinMark.part.4
	.align	2
	.global	UnMarkLTFrmByFrmIdx
	.type	UnMarkLTFrmByFrmIdx, %function
UnMarkLTFrmByFrmIdx:
	UNWIND(.fnstart)
	@ args = 0, pretend = 0, frame = 0
	@ frame_needed = 1, uses_anonymous_args = 0
	UNWIND(.movsp ip)
	mov	ip, sp
	stmfd	sp!, {r4, fp, ip, lr, pc}
	UNWIND(.pad #4)
	UNWIND(.save {r4, fp, ip, lr})
	UNWIND(.setfp fp, ip, #-4)
	sub	fp, ip, #4
	add	r3, r0, #24576
	ldr	r4, [r3, #2148]
	cmp	r4, #0
	ldmeqfd	sp, {r4, fp, sp, pc}
	ldr	ip, [r3, #2072]
	ldr	r3, [ip, #660]
	cmp	r3, r1
	addne	r2, r0, #26624
	movne	r3, #0
	addne	r2, r2, #24
	bne	.L211
	b	.L209
.L212:
	ldr	ip, [r2, #4]!
	ldr	lr, [ip, #660]
	cmp	lr, r1
	beq	.L209
.L211:
	add	r3, r3, #1
	cmp	r3, r4
	bne	.L212
	ldmfd	sp, {r4, fp, sp, pc}
.L209:
	mov	r1, ip
	sub	sp, fp, #16
	ldmia	sp, {r4, fp, sp, lr}
	b	UnMarkFrameStoreRef
	UNWIND(.fnend)
	.size	UnMarkLTFrmByFrmIdx, .-UnMarkLTFrmByFrmIdx
	.align	2
	.global	UnMarkLTFldByFrmIdx
	.type	UnMarkLTFldByFrmIdx, %function
UnMarkLTFldByFrmIdx:
	UNWIND(.fnstart)
	@ args = 0, pretend = 0, frame = 0
	@ frame_needed = 1, uses_anonymous_args = 0
	UNWIND(.movsp ip)
	mov	ip, sp
	stmfd	sp!, {r4, r5, r6, fp, ip, lr, pc}
	UNWIND(.pad #4)
	UNWIND(.save {r4, r5, r6, fp, ip, lr})
	UNWIND(.setfp fp, ip, #-4)
	sub	fp, ip, #4
	add	ip, r0, #24576
	ldr	r6, [ip, #2148]
	cmp	r6, #0
	ldmeqfd	sp, {r4, r5, r6, fp, sp, pc}
	add	r4, r0, #26624
	mov	ip, #0
	add	r4, r4, #20
	b	.L222
.L220:
	cmp	ip, r6
	beq	.L236
.L222:
	ldr	lr, [r4, #4]!
	add	ip, ip, #1
	ldr	r5, [lr, #660]
	cmp	r5, r3
	bne	.L220
	cmp	r2, #1
	ldreqb	r5, [lr, #777]	@ zero_extendqisi2
	beq	.L235
	cmp	r2, #2
	bne	.L220
	ldrb	r5, [lr, #737]	@ zero_extendqisi2
.L235:
	clz	r5, r5
	mov	r5, r5, lsr #5
	cmp	lr, r1
	orrne	r5, r5, #1
	cmp	r5, #0
	beq	.L220
	mov	r1, lr
	sub	sp, fp, #24
	ldmfd	sp, {r4, r5, r6, fp, sp, lr}
	b	UnMarkFrameStoreRef
.L236:
	ldmfd	sp, {r4, r5, r6, fp, sp, pc}
	UNWIND(.fnend)
	.size	UnMarkLTFldByFrmIdx, .-UnMarkLTFldByFrmIdx
	.align	2
	.global	UnMarkSTRef
	.type	UnMarkSTRef, %function
UnMarkSTRef:
	UNWIND(.fnstart)
	@ args = 0, pretend = 0, frame = 0
	@ frame_needed = 1, uses_anonymous_args = 0
	UNWIND(.movsp ip)
	mov	ip, sp
	stmfd	sp!, {r4, r5, r6, fp, ip, lr, pc}
	UNWIND(.pad #4)
	UNWIND(.save {r4, r5, r6, fp, ip, lr})
	UNWIND(.setfp fp, ip, #-4)
	sub	fp, ip, #4
	ldrb	r3, [r1, #3]	@ zero_extendqisi2
	cmp	r3, #0
	bne	.L238
	add	ip, r0, #24576
	ldr	r1, [r1, #656]
	ldr	r4, [ip, #2144]
	sub	r1, r1, #1
	rsb	r2, r2, r1
	cmp	r4, #0
	beq	.L267
	add	ip, r0, #26368
	add	ip, ip, #212
	b	.L244
.L243:
	cmp	r3, r4
	beq	.L268
.L244:
	ldr	r1, [ip, #4]!
	add	r3, r3, #1
	ldr	lr, [r1, #704]
	cmp	lr, r2
	bne	.L243
	ldrb	lr, [r1, #2]	@ zero_extendqisi2
	cmp	lr, #3
	bne	.L243
	ldr	lr, [r1, #696]
	bic	lr, lr, #-16777216
	bic	lr, lr, #255
	cmp	lr, #65536
	bne	.L243
	sub	sp, fp, #24
	ldmfd	sp, {r4, r5, r6, fp, sp, lr}
	b	UnMarkFrameStoreRef
.L238:
	add	r3, r0, #24576
	ldr	r1, [r1, #656]
	ldr	r5, [r3, #2144]
	rsb	r2, r2, r1, lsl #1
	cmp	r5, #0
	beq	.L269
	add	r4, r0, #26368
	mov	ip, #0
	add	r4, r4, #212
	b	.L249
.L245:
	tst	r3, #2
	beq	.L247
	ldr	r3, [r1, #776]
	bic	r3, r3, #-16777216
	bic	r3, r3, #255
	cmp	r3, #65536
	beq	.L270
.L247:
	add	ip, ip, #1
	cmp	ip, r5
	beq	.L271
.L249:
	ldr	r1, [r4, #4]!
	ldrb	r3, [r1, #2]	@ zero_extendqisi2
	ands	r6, r3, #1
	beq	.L245
	ldr	lr, [r1, #736]
	bic	lr, lr, #-16777216
	bic	lr, lr, #255
	cmp	lr, #65536
	bne	.L245
	ldr	lr, [r1, #744]
	cmp	lr, r2
	bne	.L245
	add	r2, r0, ip, lsl #2
	and	r3, r3, #2
	add	r2, r2, #24576
	strb	r3, [r1, #2]
	mov	r1, #0
	ldr	r3, [r2, #2008]
	strb	r1, [r3, #738]
	ldr	r3, [r2, #2008]
	ldrb	ip, [r3, #696]	@ zero_extendqisi2
	cmp	ip, #3
	cmpne	ip, r1
	streqb	r1, [r3, #698]
	ldreq	r3, [r2, #2008]
	streqb	r1, [r3, #697]
	ldreq	r3, [r2, #2008]
	ldrb	r1, [r3, #2]	@ zero_extendqisi2
	cmp	r1, #0
	ldmnefd	sp, {r4, r5, r6, fp, sp, pc}
	ldr	ip, [r3, #684]
	mov	r2, r1
	add	lr, r0, #61440
	add	ip, ip, #15552
	add	ip, ip, #48
	str	r1, [r0, ip, asl #2]
	ldr	r1, [r3, #648]
.L264:
	ldr	r0, [lr, #2352]
	sub	sp, fp, #24
	ldmfd	sp, {r4, r5, r6, fp, sp, lr}
	b	FSP_SetRef
.L270:
	ldr	r3, [r1, #784]
	cmp	r3, r2
	bne	.L247
	add	r3, r0, ip, lsl #2
	strb	r6, [r1, #2]
	add	r3, r3, #24576
	mov	r2, #0
	ldr	r1, [r3, #2008]
	strb	r2, [r1, #778]
	ldr	r1, [r3, #2008]
	ldrb	ip, [r1, #696]	@ zero_extendqisi2
	cmp	ip, #3
	cmpne	ip, r2
	streqb	r2, [r1, #698]
	ldreq	r1, [r3, #2008]
	streqb	r2, [r1, #697]
	ldreq	r1, [r3, #2008]
	ldrb	r3, [r1, #2]	@ zero_extendqisi2
	cmp	r3, #0
	ldmnefd	sp, {r4, r5, r6, fp, sp, pc}
	ldr	ip, [r1, #684]
	add	lr, r0, #61440
	mov	r2, r3
	add	ip, ip, #15552
	add	ip, ip, #48
	str	r3, [r0, ip, asl #2]
	ldr	r1, [r1, #648]
	b	.L264
.L271:
	ldmfd	sp, {r4, r5, r6, fp, sp, pc}
.L268:
	ldmfd	sp, {r4, r5, r6, fp, sp, pc}
.L267:
	ldmfd	sp, {r4, r5, r6, fp, sp, pc}
.L269:
	ldmfd	sp, {r4, r5, r6, fp, sp, pc}
	UNWIND(.fnend)
	.size	UnMarkSTRef, .-UnMarkSTRef
	.align	2
	.global	UnMarkLTRef
	.type	UnMarkLTRef, %function
UnMarkLTRef:
	UNWIND(.fnstart)
	@ args = 0, pretend = 0, frame = 0
	@ frame_needed = 1, uses_anonymous_args = 0
	UNWIND(.movsp ip)
	mov	ip, sp
	stmfd	sp!, {r4, r5, r6, fp, ip, lr, pc}
	UNWIND(.pad #4)
	UNWIND(.save {r4, r5, r6, fp, ip, lr})
	UNWIND(.setfp fp, ip, #-4)
	sub	fp, ip, #4
	ldrb	r3, [r1, #3]	@ zero_extendqisi2
	cmp	r3, #0
	beq	.L273
	add	r3, r0, #24576
	ldr	r5, [r3, #2148]
	cmp	r5, #0
	beq	.L301
	add	r4, r0, #26624
	mov	ip, #0
	add	r4, r4, #20
	b	.L282
.L278:
	tst	r3, #2
	beq	.L280
	ldr	r3, [r1, #776]
	bic	r3, r3, #-16777216
	bic	r3, r3, #255
	cmp	r3, #256
	beq	.L302
.L280:
	add	ip, ip, #1
	cmp	ip, r5
	beq	.L303
.L282:
	ldr	r1, [r4, #4]!
	ldrb	r3, [r1, #2]	@ zero_extendqisi2
	ands	r6, r3, #1
	beq	.L278
	ldr	lr, [r1, #736]
	bic	lr, lr, #-16777216
	bic	lr, lr, #255
	cmp	lr, #256
	bne	.L278
	ldr	lr, [r1, #740]
	cmp	r2, lr
	bne	.L278
	add	r2, r0, ip, lsl #2
	and	r3, r3, #2
	add	r2, r2, #24576
	strb	r3, [r1, #2]
	mov	r1, #0
	ldr	r3, [r2, #2072]
	strb	r1, [r3, #737]
	ldr	r3, [r2, #2072]
	ldrb	ip, [r3, #696]	@ zero_extendqisi2
	cmp	ip, #3
	cmpne	ip, r1
	streqb	r1, [r3, #698]
	ldreq	r3, [r2, #2072]
	streqb	r1, [r3, #697]
	ldreq	r3, [r2, #2072]
	ldrb	r2, [r3, #2]	@ zero_extendqisi2
	cmp	r2, #0
	ldreq	r3, [r3, #684]
	addeq	r3, r3, #15552
	addeq	r3, r3, #48
	streq	r2, [r0, r3, asl #2]
	ldmfd	sp, {r4, r5, r6, fp, sp, pc}
.L273:
	add	r1, r0, #24576
	ldr	r4, [r1, #2148]
	cmp	r4, #0
	beq	.L304
	add	ip, r0, #26624
	add	ip, ip, #20
	b	.L284
.L283:
	cmp	r3, r4
	beq	.L305
.L284:
	ldr	r1, [ip, #4]!
	add	r3, r3, #1
	ldr	lr, [r1, #700]
	cmp	lr, r2
	bne	.L283
	ldrb	lr, [r1, #2]	@ zero_extendqisi2
	cmp	lr, #3
	bne	.L283
	ldr	lr, [r1, #696]
	bic	lr, lr, #-16777216
	bic	lr, lr, #255
	cmp	lr, #256
	bne	.L283
	sub	sp, fp, #24
	ldmfd	sp, {r4, r5, r6, fp, sp, lr}
	b	UnMarkFrameStoreRef
.L302:
	ldr	r3, [r1, #780]
	cmp	r2, r3
	bne	.L280
	add	r3, r0, ip, lsl #2
	strb	r6, [r1, #2]
	add	r3, r3, #24576
	mov	r1, #0
	ldr	r2, [r3, #2072]
	strb	r1, [r2, #777]
	ldr	r2, [r3, #2072]
	ldrb	ip, [r2, #696]	@ zero_extendqisi2
	cmp	ip, #3
	cmpne	ip, r1
	streqb	r1, [r2, #698]
	ldreq	r2, [r3, #2072]
	streqb	r1, [r2, #697]
	ldreq	r2, [r3, #2072]
	ldrb	r1, [r2, #2]	@ zero_extendqisi2
	cmp	r1, #0
	ldreq	r3, [r2, #684]
	addeq	r3, r3, #15552
	addeq	r3, r3, #48
	streq	r1, [r0, r3, asl #2]
	ldmfd	sp, {r4, r5, r6, fp, sp, pc}
.L305:
	ldmfd	sp, {r4, r5, r6, fp, sp, pc}
.L303:
	ldmfd	sp, {r4, r5, r6, fp, sp, pc}
.L304:
	ldmfd	sp, {r4, r5, r6, fp, sp, pc}
.L301:
	ldmfd	sp, {r4, r5, r6, fp, sp, pc}
	UNWIND(.fnend)
	.size	UnMarkLTRef, .-UnMarkLTRef
	.align	2
	.global	MarkPicLTRef
	.type	MarkPicLTRef, %function
MarkPicLTRef:
	UNWIND(.fnstart)
	@ args = 0, pretend = 0, frame = 0
	@ frame_needed = 1, uses_anonymous_args = 0
	UNWIND(.movsp ip)
	mov	ip, sp
	stmfd	sp!, {r4, r5, r6, r7, fp, ip, lr, pc}
	UNWIND(.pad #4)
	UNWIND(.save {r4, r5, r6, r7, fp, ip, lr})
	UNWIND(.setfp fp, ip, #-4)
	sub	fp, ip, #4
	ldrb	r5, [r3, #3]	@ zero_extendqisi2
	add	r3, r0, #24576
	cmp	r5, #0
	beq	.L307
	ldr	r7, [r3, #2144]
	cmp	r7, #0
	beq	.L336
	add	r6, r0, #26368
	mov	ip, #0
	add	r6, r6, #212
	b	.L321
.L313:
	tst	r4, #2
	beq	.L316
	ldr	lr, [r3, #776]
	bic	lr, lr, #-16777216
	bic	lr, lr, #255
	cmp	lr, #65536
	beq	.L337
.L316:
	add	ip, ip, #1
	cmp	ip, r7
	beq	.L338
.L321:
	ldr	r3, [r6, #4]!
	ldrb	r4, [r3, #2]	@ zero_extendqisi2
	tst	r4, #1
	beq	.L313
	ldr	lr, [r3, #736]
	bic	lr, lr, #-16777216
	bic	lr, lr, #255
	cmp	lr, #65536
	bne	.L313
	ldr	lr, [r3, #744]
	cmp	lr, r2
	bne	.L313
	ldrb	lr, [r3, #777]	@ zero_extendqisi2
	cmp	lr, #1
	bne	.L317
	ldr	lr, [r3, #660]
	cmp	lr, r1
	bne	.L316
.L317:
	str	r1, [r3, #660]
	sub	r3, r5, #1
	add	r2, r0, ip, lsl #2
	clz	r3, r3
	add	r2, r2, #24576
	mov	ip, #1
	mov	r3, r3, lsr #5
	mov	r0, #0
	add	r1, r3, r1, lsl #1
	ldr	r3, [r2, #2008]
	str	r1, [r3, #740]
	ldr	r3, [r2, #2008]
	strb	ip, [r3, #737]
	ldr	r3, [r2, #2008]
	strb	r0, [r3, #738]
	ldr	r3, [r2, #2008]
	ldrb	r1, [r3, #696]	@ zero_extendqisi2
	cmp	r1, #3
	cmpne	r1, r0
	bne	.L339
	ldrb	r1, [r3, #777]	@ zero_extendqisi2
	ldrb	r0, [r3, #737]	@ zero_extendqisi2
	cmp	r1, r0
	streqb	r1, [r3, #697]
	ldreq	r3, [r2, #2008]
	ldreqb	r2, [r3, #738]	@ zero_extendqisi2
	streqb	r2, [r3, #698]
	ldmfd	sp, {r4, r5, r6, r7, fp, sp, pc}
.L307:
	ldr	r6, [r3, #2144]
	cmp	r6, #0
	ldmeqfd	sp, {r4, r5, r6, r7, fp, sp, pc}
	add	lr, r0, #26368
	mov	r3, r5
	add	lr, lr, #212
	b	.L312
.L311:
	add	r3, r3, #1
	cmp	r3, r6
	beq	.L340
.L312:
	ldr	ip, [lr, #4]!
	ldrb	r4, [ip, #2]	@ zero_extendqisi2
	cmp	r4, #3
	bne	.L311
	ldr	r4, [ip, #696]
	bic	r4, r4, #-16777216
	bic	r4, r4, #255
	cmp	r4, #65536
	bne	.L311
	ldr	r4, [ip, #704]
	cmp	r4, r2
	bne	.L311
	add	r3, r0, r3, lsl #2
	str	r1, [ip, #660]
	add	r3, r3, #24576
	mov	r0, #1
	mov	r2, #0
	ldr	ip, [r3, #2008]
	str	r1, [ip, #700]
	ldr	r1, [r3, #2008]
	strb	r0, [r1, #697]
	ldr	r1, [r3, #2008]
	strb	r0, [r1, #737]
	ldr	r1, [r3, #2008]
	strb	r0, [r1, #777]
	ldr	r1, [r3, #2008]
	strb	r2, [r1, #698]
	ldr	r1, [r3, #2008]
	strb	r2, [r1, #738]
	ldr	r3, [r3, #2008]
	strb	r2, [r3, #778]
	ldmfd	sp, {r4, r5, r6, r7, fp, sp, pc}
.L337:
	ldr	lr, [r3, #784]
	cmp	lr, r2
	bne	.L316
	ldrb	lr, [r3, #737]	@ zero_extendqisi2
	cmp	lr, #1
	bne	.L320
	ldr	lr, [r3, #660]
	cmp	lr, r1
	bne	.L316
.L320:
	str	r1, [r3, #660]
	sub	r3, r5, #2
	add	r0, r0, ip, lsl #2
	clz	r3, r3
	add	r0, r0, #24576
	mov	ip, #1
	mov	r3, r3, lsr #5
	mov	r2, #0
	add	r1, r3, r1, lsl #1
	ldr	r3, [r0, #2008]
	str	r1, [r3, #780]
	ldr	r3, [r0, #2008]
	strb	ip, [r3, #777]
	ldr	r3, [r0, #2008]
	strb	r2, [r3, #778]
	ldr	r3, [r0, #2008]
	ldrb	r2, [r3, #696]	@ zero_extendqisi2
	cmp	r2, #3
	cmpne	r2, #0
	bne	.L341
	ldrb	r2, [r3, #777]	@ zero_extendqisi2
	ldrb	r1, [r3, #737]	@ zero_extendqisi2
	cmp	r2, r1
	streqb	r2, [r3, #697]
	ldreq	r3, [r0, #2008]
	ldreqb	r2, [r3, #778]	@ zero_extendqisi2
	streqb	r2, [r3, #698]
	ldmfd	sp, {r4, r5, r6, r7, fp, sp, pc}
.L338:
	ldmfd	sp, {r4, r5, r6, r7, fp, sp, pc}
.L340:
	ldmfd	sp, {r4, r5, r6, r7, fp, sp, pc}
.L339:
	ldmfd	sp, {r4, r5, r6, r7, fp, sp, pc}
.L341:
	ldmfd	sp, {r4, r5, r6, r7, fp, sp, pc}
.L336:
	ldmfd	sp, {r4, r5, r6, r7, fp, sp, pc}
	UNWIND(.fnend)
	.size	MarkPicLTRef, .-MarkPicLTRef
	.align	2
	.global	MarkSTToLTRef
	.type	MarkSTToLTRef, %function
MarkSTToLTRef:
	UNWIND(.fnstart)
	@ args = 0, pretend = 0, frame = 0
	@ frame_needed = 1, uses_anonymous_args = 0
	UNWIND(.movsp ip)
	mov	ip, sp
	stmfd	sp!, {r4, r5, r6, r7, r8, r9, fp, ip, lr, pc}
	UNWIND(.pad #4)
	UNWIND(.save {r4, r5, r6, r7, r8, r9, fp, ip, lr})
	UNWIND(.setfp fp, ip, #-4)
	sub	fp, ip, #4
	mov	r6, r1
	ldrb	r1, [r1, #3]	@ zero_extendqisi2
	mov	r8, r3
	mov	r7, r0
	cmp	r1, #0
	bne	.L343
	ldr	r5, [r6, #656]
	mov	r1, r3
	sub	r5, r5, #1
	rsb	r5, r2, r5
	bl	UnMarkLTFrmByFrmIdx
.L344:
	mov	r3, r6
	mov	r2, r5
	mov	r1, r8
	mov	r0, r7
	sub	sp, fp, #36
	ldmfd	sp, {r4, r5, r6, r7, r8, r9, fp, sp, lr}
	b	MarkPicLTRef
.L343:
	add	r3, r0, #24576
	ldr	r5, [r6, #656]
	ldr	r1, [r3, #2144]
	rsb	r5, r2, r5, lsl #1
	cmp	r1, #0
	beq	.L344
	add	r2, r0, #26368
	mov	lr, #0
	add	r2, r2, #212
	b	.L347
.L345:
	tst	r3, #2
	beq	.L346
	ldr	r3, [ip, #776]
	bic	r3, r3, #-16777216
	bic	r3, r3, #255
	cmp	r3, #65536
	beq	.L358
.L346:
	cmp	lr, r1
	beq	.L344
.L347:
	ldr	ip, [r2, #4]!
	add	lr, lr, #1
	ldrb	r3, [ip, #2]	@ zero_extendqisi2
	tst	r3, #1
	beq	.L345
	ldr	r4, [ip, #736]
	bic	r4, r4, #-16777216
	bic	r4, r4, #255
	cmp	r4, #65536
	bne	.L345
	ldr	r0, [ip, #744]
	cmp	r0, r5
	bne	.L345
	mov	r1, ip
	mov	r3, r8
	mov	r2, #1
	mov	r0, r7
	bl	UnMarkLTFldByFrmIdx
	b	.L344
.L358:
	ldr	r3, [ip, #784]
	cmp	r3, r5
	bne	.L346
	mov	r1, ip
	mov	r3, r8
	mov	r2, #2
	mov	r0, r7
	bl	UnMarkLTFldByFrmIdx
	b	.L344
	UNWIND(.fnend)
	.size	MarkSTToLTRef, .-MarkSTToLTRef
	.align	2
	.global	UpdateMaxLTFrmIdx
	.type	UpdateMaxLTFrmIdx, %function
UpdateMaxLTFrmIdx:
	UNWIND(.fnstart)
	@ args = 0, pretend = 0, frame = 0
	@ frame_needed = 1, uses_anonymous_args = 0
	UNWIND(.movsp ip)
	mov	ip, sp
	stmfd	sp!, {r4, r5, r6, r7, fp, ip, lr, pc}
	UNWIND(.pad #4)
	UNWIND(.save {r4, r5, r6, r7, fp, ip, lr})
	UNWIND(.setfp fp, ip, #-4)
	sub	fp, ip, #4
	add	r6, r0, #24576
	mov	r7, r0
	ldr	r3, [r6, #2148]
	str	r1, [r6, #2152]
	cmp	r3, #0
	ldmeqfd	sp, {r4, r5, r6, r7, fp, sp, pc}
	add	r5, r0, #26624
	mov	r3, r1
	add	r5, r5, #20
	mov	r4, #0
	b	.L363
.L361:
	ldr	r3, [r6, #2148]
	cmp	r3, r4
	ldmlsfd	sp, {r4, r5, r6, r7, fp, sp, pc}
	ldr	r3, [r6, #2152]
.L363:
	ldr	r1, [r5, #4]!
	add	r4, r4, #1
	ldr	r2, [r1, #660]
	cmp	r2, r3
	bcc	.L361
	mov	r0, r7
	bl	UnMarkFrameStoreRef
	b	.L361
	UNWIND(.fnend)
	.size	UpdateMaxLTFrmIdx, .-UpdateMaxLTFrmIdx
	.align	2
	.global	UnMarkAllSTRef
	.type	UnMarkAllSTRef, %function
UnMarkAllSTRef:
	UNWIND(.fnstart)
	@ args = 0, pretend = 0, frame = 0
	@ frame_needed = 1, uses_anonymous_args = 0
	UNWIND(.movsp ip)
	mov	ip, sp
	stmfd	sp!, {r4, r5, r6, r7, fp, ip, lr, pc}
	UNWIND(.pad #4)
	UNWIND(.save {r4, r5, r6, r7, fp, ip, lr})
	UNWIND(.setfp fp, ip, #-4)
	sub	fp, ip, #4
	add	r7, r0, #24576
	mov	r6, r0
	ldr	r3, [r7, #2144]
	cmp	r3, #0
	ldmeqfd	sp, {r4, r5, r6, r7, fp, sp, pc}
	add	r5, r0, #26368
	mov	r4, #0
	add	r5, r5, #212
.L366:
	ldr	r1, [r5, #4]!
	mov	r0, r6
	bl	UnMarkFrameStoreRef
	ldr	r3, [r7, #2144]
	add	r4, r4, #1
	cmp	r3, r4
	bhi	.L366
	ldmfd	sp, {r4, r5, r6, r7, fp, sp, pc}
	UNWIND(.fnend)
	.size	UnMarkAllSTRef, .-UnMarkAllSTRef
	.align	2
	.global	MarkCurrPicLT
	.type	MarkCurrPicLT, %function
MarkCurrPicLT:
	UNWIND(.fnstart)
	@ args = 0, pretend = 0, frame = 0
	@ frame_needed = 1, uses_anonymous_args = 0
	UNWIND(.movsp ip)
	mov	ip, sp
	stmfd	sp!, {r4, r5, fp, ip, lr, pc}
	UNWIND(.pad #4)
	UNWIND(.save {r4, r5, fp, ip, lr})
	UNWIND(.setfp fp, ip, #-4)
	sub	fp, ip, #4
	mov	r5, r2
	ldrb	r2, [r1, #3]	@ zero_extendqisi2
	mov	r4, r1
	cmp	r2, #0
	beq	.L372
	mov	r3, r5
	ldr	r1, [r1, #648]
	bl	UnMarkLTFldByFrmIdx
.L371:
	mov	r2, #1
	mov	r3, #0
	str	r5, [r4, #660]
	strb	r2, [r4, #4]
	strb	r3, [r4, #5]
	ldmfd	sp, {r4, r5, fp, sp, pc}
.L372:
	mov	r1, r5
	bl	UnMarkLTFrmByFrmIdx
	b	.L371
	UNWIND(.fnend)
	.size	MarkCurrPicLT, .-MarkCurrPicLT
	.align	2
	.global	RemoveFrameStoreOutDPB
	.type	RemoveFrameStoreOutDPB, %function
RemoveFrameStoreOutDPB:
	UNWIND(.fnstart)
	@ args = 0, pretend = 0, frame = 0
	@ frame_needed = 1, uses_anonymous_args = 0
	UNWIND(.movsp ip)
	mov	ip, sp
	stmfd	sp!, {r4, r5, r6, r7, r8, r9, fp, ip, lr, pc}
	UNWIND(.pad #4)
	UNWIND(.save {r4, r5, r6, r7, r8, r9, fp, ip, lr})
	UNWIND(.setfp fp, ip, #-4)
	sub	fp, ip, #4
	add	r5, r0, r1, lsl #2
	mov	r4, r1
	add	r5, r5, #24576
	mov	r6, r0
	ldr	r2, [r5, #1944]
	cmp	r2, #0
	beq	.L393
	ldr	r3, [r2, #688]
	add	r7, r0, #24576
	mov	r1, #0
	add	r8, r0, #61440
	add	r3, r3, #6656
	add	r3, r3, #26
	add	r3, r0, r3, lsl #2
	str	r1, [r3, #4]
	ldr	r3, [r7, #2416]
	cmp	r3, r1
	subne	r3, r3, #1
	str	r3, [r7, #2416]
	ldr	r1, [r2, #648]
	ldr	r0, [r8, #2352]
	bl	FSP_GetLogicFs
	cmp	r0, #0
	beq	.L376
	ldrsb	r3, [r0, #1]
	cmp	r3, #3
	beq	.L377
	ldr	r3, [r5, #1944]
	mov	r2, #0
	ldr	r0, [r8, #2352]
	ldr	r1, [r3, #648]
	bl	FSP_SetDisplay
.L377:
	ldr	r3, [r5, #1944]
	mov	r2, #0
	ldr	r0, [r8, #2352]
	ldr	r1, [r3, #648]
	bl	FSP_SetRef
.L376:
	ldr	r1, [r5, #1944]
	mov	r3, #0
	mvn	r2, #0
	strb	r3, [r1, #1]
	ldr	r1, [r5, #1944]
	strb	r3, [r1, #4]
	ldr	r1, [r5, #1944]
	strb	r3, [r1, #2]
	ldr	r3, [r5, #1944]
	str	r2, [r3, #648]
	ldr	r1, [r7, #2140]
	add	r1, r1, r2
	cmp	r4, r1
	addcc	r2, r4, #6592
	addcc	r2, r2, #38
	addcc	r2, r6, r2, lsl #2
	bcs	.L381
.L380:
	add	r4, r4, #1
	ldr	r3, [r2, #4]!
	cmp	r4, r1
	str	r3, [r2, #-4]
	bne	.L380
.L381:
	add	r3, r1, #6592
	mov	r2, #0
	add	r3, r3, #38
	str	r2, [r6, r3, asl #2]
	str	r1, [r7, #2140]
	ldmfd	sp, {r4, r5, r6, r7, r8, r9, fp, sp, pc}
.L393:
	mov	r3, r1
	ldr	r2, .L394
	ldr	r1, .L394+4
	mov	r0, #1
	sub	sp, fp, #36
	ldmfd	sp, {r4, r5, r6, r7, r8, r9, fp, sp, lr}
	b	dprint_vfmw
.L395:
	.align	2
.L394:
	.word	.LANCHOR0
	.word	.LC11
	UNWIND(.fnend)
	.size	RemoveFrameStoreOutDPB, .-RemoveFrameStoreOutDPB
	.align	2
	.global	RemoveUnUsedFrameStore
	.type	RemoveUnUsedFrameStore, %function
RemoveUnUsedFrameStore:
	UNWIND(.fnstart)
	@ args = 0, pretend = 0, frame = 0
	@ frame_needed = 1, uses_anonymous_args = 0
	UNWIND(.movsp ip)
	mov	ip, sp
	stmfd	sp!, {r3, r4, r5, r6, r7, r8, r9, r10, fp, ip, lr, pc}
	UNWIND(.pad #4)
	UNWIND(.save {r3, r4, r5, r6, r7, r8, r9, r10, fp, ip, lr})
	UNWIND(.setfp fp, ip, #-4)
	sub	fp, ip, #4
	subs	r5, r0, #0
	beq	.L406
	add	r3, r5, #24576
	ldr	r6, [r3, #2140]
	cmp	r6, #0
	addne	r7, r5, #61440
	movne	r10, #0
	movne	r8, r10
	movne	r9, r10
	bne	.L404
	b	.L405
.L415:
	ldrb	r1, [r2, #4]	@ zero_extendqisi2
	cmp	r1, #0
	bne	.L402
	ldr	r0, [r2, #816]
	cmp	r0, #1
	beq	.L402
	strb	r1, [r2, #1]
	mov	r0, r5
	mov	r1, r10
	add	r8, r8, #1
	bl	RemoveFrameStoreOutDPB
	cmp	r8, r6
	beq	.L405
.L404:
	add	r4, r5, r10, lsl #2
	ldr	r0, [r7, #2352]
	add	r4, r4, #24576
	ldr	r2, [r4, #1944]
	ldr	r1, [r2, #648]
	bl	FSP_GetLogicFs
	cmp	r0, #0
	beq	.L399
	ldrsh	r2, [r0]
	cmp	r2, #0
	bne	.L400
	ldr	r1, [r4, #1944]
	ldrb	r2, [r1, #2]	@ zero_extendqisi2
	cmp	r2, #0
	bne	.L401
	ldrsb	r0, [r0]
	cmp	r0, #0
	bne	.L414
.L401:
	mvn	r3, #0
	str	r3, [r1, #648]
	ldr	r2, [r4, #1944]
	strb	r9, [r2, #2]
.L399:
	ldr	r1, [r4, #1944]
	ldr	r2, [r1, #816]
	sub	r2, r2, #1
	clz	r2, r2
	mov	r2, r2, lsr #5
	strb	r2, [r1, #4]
.L400:
	ldr	r2, [r4, #1944]
	ldrb	r1, [r2, #2]	@ zero_extendqisi2
	cmp	r1, #0
	beq	.L415
.L402:
	add	r8, r8, #1
	add	r10, r10, #1
	cmp	r8, r6
	bne	.L404
.L405:
	mov	r0, #0
	ldmfd	sp, {r3, r4, r5, r6, r7, r8, r9, r10, fp, sp, pc}
.L414:
	ldr	r1, [r1, #648]
	ldr	r0, [r7, #2352]
	bl	FSP_SetRef
	ldr	r1, [r4, #1944]
	b	.L401
.L406:
	mvn	r0, #0
	ldmfd	sp, {r3, r4, r5, r6, r7, r8, r9, r10, fp, sp, pc}
	UNWIND(.fnend)
	.size	RemoveUnUsedFrameStore, .-RemoveUnUsedFrameStore
	.align	2
	.global	CheckFrameStore
	.type	CheckFrameStore, %function
CheckFrameStore:
	UNWIND(.fnstart)
	@ args = 0, pretend = 0, frame = 0
	@ frame_needed = 1, uses_anonymous_args = 0
	UNWIND(.movsp ip)
	mov	ip, sp
	stmfd	sp!, {r4, r5, fp, ip, lr, pc}
	UNWIND(.pad #4)
	UNWIND(.save {r4, r5, fp, ip, lr})
	UNWIND(.setfp fp, ip, #-4)
	sub	fp, ip, #4
	UNWIND(.pad #8)
	sub	sp, sp, #8
	add	r3, r0, #61440
	mov	r5, r0
	mov	r4, r1
	ldr	r2, [r3, #1044]
	cmp	r2, #0
	bne	.L417
	ldr	r2, [r1, #816]
	cmp	r2, #1
	beq	.L418
	ldr	r2, [r3, #2280]
	cmp	r2, #0
	beq	.L442
.L418:
	mov	r2, #1
	str	r2, [r3, #1044]
.L417:
	ldr	r0, [r3, #2352]
	ldr	r1, [r4, #648]
	bl	FSP_GetLogicFs
	cmp	r0, #0
	beq	.L420
	ldrsb	r3, [r0, #1]
	cmp	r3, #3
	cmpne	r3, #0
	beq	.L443
	ldrb	r2, [r4, #1]	@ zero_extendqisi2
	ldrb	r3, [r4]	@ zero_extendqisi2
	cmp	r2, #0
	beq	.L428
	cmp	r3, #1
	beq	.L428
	ldr	r3, [r4]
	mov	r1, #768
	movt	r1, 768
	bic	r3, r3, #16711680
	bic	r3, r3, #255
	cmp	r3, r1
	beq	.L444
	cmp	r2, #1
	beq	.L445
	cmp	r2, #2
	beq	.L446
.L426:
	ldr	r3, [r5]
	ldr	r2, [r0, #192]
	ldr	r3, [r3, #4]
	cmp	r2, r3
	movls	r0, #0
	bhi	.L447
.L441:
	sub	sp, fp, #20
	ldmfd	sp, {r4, r5, fp, sp, pc}
.L442:
	ldr	r2, [r0]
	ldr	r2, [r2, #24]
	cmp	r2, #0
	bne	.L418
	mvn	r0, #0
	b	.L441
.L443:
	ldr	r2, [r4, #648]
	mov	r0, #1
	ldr	r1, .L448
	bl	dprint_vfmw
.L422:
	ldr	r3, [r4, #816]
	cmp	r3, #1
	beq	.L429
	mvn	r0, #2
	sub	sp, fp, #20
	ldmfd	sp, {r4, r5, fp, sp, pc}
.L445:
	ldrb	r3, [r4, #3]	@ zero_extendqisi2
	tst	r3, #1
	beq	.L426
	mov	r0, r2
	ldr	r1, .L448+4
	bl	dprint_vfmw
	mvn	r0, #0
	b	.L441
.L446:
	ldrb	r3, [r4, #3]	@ zero_extendqisi2
	tst	r3, #2
	beq	.L426
	ldr	r1, .L448+8
	mov	r0, #1
	bl	dprint_vfmw
	mvn	r0, #0
	b	.L441
.L429:
	mov	r3, #2
	mvn	r0, #2
	str	r3, [r4, #816]
	b	.L441
.L420:
	ldr	ip, [r4, #648]
	mov	r2, r4
	ldr	r3, [r4, #816]
	mov	r0, #1
	ldr	r1, .L448+12
	str	ip, [sp]
	bl	dprint_vfmw
	b	.L422
.L428:
	ldr	r1, .L448+16
	mov	r0, #1
	bl	dprint_vfmw
	mvn	r0, #0
	b	.L441
.L447:
	ldr	r1, .L448+20
	mov	r0, #1
	bl	dprint_vfmw
	mvn	r0, #0
	b	.L441
.L444:
	ldrb	r3, [r4, #3]	@ zero_extendqisi2
	mov	r0, #1
	ldr	r1, .L448+24
	bl	dprint_vfmw
	mvn	r0, #0
	b	.L441
.L449:
	.align	2
.L448:
	.word	.LC12
	.word	.LC16
	.word	.LC17
	.word	.LC13
	.word	.LC14
	.word	.LC18
	.word	.LC15
	UNWIND(.fnend)
	.size	CheckFrameStore, .-CheckFrameStore
	.align	2
	.global	GetImagePara
	.type	GetImagePara, %function
GetImagePara:
	UNWIND(.fnstart)
	@ args = 0, pretend = 0, frame = 24
	@ frame_needed = 1, uses_anonymous_args = 0
	UNWIND(.movsp ip)
	mov	ip, sp
	stmfd	sp!, {r4, r5, r6, r7, r8, r9, r10, fp, ip, lr, pc}
	UNWIND(.pad #4)
	UNWIND(.save {r4, r5, r6, r7, r8, r9, r10, fp, ip, lr})
	UNWIND(.setfp fp, ip, #-4)
	sub	fp, ip, #4
	UNWIND(.pad #36)
	sub	sp, sp, #36
	add	lr, r0, #12288
	mov	r7, r0
	add	r0, r0, #20480
	mov	r4, r1
	ldr	r3, [lr, #1304]
	ldr	r1, [r0, #216]
	mov	r2, #2208
	ldrb	ip, [r4, #81]	@ zero_extendqisi2
	add	r6, r7, #61440
	ldrb	r0, [r4, #80]	@ zero_extendqisi2
	mov	r5, #4000
	mla	r2, r2, r1, r3
	bfc	r0, #0, #2
	ldr	r3, [lr, #1300]
	bfc	ip, #0, #2
	ldr	lr, [r4, #8]
	ldrb	r1, [r4, #82]	@ zero_extendqisi2
	ldrb	r9, [r4, #5]	@ zero_extendqisi2
	ldr	r8, [r2, #28]
	strb	ip, [r4, #81]
	bfi	r1, r9, #1, #1
	strb	r0, [r4, #80]
	ldr	r0, [r6, #1052]
	ldrb	r2, [r4, #1]	@ zero_extendqisi2
	mla	r3, r5, r8, r3
	str	r0, [r4, #124]
	strb	r1, [r4, #82]
	str	lr, [r4, #136]
	cmp	r2, #3
	ldrls	pc, [pc, r2, asl #2]
	b	.L496
.L453:
	.word	.L452
	.word	.L454
	.word	.L455
	.word	.L452
.L455:
	ldrb	r2, [r4, #81]	@ zero_extendqisi2
	mov	ip, #3
	ldr	r8, [r4, #680]
	add	r5, r7, #24576
	ldr	lr, [r4, #796]
	and	r2, r2, #240
	ldr	r0, [r4, #812]
	orr	r2, r2, #11
	ldrb	r1, [r4, #80]	@ zero_extendqisi2
	ldr	r9, [r4, #676]
	strb	r2, [r4, #81]
	bfi	r1, r9, #0, #2
	str	r8, [r4, #168]
	strb	r1, [r4, #80]
	str	lr, [r4, #76]
	str	ip, [r4, #72]
	ldr	r2, [r0, #692]
	str	r2, [r4, #728]
.L451:
	ldrb	r2, [r3, #18]	@ zero_extendqisi2
	str	r2, [r4, #412]
	str	r2, [r4, #416]
	ldrb	r2, [r3, #22]	@ zero_extendqisi2
	cmp	r2, #0
	ldrne	r2, [r3, #3332]
	mov	r3, #1
	str	r3, [r4, #420]
	str	r2, [r4, #424]
	ldr	r3, [r7]
	ldr	r3, [r3, #596]
	str	r3, [r4, #140]
	ldr	r3, [r7]
	ldr	r3, [r3, #600]
	str	r3, [r4, #144]
	ldr	r3, [r7]
	ldr	r3, [r3, #604]
	str	r3, [r4, #148]
	ldr	r3, [r7]
	ldr	r3, [r3, #24]
	cmp	r3, #0
	beq	.L472
	ldrb	r3, [r4, #696]	@ zero_extendqisi2
	cmp	r3, #0
	bne	.L472
	ldrb	r2, [r4, #1]	@ zero_extendqisi2
	cmp	r2, #3
	ldreqb	r2, [r4, #81]	@ zero_extendqisi2
	bfieq	r2, r3, #0, #2
	streqb	r2, [r4, #81]
.L472:
	add	r3, r4, #608
	str	r3, [fp, #-68]
	mvn	r9, #0
	mvn	r8, #0
	ldrd	r2, [r3, #-8]
	cmp	r3, r9
	cmpeq	r2, r8
	beq	.L474
	ldr	r3, [r5, #2140]
	cmp	r3, #0
	beq	.L474
	add	r8, r7, #26368
	mov	r10, #0
	add	r8, r8, #148
	mvn	r3, #0
	mvn	r2, #1
	strd	r2, [fp, #-52]
	mvn	r3, #0
	str	r3, [fp, #-56]
.L477:
	ldr	r1, [r8, #4]!
	cmp	r1, #0
	beq	.L476
	ldr	r1, [r1, #648]
	ldr	r0, [r6, #2352]
	bl	FSP_GetLogicFs
	cmp	r0, #0
	beq	.L476
	ldrsb	r1, [r0, #1]
	cmp	r1, #3
	cmpne	r1, #0
	beq	.L476
	ldr	r1, [r8]
	ldrd	r2, [fp, #-52]
	add	r1, r1, #608
	ldrd	r0, [r1, #-8]
	cmp	r1, r3
	cmpeq	r0, r2
	strccd	r0, [fp, #-52]
	strcc	r10, [fp, #-56]
.L476:
	ldr	r1, [r5, #2140]
	add	r10, r10, #1
	cmp	r10, r1
	bcc	.L477
	ldr	r3, [fp, #-56]
	cmn	r3, #1
	beq	.L474
	ldr	r3, [fp, #-68]
	ldrd	r0, [fp, #-52]
	ldrd	r2, [r3, #-8]
	cmp	r3, r1
	cmpeq	r2, r0
	bhi	.L515
.L474:
	ldrb	r3, [r5, #1808]	@ zero_extendqisi2
	cmp	r3, #0
	beq	.L478
	ldr	r3, [r5, #1824]
	cmp	r3, #3
	moveq	r3, #1
	streq	r3, [r4, #292]
	beq	.L478
	cmp	r3, #4
	moveq	r3, #2
	streq	r3, [r4, #292]
	beq	.L478
	cmp	r3, #5
	moveq	r3, #3
	streq	r3, [r4, #292]
	beq	.L478
	mov	r0, #0
	ldr	r1, .L519
	str	r0, [r4, #292]
	ldr	r2, [r5, #1824]
	bl	dprint_vfmw
.L478:
	ldr	r0, [r6, #2352]
	ldr	r1, [r4, #648]
	bl	FSP_GetFsImagePtr
	subs	r5, r0, #0
	beq	.L450
	ldr	r3, .L519+4
	mov	r2, #632
	add	r1, r4, #16
	ldr	r3, [r3, #52]
	blx	r3
	mov	r3, #0
	str	r3, [r5, #296]
	mov	r2, #1
	ldrb	r3, [r4, #696]	@ zero_extendqisi2
	strb	r2, [r5, #291]
	cmp	r3, #0
	movne	r3, #4
	strb	r3, [r5, #284]
	ldr	r3, [r4, #720]
	strb	r2, [r5, #289]
	str	r3, [r5, #300]
	str	r3, [r5, #308]
	str	r3, [r5, #304]
	ldr	r3, [r4, #728]
	str	r3, [r5, #236]
.L450:
	sub	sp, fp, #40
	ldmfd	sp, {r4, r5, r6, r7, r8, r9, r10, fp, sp, pc}
.L454:
	ldrb	r2, [r4, #81]	@ zero_extendqisi2
	mov	ip, #3
	ldr	r8, [r4, #680]
	add	r5, r7, #24576
	ldr	lr, [r4, #756]
	and	r2, r2, #240
	ldr	r0, [r4, #772]
	orr	r2, r2, #7
	ldrb	r1, [r4, #80]	@ zero_extendqisi2
	ldr	r9, [r4, #676]
	strb	r2, [r4, #81]
	bfi	r1, r9, #0, #2
	str	r8, [r4, #168]
	strb	r1, [r4, #80]
	str	lr, [r4, #72]
	str	ip, [r4, #76]
	ldr	r2, [r0, #692]
	str	r2, [r4, #728]
	b	.L451
.L452:
	ldrb	r2, [r4, #696]	@ zero_extendqisi2
	cmp	r2, #0
	bne	.L456
	ldr	r1, [r4, #672]
	ldr	r2, [r4, #680]
	cmp	r1, #0
	ldr	r0, [r4, #676]
	ldreq	r8, [r4, #756]
	movne	ip, #3
	ldreq	lr, [r4, #796]
	moveq	ip, #2
	ldrne	r8, [r4, #756]
	moveq	r1, #3
	ldrne	lr, [r4, #796]
	movne	r1, ip
	str	r2, [r4, #168]
.L458:
	ldr	r5, [r4, #748]
	ldr	r2, [r4, #788]
	cmp	r5, r2
	beq	.L516
	movle	r10, #1
	movgt	r10, #0
.L469:
	add	r5, r7, #24576
	ldrb	r2, [r5, #1844]	@ zero_extendqisi2
	cmp	r2, #3
	moveq	r10, #1
	beq	.L470
	cmp	r2, #4
	moveq	r10, #0
.L470:
	ldrb	r2, [r4, #81]	@ zero_extendqisi2
	ldrb	r9, [r4, #80]	@ zero_extendqisi2
	bfi	r2, r10, #4, #2
	str	r8, [r4, #72]
	bfi	r2, r1, #2, #2
	bfi	r9, r0, #0, #2
	bfi	r2, ip, #0, #2
	str	lr, [r4, #76]
	strb	r9, [r4, #80]
	strb	r2, [r4, #81]
	b	.L451
.L515:
	ldrd	r8, [fp, #-52]
	ldr	r0, [r6, #2352]
	strd	r8, [sp]
	bl	IsPtsRewind
	cmp	r0, #0
	bne	.L474
	ldr	r8, [fp, #-68]
	mov	r0, #29
	ldr	r1, .L519+8
	ldrd	r2, [r8, #-8]
	strd	r2, [fp, #-68]
	ldrd	r2, [fp, #-52]
	strd	r2, [sp]
	ldrd	r2, [fp, #-68]
	bl	dprint_vfmw
	ldr	r3, [fp, #-56]
	add	r1, r3, #6592
	ldrd	r2, [r8, #-8]
	add	r1, r1, #38
	ldr	r1, [r7, r1, asl #2]
	add	r1, r1, #608
	strd	r2, [r1, #-8]
	ldrd	r2, [fp, #-52]
	strd	r2, [r8, #-8]
	b	.L474
.L456:
	ldr	ip, [r4, #752]
	ldr	r2, [r6, #2348]
	cmp	ip, r2
	bhi	.L517
	ldr	r1, [r4, #792]
	cmp	r2, r1
	bcc	.L462
.L460:
	ldr	r2, [r4, #680]
	mov	r1, #3
	ldr	r0, [r4, #676]
	ldr	r9, [r4, #756]
	ldr	r5, [r4, #796]
	str	r2, [r4, #168]
.L463:
	ldrb	r2, [r4, #3]	@ zero_extendqisi2
	cmp	r2, #1
	beq	.L518
	cmp	r2, #2
	streq	ip, [r4, #168]
	moveq	r0, r9
	moveq	r1, #1
.L465:
	ldr	r2, [r4, #768]
	mov	r8, r9
	ldr	r10, [r4, #808]
	mov	lr, r5
	mov	ip, #3
	str	r9, [r4, #72]
	add	r2, r2, r10
	str	r5, [r4, #76]
	add	r2, r2, r2, lsr #31
	mov	r2, r2, asr #1
	str	r2, [r4, #252]
	b	.L458
.L462:
	ldr	r0, [r4, #756]
	mov	r1, #1
	ldr	r5, [r4, #796]
	str	ip, [r4, #168]
	mov	r9, r0
	b	.L463
.L516:
	ldr	r2, [r4, #84]
	cmp	r2, #720
	movne	r10, #1
	bne	.L469
	ldr	r10, [r4, #88]
	subs	r10, r10, #480
	movne	r10, #1
	b	.L469
.L517:
	ldr	lr, [r4, #792]
	cmp	r2, lr
	bcc	.L460
	ldr	r0, [r4, #796]
	mov	r1, #2
	str	lr, [r4, #168]
	ldr	r9, [r4, #756]
	mov	r5, r0
	b	.L463
.L518:
	ldr	r2, [r4, #792]
	mov	r0, r5
	mov	r1, #2
	str	r2, [r4, #168]
	b	.L465
.L496:
	add	r5, r7, #24576
	b	.L451
.L520:
	.align	2
.L519:
	.word	.LC20
	.word	vfmw_Osal_Func_Ptr_S
	.word	.LC19
	UNWIND(.fnend)
	.size	GetImagePara, .-GetImagePara
	.align	2
	.global	SetFrmRepeatCount
	.type	SetFrmRepeatCount, %function
SetFrmRepeatCount:
	UNWIND(.fnstart)
	@ args = 0, pretend = 0, frame = 0
	@ frame_needed = 1, uses_anonymous_args = 0
	UNWIND(.movsp ip)
	mov	ip, sp
	stmfd	sp!, {fp, ip, lr, pc}
	UNWIND(.pad #4)
	UNWIND(.save {fp, ip, lr})
	UNWIND(.setfp fp, ip, #-4)
	sub	fp, ip, #4
	ldr	r3, [r0]
	ldr	r3, [r3, #612]
	add	r3, r3, #2032
	add	r3, r3, #15
	cmp	r3, #4096
	movcc	r3, #0
	strcc	r3, [r1, #16]
	ldmccfd	sp, {fp, sp, pc}
	sub	sp, fp, #12
	ldmia	sp, {fp, sp, lr}
	b	SetFrmRepeatCount.part.3
	UNWIND(.fnend)
	.size	SetFrmRepeatCount, .-SetFrmRepeatCount
	.align	2
	.global	SplitFrmToFlds
	.type	SplitFrmToFlds, %function
SplitFrmToFlds:
	UNWIND(.fnstart)
	@ args = 0, pretend = 0, frame = 0
	@ frame_needed = 1, uses_anonymous_args = 0
	UNWIND(.movsp ip)
	mov	ip, sp
	stmfd	sp!, {r4, r5, fp, ip, lr, pc}
	UNWIND(.pad #4)
	UNWIND(.save {r4, r5, fp, ip, lr})
	UNWIND(.setfp fp, ip, #-4)
	sub	fp, ip, #4
	ldrb	lr, [r0, #697]	@ zero_extendqisi2
	mov	r5, #1
	ldrb	ip, [r0, #698]	@ zero_extendqisi2
	mov	r4, #2
	ldr	r1, [r0, #712]
	ldr	r2, [r0, #716]
	ldr	r3, [r0, #732]
	strb	r5, [r0, #736]
	strb	r4, [r0, #776]
	strb	lr, [r0, #737]
	strb	lr, [r0, #777]
	strb	ip, [r0, #738]
	strb	ip, [r0, #778]
	str	r1, [r0, #752]
	str	r1, [r0, #792]
	str	r2, [r0, #756]
	str	r2, [r0, #796]
	str	r3, [r0, #772]
	str	r3, [r0, #812]
	ldmfd	sp, {r4, r5, fp, sp, pc}
	UNWIND(.fnend)
	.size	SplitFrmToFlds, .-SplitFrmToFlds
	.align	2
	.global	CombineFldsToFrm
	.type	CombineFldsToFrm, %function
CombineFldsToFrm:
	UNWIND(.fnstart)
	@ args = 0, pretend = 0, frame = 0
	@ frame_needed = 1, uses_anonymous_args = 0
	UNWIND(.movsp ip)
	mov	ip, sp
	stmfd	sp!, {r4, r5, fp, ip, lr, pc}
	UNWIND(.pad #4)
	UNWIND(.save {r4, r5, fp, ip, lr})
	UNWIND(.setfp fp, ip, #-4)
	sub	fp, ip, #4
	ldr	r2, [r0, #788]
	mov	lr, #3
	ldr	r1, [r0, #748]
	ldr	r3, [r0, #792]
	cmp	r2, r1
	ldr	r5, [r0, #752]
	ldrb	r4, [r0, #777]	@ zero_extendqisi2
	ldr	ip, [r0, #772]
	movge	r2, r1
	add	r3, r3, r5
	cmp	r4, #0
	strb	lr, [r0, #696]
	mov	r3, r3, lsr #1
	str	ip, [r0, #732]
	str	r2, [r0, #708]
	str	r2, [r0, #664]
	str	r3, [r0, #712]
	beq	.L525
	ldrb	r2, [r0, #737]	@ zero_extendqisi2
	cmp	r2, #0
	bne	.L526
.L525:
	ldr	r2, [r0, #776]
	mov	r1, #0
	strb	r1, [r0, #697]
	bic	r2, r2, #-16777216
	bic	r2, r2, #255
	cmp	r2, r1
	beq	.L532
	ldr	r2, [r0, #736]
	bic	r2, r2, #-16777216
	bic	r2, r2, #255
	cmp	r2, #0
	movne	r1, #1
	beq	.L532
.L528:
	ldr	r2, [r0, #756]
	strb	r1, [r0, #698]
	cmp	r2, #0
	beq	.L530
	ldr	r1, [r0, #796]
	cmp	r1, #0
	moveq	r2, r1
	beq	.L530
	cmp	r2, r1
	movcc	r2, r1
.L530:
	str	r2, [r0, #716]
	str	r2, [r0, #676]
	str	r3, [r0, #680]
	ldmfd	sp, {r4, r5, fp, sp, pc}
.L526:
	mov	r1, #1
	strb	r1, [r0, #697]
.L532:
	mov	r1, #0
	b	.L528
	UNWIND(.fnend)
	.size	CombineFldsToFrm, .-CombineFldsToFrm
	.align	2
	.global	GetAPC
	.type	GetAPC, %function
GetAPC:
	UNWIND(.fnstart)
	@ args = 0, pretend = 0, frame = 0
	@ frame_needed = 1, uses_anonymous_args = 0
	UNWIND(.movsp ip)
	mov	ip, sp
	stmfd	sp!, {r4, r5, r6, r7, r8, r9, fp, ip, lr, pc}
	UNWIND(.pad #4)
	UNWIND(.save {r4, r5, r6, r7, r8, r9, fp, ip, lr})
	UNWIND(.setfp fp, ip, #-4)
	sub	fp, ip, #4
	UNWIND(.pad #8)
	sub	sp, sp, #8
	subs	r7, r1, #0
	mov	r5, r0
	beq	.L566
	cmp	r2, #1
	beq	.L547
	cmp	r2, #2
	beq	.L548
	ldr	r8, [r7, #748]
	ldr	r9, [r7, #788]
.L549:
	add	r6, r5, #24576
	ldr	ip, [r6, #2412]
	cmp	ip, #0
	beq	.L558
	ldr	r4, [r6, #2156]
	cmp	r4, #0
	addne	r3, r5, #26624
	movne	r4, #0
	addne	r3, r3, #108
	bne	.L552
	b	.L550
.L556:
	ldr	r2, [r3, #4]!
	cmp	r2, #0
	beq	.L550
.L552:
	add	r4, r4, #1
	cmp	r4, ip
	bne	.L556
.L558:
	mvn	r0, #0
.L562:
	sub	sp, fp, #36
	ldmfd	sp, {r4, r5, r6, r7, r8, r9, fp, sp, pc}
.L548:
	ldr	r8, [r7, #788]
	mov	r9, r8
	b	.L549
.L550:
	add	r3, r5, #61440
	ldr	r1, [r7, #648]
	ldr	r0, [r3, #2352]
	bl	FSP_GetLogicFs
	cmp	r0, #0
	beq	.L553
	ldr	r3, [r0, #28]
	cmp	r3, #0
	beq	.L553
	add	r5, r5, r4, lsl #2
	mov	r3, #1
	add	r5, r5, #24576
	ldr	r1, .L567
	str	r3, [r5, #2156]
	ldr	r3, [r0, #28]
	mov	r0, #13
	ldr	r3, [r3, #4]
	str	r8, [r5, #2284]
	str	r9, [r5, #2348]
	str	r3, [r5, #2220]
	ldr	r3, [r6, #2416]
	cmp	r3, #15
	addls	r3, r3, #1
	movhi	r3, #16
	str	r3, [r6, #2416]
	mov	r3, r4
	ldr	r2, [r7, #164]
	bl	dprint_vfmw
	mov	r0, #0
	str	r4, [r7, #688]
	sub	sp, fp, #36
	ldmfd	sp, {r4, r5, r6, r7, r8, r9, fp, sp, pc}
.L547:
	ldr	r8, [r7, #748]
	mov	r9, r8
	b	.L549
.L553:
	mov	r1, #0
	ldr	r2, [r7, #648]
	ldrb	r3, [r7, #2]	@ zero_extendqisi2
	stmia	sp, {r0, r1}
	mov	r0, r1
	ldr	r1, .L567+4
	bl	dprint_vfmw
	mvn	r0, #0
	b	.L562
.L566:
	mov	r0, r7
	movw	r3, #2206
	ldr	r2, .L567+8
	ldr	r1, .L567+12
	bl	dprint_vfmw
	mvn	r0, #0
	b	.L562
.L568:
	.align	2
.L567:
	.word	.LC23
	.word	.LC24
	.word	.LC21
	.word	.LC22
	UNWIND(.fnend)
	.size	GetAPC, .-GetAPC
	.align	2
	.global	SlidingWinMark
	.type	SlidingWinMark, %function
SlidingWinMark:
	UNWIND(.fnstart)
	@ args = 0, pretend = 0, frame = 0
	@ frame_needed = 1, uses_anonymous_args = 0
	UNWIND(.movsp ip)
	mov	ip, sp
	stmfd	sp!, {fp, ip, lr, pc}
	UNWIND(.pad #4)
	UNWIND(.save {fp, ip, lr})
	UNWIND(.setfp fp, ip, #-4)
	sub	fp, ip, #4
	add	r2, r0, #24576
	add	r3, r0, #16384
	ldr	r1, [r2, #2148]
	ldr	r3, [r3, #456]
	ldr	r2, [r2, #2144]
	rsb	r3, r1, r3
	cmp	r2, r3
	ldmnefd	sp, {fp, sp, pc}
	sub	sp, fp, #12
	ldmia	sp, {fp, sp, lr}
	b	SlidingWinMark.part.4
	UNWIND(.fnend)
	.size	SlidingWinMark, .-SlidingWinMark
	.align	2
	.global	DumpDPB
	.type	DumpDPB, %function
DumpDPB:
	UNWIND(.fnstart)
	@ args = 0, pretend = 0, frame = 0
	@ frame_needed = 1, uses_anonymous_args = 0
	UNWIND(.movsp ip)
	mov	ip, sp
	stmfd	sp!, {r4, r5, r6, r7, fp, ip, lr, pc}
	UNWIND(.pad #4)
	UNWIND(.save {r4, r5, r6, r7, fp, ip, lr})
	UNWIND(.setfp fp, ip, #-4)
	sub	fp, ip, #4
	UNWIND(.pad #8)
	sub	sp, sp, #8
	ldr	r3, .L581
	mov	r5, r0
	ldr	r3, [r3]
	tst	r3, #16384
	beq	.L571
	add	r6, r0, #24576
	ldr	r3, [r6, #2140]
	cmp	r3, #0
	addne	r7, r0, #26368
	movne	r4, #0
	addne	r7, r7, #148
	beq	.L577
.L576:
	ldr	ip, [r7, #4]!
	mov	r2, r4
	ldr	r1, .L581+4
	mov	r0, #14
	add	r4, r4, #1
	ldrb	lr, [ip, #2]	@ zero_extendqisi2
	ldr	r3, [ip, #652]
	str	lr, [sp, #4]
	ldr	ip, [ip, #664]
	str	ip, [sp]
	bl	dprint_vfmw
	ldr	r3, [r6, #2140]
	cmp	r3, r4
	bhi	.L576
.L577:
	ldr	r1, .L581+8
	mov	r0, #14
	bl	dprint_vfmw
	ldr	r3, [r6, #2144]
	cmp	r3, #0
	addne	r5, r5, #26368
	movne	r4, #0
	addne	r5, r5, #212
	beq	.L575
.L578:
	ldr	ip, [r5, #4]!
	mov	r2, r4
	ldr	r1, .L581+12
	mov	r0, #14
	ldrb	lr, [ip, #2]	@ zero_extendqisi2
	ldr	r3, [ip, #652]
	str	lr, [sp, #4]
	ldr	ip, [ip, #664]
	str	ip, [sp]
	bl	dprint_vfmw
	ldr	r3, [r5]
	mov	r2, r4
	ldr	r1, .L581+16
	mov	r0, #14
	add	r4, r4, #1
	ldr	r3, [r3, #708]
	bl	dprint_vfmw
	ldr	r3, [r6, #2144]
	cmp	r3, r4
	bhi	.L578
.L575:
	ldr	r1, .L581+8
	mov	r0, #14
	sub	sp, fp, #28
	ldmfd	sp, {r4, r5, r6, r7, fp, sp, lr}
	b	dprint_vfmw
.L571:
	sub	sp, fp, #28
	ldmfd	sp, {r4, r5, r6, r7, fp, sp, pc}
.L582:
	.align	2
.L581:
	.word	g_PrintEnable
	.word	.LC25
	.word	.LC2
	.word	.LC26
	.word	.LC27
	UNWIND(.fnend)
	.size	DumpDPB, .-DumpDPB
	.align	2
	.global	UpdateCurrFrameInfo
	.type	UpdateCurrFrameInfo, %function
UpdateCurrFrameInfo:
	UNWIND(.fnstart)
	@ args = 0, pretend = 0, frame = 0
	@ frame_needed = 1, uses_anonymous_args = 0
	UNWIND(.movsp ip)
	mov	ip, sp
	stmfd	sp!, {r4, r5, r6, r7, r8, r9, fp, ip, lr, pc}
	UNWIND(.pad #4)
	UNWIND(.save {r4, r5, r6, r7, r8, r9, fp, ip, lr})
	UNWIND(.setfp fp, ip, #-4)
	sub	fp, ip, #4
	add	r3, r0, #57344
	ldrb	r2, [r3, #3010]	@ zero_extendqisi2
	ldr	r4, [r3, #3656]
	strb	r2, [r4]
	ldrb	r2, [r3, #3012]	@ zero_extendqisi2
	cmp	r2, #0
	movne	r2, #3
	bne	.L584
	ldrb	r2, [r3, #3013]	@ zero_extendqisi2
	cmp	r2, #0
	movne	r2, #3
.L584:
	strb	r2, [r4, #2]
	ldr	r2, [r3, #3664]
	str	r2, [r4, #652]
	ldr	r2, [r3, #3700]
	str	r2, [r4, #680]
	ldr	r2, [r3, #3692]
	str	r2, [r4, #676]
	ldr	r2, [r3, #3676]
	str	r2, [r4, #664]
	ldr	r2, [r3, #3724]
	str	r2, [r4, #684]
	ldr	r2, [r3, #3668]
	str	r2, [r4, #660]
	ldrb	r2, [r3, #3017]	@ zero_extendqisi2
	str	r2, [r4, #672]
	ldrb	r2, [r3, #3015]	@ zero_extendqisi2
	cmp	r2, #1
	moveq	r1, #3
	movne	r1, #0
	strb	r1, [r4, #3]
	ldrb	r2, [r3, #3011]	@ zero_extendqisi2
	cmp	r2, #1
	beq	.L587
	bcc	.L588
	cmp	r2, #2
	ldmnefd	sp, {r4, r5, r6, r7, r8, r9, fp, sp, pc}
	str	r4, [r4, #812]
	mov	r0, #1
	strb	r0, [r4, #776]
	mov	r0, #0
	ldrb	ip, [r3, #3012]	@ zero_extendqisi2
	strb	ip, [r4, #777]
	ldrb	ip, [r3, #3013]	@ zero_extendqisi2
	strb	ip, [r4, #778]
	ldr	ip, [r3, #3684]
	str	ip, [r4, #788]
	ldr	lr, [r3, #3692]
	str	lr, [r4, #796]
	ldr	ip, [r3, #3700]
	str	r0, [r4, #672]
	str	ip, [r4, #792]
	ldrb	r5, [r3, #3009]	@ zero_extendqisi2
	cmp	r5, r0
	beq	.L605
	ldr	r2, [r4, #752]
	mov	r5, #3
	strb	r5, [r4, #1]
	mvn	r7, #0
	add	ip, ip, r2
	str	ip, [r4, #680]
	str	ip, [r4, #712]
	mvn	r6, #0
	ldrb	r2, [r3, #3015]	@ zero_extendqisi2
	cmp	r2, #1
	add	r2, r3, #3616
	orreq	r0, r1, #2
	strb	r0, [r4, #3]
	ldrd	r8, [r2, #-8]
	cmp	r9, r7
	cmpeq	r8, r6
	beq	.L596
	add	r2, r4, #608
	ldrd	r0, [r2, #-8]
	cmp	r1, r7
	cmpeq	r0, r6
	beq	.L606
.L596:
	ldr	r2, [r4, #756]
.L603:
	cmp	r2, lr
	mov	r0, r4
	movcc	r2, lr
	str	r2, [r4, #676]
	ldr	r3, [r3, #3676]
	str	r3, [r4, #664]
	sub	sp, fp, #36
	ldmfd	sp, {r4, r5, r6, r7, r8, r9, fp, sp, lr}
	b	CombineFldsToFrm
.L588:
	str	r4, [r4, #732]
	mov	r1, #3
	mov	r2, #0
	strb	r1, [r4, #1]
	strb	r2, [r4, #696]
	add	r1, r3, #3024
	ldrb	r5, [r3, #3012]	@ zero_extendqisi2
	mov	r2, #632
	add	r0, r4, #16
	strb	r5, [r4, #697]
	ldrb	r6, [r3, #3013]	@ zero_extendqisi2
	strb	r6, [r4, #698]
	ldr	ip, [r3, #3680]
	str	ip, [r4, #708]
	ldr	r7, [r3, #3692]
	str	r7, [r4, #716]
	ldr	r8, [r3, #3700]
	str	r8, [r4, #712]
	ldr	ip, [r3, #3684]
	str	ip, [r4, #748]
	ldr	r3, [r3, #3688]
	str	r3, [r4, #788]
	bl	memcpy
	mov	r2, #1
	mov	r3, #2
	str	r8, [r4, #752]
	str	r8, [r4, #792]
	str	r7, [r4, #756]
	str	r7, [r4, #796]
	strb	r6, [r4, #738]
	strb	r6, [r4, #778]
	strb	r5, [r4, #737]
	strb	r5, [r4, #777]
	str	r4, [r4, #772]
	str	r4, [r4, #812]
	strb	r2, [r4, #736]
	strb	r3, [r4, #776]
	ldmfd	sp, {r4, r5, r6, r7, r8, r9, fp, sp, pc}
.L587:
	strb	r2, [r4, #736]
	mov	r0, #0
	str	r4, [r4, #772]
	ldrb	ip, [r3, #3012]	@ zero_extendqisi2
	strb	ip, [r4, #737]
	ldrb	ip, [r3, #3013]	@ zero_extendqisi2
	strb	ip, [r4, #738]
	ldr	ip, [r3, #3684]
	str	ip, [r4, #748]
	ldr	lr, [r3, #3692]
	str	lr, [r4, #756]
	ldr	ip, [r3, #3700]
	str	r0, [r4, #672]
	str	ip, [r4, #752]
	ldrb	r5, [r3, #3009]	@ zero_extendqisi2
	cmp	r5, r0
	beq	.L607
	ldr	r2, [r4, #792]
	mov	r5, #3
	strb	r5, [r4, #1]
	mvn	r7, #0
	add	ip, ip, r2
	str	ip, [r4, #680]
	str	ip, [r4, #712]
	mvn	r6, #0
	ldrb	r2, [r3, #3015]	@ zero_extendqisi2
	cmp	r2, #1
	add	r2, r3, #3616
	orreq	r0, r1, #1
	strb	r0, [r4, #3]
	ldrd	r8, [r2, #-8]
	cmp	r9, r7
	cmpeq	r8, r6
	beq	.L592
	add	r2, r4, #608
	ldrd	r0, [r2, #-8]
	cmp	r1, r7
	cmpeq	r0, r6
	streqd	r8, [r2, #-8]
.L592:
	ldr	r2, [r4, #796]
	b	.L603
.L605:
	strb	r2, [r4, #1]
	add	r1, r3, #3024
	str	ip, [r4, #680]
	add	r0, r4, #16
	str	ip, [r4, #712]
	mov	r2, #632
	ldrb	r3, [r3, #3015]	@ zero_extendqisi2
	cmp	r3, #1
	moveq	r5, #2
	strb	r5, [r4, #3]
	bl	memcpy
	ldmfd	sp, {r4, r5, r6, r7, r8, r9, fp, sp, pc}
.L607:
	strb	r2, [r4, #1]
	add	r1, r3, #3024
	str	ip, [r4, #680]
	add	r0, r4, #16
	str	ip, [r4, #712]
	mov	r2, #632
	ldrb	r3, [r3, #3015]	@ zero_extendqisi2
	sub	r3, r3, #1
	clz	r3, r3
	mov	r3, r3, lsr #5
	strb	r3, [r4, #3]
	bl	memcpy
	ldmfd	sp, {r4, r5, r6, r7, r8, r9, fp, sp, pc}
.L606:
	strd	r8, [r2, #-8]
	b	.L596
	UNWIND(.fnend)
	.size	UpdateCurrFrameInfo, .-UpdateCurrFrameInfo
	.align	2
	.global	SimpleSlideDPB
	.type	SimpleSlideDPB, %function
SimpleSlideDPB:
	UNWIND(.fnstart)
	@ args = 0, pretend = 0, frame = 0
	@ frame_needed = 1, uses_anonymous_args = 0
	UNWIND(.movsp ip)
	mov	ip, sp
	stmfd	sp!, {r4, r5, fp, ip, lr, pc}
	UNWIND(.pad #4)
	UNWIND(.save {r4, r5, fp, ip, lr})
	UNWIND(.setfp fp, ip, #-4)
	sub	fp, ip, #4
	add	r3, r0, #24576
	mov	r4, r0
	ldr	r1, [r3, #2140]
	ldr	r2, [r3, #2136]
	cmp	r1, r2
	bcs	.L614
.L609:
	add	r0, r4, #57344
	mov	r2, #0
	ldr	r3, [r0, #3672]
	strb	r2, [r0, #3012]
	cmp	r3, r2
	movne	r3, #1
	strneb	r3, [r0, #3013]
	ldmfd	sp, {r4, r5, fp, sp, pc}
.L614:
	ldr	r1, [r3, #1944]
	bl	UnMarkFrameStoreRef
	mov	r1, #0
	mov	r0, r4
	bl	RemoveFrameStoreOutDPB
	b	.L609
	UNWIND(.fnend)
	.size	SimpleSlideDPB, .-SimpleSlideDPB
	.align	2
	.global	ReleaseNAL
	.type	ReleaseNAL, %function
ReleaseNAL:
	UNWIND(.fnstart)
	@ args = 0, pretend = 0, frame = 0
	@ frame_needed = 1, uses_anonymous_args = 0
	UNWIND(.movsp ip)
	mov	ip, sp
	stmfd	sp!, {r4, r5, r6, r7, fp, ip, lr, pc}
	UNWIND(.pad #4)
	UNWIND(.save {r4, r5, r6, r7, fp, ip, lr})
	UNWIND(.setfp fp, ip, #-4)
	sub	fp, ip, #4
	subs	r5, r1, #0
	mov	r6, r0
	beq	.L623
	add	r7, r5, #56
	mov	r4, r5
	mov	r3, #0
	strb	r3, [r5, #1]
	strb	r3, [r5, #4]
.L618:
	ldr	r3, [r4, #8]
	mov	r0, r6
	cmp	r3, #0
	beq	.L617
	ldr	r1, [r4, #32]
	bl	SM_ReleaseStreamSeg
	ldr	r3, [r4, #12]
	ldr	r2, [r4, #8]
	mov	r0, #7
	ldr	r1, .L624
	bl	dprint_vfmw
	mov	r3, #0
	str	r3, [r4, #8]
	str	r3, [r4, #24]
	str	r3, [r4, #12]
.L617:
	add	r4, r4, #28
	cmp	r4, r7
	bne	.L618
	mov	r3, #0
	strb	r3, [r5]
	str	r3, [r5, #68]
	ldmfd	sp, {r4, r5, r6, r7, fp, sp, pc}
.L623:
	mov	r0, r5
	movw	r3, #3961
	ldr	r2, .L624+4
	ldr	r1, .L624+8
	sub	sp, fp, #28
	ldmfd	sp, {r4, r5, r6, r7, fp, sp, lr}
	b	dprint_vfmw
.L625:
	.align	2
.L624:
	.word	.LC28
	.word	.LC21
	.word	.LC22
	UNWIND(.fnend)
	.size	ReleaseNAL, .-ReleaseNAL
	.align	2
	.global	ClearCurrNal
	.type	ClearCurrNal, %function
ClearCurrNal:
	UNWIND(.fnstart)
	@ args = 0, pretend = 0, frame = 0
	@ frame_needed = 1, uses_anonymous_args = 0
	UNWIND(.movsp ip)
	mov	ip, sp
	stmfd	sp!, {r4, r5, fp, ip, lr, pc}
	UNWIND(.pad #4)
	UNWIND(.save {r4, r5, fp, ip, lr})
	UNWIND(.setfp fp, ip, #-4)
	sub	fp, ip, #4
	ldr	r1, [r0, #368]
	mov	r4, r0
	cmp	r1, #0
	beq	.L627
	add	r3, r0, #61440
	ldr	r0, [r3, #2352]
	bl	ReleaseNAL
	mov	r3, #0
	str	r3, [r4, #368]
.L627:
	mov	r0, #0
	ldmfd	sp, {r4, r5, fp, sp, pc}
	UNWIND(.fnend)
	.size	ClearCurrNal, .-ClearCurrNal
	.align	2
	.global	ClearCurrSlice
	.type	ClearCurrSlice, %function
ClearCurrSlice:
	UNWIND(.fnstart)
	@ args = 0, pretend = 0, frame = 0
	@ frame_needed = 1, uses_anonymous_args = 0
	UNWIND(.movsp ip)
	mov	ip, sp
	stmfd	sp!, {r4, r5, fp, ip, lr, pc}
	UNWIND(.pad #4)
	UNWIND(.save {r4, r5, fp, ip, lr})
	UNWIND(.setfp fp, ip, #-4)
	sub	fp, ip, #4
	ldr	r1, .L636
	mov	r5, r0
	mov	r0, #1
	add	r4, r5, #61440
	bl	dprint_vfmw
	ldr	r1, [r5, #368]
	cmp	r1, #0
	beq	.L632
	ldr	r0, [r4, #2352]
	bl	ReleaseNAL
	mov	r3, #0
	str	r3, [r5, #368]
.L632:
	ldr	r3, [r4, #2308]
	mov	r0, #0
	add	r3, r3, #1
	str	r3, [r4, #2308]
	ldmfd	sp, {r4, r5, fp, sp, pc}
.L637:
	.align	2
.L636:
	.word	.LC29
	UNWIND(.fnend)
	.size	ClearCurrSlice, .-ClearCurrSlice
	.align	2
	.global	ClearAllNal
	.type	ClearAllNal, %function
ClearAllNal:
	UNWIND(.fnstart)
	@ args = 0, pretend = 0, frame = 0
	@ frame_needed = 1, uses_anonymous_args = 0
	UNWIND(.movsp ip)
	mov	ip, sp
	stmfd	sp!, {r4, r5, r6, r7, fp, ip, lr, pc}
	UNWIND(.pad #4)
	UNWIND(.save {r4, r5, r6, r7, fp, ip, lr})
	UNWIND(.setfp fp, ip, #-4)
	sub	fp, ip, #4
	add	r5, r0, #13504
	add	r4, r0, #376
	add	r5, r5, #24
	add	r6, r0, #61440
	b	.L640
.L639:
	add	r4, r4, #96
	cmp	r4, r5
	beq	.L642
.L640:
	ldrb	r3, [r4, #1]	@ zero_extendqisi2
	cmp	r3, #1
	bne	.L639
	mov	r1, r4
	ldr	r0, [r6, #2352]
	add	r4, r4, #96
	bl	ReleaseNAL
	cmp	r4, r5
	bne	.L640
.L642:
	mov	r0, #0
	ldmfd	sp, {r4, r5, r6, r7, fp, sp, pc}
	UNWIND(.fnend)
	.size	ClearAllNal, .-ClearAllNal
	.align	2
	.global	ClearAllSlice
	.type	ClearAllSlice, %function
ClearAllSlice:
	UNWIND(.fnstart)
	@ args = 0, pretend = 0, frame = 0
	@ frame_needed = 1, uses_anonymous_args = 0
	UNWIND(.movsp ip)
	mov	ip, sp
	stmfd	sp!, {r4, r5, r6, r7, fp, ip, lr, pc}
	UNWIND(.pad #4)
	UNWIND(.save {r4, r5, r6, r7, fp, ip, lr})
	UNWIND(.setfp fp, ip, #-4)
	sub	fp, ip, #4
	add	r4, r0, #61696
	add	r5, r0, #62208
	add	r4, r4, #156
	add	r5, r5, #188
	add	r6, r0, #61440
	mov	r7, #0
.L645:
	ldr	r1, [r4, #4]!
	cmp	r1, #0
	beq	.L644
	ldr	r0, [r6, #2352]
	bl	ReleaseNAL
	str	r7, [r4]
.L644:
	cmp	r4, r5
	bne	.L645
	mov	r0, #0
	str	r0, [r6, #2276]
	str	r0, [r6, #2336]
	ldmfd	sp, {r4, r5, r6, r7, fp, sp, pc}
	UNWIND(.fnend)
	.size	ClearAllSlice, .-ClearAllSlice
	.align	2
	.global	H264_ClearCurrPic
	.type	H264_ClearCurrPic, %function
H264_ClearCurrPic:
	UNWIND(.fnstart)
	@ args = 0, pretend = 0, frame = 0
	@ frame_needed = 1, uses_anonymous_args = 0
	UNWIND(.movsp ip)
	mov	ip, sp
	stmfd	sp!, {r4, r5, fp, ip, lr, pc}
	UNWIND(.pad #4)
	UNWIND(.save {r4, r5, fp, ip, lr})
	UNWIND(.setfp fp, ip, #-4)
	sub	fp, ip, #4
	mov	r4, r0
	bl	ClearAllSlice
	add	r0, r4, #12288
	add	r3, r4, #20480
	mov	r2, #0
	movw	r1, #23352
	ldr	r0, [r0, #1292]
	movt	r1, 1
	mov	ip, #2
	str	r1, [r3, #1864]
	strb	ip, [r3, #1849]
	mov	r1, #7
	str	r0, [r3, #1856]
	mov	r0, #32
	str	r1, [r3, #1860]
	mov	r1, #3
	strb	r0, [r3, #1850]
	mvn	r0, #0
	str	r1, [r3, #1872]
	mov	r1, #262144
	str	r0, [r3, #1876]
	mov	r0, r2
	str	r1, [r3, #1888]
	strb	r2, [r3, #1848]
	str	r2, [r3, #1880]
	str	r2, [r3, #1884]
	ldmfd	sp, {r4, r5, fp, sp, pc}
	UNWIND(.fnend)
	.size	H264_ClearCurrPic, .-H264_ClearCurrPic
	.align	2
	.global	H264_ArrangeVahbMem
	.type	H264_ArrangeVahbMem, %function
H264_ArrangeVahbMem:
	UNWIND(.fnstart)
	@ args = 4, pretend = 0, frame = 24
	@ frame_needed = 1, uses_anonymous_args = 0
	UNWIND(.movsp ip)
	mov	ip, sp
	stmfd	sp!, {r4, r5, r6, r7, fp, ip, lr, pc}
	UNWIND(.pad #4)
	UNWIND(.save {r4, r5, r6, r7, fp, ip, lr})
	UNWIND(.setfp fp, ip, #-4)
	sub	fp, ip, #4
	UNWIND(.pad #24)
	sub	sp, sp, #24
	mov	r4, r1
	sub	r3, r2, #32
	sub	r1, r1, #32
	movw	ip, #8160
	cmp	r3, ip
	cmpls	r1, ip
	mov	r5, r2
	mov	r6, r0
	movhi	r1, #1
	movls	r1, #0
	bhi	.L663
	ldr	r3, .L667
	mov	r2, #20
	sub	r0, fp, #48
	ldr	r3, [r3, #48]
	blx	r3
	ldr	r3, [r6]
	str	r4, [fp, #-44]
	str	r5, [fp, #-40]
	ldr	r3, [r3, #28]
	str	r4, [fp, #-36]
	cmp	r3, #24
	str	r5, [fp, #-32]
	beq	.L654
	add	r2, r6, #24576
	ldrb	r3, [fp, #4]	@ zero_extendqisi2
	mov	r1, #5
	strb	r1, [fp, #-46]
	ldr	r2, [r2, #2136]
	add	r2, r2, #1
	strb	r2, [fp, #-47]
.L660:
	cmp	r5, #63
	cmphi	r4, #63
	strb	r3, [fp, #-45]
	movls	r7, #1
	movhi	r7, #0
	bls	.L664
	add	r4, r6, #61440
	sub	r1, fp, #48
	ldr	r0, [r4, #2352]
	bl	FSP_ConfigInstance
	subs	r5, r0, #0
	bne	.L656
	ldr	r1, [r6]
	sub	r3, fp, #52
	ldr	r0, [r4, #2352]
	ldr	r2, [r1, #20]
	ldr	r1, [r1, #16]
	bl	FSP_ConfigFrameBuf
	cmp	r0, #2
	beq	.L665
	cmp	r0, #0
	moveq	r0, #1
	bne	.L666
.L661:
	sub	sp, fp, #28
	ldmfd	sp, {r4, r5, r6, r7, fp, sp, pc}
.L654:
	mov	r3, #1
	mov	r2, #5
	strb	r3, [fp, #-47]
	strb	r2, [fp, #-46]
	b	.L660
.L663:
	mov	r3, r2
	ldr	r1, .L667+4
	mov	r2, r4
	mov	r0, #0
	bl	dprint_vfmw
	mvn	r0, #19
	sub	sp, fp, #28
	ldmfd	sp, {r4, r5, r6, r7, fp, sp, pc}
.L664:
	mov	r3, r5
	mov	r2, r4
	ldr	r1, .L667+8
	mov	r0, #0
	bl	dprint_vfmw
	mvn	r0, #19
	b	.L661
.L656:
	mov	r0, r7
	ldr	r1, .L667+12
	bl	dprint_vfmw
.L662:
	mvn	r0, #19
	b	.L661
.L666:
	mov	r0, r5
	ldr	r1, .L667+16
	bl	dprint_vfmw
	b	.L662
.L665:
	add	r0, r6, #8
	bl	ResetVoQueue
	b	.L662
.L668:
	.align	2
.L667:
	.word	vfmw_Osal_Func_Ptr_S
	.word	.LC30
	.word	.LC31
	.word	.LC33
	.word	.LC32
	UNWIND(.fnend)
	.size	H264_ArrangeVahbMem, .-H264_ArrangeVahbMem
	.align	2
	.global	RepairList
	.type	RepairList, %function
RepairList:
	UNWIND(.fnstart)
	@ args = 0, pretend = 0, frame = 0
	@ frame_needed = 1, uses_anonymous_args = 0
	UNWIND(.movsp ip)
	mov	ip, sp
	stmfd	sp!, {r3, r4, r5, r6, r7, r8, r9, r10, fp, ip, lr, pc}
	UNWIND(.pad #4)
	UNWIND(.save {r3, r4, r5, r6, r7, r8, r9, r10, fp, ip, lr})
	UNWIND(.setfp fp, ip, #-4)
	sub	fp, ip, #4
	add	r3, r0, #20480
	mov	r4, r0
	ldrb	r2, [r3, #208]	@ zero_extendqisi2
	cmp	r2, #1
	beq	.L671
	bcc	.L686
	cmp	r2, #2
	bne	.L695
.L687:
	mov	r0, #0
	ldmfd	sp, {r3, r4, r5, r6, r7, r8, r9, r10, fp, sp, pc}
.L695:
	ldr	r1, .L699
	mov	r0, #1
	bl	dprint_vfmw
	mov	r0, r4
	bl	ClearCurrSlice
	mvn	r0, #0
	ldmfd	sp, {r3, r4, r5, r6, r7, r8, r9, r10, fp, sp, pc}
.L686:
	mov	r6, #1
.L672:
	add	r0, r4, #20480
	add	lr, r4, #26880
	add	r0, r0, #244
	mov	r5, #0
	add	lr, lr, #244
	add	r7, r4, #57344
	ldr	r3, [r0, #4]!
	mov	r2, r5
	mov	r8, #1
	cmp	r3, #0
	beq	.L674
.L697:
	ldr	r10, [lr]
	cmp	r10, #0
	bne	.L688
	mov	ip, lr
	mov	r1, r10
	b	.L676
.L677:
	ldr	r9, [ip, #4]!
	cmp	r9, #0
	bne	.L675
.L676:
	add	r1, r1, #1
	cmp	r1, r3
	bne	.L677
	ldr	r1, [r4]
	ldr	r1, [r1, #24]
	cmp	r1, #2
	bne	.L696
	ldr	r5, [r7, #3656]
	add	r5, r5, #696
.L679:
	mov	r9, r10
	mov	ip, lr
	mov	r1, #0
	b	.L685
.L681:
	ldr	r9, [ip, #4]!
.L685:
	add	r1, r1, #1
	cmp	r9, #0
	streq	r5, [ip]
	cmp	r1, r3
	bne	.L681
	add	r2, r2, #1
	add	lr, lr, #132
	cmp	r6, r2
	bls	.L687
.L694:
	ldr	r3, [r0, #4]!
	cmp	r3, #0
	bne	.L697
.L674:
	ldr	r1, [r4]
	ldr	r1, [r1, #24]
	cmp	r1, #2
	bne	.L698
	add	r2, r2, #1
	str	r8, [r0]
	cmp	r6, r2
	ldr	r3, [r7, #3656]
	add	lr, lr, #132
	add	r3, r3, #696
	str	r3, [lr, #-132]
	bhi	.L694
	b	.L687
.L688:
	mov	r9, r10
.L675:
	mov	r5, r9
	b	.L679
.L671:
	mov	r6, #2
	b	.L672
.L698:
	ldr	r1, .L699+4
.L692:
	mov	r0, #1
	bl	dprint_vfmw
	mov	r0, r4
	bl	ClearCurrSlice
	mvn	r0, #0
	ldmfd	sp, {r3, r4, r5, r6, r7, r8, r9, r10, fp, sp, pc}
.L696:
	mov	r2, r5
	mov	r3, #0
	ldr	r1, .L699+8
	b	.L692
.L700:
	.align	2
.L699:
	.word	.LC34
	.word	.LC36
	.word	.LC35
	UNWIND(.fnend)
	.size	RepairList, .-RepairList
	.align	2
	.global	GetShortTermPicPoint
	.type	GetShortTermPicPoint, %function
GetShortTermPicPoint:
	UNWIND(.fnstart)
	@ args = 0, pretend = 0, frame = 0
	@ frame_needed = 1, uses_anonymous_args = 0
	UNWIND(.movsp ip)
	mov	ip, sp
	stmfd	sp!, {r4, r5, fp, ip, lr, pc}
	UNWIND(.pad #4)
	UNWIND(.save {r4, r5, fp, ip, lr})
	UNWIND(.setfp fp, ip, #-4)
	sub	fp, ip, #4
	add	r3, r0, #20480
	ldrb	r4, [r3, #209]	@ zero_extendqisi2
	cmp	r4, #0
	beq	.L702
	ldrb	r3, [r3, #210]	@ zero_extendqisi2
	cmp	r3, #0
	movne	r4, #2
	moveq	r4, #1
.L702:
	add	r3, r0, #24576
	ldr	r5, [r3, #2144]
	cmp	r5, #0
	beq	.L710
	add	r3, r0, #26368
	mov	r2, #0
	add	r3, r3, #216
	b	.L707
.L720:
	ldrb	ip, [r0, #2]	@ zero_extendqisi2
	cmp	ip, #3
	beq	.L718
.L705:
	add	r2, r2, #1
	add	r3, r3, #4
	cmp	r2, r5
	beq	.L719
.L707:
	cmp	r4, #0
	ldr	r0, [r3]
	beq	.L720
	ldrb	lr, [r0, #2]	@ zero_extendqisi2
	tst	lr, #1
	beq	.L706
	ldr	ip, [r0, #736]
	bic	ip, ip, #-16777216
	bic	ip, ip, #255
	cmp	ip, #65536
	beq	.L721
.L706:
	tst	lr, #2
	beq	.L705
	ldr	ip, [r0, #776]
	bic	ip, ip, #-16777216
	bic	ip, ip, #255
	cmp	ip, #65536
	bne	.L705
	ldr	ip, [r0, #784]
	cmp	ip, r1
	bne	.L705
	add	r0, r0, #776
	ldmfd	sp, {r4, r5, fp, sp, pc}
.L718:
	ldr	ip, [r0, #696]
	bic	ip, ip, #-16777216
	bic	ip, ip, #255
	cmp	ip, #65536
	bne	.L705
	ldr	ip, [r0, #704]
	cmp	ip, r1
	bne	.L705
	add	r0, r0, #696
	ldmfd	sp, {r4, r5, fp, sp, pc}
.L721:
	ldr	ip, [r0, #744]
	cmp	ip, r1
	bne	.L706
	add	r0, r0, #736
	ldmfd	sp, {r4, r5, fp, sp, pc}
.L719:
	mov	r0, #0
	ldmfd	sp, {r4, r5, fp, sp, pc}
.L710:
	mov	r0, r5
	ldmfd	sp, {r4, r5, fp, sp, pc}
	UNWIND(.fnend)
	.size	GetShortTermPicPoint, .-GetShortTermPicPoint
	.align	2
	.global	GetLongTermPicPoint
	.type	GetLongTermPicPoint, %function
GetLongTermPicPoint:
	UNWIND(.fnstart)
	@ args = 0, pretend = 0, frame = 0
	@ frame_needed = 1, uses_anonymous_args = 0
	UNWIND(.movsp ip)
	mov	ip, sp
	stmfd	sp!, {r4, r5, fp, ip, lr, pc}
	UNWIND(.pad #4)
	UNWIND(.save {r4, r5, fp, ip, lr})
	UNWIND(.setfp fp, ip, #-4)
	sub	fp, ip, #4
	add	r3, r0, #20480
	ldrb	r4, [r3, #209]	@ zero_extendqisi2
	cmp	r4, #0
	beq	.L723
	ldrb	r3, [r3, #210]	@ zero_extendqisi2
	cmp	r3, #0
	movne	r4, #2
	moveq	r4, #1
.L723:
	add	r3, r0, #24576
	ldr	r5, [r3, #2148]
	cmp	r5, #0
	beq	.L731
	add	r3, r0, #26624
	mov	r2, #0
	add	r3, r3, #24
	b	.L728
.L741:
	ldrb	ip, [r0, #2]	@ zero_extendqisi2
	cmp	ip, #3
	beq	.L739
.L726:
	add	r2, r2, #1
	add	r3, r3, #4
	cmp	r2, r5
	beq	.L740
.L728:
	cmp	r4, #0
	ldr	r0, [r3]
	beq	.L741
	ldrb	lr, [r0, #2]	@ zero_extendqisi2
	tst	lr, #1
	beq	.L727
	ldr	ip, [r0, #736]
	bic	ip, ip, #-16777216
	bic	ip, ip, #255
	cmp	ip, #256
	beq	.L742
.L727:
	tst	lr, #2
	beq	.L726
	ldr	ip, [r0, #776]
	bic	ip, ip, #-16777216
	bic	ip, ip, #255
	cmp	ip, #256
	bne	.L726
	ldr	ip, [r0, #780]
	cmp	ip, r1
	bne	.L726
	add	r0, r0, #776
	ldmfd	sp, {r4, r5, fp, sp, pc}
.L739:
	ldr	ip, [r0, #696]
	bic	ip, ip, #-16777216
	bic	ip, ip, #255
	cmp	ip, #256
	bne	.L726
	ldr	ip, [r0, #700]
	cmp	ip, r1
	bne	.L726
	add	r0, r0, #696
	ldmfd	sp, {r4, r5, fp, sp, pc}
.L742:
	ldr	ip, [r0, #740]
	cmp	ip, r1
	bne	.L727
	add	r0, r0, #736
	ldmfd	sp, {r4, r5, fp, sp, pc}
.L740:
	mov	r0, #0
	ldmfd	sp, {r4, r5, fp, sp, pc}
.L731:
	mov	r0, r5
	ldmfd	sp, {r4, r5, fp, sp, pc}
	UNWIND(.fnend)
	.size	GetLongTermPicPoint, .-GetLongTermPicPoint
	.align	2
	.global	ReorderSTList
	.type	ReorderSTList, %function
ReorderSTList:
	UNWIND(.fnstart)
	@ args = 4, pretend = 0, frame = 0
	@ frame_needed = 1, uses_anonymous_args = 0
	UNWIND(.movsp ip)
	mov	ip, sp
	stmfd	sp!, {r4, r5, r6, r7, r8, r9, fp, ip, lr, pc}
	UNWIND(.pad #4)
	UNWIND(.save {r4, r5, r6, r7, r8, r9, fp, ip, lr})
	UNWIND(.setfp fp, ip, #-4)
	sub	fp, ip, #4
	ldr	r7, [fp, #4]
	mov	r5, r1
	mov	r1, r3
	mov	r8, r2
	mov	r6, r3
	bl	GetShortTermPicPoint
	ldr	r4, [r7]
	add	r2, r8, #1
	cmp	r2, r4
	ble	.L744
	add	lr, r5, r2, lsl #2
	mov	ip, r2
.L745:
	ldr	r3, [lr, #-4]!
	sub	ip, ip, #1
	str	r3, [lr, #4]
	ldr	r4, [r7]
	cmp	r4, ip
	blt	.L745
.L744:
	add	r3, r4, #1
	str	r3, [r7]
	str	r0, [r5, r4, asl #2]
	ldr	ip, [r7]
	cmp	r2, ip
	ldmltfd	sp, {r4, r5, r6, r7, r8, r9, fp, sp, pc}
	add	r2, r8, #2
	add	r4, r5, ip, lsl #2
	mov	lr, ip
.L749:
	ldr	r0, [r4], #4
	add	ip, ip, #1
	cmp	r0, #0
	beq	.L747
	ldrb	r3, [r0, #1]	@ zero_extendqisi2
	cmp	r3, #0
	bne	.L748
	ldr	r3, [r0, #8]
	cmp	r3, r6
	beq	.L747
.L748:
	str	r0, [r5, lr, asl #2]
	add	lr, lr, #1
.L747:
	cmp	ip, r2
	bne	.L749
	ldmfd	sp, {r4, r5, r6, r7, r8, r9, fp, sp, pc}
	UNWIND(.fnend)
	.size	ReorderSTList, .-ReorderSTList
	.align	2
	.global	ReorderLTList
	.type	ReorderLTList, %function
ReorderLTList:
	UNWIND(.fnstart)
	@ args = 4, pretend = 0, frame = 0
	@ frame_needed = 1, uses_anonymous_args = 0
	UNWIND(.movsp ip)
	mov	ip, sp
	stmfd	sp!, {r4, r5, r6, r7, r8, r9, fp, ip, lr, pc}
	UNWIND(.pad #4)
	UNWIND(.save {r4, r5, r6, r7, r8, r9, fp, ip, lr})
	UNWIND(.setfp fp, ip, #-4)
	sub	fp, ip, #4
	ldr	r7, [fp, #4]
	mov	r5, r1
	mov	r1, r3
	mov	r8, r2
	mov	r6, r3
	bl	GetLongTermPicPoint
	ldr	r4, [r7]
	add	r2, r8, #1
	cmp	r2, r4
	ble	.L757
	add	lr, r5, r2, lsl #2
	mov	ip, r2
.L758:
	ldr	r3, [lr, #-4]!
	sub	ip, ip, #1
	str	r3, [lr, #4]
	ldr	r4, [r7]
	cmp	r4, ip
	blt	.L758
.L757:
	add	r3, r4, #1
	str	r3, [r7]
	str	r0, [r5, r4, asl #2]
	ldr	ip, [r7]
	cmp	r2, ip
	ldmltfd	sp, {r4, r5, r6, r7, r8, r9, fp, sp, pc}
	add	r2, r8, #2
	add	r4, r5, ip, lsl #2
	mov	lr, ip
.L762:
	ldr	r0, [r4], #4
	add	ip, ip, #1
	cmp	r0, #0
	beq	.L760
	ldrb	r3, [r0, #1]	@ zero_extendqisi2
	cmp	r3, #0
	beq	.L761
	ldr	r3, [r0, #4]
	cmp	r3, r6
	beq	.L760
.L761:
	str	r0, [r5, lr, asl #2]
	add	lr, lr, #1
.L760:
	cmp	ip, r2
	bne	.L762
	ldmfd	sp, {r4, r5, r6, r7, r8, r9, fp, sp, pc}
	UNWIND(.fnend)
	.size	ReorderLTList, .-ReorderLTList
	.align	2
	.global	ReorderRefPiclist
	.type	ReorderRefPiclist, %function
ReorderRefPiclist:
	UNWIND(.fnstart)
	@ args = 12, pretend = 0, frame = 24
	@ frame_needed = 1, uses_anonymous_args = 0
	UNWIND(.movsp ip)
	mov	ip, sp
	stmfd	sp!, {r4, r5, r6, r7, r8, r9, r10, fp, ip, lr, pc}
	UNWIND(.pad #4)
	UNWIND(.save {r4, r5, r6, r7, r8, r9, r10, fp, ip, lr})
	UNWIND(.setfp fp, ip, #-4)
	sub	fp, ip, #4
	UNWIND(.pad #36)
	sub	sp, sp, #36
	add	r2, r0, #20480
	str	r1, [fp, #-56]
	mov	r8, r3
	ldrb	r1, [r2, #209]	@ zero_extendqisi2
	mov	r3, #0
	mov	r7, r0
	str	r3, [fp, #-48]
	cmp	r1, r3
	ldr	ip, [fp, #4]
	add	r3, r0, #12288
	beq	.L773
	ldr	lr, [r2, #216]
	mov	r4, #2208
	ldr	r5, [r3, #1304]
	mov	r0, #4000
	ldr	r6, [r2, #224]
	mov	r1, #2
	ldr	r3, [r3, #1300]
	mla	r2, r4, lr, r5
	mov	lr, r6, asl #1
	add	lr, lr, #1
	str	lr, [fp, #-64]
	ldr	r2, [r2, #28]
	mla	r3, r0, r2, r3
	ldr	r3, [r3, #2196]
	add	r3, r3, #4
	mov	r3, r1, asl r3
	str	r3, [fp, #-60]
.L783:
	adds	r9, r8, #2
	beq	.L772
	ldr	r3, [ip]
	cmp	r3, #3
	beq	.L772
	mov	r2, r8
	ldr	r6, [fp, #8]
	ldr	r5, [fp, #-64]
	mov	r4, #0
	mov	r8, ip
	mov	r10, r2
	b	.L776
.L777:
	ldr	r3, [fp, #12]
	sub	r1, fp, #48
	mov	r2, r10
	mov	r0, r7
	ldr	r3, [r3, r4, asl #2]
	add	r4, r4, #1
	str	r1, [sp]
	ldr	r1, [fp, #-56]
	bl	ReorderLTList
	cmp	r4, r9
	beq	.L772
.L782:
	ldr	r3, [r8, #4]!
	add	r6, r6, #4
	cmp	r3, #3
	beq	.L772
.L776:
	cmp	r3, #1
	bhi	.L777
	cmp	r3, #0
	ldr	r3, [r6]
	bne	.L778
	mvn	r3, r3
	adds	r5, r5, r3
	ldrmi	r3, [fp, #-60]
	addmi	r5, r5, r3
.L779:
	ldr	r3, [fp, #-64]
	sub	r2, fp, #48
	ldr	r1, [fp, #-56]
	mov	r0, r7
	cmp	r3, r5
	str	r2, [sp]
	add	r4, r4, #1
	mov	r2, r10
	ldrlt	r3, [fp, #-60]
	movge	r3, r5
	rsblt	r3, r3, r5
	bl	ReorderSTList
	cmp	r4, r9
	bne	.L782
.L772:
	sub	sp, fp, #40
	ldmfd	sp, {r4, r5, r6, r7, r8, r9, r10, fp, sp, pc}
.L778:
	add	r3, r3, #1
	add	r5, r5, r3
	ldr	r3, [fp, #-60]
	cmp	r3, r5
	rsble	r5, r3, r5
	b	.L779
.L773:
	ldr	r1, [r2, #216]
	mov	r4, #2208
	ldr	r5, [r3, #1304]
	mov	lr, #4000
	ldr	r2, [r2, #224]
	mov	r0, #1
	ldr	r3, [r3, #1300]
	mla	r1, r4, r1, r5
	str	r2, [fp, #-64]
	ldr	r2, [r1, #28]
	mla	r3, lr, r2, r3
	ldr	r3, [r3, #2196]
	add	r3, r3, #4
	mov	r3, r0, asl r3
	str	r3, [fp, #-60]
	b	.L783
	UNWIND(.fnend)
	.size	ReorderRefPiclist, .-ReorderRefPiclist
	.align	2
	.global	ReorderListX
	.type	ReorderListX, %function
ReorderListX:
	UNWIND(.fnstart)
	@ args = 0, pretend = 0, frame = 0
	@ frame_needed = 1, uses_anonymous_args = 0
	UNWIND(.movsp ip)
	mov	ip, sp
	stmfd	sp!, {r4, r5, r6, r7, fp, ip, lr, pc}
	UNWIND(.pad #4)
	UNWIND(.save {r4, r5, r6, r7, fp, ip, lr})
	UNWIND(.setfp fp, ip, #-4)
	sub	fp, ip, #4
	UNWIND(.pad #16)
	sub	sp, sp, #16
	add	r4, r0, #20480
	mov	r5, r0
	ldrb	r3, [r4, #208]	@ zero_extendqisi2
	cmp	r3, #2
	beq	.L791
	add	r6, r0, #16384
	ldrb	r2, [r6, #3512]	@ zero_extendqisi2
	cmp	r2, #0
	bne	.L803
.L794:
	cmp	r3, #1
	ldr	r3, [r4, #260]
	add	r3, r3, #1
	str	r3, [r4, #248]
	bne	.L791
	ldrb	r3, [r6, #3513]	@ zero_extendqisi2
	cmp	r3, #0
	bne	.L804
.L796:
	ldr	r3, [r4, #264]
	add	r3, r3, #1
	str	r3, [r4, #252]
.L791:
	sub	sp, fp, #28
	ldmfd	sp, {r4, r5, r6, r7, fp, sp, pc}
.L803:
	add	r7, r0, #20224
	add	lr, r0, #19968
	add	ip, r0, #19712
	add	r1, r0, #26880
	ldr	r3, [r4, #260]
	add	lr, lr, #196
	add	ip, ip, #188
	add	r7, r7, #204
	stmia	sp, {ip, lr}
	add	r2, r4, #248
	str	r7, [sp, #8]
	add	r1, r1, #244
	bl	ReorderRefPiclist
	ldrb	r3, [r4, #208]	@ zero_extendqisi2
	b	.L794
.L804:
	add	lr, r5, #20480
	add	ip, r5, #20224
	add	r0, r5, #19968
	add	r1, r5, #27136
	ldr	r3, [r4, #264]
	mov	r2, lr
	add	ip, ip, #72
	add	lr, lr, #76
	add	r0, r0, #64
	str	lr, [sp, #8]
	stmia	sp, {r0, ip}
	add	r2, r2, #252
	add	r1, r1, #120
	mov	r0, r5
	bl	ReorderRefPiclist
	b	.L796
	UNWIND(.fnend)
	.size	ReorderListX, .-ReorderListX
	.align	2
	.global	GenPiclistfromFrmlist
	.type	GenPiclistfromFrmlist, %function
GenPiclistfromFrmlist:
	UNWIND(.fnstart)
	@ args = 8, pretend = 0, frame = 8
	@ frame_needed = 1, uses_anonymous_args = 0
	UNWIND(.movsp ip)
	mov	ip, sp
	stmfd	sp!, {r4, r5, r6, r7, r8, r9, r10, fp, ip, lr, pc}
	UNWIND(.pad #4)
	UNWIND(.save {r4, r5, r6, r7, r8, r9, r10, fp, ip, lr})
	UNWIND(.setfp fp, ip, #-4)
	sub	fp, ip, #4
	UNWIND(.pad #12)
	sub	sp, sp, #12
	cmp	r2, #31
	ldr	r6, [fp, #8]
	mov	r7, r1
	ldr	lr, .L868
	movcc	r4, r2
	ldr	ip, .L868+4
	movcs	r4, #31
	cmp	r6, #0
	str	r3, [fp, #-52]
	movne	r6, lr
	moveq	r6, ip
	cmp	r0, #1
	moveq	r5, #0
	moveq	r10, r5
	beq	.L808
	cmp	r0, #2
	moveq	r5, #0
	moveq	r10, r5
	bne	.L816
.L817:
	cmp	r10, r4
	movcs	r3, #0
	movcc	r3, #1
	cmp	r5, r4
	str	r3, [fp, #-48]
	movcs	r2, #0
	movcc	r2, #1
	orrs	r3, r2, r3
	beq	.L816
	cmp	r2, #0
	beq	.L822
	add	r8, r7, r5, lsl #2
	b	.L821
.L818:
	add	r5, r5, #1
	cmp	r4, r5
	bls	.L822
.L821:
	mov	r9, r8
	ldr	r0, [r8], #4
	ldrb	ip, [r0, #1]	@ zero_extendqisi2
	tst	ip, #2
	beq	.L818
	add	r0, r0, #776
	blx	r6
	cmp	r0, #0
	beq	.L818
	ldr	r3, [fp, #4]
	add	r5, r5, #1
	ldr	r2, [r9]
	ldr	r0, [r3]
	add	r2, r2, #776
	ldr	r3, [fp, #-52]
	str	r2, [r3, r0, asl #2]
	ldr	r3, [fp, #4]
	ldr	r2, [r3]
	add	r2, r2, #1
	str	r2, [r3]
.L822:
	ldr	r3, [fp, #-48]
	cmp	r3, #0
	addne	r8, r7, r10, lsl #2
	bne	.L824
	b	.L817
.L823:
	add	r10, r10, #1
	cmp	r4, r10
	bls	.L817
.L824:
	mov	r9, r8
	ldr	r0, [r8], #4
	ldrb	r2, [r0, #1]	@ zero_extendqisi2
	tst	r2, #1
	beq	.L823
	add	r0, r0, #736
	blx	r6
	cmp	r0, #0
	beq	.L823
	ldr	r3, [fp, #4]
	add	r10, r10, #1
	ldr	r2, [r9]
	ldr	r0, [r3]
	add	r2, r2, #736
	ldr	r3, [fp, #-52]
	str	r2, [r3, r0, asl #2]
	ldr	r3, [fp, #4]
	ldr	r2, [r3]
	add	r2, r2, #1
	str	r2, [r3]
	b	.L817
.L867:
	add	r0, r0, #736
	blx	r6
	cmp	r0, #0
	beq	.L809
	ldr	r3, [fp, #4]
	add	r10, r10, #1
	ldr	r2, [r8]
	ldr	r0, [r3]
	add	r2, r2, #736
	ldr	r3, [fp, #-52]
	str	r2, [r3, r0, asl #2]
	ldr	r3, [fp, #4]
	ldr	r2, [r3]
	add	r2, r2, #1
	str	r2, [r3]
.L813:
	ldr	r3, [fp, #-48]
	cmp	r3, #0
	addne	r8, r7, r5, lsl #2
	bne	.L815
	b	.L808
.L814:
	add	r5, r5, #1
	cmp	r4, r5
	bls	.L808
.L815:
	mov	r9, r8
	ldr	r0, [r8], #4
	ldrb	r2, [r0, #1]	@ zero_extendqisi2
	tst	r2, #2
	beq	.L814
	add	r0, r0, #776
	blx	r6
	cmp	r0, #0
	beq	.L814
	ldr	r3, [fp, #4]
	add	r5, r5, #1
	ldr	r2, [r9]
	ldr	r0, [r3]
	add	r2, r2, #776
	ldr	r3, [fp, #-52]
	str	r2, [r3, r0, asl #2]
	ldr	r3, [fp, #4]
	ldr	r2, [r3]
	add	r2, r2, #1
	str	r2, [r3]
.L808:
	cmp	r10, r4
	movcs	r2, #0
	movcc	r2, #1
	cmp	r5, r4
	movcs	r3, #0
	movcc	r3, #1
	str	r3, [fp, #-48]
	orrs	r3, r3, r2
	beq	.L816
	cmp	r2, #0
	beq	.L813
	add	r9, r7, r10, lsl #2
	b	.L812
.L809:
	add	r10, r10, #1
	cmp	r4, r10
	bls	.L813
.L812:
	mov	r8, r9
	ldr	r0, [r9], #4
	ldrb	ip, [r0, #1]	@ zero_extendqisi2
	tst	ip, #1
	beq	.L809
	b	.L867
.L816:
	mov	r0, #0
	sub	sp, fp, #40
	ldmfd	sp, {r4, r5, r6, r7, r8, r9, r10, fp, sp, pc}
.L869:
	.align	2
.L868:
	.word	IsLTRefFlg
	.word	IsSTRefFlg
	UNWIND(.fnend)
	.size	GenPiclistfromFrmlist, .-GenPiclistfromFrmlist
	.align	2
	.global	InitListX
	.type	InitListX, %function
InitListX:
	UNWIND(.fnstart)
	@ args = 0, pretend = 0, frame = 208
	@ frame_needed = 1, uses_anonymous_args = 0
	UNWIND(.movsp ip)
	mov	ip, sp
	stmfd	sp!, {r4, r5, r6, r7, r8, r9, r10, fp, ip, lr, pc}
	UNWIND(.pad #4)
	UNWIND(.save {r4, r5, r6, r7, r8, r9, r10, fp, ip, lr})
	UNWIND(.setfp fp, ip, #-4)
	sub	fp, ip, #4
	UNWIND(.pad #220)
	sub	sp, sp, #220
	add	r6, r0, #20480
	mov	r4, r0
	add	r8, r0, #57344
	ldrb	r3, [r6, #208]	@ zero_extendqisi2
	cmp	r3, #0
	bne	.L871
	ldrb	r7, [r8, #3011]	@ zero_extendqisi2
	cmp	r7, #0
	bne	.L995
	add	r3, r0, #24576
	str	r3, [fp, #-240]
	ldr	ip, [r3, #2144]
	cmp	ip, #0
	beq	.L938
	add	r1, r0, #26368
	mov	r3, r7
	add	r1, r1, #212
	b	.L877
.L876:
	cmp	r3, ip
	beq	.L875
.L877:
	ldr	r2, [r1, #4]!
	add	r3, r3, #1
	ldrb	r0, [r2, #2]	@ zero_extendqisi2
	cmp	r0, #3
	bne	.L876
	ldr	r0, [r2, #696]
	bic	r0, r0, #-16777216
	bic	r0, r0, #255
	cmp	r0, #65536
	bne	.L876
	add	r0, r7, #6720
	cmp	r3, ip
	add	r0, r0, #60
	add	r2, r2, #696
	add	r7, r7, #1
	add	r0, r4, r0, lsl #2
	str	r2, [r0, #4]
	bne	.L877
.L875:
	add	r0, r4, #26880
	ldr	r3, .L1003
	mov	r1, r7
	add	r0, r0, #244
	mov	r2, #4
	bl	qsort
	ldr	r3, [fp, #-240]
	str	r7, [r6, #248]
	ldr	r1, [r3, #2148]
	cmp	r1, #0
	beq	.L939
	add	r0, r4, #26624
	mov	r5, r7
	add	r0, r0, #20
	mov	r3, #0
	b	.L880
.L879:
	cmp	r3, r1
	beq	.L996
.L880:
	ldr	r2, [r0, #4]!
	add	r3, r3, #1
	ldrb	ip, [r2, #2]	@ zero_extendqisi2
	cmp	ip, #3
	bne	.L879
	ldr	ip, [r2, #696]
	bic	ip, ip, #-16777216
	bic	ip, ip, #255
	cmp	ip, #256
	bne	.L879
	add	ip, r5, #6720
	cmp	r3, r1
	add	ip, ip, #60
	add	r2, r2, #696
	add	r5, r5, #1
	add	ip, r4, ip, lsl #2
	str	r2, [ip, #4]
	bne	.L880
.L996:
	rsb	r1, r7, r5
.L878:
	add	r0, r4, r7, lsl #2
	ldr	r3, .L1003+4
	add	r0, r0, #26880
	mov	r2, #4
	add	r0, r0, #244
	bl	qsort
	mov	r2, r5
	cmp	r2, #0
	mov	r3, #0
	str	r5, [r6, #248]
	str	r3, [r6, #252]
	beq	.L997
.L886:
	ldr	r0, [r6, #260]
	ldr	r1, [r6, #264]
	add	r0, r0, #1
	cmp	r2, r0
	add	r1, r1, #1
	movcs	r2, r0
	cmp	r3, r1
	str	r2, [r6, #248]
	movcs	r3, r1
	cmp	r2, #32
	str	r3, [r6, #252]
	bhi	.L930
	add	r2, r2, #6720
	add	r1, r4, #27136
	add	r2, r2, #60
	add	r1, r1, #116
	mov	r0, #0
	add	r2, r4, r2, lsl #2
.L929:
	str	r0, [r2, #4]!
	cmp	r2, r1
	bne	.L929
.L930:
	cmp	r3, #32
	bhi	.L928
	add	r3, r3, #6784
	add	r2, r4, #27136
	add	r3, r3, #29
	add	r2, r2, #248
	mov	r1, #0
	add	r4, r4, r3, lsl #2
.L931:
	str	r1, [r4, #4]!
	cmp	r4, r2
	bne	.L931
.L928:
	mov	r0, #0
.L981:
	sub	sp, fp, #40
	ldmfd	sp, {r4, r5, r6, r7, r8, r9, r10, fp, sp, pc}
.L871:
	ldrb	r5, [r8, #3011]	@ zero_extendqisi2
	add	r3, r0, #24576
	str	r3, [fp, #-240]
	cmp	r5, #0
	beq	.L892
	ldr	ip, [r3, #2144]
	cmp	ip, #0
	beq	.L998
	add	r9, r0, #26368
	mov	r5, #0
	add	r9, r9, #212
	mov	r3, r5
	mov	r1, r9
.L911:
	ldr	r2, [r1, #4]!
	add	r3, r3, #1
	ldrb	r0, [r2, #1]	@ zero_extendqisi2
	cmp	r0, #0
	beq	.L910
	sub	r0, fp, #44
	ldr	lr, [r8, #3676]
	add	r7, r0, r5, lsl #2
	ldr	r0, [r2, #664]
	cmp	lr, r0
	strge	r2, [r7, #-192]
	addge	r5, r5, #1
.L910:
	cmp	r3, ip
	bne	.L911
	sub	r10, fp, #236
	ldr	r3, .L1003+8
	mov	r2, #4
	mov	r1, r5
	mov	r0, r10
	bl	qsort
	ldr	r3, [fp, #-240]
	ldr	r7, [r3, #2144]
	cmp	r7, #0
	beq	.L992
.L936:
	mov	r3, r9
	mov	r2, #0
	mov	r9, r5
.L914:
	ldr	r1, [r3, #4]!
	add	r2, r2, #1
	ldrb	r0, [r1, #1]	@ zero_extendqisi2
	cmp	r0, #0
	beq	.L913
	sub	r0, fp, #44
	ldr	ip, [r8, #3676]
	add	lr, r0, r9, lsl #2
	ldr	r0, [r1, #664]
	cmp	ip, r0
	strlt	r1, [lr, #-192]
	addlt	r9, r9, #1
.L913:
	cmp	r2, r7
	bne	.L914
	rsb	r7, r5, r9
	mov	r3, r5, asl #2
	add	r0, r10, r3
	str	r3, [fp, #-244]
	mov	r1, r7
	ldr	r3, .L1003+12
	mov	r2, #4
	bl	qsort
	cmp	r5, #0
	subeq	ip, fp, #172
	beq	.L915
.L933:
	sub	ip, fp, #172
	mov	r2, r10
	add	r7, ip, r7, lsl #2
	mov	r3, #0
.L916:
	add	r3, r3, #1
	ldr	r1, [r2], #4
	cmp	r3, r5
	str	r1, [r7], #4
	bcc	.L916
.L915:
	cmp	r9, r5
	bls	.L917
	ldr	r3, [fp, #-244]
	add	r2, r10, r3
	mov	r3, ip
.L918:
	add	r5, r5, #1
	ldr	r1, [r2], #4
	cmp	r5, r9
	str	r1, [r3], #4
	bne	.L918
.L917:
	add	r2, r4, #20480
	add	r3, r4, #26880
	add	r2, r2, #248
	mov	r5, #0
	add	r3, r3, #244
	str	r5, [r6, #248]
	str	r5, [r6, #252]
	mov	r1, r10
	ldrb	r0, [r8, #3011]	@ zero_extendqisi2
	add	r10, r4, #27136
	str	ip, [fp, #-252]
	mov	ip, r2
	str	r2, [fp, #-248]
	mov	r2, r9
	str	ip, [sp]
	add	r10, r10, #120
	str	r5, [sp, #4]
	str	r3, [fp, #-244]
	bl	GenPiclistfromFrmlist
	ldr	ip, [fp, #-252]
	add	r3, r4, #20480
	ldrb	r0, [r8, #3011]	@ zero_extendqisi2
	mov	r2, r9
	mov	lr, r3
	str	r5, [sp, #4]
	mov	r1, ip
	mov	r3, r10
	add	ip, lr, #252
	str	ip, [sp]
	str	ip, [fp, #-252]
	bl	GenPiclistfromFrmlist
	ldr	r3, [fp, #-240]
	ldr	r7, [r3, #2148]
	cmp	r7, r5
	subeq	r9, fp, #108
	beq	.L919
	add	r3, r4, #26624
	sub	r9, fp, #108
	add	r3, r3, #20
	mov	r2, r9
.L920:
	add	r5, r5, #1
	ldr	r1, [r3, #4]!
	cmp	r5, r7
	str	r1, [r2], #4
	bne	.L920
.L919:
	ldr	r3, .L1003+16
	mov	r2, #4
	mov	r1, r7
	mov	r0, r9
	bl	qsort
	ldr	r3, [fp, #-248]
	ldrb	r0, [r8, #3011]	@ zero_extendqisi2
	mov	r5, #1
	mov	r2, r7
	mov	r1, r9
	str	r3, [sp]
	str	r5, [sp, #4]
	ldr	r3, [fp, #-244]
	bl	GenPiclistfromFrmlist
	ldr	r2, [fp, #-252]
	ldrb	r0, [r8, #3011]	@ zero_extendqisi2
	mov	r3, r10
	mov	r1, r9
	str	r5, [sp, #4]
	str	r2, [sp]
	mov	r2, r7
	bl	GenPiclistfromFrmlist
	ldr	r2, [r6, #248]
	ldr	r3, [r6, #252]
	rsb	r1, r3, r2
	clz	r1, r1
	mov	r1, r1, lsr #5
.L909:
	cmp	r2, #1
	movls	r1, #0
	andhi	r1, r1, #1
	cmp	r1, #0
	beq	.L921
	cmp	r2, #0
	ldr	r1, [fp, #-240]
	beq	.L922
	ldr	r7, [r1, #2548]
	ldr	r1, [r1, #2680]
	cmp	r7, r1
	bne	.L921
	add	r0, r4, #27136
	ldr	ip, [fp, #-244]
	add	r0, r0, #120
	mov	r1, #0
	b	.L923
.L924:
	ldr	r5, [ip, #4]!
	ldr	lr, [r0, #4]!
	cmp	r5, lr
	bne	.L921
.L923:
	add	r1, r1, #1
	cmp	r1, r2
	bne	.L924
.L925:
	ldr	r0, [fp, #-240]
	ldr	r1, [r0, #2684]
	str	r7, [r0, #2684]
	str	r1, [r0, #2680]
.L921:
	orrs	r1, r2, r3
	bne	.L886
	ldr	r1, .L1003+20
.L987:
	mov	r0, #1
	bl	dprint_vfmw
	mov	r0, r4
	bl	ClearCurrSlice
	mvn	r0, #0
	b	.L981
.L892:
	ldr	r10, [r3, #2144]
	cmp	r10, #0
	beq	.L895
	add	r9, r0, #26368
	mov	r3, r5
	add	r9, r9, #212
	mov	r1, r9
	b	.L897
.L896:
	cmp	r3, r10
	beq	.L999
.L897:
	ldr	r2, [r1, #4]!
	add	r3, r3, #1
	ldrb	r0, [r2, #2]	@ zero_extendqisi2
	cmp	r0, #3
	bne	.L896
	add	r0, r5, #6720
	ldr	ip, [r2, #708]
	add	r0, r0, #60
	ldr	lr, [r8, #3680]
	add	r2, r2, #696
	add	r0, r4, r0, lsl #2
	cmp	lr, ip
	addge	r5, r5, #1
	strge	r2, [r0, #4]
	cmp	r3, r10
	bne	.L897
.L999:
	add	r3, r4, #26880
	mov	r1, r5
	mov	r2, r3
	add	r2, r2, #244
	ldr	r3, .L1003+24
	mov	r0, r2
	str	r2, [fp, #-244]
	mov	r2, #4
	bl	qsort
	ldr	r3, [fp, #-240]
	ldr	r7, [r3, #2144]
	cmp	r7, #0
	beq	.L991
.L934:
	mov	r3, r9
	mov	r10, r5
	mov	r2, #0
	b	.L900
.L899:
	cmp	r2, r7
	beq	.L1000
.L900:
	ldr	r1, [r3, #4]!
	add	r2, r2, #1
	ldrb	r0, [r1, #2]	@ zero_extendqisi2
	cmp	r0, #3
	bne	.L899
	add	r0, r10, #6720
	ldr	ip, [r1, #708]
	add	r0, r0, #60
	ldr	lr, [r8, #3680]
	add	r1, r1, #696
	add	r0, r4, r0, lsl #2
	cmp	lr, ip
	addlt	r10, r10, #1
	strlt	r1, [r0, #4]
	cmp	r2, r7
	bne	.L900
.L1000:
	add	r8, r5, #6720
	rsb	r7, r5, r10
	add	r8, r8, #60
	mov	r2, #4
	ldr	r3, .L1003+28
	mov	r1, r7
	add	r0, r4, r8, lsl #2
	add	r9, r4, r10, lsl #2
	add	r0, r0, r2
	add	r9, r9, #26880
	bl	qsort
	cmp	r5, #0
	add	r9, r9, #244
	beq	.L902
.L932:
	add	r7, r7, #6784
	add	r2, r4, #26880
	add	r7, r7, #29
	add	r2, r2, #240
	mov	r3, #0
	add	r7, r4, r7, lsl #2
.L903:
	add	r3, r3, #1
	ldr	r1, [r2, #4]!
	cmp	r3, r5
	str	r1, [r7, #4]!
	bcc	.L903
.L902:
	cmp	r10, r5
	bls	.L904
	add	r3, r4, #27136
	add	r8, r4, r8, lsl #2
	add	r3, r3, #116
.L905:
	add	r5, r5, #1
	ldr	r2, [r8, #4]!
	cmp	r5, r10
	str	r2, [r3, #4]!
	bne	.L905
.L904:
	ldr	r3, [fp, #-240]
	str	r10, [r6, #252]
	str	r10, [r6, #248]
	ldr	r1, [r3, #2148]
	cmp	r1, #0
	beq	.L941
	add	r0, r4, #26624
	mov	r5, r10
	add	r0, r0, #20
	mov	r3, #0
	b	.L908
.L907:
	cmp	r3, r1
	beq	.L1001
.L908:
	ldr	r2, [r0, #4]!
	add	r3, r3, #1
	ldrb	ip, [r2, #1]	@ zero_extendqisi2
	cmp	ip, #3
	bne	.L907
	ldrb	ip, [r2, #697]	@ zero_extendqisi2
	cmp	ip, #1
	bne	.L907
	add	ip, r4, r5, lsl #2
	cmp	r3, r1
	add	ip, ip, #24576
	add	r2, r2, #696
	add	r5, r5, #1
	str	r2, [ip, #2548]
	str	r2, [ip, #2680]
	bne	.L908
.L1001:
	rsb	r1, r10, r5
.L906:
	mov	r0, r9
	ldr	r3, .L1003+4
	mov	r2, #4
	bl	qsort
	ldr	r0, [r6, #248]
	ldr	r3, .L1003+4
	mov	r2, #4
	rsb	r1, r0, r5
	add	r0, r4, r0, lsl #2
	add	r0, r0, #27136
	add	r0, r0, #120
	bl	qsort
	mov	r3, r5
	str	r5, [r6, #252]
	mov	r2, r5
	str	r5, [r6, #248]
	mov	r1, #1
	b	.L909
.L995:
	add	r2, r0, #24576
	str	r2, [fp, #-240]
	ldr	lr, [r2, #2144]
	cmp	lr, #0
	moveq	r7, lr
	beq	.L874
	add	r1, r0, #26368
	mov	r7, r3
	add	r1, r1, #212
.L883:
	ldr	r2, [r1, #4]!
	sub	r0, fp, #44
	add	ip, r0, r7, lsl #2
	add	r3, r3, #1
	ldrb	r0, [r2, #2]	@ zero_extendqisi2
	cmp	r0, #0
	strne	r2, [ip, #-192]
	addne	r7, r7, #1
	cmp	r3, lr
	bne	.L883
.L874:
	add	r10, r4, #26880
	mov	r1, r7
	ldr	r3, .L1003+32
	mov	r2, #4
	sub	r0, fp, #236
	add	r10, r10, #244
	bl	qsort
	add	ip, r4, #20480
	add	ip, ip, #248
	mov	r5, #0
	mov	r2, r7
	str	r5, [r6, #248]
	mov	r3, r10
	ldrb	r0, [r8, #3011]	@ zero_extendqisi2
	sub	r1, fp, #236
	str	ip, [sp]
	str	r5, [sp, #4]
	str	ip, [fp, #-244]
	bl	GenPiclistfromFrmlist
	ldr	r3, [fp, #-240]
	ldr	ip, [fp, #-244]
	ldr	r7, [r3, #2148]
	cmp	r7, r5
	subeq	r9, fp, #108
	beq	.L884
	add	r3, r4, #26624
	sub	r9, fp, #108
	add	r3, r3, #20
	mov	r2, r9
.L885:
	add	r5, r5, #1
	ldr	r1, [r3, #4]!
	cmp	r5, r7
	str	r1, [r2], #4
	bne	.L885
.L884:
	ldr	r3, .L1003+16
	mov	r2, #4
	mov	r1, r7
	mov	r0, r9
	str	ip, [fp, #-244]
	bl	qsort
	ldr	ip, [fp, #-244]
	mov	r3, r10
	ldrb	r0, [r8, #3011]	@ zero_extendqisi2
	mov	r2, r7
	mov	r1, r9
	str	ip, [sp]
	mov	ip, #1
	str	ip, [sp, #4]
	bl	GenPiclistfromFrmlist
	ldr	r2, [r6, #248]
	mov	r3, #0
	str	r3, [r6, #252]
	cmp	r2, #0
	bne	.L886
.L997:
	ldr	r3, [r4]
	ldr	r3, [r3, #24]
	cmp	r3, #2
	bne	.L887
	ldrb	r3, [r8, #3011]	@ zero_extendqisi2
	cmp	r3, #0
	beq	.L1002
	cmp	r3, #1
	ldr	r2, [fp, #-240]
	ldr	r3, [r8, #3656]
	addeq	r3, r3, #736
	addne	r3, r3, #776
	str	r3, [r2, #2548]
.L889:
	mov	r3, #0
	mov	r2, #1
	b	.L886
.L1002:
	ldr	r2, [fp, #-240]
	ldr	r3, [r8, #3656]
	add	r3, r3, #696
	str	r3, [r2, #2548]
	b	.L889
.L922:
	ldr	r7, [r1, #2680]
	b	.L925
.L991:
	add	r8, r5, #6720
	mov	r2, #4
	add	r8, r8, #60
	ldr	r3, .L1003+28
	mov	r1, r7
	add	r9, r4, r8, lsl #2
	add	r9, r9, r2
	mov	r0, r9
	bl	qsort
	subs	r10, r5, #0
	bne	.L932
	b	.L904
.L992:
	mov	r3, r5, asl #2
	mov	r1, r7
	str	r3, [fp, #-244]
	mov	r2, r3
	ldr	r3, .L1003+12
	add	r0, r10, r2
	mov	r2, #4
	bl	qsort
	subs	r9, r5, #0
	bne	.L933
.L988:
	sub	ip, fp, #172
	b	.L917
.L938:
	mov	r7, ip
	b	.L875
.L998:
	sub	r10, fp, #236
	ldr	r3, .L1003+8
	mov	r1, ip
	mov	r2, #4
	mov	r0, r10
	str	ip, [fp, #-244]
	bl	qsort
	ldr	r3, [fp, #-240]
	ldr	ip, [fp, #-244]
	ldr	r7, [r3, #2144]
	cmp	r7, #0
	addne	r9, r4, #26368
	movne	r5, ip
	addne	r9, r9, #212
	bne	.L936
	ldr	r3, .L1003+12
	mov	r2, #4
	mov	r1, r7
	mov	r0, r10
	mov	r9, r7
	bl	qsort
	b	.L988
.L895:
	add	r3, r0, #26880
	mov	r1, r10
	mov	r2, r3
	add	r2, r2, #244
	ldr	r3, .L1003+24
	mov	r0, r2
	str	r2, [fp, #-244]
	mov	r2, #4
	bl	qsort
	ldr	r3, [fp, #-240]
	ldr	r7, [r3, #2144]
	cmp	r7, #0
	addne	r9, r4, #26368
	movne	r5, r10
	addne	r9, r9, #212
	bne	.L934
	ldr	r9, [fp, #-244]
	mov	r2, #4
	ldr	r3, .L1003+28
	mov	r1, r7
	mov	r10, r7
	mov	r0, r9
	bl	qsort
	b	.L904
.L939:
	mov	r5, r7
	b	.L878
.L941:
	mov	r5, r10
	b	.L906
.L887:
	ldr	r1, .L1003+36
	b	.L987
.L1004:
	.align	2
.L1003:
	.word	compare_pic_by_pic_num_desc
	.word	compare_pic_by_lt_pic_num_asc
	.word	compare_fs_by_poc_desc
	.word	compare_fs_by_poc_asc
	.word	compare_fs_by_lt_pic_idx_asc
	.word	.LC38
	.word	compare_pic_by_poc_desc
	.word	compare_pic_by_poc_asc
	.word	compare_fs_by_frame_num_desc
	.word	.LC37
	UNWIND(.fnend)
	.size	InitListX, .-InitListX
	.align	2
	.global	DumpList
	.type	DumpList, %function
DumpList:
	UNWIND(.fnstart)
	@ args = 0, pretend = 0, frame = 0
	@ frame_needed = 1, uses_anonymous_args = 0
	UNWIND(.movsp ip)
	mov	ip, sp
	stmfd	sp!, {fp, ip, lr, pc}
	UNWIND(.pad #4)
	UNWIND(.save {fp, ip, lr})
	UNWIND(.setfp fp, ip, #-4)
	sub	fp, ip, #4
	ldr	r3, .L1007
	ldr	r3, [r3]
	tst	r3, #8192
	ldmeqfd	sp, {fp, sp, pc}
	sub	sp, fp, #12
	ldmia	sp, {fp, sp, lr}
	b	DumpList.part.7
.L1008:
	.align	2
.L1007:
	.word	g_PrintEnable
	UNWIND(.fnend)
	.size	DumpList, .-DumpList
	.align	2
	.global	FindNearestPOCPicId
	.type	FindNearestPOCPicId, %function
FindNearestPOCPicId:
	UNWIND(.fnstart)
	@ args = 0, pretend = 0, frame = 0
	@ frame_needed = 1, uses_anonymous_args = 0
	UNWIND(.movsp ip)
	mov	ip, sp
	stmfd	sp!, {r4, r5, fp, ip, lr, pc}
	UNWIND(.pad #4)
	UNWIND(.save {r4, r5, fp, ip, lr})
	UNWIND(.setfp fp, ip, #-4)
	sub	fp, ip, #4
	add	r3, r0, #24576
	ldr	r4, [r3, #2140]
	cmp	r4, #0
	beq	.L1014
	ldr	r3, [r3, #1944]
	add	r2, r0, #57344
	ldr	r5, [r2, #3676]
	ldr	lr, [r3, #664]
	rsb	lr, lr, r5
	cmp	lr, #0
	rsblt	lr, lr, #0
	cmp	r4, #1
	bls	.L1015
	add	r1, r0, #26368
	mov	r2, #1
	add	r1, r1, #152
	mov	r0, #0
.L1013:
	ldr	ip, [r1, #4]!
	add	r2, r2, #1
	ldr	r3, [ip, #664]
	rsb	r3, r3, r5
	cmp	r3, #0
	rsblt	r3, r3, #0
	cmp	r3, lr
	ldrlt	r0, [ip, #164]
	movlt	lr, r3
	cmp	r2, r4
	bne	.L1013
	ldmfd	sp, {r4, r5, fp, sp, pc}
.L1015:
	mov	r0, #0
	ldmfd	sp, {r4, r5, fp, sp, pc}
.L1014:
	mvn	r0, #0
	ldmfd	sp, {r4, r5, fp, sp, pc}
	UNWIND(.fnend)
	.size	FindNearestPOCPicId, .-FindNearestPOCPicId
	.align	2
	.global	FindMinRefIdx
	.type	FindMinRefIdx, %function
FindMinRefIdx:
	UNWIND(.fnstart)
	@ args = 0, pretend = 0, frame = 0
	@ frame_needed = 1, uses_anonymous_args = 0
	UNWIND(.movsp ip)
	mov	ip, sp
	stmfd	sp!, {r4, r5, r6, r7, r8, fp, ip, lr, pc}
	UNWIND(.pad #4)
	UNWIND(.save {r4, r5, r6, r7, r8, fp, ip, lr})
	UNWIND(.setfp fp, ip, #-4)
	sub	fp, ip, #4
	add	r3, r0, #20480
	ldrb	r2, [r3, #208]	@ zero_extendqisi2
	cmp	r2, #2
	ldmeqfd	sp, {r4, r5, r6, r7, r8, fp, sp, pc}
	add	r2, r0, #57344
	add	r5, r0, #26880
	ldrb	ip, [r2, #3011]	@ zero_extendqisi2
	cmp	ip, #0
	bne	.L1047
	ldr	lr, [r3, #248]
	mov	r4, r5
	mov	r6, r5
	mov	r7, ip
	cmp	lr, #0
	add	r5, r5, #116
	add	r4, r4, #120
	add	r6, r6, #240
	beq	.L1025
.L1049:
	mov	r2, r6
	mov	r0, #32
	mov	r3, #0
	b	.L1023
.L1022:
	add	r3, r3, #1
	cmp	r3, lr
	beq	.L1048
.L1023:
	ldr	r1, [r2, #4]!
	ldr	r1, [r1, #36]
	ldr	r1, [r1, #688]
	cmp	r1, ip
	bne	.L1022
	cmp	r0, r3
	movcs	r0, r3
	add	r3, r3, #1
	cmp	r3, lr
	str	r0, [r4, #-4]
	str	r0, [r5, #4]
	bne	.L1023
.L1048:
	cmp	r0, #31
	bhi	.L1025
.L1024:
	add	ip, ip, #1
	add	r5, r5, #8
	cmp	ip, #16
	add	r4, r4, #8
	ldmeqfd	sp, {r4, r5, r6, r7, r8, fp, sp, pc}
	cmp	lr, #0
	bne	.L1049
.L1025:
	str	r7, [r4, #-4]
	str	r7, [r5, #4]
	b	.L1024
.L1047:
	ldr	r4, [r3, #248]
	mov	ip, #0
	mov	r6, r5
	mov	r7, ip
	cmp	r4, #0
	add	r5, r5, #116
	add	r6, r6, #240
	beq	.L1029
.L1051:
	mov	r1, r6
	mov	lr, #32
	mov	r2, #0
	b	.L1027
.L1026:
	add	r2, r2, #1
	cmp	r2, r4
	beq	.L1050
.L1027:
	ldr	r3, [r1, #4]!
	ldr	r8, [r3, #36]
	ldrb	r0, [r3]	@ zero_extendqisi2
	ldr	r3, [r8, #688]
	mov	r3, r3, asl #1
	cmp	r0, #2
	orreq	r3, r3, #1
	cmp	r3, ip
	bne	.L1026
	cmp	lr, r2
	movcs	lr, r2
	add	r2, r2, #1
	cmp	r2, r4
	str	lr, [r5]
	bne	.L1027
.L1050:
	cmp	lr, #31
	bhi	.L1029
.L1028:
	add	ip, ip, #1
	add	r5, r5, #4
	cmp	ip, #32
	ldmeqfd	sp, {r4, r5, r6, r7, r8, fp, sp, pc}
	cmp	r4, #0
	bne	.L1051
.L1029:
	str	r7, [r5]
	b	.L1028
	UNWIND(.fnend)
	.size	FindMinRefIdx, .-FindMinRefIdx
	.align	2
	.global	DecList
	.type	DecList, %function
DecList:
	UNWIND(.fnstart)
	@ args = 0, pretend = 0, frame = 0
	@ frame_needed = 1, uses_anonymous_args = 0
	UNWIND(.movsp ip)
	mov	ip, sp
	stmfd	sp!, {r4, r5, r6, r7, fp, ip, lr, pc}
	UNWIND(.pad #4)
	UNWIND(.save {r4, r5, r6, r7, fp, ip, lr})
	UNWIND(.setfp fp, ip, #-4)
	sub	fp, ip, #4
	mov	r6, r0
	bl	FindNearestPOCPicId
	add	r5, r6, #20480
	mvn	r4, #0
	ldrb	r3, [r5, #208]	@ zero_extendqisi2
	str	r4, [r5, #1832]
	cmp	r3, #2
	str	r0, [r5, #1836]
	beq	.L1065
	mov	r0, r6
	bl	InitListX
	cmp	r0, #0
	bne	.L1066
	ldr	r4, .L1069
	mov	r0, #13
	ldr	r1, .L1069+4
	bl	dprint_vfmw
	ldr	r3, [r4]
	tst	r3, #8192
	bne	.L1067
.L1056:
	mov	r0, r6
	bl	ReorderListX
	mov	r0, r6
	bl	RepairList
	cmp	r0, #0
	bne	.L1058
	mov	r0, r6
	bl	FindMinRefIdx
	add	r3, r6, #24576
	mov	r0, #13
	ldr	r1, .L1069+8
	ldr	r3, [r3, #2548]
	cmp	r3, #0
	ldrne	r3, [r3, #36]
	mvneq	r3, #0
	ldrne	r3, [r3, #164]
	str	r3, [r5, #1832]
	bl	dprint_vfmw
	ldr	r4, [r4]
	ands	r4, r4, #8192
	bne	.L1068
	mov	r0, #0
	ldmfd	sp, {r4, r5, r6, r7, fp, sp, pc}
.L1068:
	mov	r0, r6
	bl	DumpList.part.7
	mov	r0, #0
	ldmfd	sp, {r4, r5, r6, r7, fp, sp, pc}
.L1065:
	mov	r0, #0
	str	r0, [r5, #248]
	str	r0, [r5, #252]
	ldmfd	sp, {r4, r5, r6, r7, fp, sp, pc}
.L1067:
	mov	r0, r6
	bl	DumpList.part.7
	b	.L1056
.L1058:
	mvn	r0, #0
	ldmfd	sp, {r4, r5, r6, r7, fp, sp, pc}
.L1066:
	ldr	r1, .L1069+12
	mov	r0, #13
	bl	dprint_vfmw
	mov	r0, r4
	ldmfd	sp, {r4, r5, r6, r7, fp, sp, pc}
.L1070:
	.align	2
.L1069:
	.word	g_PrintEnable
	.word	.LC40
	.word	.LC41
	.word	.LC39
	UNWIND(.fnend)
	.size	DecList, .-DecList
	.align	2
	.global	NoPicOut
	.type	NoPicOut, %function
NoPicOut:
	UNWIND(.fnstart)
	@ args = 0, pretend = 0, frame = 0
	@ frame_needed = 1, uses_anonymous_args = 0
	UNWIND(.movsp ip)
	mov	ip, sp
	stmfd	sp!, {r4, fp, ip, lr, pc}
	UNWIND(.pad #4)
	UNWIND(.save {r4, fp, ip, lr})
	UNWIND(.setfp fp, ip, #-4)
	sub	fp, ip, #4
	add	r4, r0, #61440
	ldr	ip, [r4, #1028]
	cmp	ip, #0
	addne	r3, r0, #27904
	movne	r2, #0
	addne	r3, r3, #156
	movne	lr, r2
	bne	.L1077
	b	.L1078
.L1086:
	ldrb	r1, [r3, #-664]	@ zero_extendqisi2
	cmp	r1, #1
	beq	.L1075
	cmp	r2, ip
	add	r3, r3, #824
	beq	.L1078
.L1077:
	ldr	r1, [r3]
	add	r2, r2, #1
	cmp	r1, #1
	bne	.L1086
.L1075:
	cmp	r2, ip
	strb	lr, [r3, #-667]
	strb	lr, [r3, #-666]
	add	r3, r3, #824
	bne	.L1077
.L1078:
	ldr	r2, [r4, #1032]
	cmp	r2, #0
	beq	.L1087
	add	r0, r0, #62208
	mov	r3, #0
	add	r0, r0, #188
	mov	r1, r3
.L1079:
	add	r3, r3, #1
	str	r1, [r0, #4]!
	cmp	r3, r2
	bne	.L1079
	ldmfd	sp, {r4, fp, sp, pc}
.L1087:
	ldmfd	sp, {r4, fp, sp, pc}
	UNWIND(.fnend)
	.size	NoPicOut, .-NoPicOut
	.align	2
	.global	GetBackPicFromVOQueue
	.type	GetBackPicFromVOQueue, %function
GetBackPicFromVOQueue:
	UNWIND(.fnstart)
	@ args = 0, pretend = 0, frame = 0
	@ frame_needed = 1, uses_anonymous_args = 0
	UNWIND(.movsp ip)
	mov	ip, sp
	stmfd	sp!, {r3, r4, r5, r6, r7, r8, r9, r10, fp, ip, lr, pc}
	UNWIND(.pad #4)
	UNWIND(.save {r3, r4, r5, r6, r7, r8, r9, r10, fp, ip, lr})
	UNWIND(.setfp fp, ip, #-4)
	sub	fp, ip, #4
	add	r5, r0, #61440
	mov	r9, r0
	ldr	r0, [r5, #2352]
	bl	FSP_GetFspType
	cmp	r0, #0
	beq	.L1105
.L1089:
	ldr	r3, [r5, #1028]
	cmp	r3, #0
	beq	.L1096
	add	r10, r9, #27904
	mov	r6, #0
	add	r10, r10, #72
	mov	r7, #0
	mov	r8, #0
.L1095:
	sub	r4, r10, #32
	mov	r3, #0
	strb	r3, [r10, #-583]
	strb	r3, [r10, #-582]
.L1094:
	ldr	r1, [r4, #8]!
	cmp	r1, #0
	beq	.L1093
	ldr	r0, [r5, #2352]
	bl	FreeUsdByDec
	strd	r6, [r4]
.L1093:
	cmp	r4, r10
	bne	.L1094
	ldr	r3, [r5, #1028]
	add	r8, r8, #1
	add	r10, r10, #824
	cmp	r3, r8
	bhi	.L1095
.L1096:
	ldr	r2, [r5, #1032]
	cmp	r2, #0
	beq	.L1106
	add	r9, r9, #62208
	mov	r3, #0
	add	r9, r9, #188
	mov	r1, r3
.L1097:
	add	r3, r3, #1
	str	r1, [r9, #4]!
	cmp	r3, r2
	bne	.L1097
	ldmfd	sp, {r3, r4, r5, r6, r7, r8, r9, r10, fp, sp, pc}
.L1105:
	add	r0, r9, #8
	bl	ResetVoQueue
	b	.L1089
.L1106:
	ldmfd	sp, {r3, r4, r5, r6, r7, r8, r9, r10, fp, sp, pc}
	UNWIND(.fnend)
	.size	GetBackPicFromVOQueue, .-GetBackPicFromVOQueue
	.align	2
	.global	wait_vo
	.type	wait_vo, %function
wait_vo:
	UNWIND(.fnstart)
	@ args = 0, pretend = 0, frame = 0
	@ frame_needed = 1, uses_anonymous_args = 0
	UNWIND(.movsp ip)
	mov	ip, sp
	stmfd	sp!, {fp, ip, lr, pc}
	UNWIND(.pad #4)
	UNWIND(.save {fp, ip, lr})
	UNWIND(.setfp fp, ip, #-4)
	sub	fp, ip, #4
	ldmfd	sp, {fp, sp, pc}
	UNWIND(.fnend)
	.size	wait_vo, .-wait_vo
	.align	2
	.global	GetReRangeFlag
	.type	GetReRangeFlag, %function
GetReRangeFlag:
	UNWIND(.fnstart)
	@ args = 0, pretend = 0, frame = 8
	@ frame_needed = 1, uses_anonymous_args = 0
	UNWIND(.movsp ip)
	mov	ip, sp
	stmfd	sp!, {r4, r5, r6, r7, r8, fp, ip, lr, pc}
	UNWIND(.pad #4)
	UNWIND(.save {r4, r5, r6, r7, r8, fp, ip, lr})
	UNWIND(.setfp fp, ip, #-4)
	sub	fp, ip, #4
	UNWIND(.pad #12)
	sub	sp, sp, #12
	add	r7, r0, #12288
	add	r3, r0, #20480
	mov	r5, r0
	ldr	r0, [r7, #1304]
	mov	ip, #2208
	ldr	r3, [r3, #216]
	mov	r4, #4000
	ldr	r2, [r7, #1300]
	mov	r6, r1
	ldr	lr, [r7, #1276]
	mla	r3, ip, r3, r0
	ldr	r0, [r7, #1280]
	ldr	r3, [r3, #28]
	mla	r4, r4, r3, r2
	ldrb	r3, [r4, #18]	@ zero_extendqisi2
	ldr	r1, [r4, #3252]
	rsb	r3, r3, #2
	ldr	r2, [r4, #3248]
	mla	r3, r1, r3, r3
	add	r2, r2, #1
	cmp	r2, lr
	cmpeq	r3, r0
	movne	r1, #1
	moveq	r1, #0
	bne	.L1109
	add	ip, r5, #24576
	ldr	r8, [r4, #3272]
	ldr	ip, [ip, #2136]
	add	ip, ip, #1
	cmp	r8, ip
	moveq	r3, r1
	beq	.L1110
.L1109:
	ldr	r1, .L1114
	ldr	ip, [r1]
	cmp	ip, #0
	beq	.L1113
	add	r1, r5, #61440
	mov	r0, r0, asl #4
	mov	r2, r2, asl #4
	mov	r3, r3, asl #4
	mov	lr, lr, asl #4
	strh	r0, [fp, #-42]	@ movhi
	strh	r2, [fp, #-40]	@ movhi
	sub	r2, fp, #44
	strh	r3, [fp, #-38]	@ movhi
	mov	r3, #8
	ldr	r0, [r1, #2352]
	mov	r1, #2
	strh	lr, [fp, #-44]	@ movhi
	blx	ip
.L1113:
	ldr	ip, [r4, #3272]
	mov	r3, #1
.L1110:
	add	r5, r5, #16384
	ldr	r2, [r4, #36]
	ldr	lr, [r7, #1344]
	mov	r0, r3
	ldr	r1, [r5, #484]
	cmp	lr, r2
	cmpeq	r1, ip
	movne	r2, #1
	moveq	r2, #0
	orr	r3, r2, r3
	str	r3, [r6]
	sub	sp, fp, #32
	ldmfd	sp, {r4, r5, r6, r7, r8, fp, sp, pc}
.L1115:
	.align	2
.L1114:
	.word	g_event_report
	UNWIND(.fnend)
	.size	GetReRangeFlag, .-GetReRangeFlag
	.global	__aeabi_uidiv
	.global	__aeabi_uidivmod
	.align	2
	.global	DecPOC
	.type	DecPOC, %function
DecPOC:
	UNWIND(.fnstart)
	@ args = 0, pretend = 0, frame = 0
	@ frame_needed = 1, uses_anonymous_args = 0
	UNWIND(.movsp ip)
	mov	ip, sp
	stmfd	sp!, {r4, r5, r6, r7, r8, r9, fp, ip, lr, pc}
	UNWIND(.pad #4)
	UNWIND(.save {r4, r5, r6, r7, r8, r9, fp, ip, lr})
	UNWIND(.setfp fp, ip, #-4)
	sub	fp, ip, #4
	add	r2, r0, #12288
	add	r6, r0, #20480
	mov	r4, #2208
	mov	r5, #4000
	ldr	r1, [r6, #216]
	mov	ip, #1
	ldr	r3, [r2, #1304]
	ldr	lr, [r2, #1300]
	ldrb	r2, [r6, #211]	@ zero_extendqisi2
	mla	r3, r4, r1, r3
	sub	r2, r2, #5
	clz	r2, r2
	mov	r2, r2, lsr #5
	ldr	r3, [r3, #28]
	mla	r5, r5, r3, lr
	ldr	r1, [r5, #2200]
	ldr	r3, [r5, #2196]
	cmp	r1, ip
	ldr	lr, [r5, #2204]
	add	r3, r3, #4
	mov	r3, ip, asl r3
	beq	.L1118
	bcc	.L1119
	cmp	r1, #2
	ldmnefd	sp, {r4, r5, r6, r7, r8, r9, fp, sp, pc}
	cmp	r2, #0
	add	r4, r0, #16384
	bne	.L1174
	ldr	r1, [r4, #3444]
	cmp	r1, #0
	bne	.L1152
	ldr	r2, [r4, #3484]
	ldr	r0, [r4, #3480]
	ldr	r1, [r4, #3492]
	cmp	r2, r0
	addcc	r1, r1, r3
	strcc	r1, [r4, #3488]
	bcs	.L1154
.L1155:
	add	r3, r1, r2
	str	r3, [r4, #3476]
	ldr	r0, [r6, #236]
	mov	r3, r3, asl #1
	cmp	r0, #0
	subeq	r3, r3, #1
	str	r3, [r4, #3464]
	ldrb	r0, [r6, #209]	@ zero_extendqisi2
	cmp	r0, #0
	bne	.L1158
	str	r3, [r4, #3460]
	str	r3, [r4, #3456]
	str	r3, [r4, #3452]
.L1151:
	str	r2, [r4, #3480]
	str	r1, [r4, #3492]
	ldmfd	sp, {r4, r5, r6, r7, r8, r9, fp, sp, pc}
.L1119:
	cmp	r2, #0
	add	lr, lr, #4
	add	r4, r0, #16384
	mov	ip, ip, asl lr
	bne	.L1125
	ldr	r3, [r4, #3444]
	cmp	r3, #0
	bne	.L1123
	ldr	lr, [r4, #3428]
	ldr	r1, [r4, #3432]
	mov	r2, lr
.L1124:
	ldr	r0, [r4, #3420]
	cmp	r0, r1
	bcs	.L1122
	rsb	r3, r0, r1
	cmp	r3, ip, lsr #1
	addcs	r2, r2, ip
	strcs	r2, [r4, #3436]
	bcc	.L1122
.L1126:
	ldrb	r3, [r6, #209]	@ zero_extendqisi2
	cmp	r3, #0
	bne	.L1128
.L1176:
	ldr	r3, [r4, #3424]
	add	r2, r2, r0
	str	r2, [r4, #3452]
	add	r3, r2, r3
	str	r3, [r4, #3456]
	cmp	r3, r2
	movge	r3, r2
	str	r3, [r4, #3464]
.L1129:
	ldr	r2, [r4, #3484]
	ldr	r1, [r4, #3480]
	str	r3, [r4, #3460]
	cmp	r2, r1
	strne	r2, [r4, #3480]
	ldr	r3, [r6, #236]
	cmp	r3, #0
	ldrne	r2, [r4, #3420]
	ldrne	r3, [r4, #3436]
	strne	r2, [r4, #3432]
	strne	r3, [r4, #3428]
	ldmfd	sp, {r4, r5, r6, r7, r8, r9, fp, sp, pc}
.L1118:
	cmp	r2, #0
	add	r4, r0, #16384
	movne	r3, #0
	strne	r3, [r4, #3488]
	bne	.L1133
	ldr	r1, [r4, #3444]
	cmp	r1, #0
	beq	.L1134
	mov	r3, r2
	str	r2, [r4, #3492]
	str	r2, [r4, #3480]
.L1135:
	str	r3, [r4, #3488]
.L1133:
	ldr	r3, [r5, #2216]
	cmp	r3, #0
	beq	.L1137
	ldr	r3, [r4, #3484]
	ldr	r0, [r4, #3488]
	add	r0, r3, r0
	str	r0, [r4, #3476]
	ldr	r7, [r6, #236]
	cmp	r7, #0
	bne	.L1139
	cmp	r0, #0
	beq	.L1140
	sub	r0, r0, #1
	str	r0, [r4, #3476]
.L1139:
	mov	r3, #0
	str	r3, [r4, #3508]
	ldr	r1, [r5, #2216]
	cmp	r1, r3
	bgt	.L1160
	cmp	r0, #0
	beq	.L1143
.L1177:
	sub	r8, r0, #1
	mov	r0, r8
	bl	__aeabi_uidiv
	mov	r9, r0
	mov	r0, r8
	str	r9, [r4, #3500]
	ldr	r1, [r5, #2216]
	bl	__aeabi_uidivmod
	ldr	r0, [r4, #3508]
	mul	r0, r0, r9
	str	r0, [r4, #3504]
	cmp	r1, #0
	str	r1, [r4, #3496]
	blt	.L1144
	add	r2, r5, #2208
	add	r1, r1, #1
	add	r2, r2, #8
	mov	r3, #0
.L1145:
	add	r3, r3, #1
	ldr	ip, [r2, #4]!
	cmp	r3, r1
	add	r0, r0, ip
	str	r0, [r4, #3504]
	bne	.L1145
.L1144:
	cmp	r7, #0
	ldreq	r3, [r5, #2208]
	addeq	r0, r0, r3
	streq	r0, [r4, #3504]
	ldrb	r3, [r6, #209]	@ zero_extendqisi2
	cmp	r3, #0
	bne	.L1147
	ldr	r2, [r4, #3468]
	ldr	r1, [r4, #3472]
	add	r2, r0, r2
	str	r2, [r4, #3452]
	ldr	r3, [r5, #2212]
	add	r3, r2, r3
	add	r0, r3, r1
	str	r0, [r4, #3456]
	cmp	r0, r2
	movge	r0, r2
	str	r0, [r4, #3464]
.L1148:
	ldr	r2, [r4, #3484]
	ldr	r3, [r4, #3488]
	str	r0, [r4, #3460]
	str	r2, [r4, #3480]
	str	r3, [r4, #3492]
	ldmfd	sp, {r4, r5, r6, r7, r8, r9, fp, sp, pc}
.L1123:
	ldr	lr, [r4, #3448]
	cmp	lr, #0
	beq	.L1175
.L1125:
	ldr	r0, [r4, #3420]
	mov	r3, #0
	mov	lr, r3
	mov	r2, r1
	str	r3, [r4, #3428]
	str	r3, [r4, #3432]
.L1122:
	cmp	r0, r1
	bls	.L1127
	rsb	r1, r1, r0
	cmp	r1, ip, lsr #1
	rsbhi	r2, ip, r2
	strhi	r2, [r4, #3436]
	bhi	.L1126
.L1127:
	str	lr, [r4, #3436]
	ldrb	r3, [r6, #209]	@ zero_extendqisi2
	cmp	r3, #0
	beq	.L1176
.L1128:
	ldrb	r3, [r6, #210]	@ zero_extendqisi2
	cmp	r3, #0
	add	r3, r2, r0
	streq	r3, [r4, #3452]
	strne	r3, [r4, #3456]
	str	r3, [r4, #3464]
	b	.L1129
.L1174:
	mov	r3, #0
	ldr	r2, [r4, #3484]
	mov	r1, r3
	str	r3, [r4, #3488]
	str	r3, [r4, #3456]
	str	r3, [r4, #3452]
	str	r3, [r4, #3460]
	str	r3, [r4, #3464]
	b	.L1151
.L1137:
	str	r3, [r4, #3476]
	ldr	r7, [r6, #236]
.L1140:
	mov	r0, #0
	str	r0, [r4, #3508]
	ldr	r3, [r5, #2216]
	cmp	r3, r0
	ble	.L1143
.L1160:
	add	ip, r5, #2208
	mov	r3, #0
	add	ip, ip, #8
	mov	r2, r3
.L1142:
	ldr	r1, [ip, #4]!
	add	r2, r2, #1
	add	r3, r3, r1
	str	r3, [r4, #3508]
	ldr	r1, [r5, #2216]
	cmp	r1, r2
	bgt	.L1142
	cmp	r0, #0
	bne	.L1177
.L1143:
	mov	r0, #0
	str	r0, [r4, #3504]
	b	.L1144
.L1147:
	ldrb	r3, [r6, #210]	@ zero_extendqisi2
	cmp	r3, #0
	ldrne	r2, [r5, #2212]
	ldreq	r3, [r4, #3468]
	ldrne	r3, [r4, #3468]
	addne	r0, r0, r2
	addeq	r0, r0, r3
	streq	r0, [r4, #3452]
	addne	r0, r0, r3
	strne	r0, [r4, #3456]
	str	r0, [r4, #3464]
	b	.L1148
.L1134:
	ldr	r1, [r4, #3484]
	ldr	r2, [r4, #3480]
	cmp	r1, r2
	bcs	.L1136
	ldr	r2, [r4, #3492]
	add	r3, r3, r2
	str	r3, [r4, #3488]
	b	.L1133
.L1158:
	ldrb	r0, [r6, #210]	@ zero_extendqisi2
	str	r3, [r4, #3460]
	cmp	r0, #0
	streq	r3, [r4, #3452]
	strne	r3, [r4, #3456]
	b	.L1151
.L1152:
	str	r2, [r4, #3480]
	mov	r1, r2
	str	r2, [r4, #3492]
	ldr	r2, [r4, #3484]
.L1154:
	str	r1, [r4, #3488]
	b	.L1155
.L1175:
	ldr	r3, [r4, #3452]
	mov	r2, r1
	str	lr, [r4, #3428]
	mov	r1, r3
	str	r3, [r4, #3432]
	b	.L1124
.L1136:
	ldr	r3, [r4, #3492]
	b	.L1135
	UNWIND(.fnend)
	.size	DecPOC, .-DecPOC
	.align	2
	.global	CalcPicNum
	.type	CalcPicNum, %function
CalcPicNum:
	UNWIND(.fnstart)
	@ args = 0, pretend = 0, frame = 0
	@ frame_needed = 1, uses_anonymous_args = 0
	UNWIND(.movsp ip)
	mov	ip, sp
	stmfd	sp!, {r4, r5, r6, r7, r8, fp, ip, lr, pc}
	UNWIND(.pad #4)
	UNWIND(.save {r4, r5, r6, r7, r8, fp, ip, lr})
	UNWIND(.setfp fp, ip, #-4)
	sub	fp, ip, #4
	add	r2, r0, #12288
	add	r3, r0, #20480
	mov	r4, #2208
	mov	lr, #4000
	ldr	ip, [r3, #216]
	add	r6, r0, #57344
	ldr	r1, [r2, #1304]
	mov	r7, #1
	ldr	r3, [r2, #1300]
	ldrb	r2, [r6, #3011]	@ zero_extendqisi2
	mla	r1, r4, ip, r1
	cmp	r2, #0
	ldr	r1, [r1, #28]
	mla	r3, lr, r1, r3
	ldr	r3, [r3, #2196]
	add	r3, r3, #4
	mov	r7, r7, asl r3
	add	r3, r0, #24576
	beq	.L1179
	sub	r5, r2, #1
	sub	r4, r2, #2
	ldr	r2, [r3, #2144]
	clz	r5, r5
	clz	r4, r4
	cmp	r2, #0
	mov	r5, r5, lsr #5
	addne	lr, r0, #26368
	mov	r4, r4, lsr #5
	movne	r1, #0
	addne	lr, lr, #212
	beq	.L1199
.L1198:
	ldr	ip, [lr, #4]!
	ldrb	r2, [ip, #2]	@ zero_extendqisi2
	cmp	r2, #0
	beq	.L1193
	ldr	r2, [ip, #652]
	ldr	r8, [r6, #3664]
	cmp	r2, r8
	rsbhi	r2, r7, r2
	str	r2, [ip, #656]
	ldr	r2, [lr]
	ldrb	ip, [r2, #2]	@ zero_extendqisi2
	tst	ip, #1
	beq	.L1196
	ldr	r8, [r2, #736]
	bic	r8, r8, #-16777216
	bic	r8, r8, #255
	cmp	r8, #65536
	ldreq	ip, [r2, #656]
	addeq	ip, r5, ip, lsl #1
	streq	ip, [r2, #744]
	ldreq	r2, [lr]
	ldreqb	ip, [r2, #2]	@ zero_extendqisi2
.L1196:
	tst	ip, #2
	beq	.L1193
	ldr	ip, [r2, #776]
	bic	ip, ip, #-16777216
	bic	ip, ip, #255
	cmp	ip, #65536
	ldreq	ip, [r2, #656]
	addeq	ip, r4, ip, lsl #1
	streq	ip, [r2, #784]
.L1193:
	ldr	r2, [r3, #2144]
	add	r1, r1, #1
	cmp	r2, r1
	bhi	.L1198
.L1199:
	ldr	r2, [r3, #2148]
	cmp	r2, #0
	beq	.L1223
	add	r0, r0, #26624
	mov	r2, #0
	add	r0, r0, #20
.L1204:
	ldr	ip, [r0, #4]!
	add	r2, r2, #1
	ldrb	r1, [ip, #2]	@ zero_extendqisi2
	cmp	r1, #0
	beq	.L1201
	tst	r1, #1
	beq	.L1202
	ldr	lr, [ip, #736]
	bic	lr, lr, #-16777216
	bic	lr, lr, #255
	cmp	lr, #256
	ldreq	r1, [ip, #660]
	addeq	r1, r5, r1, lsl #1
	streq	r1, [ip, #740]
	ldreq	ip, [r0]
	ldreqb	r1, [ip, #2]	@ zero_extendqisi2
.L1202:
	tst	r1, #2
	beq	.L1201
	ldr	r1, [ip, #776]
	bic	r1, r1, #-16777216
	bic	r1, r1, #255
	cmp	r1, #256
	ldreq	r1, [ip, #660]
	addeq	r1, r4, r1, lsl #1
	streq	r1, [ip, #780]
.L1201:
	ldr	r1, [r3, #2148]
	cmp	r1, r2
	bhi	.L1204
	ldmfd	sp, {r4, r5, r6, r7, r8, fp, sp, pc}
.L1179:
	ldr	r1, [r3, #2144]
	cmp	r1, #0
	addne	ip, r0, #26368
	addne	ip, ip, #212
	bne	.L1188
.L1189:
	ldr	r2, [r3, #2148]
	cmp	r2, #0
	beq	.L1224
	add	r0, r0, #26624
	mov	r2, #0
	add	r0, r0, #20
	b	.L1191
.L1190:
	ldr	r1, [r3, #2148]
	cmp	r1, r2
	bls	.L1225
.L1191:
	ldr	r1, [r0, #4]!
	add	r2, r2, #1
	ldrb	ip, [r1, #2]	@ zero_extendqisi2
	cmp	ip, #3
	bne	.L1190
	ldr	ip, [r1, #696]
	bic	ip, ip, #-16777216
	bic	ip, ip, #255
	cmp	ip, #256
	ldreq	ip, [r1, #660]
	streq	ip, [r1, #700]
	ldr	r1, [r3, #2148]
	cmp	r1, r2
	bhi	.L1191
.L1225:
	ldmfd	sp, {r4, r5, r6, r7, r8, fp, sp, pc}
.L1226:
	ldr	lr, [r1, #696]
	bic	lr, lr, #-16777216
	bic	lr, lr, #255
	cmp	lr, #65536
	bne	.L1185
	ldr	lr, [r1, #652]
	ldr	r4, [r6, #3664]
	rsb	r5, r7, lr
	cmp	lr, r4
	strhi	r5, [r1, #656]
	strls	lr, [r1, #656]
	ldr	r1, [ip]
	ldr	lr, [r1, #656]
	str	lr, [r1, #704]
.L1185:
	ldr	r1, [r3, #2144]
	add	r2, r2, #1
	cmp	r1, r2
	bls	.L1189
.L1188:
	ldr	r1, [ip, #4]!
	ldrb	lr, [r1, #2]	@ zero_extendqisi2
	cmp	lr, #3
	bne	.L1185
	b	.L1226
.L1224:
	ldmfd	sp, {r4, r5, r6, r7, r8, fp, sp, pc}
.L1223:
	ldmfd	sp, {r4, r5, r6, r7, r8, fp, sp, pc}
	UNWIND(.fnend)
	.size	CalcPicNum, .-CalcPicNum
	.align	2
	.global	IsOutDPB
	.type	IsOutDPB, %function
IsOutDPB:
	UNWIND(.fnstart)
	@ args = 0, pretend = 0, frame = 0
	@ frame_needed = 1, uses_anonymous_args = 0
	UNWIND(.movsp ip)
	mov	ip, sp
	stmfd	sp!, {fp, ip, lr, pc}
	UNWIND(.pad #4)
	UNWIND(.save {fp, ip, lr})
	UNWIND(.setfp fp, ip, #-4)
	sub	fp, ip, #4
	cmp	r1, #0
	beq	.L1232
	add	r3, r0, #24576
	ldr	ip, [r3, #2140]
	cmp	ip, #0
	beq	.L1232
	ldr	r3, [r3, #1944]
	cmp	r3, r1
	beq	.L1234
	add	r0, r0, #26368
	mov	r3, #0
	add	r0, r0, #152
	b	.L1229
.L1230:
	ldr	r2, [r0, #4]!
	cmp	r2, r1
	beq	.L1234
.L1229:
	add	r3, r3, #1
	cmp	r3, ip
	bne	.L1230
.L1232:
	mov	r0, #1
	ldmfd	sp, {fp, sp, pc}
.L1234:
	mov	r0, #0
	ldmfd	sp, {fp, sp, pc}
	UNWIND(.fnend)
	.size	IsOutDPB, .-IsOutDPB
	.align	2
	.global	WriteCurrPicYUV
	.type	WriteCurrPicYUV, %function
WriteCurrPicYUV:
	UNWIND(.fnstart)
	@ args = 0, pretend = 0, frame = 0
	@ frame_needed = 1, uses_anonymous_args = 0
	UNWIND(.movsp ip)
	mov	ip, sp
	stmfd	sp!, {r4, r5, fp, ip, lr, pc}
	UNWIND(.pad #4)
	UNWIND(.save {r4, r5, fp, ip, lr})
	UNWIND(.setfp fp, ip, #-4)
	sub	fp, ip, #4
	UNWIND(.pad #8)
	sub	sp, sp, #8
	add	r5, r0, #57344
	ldr	r1, .L1238
	mov	r0, #2
	ldrb	r4, [r5, #3011]	@ zero_extendqisi2
	ldr	r3, [r5, #3656]
	mov	r2, r4
	ldr	r3, [r3, #164]
	bl	dprint_vfmw
	ldr	ip, [r5, #3708]
	cmp	r4, #3
	cmpne	r4, #0
	ldr	r3, [r5, #3704]
	addne	r2, r4, #1
	ldr	r1, .L1238+4
	moveq	r2, #1
	str	ip, [sp]
	mov	r0, #22
	bl	dprint_vfmw
	sub	sp, fp, #20
	ldmfd	sp, {r4, r5, fp, sp, pc}
.L1239:
	.align	2
.L1238:
	.word	.LC42
	.word	.LC43
	UNWIND(.fnend)
	.size	WriteCurrPicYUV, .-WriteCurrPicYUV
	.align	2
	.global	WritePicMsg
	.type	WritePicMsg, %function
WritePicMsg:
	UNWIND(.fnstart)
	@ args = 0, pretend = 0, frame = 8
	@ frame_needed = 1, uses_anonymous_args = 0
	UNWIND(.movsp ip)
	mov	ip, sp
	stmfd	sp!, {r4, r5, r6, r7, r8, r9, r10, fp, ip, lr, pc}
	UNWIND(.pad #4)
	UNWIND(.save {r4, r5, r6, r7, r8, r9, r10, fp, ip, lr})
	UNWIND(.setfp fp, ip, #-4)
	sub	fp, ip, #4
	UNWIND(.pad #20)
	sub	sp, sp, #20
	add	r7, r0, #57344
	add	r5, r0, #61440
	mov	r4, r0
	ldr	lr, [r7, #3724]
	mov	r0, #2
	ldr	ip, [r7, #3172]
	ldrb	r3, [r7, #3011]	@ zero_extendqisi2
	ldr	r2, [r7, #3672]
	ldr	r1, .L1278
	stmia	sp, {ip, lr}
	bl	dprint_vfmw
	ldr	r0, [r5, #2364]
	mov	r3, #0
	str	r3, [r5, #2276]
	cmp	r0, #1
	str	r3, [r5, #2376]
	beq	.L1241
	add	r2, r4, #17408
	add	r3, r4, #13568
	add	r2, r2, #188
	add	r3, r3, #28
.L1242:
	add	r1, r4, #60928
	cmp	r0, #1
	add	r1, r1, #32
	movw	ip, #62544
	add	r8, r4, #16384
	ldrd	r0, [r1, #-8]
	strd	r0, [r4, ip]
	ldr	r1, [r5, #2272]
	str	r1, [r5, #2024]
	ldr	r1, [r7, #3136]
	str	r1, [r5, #1800]
	ldr	r1, [r7, #3140]
	str	r1, [r5, #1804]
	ldr	r1, [r7, #3160]
	str	r1, [r5, #1808]
	ldr	r1, [r7, #3164]
	str	r1, [r5, #1812]
	ldr	r1, [r7, #3672]
	str	r1, [r5, #1112]
	ldrb	r1, [r7, #3011]	@ zero_extendqisi2
	strb	r1, [r5, #1080]
	ldrb	r1, [r3, #19]	@ zero_extendqisi2
	str	r1, [r5, #1128]
	ldr	r1, [r7, #3708]
	str	r1, [r5, #1116]
	ldr	r1, [r7, #3712]
	str	r1, [r5, #1120]
	ldr	r1, [r3, #3248]
	add	r1, r1, #1
	str	r1, [r5, #1124]
	ldrb	r1, [r3, #18]	@ zero_extendqisi2
	strb	r1, [r5, #1083]
	ldr	r1, [r2, #60]
	str	r1, [r5, #1132]
	ldrb	r1, [r2]	@ zero_extendqisi2
	str	r1, [r5, #1136]
	ldr	r3, [r3, #40]
	strb	r3, [r5, #1081]
	ldrb	r3, [r2, #4]	@ zero_extendqisi2
	str	r3, [r5, #1140]
	ldr	r3, [r8, #3464]
	str	r3, [r5, #1144]
	ldr	r3, [r8, #3452]
	str	r3, [r5, #1148]
	ldr	r3, [r8, #3456]
	str	r3, [r5, #1152]
	beq	.L1258
	ldr	r3, [r7, #3656]
	ldr	r0, [r5, #2352]
	ldr	r1, [r3, #648]
	bl	FSP_GetLogicFs
	subs	r9, r0, #0
	beq	.L1277
	ldr	r2, [r9, #28]
	ldr	r3, [r9, #32]
	cmp	r2, #0
	beq	.L1247
	cmp	r3, #0
	beq	.L1247
	add	r3, r4, #62720
	add	r1, r4, #62976
	add	r1, r1, #124
	ldr	r0, [r5, #2352]
	mov	r2, r3
	add	r3, r3, #252
	add	r2, r2, #124
	add	r6, r4, #24576
	bl	FSP_GetDecFsAddrTab
	ldr	r3, [r9, #28]
	add	r2, r4, #62976
	add	r1, r4, #63232
	add	r2, r2, #128
	ldr	r0, [r5, #2352]
	ldr	r3, [r3, #4]
	str	r3, [r5, #1388]
	bl	FSP_GetPmvAddrTab
	ldr	r3, [r7, #3724]
	str	r3, [r5, #1396]
	ldr	r3, [r9, #12]
	str	r3, [r5, #1796]
	ldr	r3, [r9, #32]
	ldr	r3, [r3, #8]
	str	r3, [r5, #1392]
	ldr	r3, [r9, #32]
	ldr	r3, [r3, #60]
	str	r3, [r5, #1400]
	ldr	r3, [r6, #2412]
	cmp	r3, #0
	str	r3, [fp, #-48]
	str	r3, [r5, #2016]
	beq	.L1253
	add	lr, r4, #63232
	add	r7, r4, #26624
	add	r1, r4, #26880
	ldr	r10, [fp, #-48]
	mov	ip, r7
	mov	r0, lr
	mov	r2, lr
	add	r7, r7, #168
	add	lr, lr, #28
	add	ip, ip, #232
	add	r0, r0, #92
	add	r1, r1, #40
	add	r2, r2, #156
	mov	r3, #0
.L1252:
	ldr	r9, [r7, #4]!
	add	r3, r3, #1
	cmp	r3, r10
	str	r9, [lr, #4]!
	ldr	r9, [ip, #4]!
	str	r9, [r0, #4]!
	ldr	r9, [r1, #4]!
	str	r9, [r2, #4]!
	bne	.L1252
.L1253:
	add	r3, r4, #12288
	ldrb	r3, [r3, #1333]	@ zero_extendqisi2
	cmp	r3, #0
	beq	.L1250
	ldrb	r1, [r8, #1230]	@ zero_extendqisi2
.L1254:
	cmp	r1, #1
	add	ip, r4, #62464
	mov	r0, #0
	add	ip, ip, #128
	beq	.L1259
.L1262:
	add	r3, r0, #3888
	add	r0, r0, #1
	add	r3, r3, #2
	cmp	r0, #24
	add	r3, r4, r3, lsl #2
	ldr	r3, [r3, #8]
	bic	r2, r3, #16711680
	ubfx	r1, r3, #8, #8
	bic	r2, r2, #65280
	mov	r3, r3, lsr #8
	orr	r2, r2, r1, asl #16
	and	r3, r3, #65280
	orr	r3, r2, r3
	str	r3, [ip, #4]!
	bne	.L1262
	add	r9, r4, #62464
	mov	r10, #1
	add	r9, r9, #228
	mov	r8, #0
.L1263:
	mov	r2, r8, lsr #3
	mov	r3, r8, asl #1
	and	r1, r10, #15
	and	r0, r3, #14
	mov	r3, r2, asl #4
	add	r8, r8, #1
	add	r2, r3, r1
	add	r3, r3, r0
	add	r2, r2, #3904
	add	r3, r3, #3904
	add	r2, r2, #10
	add	r3, r3, #10
	cmp	r8, #16
	add	r10, r10, #2
	add	r2, r4, r2, lsl #2
	add	r3, r4, r3, lsl #2
	ldr	r1, [r2, #8]
	ldr	r3, [r3, #8]
	ubfx	r7, r1, #8, #8
	and	r0, r1, #-16777216
	mov	r2, r1, lsr #16
	uxtb	r1, r1
	mov	ip, r3, lsr #24
	uxtb	lr, r3
	mov	r2, r2, asl #24
	mov	ip, ip, asl #8
	orr	r2, r2, r1, asl #16
	orr	ip, ip, r7, asl #16
	mov	r1, r3, lsr #8
	orr	r2, r2, lr
	and	r1, r1, #65280
	ubfx	r3, r3, #8, #8
	orr	r0, ip, r0
	orr	r2, r2, r1
	orr	r3, r0, r3
	stmia	r9, {r2, r3}
	add	r9, r9, #8
	bne	.L1263
.L1261:
	ldr	r3, [fp, #-48]
	cmp	r3, #0
	beq	.L1258
	add	r9, r4, #63488
	add	r7, r4, #26624
	add	r7, r7, #172
	mov	r8, #0
	mov	r4, r9
	add	r9, r9, #80
	add	r4, r4, #144
.L1264:
	ldr	r2, [r7]
	mov	r1, #0
	ldr	r0, [r5, #2352]
	add	r8, r8, #1
	bl	FSP_GetStoreType
	adds	r0, r0, #0
	movne	r0, #1
	str	r0, [r9, #4]!
	ldr	r3, [r7], #4
	str	r3, [r4, #4]!
	ldr	r3, [r6, #2412]
	cmp	r3, r8
	bhi	.L1264
.L1258:
	mov	r0, #0
.L1274:
	sub	sp, fp, #40
	ldmfd	sp, {r4, r5, r6, r7, r8, r9, r10, fp, sp, pc}
.L1259:
	add	r3, r0, #4864
	add	r0, r0, #1
	add	r3, r3, #30
	cmp	r0, #24
	add	r3, r4, r3, lsl #2
	ldr	r3, [r3, #4]
	bic	r2, r3, #16711680
	ubfx	r1, r3, #8, #8
	bic	r2, r2, #65280
	mov	r3, r3, lsr #8
	orr	r2, r2, r1, asl #16
	and	r3, r3, #65280
	orr	r3, r2, r3
	str	r3, [ip, #4]!
	bne	.L1259
	add	r9, r4, #62464
	mov	r10, #1
	add	r9, r9, #228
	mov	r8, #0
.L1260:
	mov	r2, r8, lsr #3
	mov	r3, r8, asl #1
	and	r1, r10, #15
	and	r0, r3, #14
	mov	r3, r2, asl #4
	add	r8, r8, #1
	add	r2, r3, r1
	add	r3, r3, r0
	add	r2, r2, #4864
	add	r3, r3, #4864
	add	r2, r2, #54
	add	r3, r3, #54
	cmp	r8, #16
	add	r10, r10, #2
	add	r2, r4, r2, lsl #2
	add	r3, r4, r3, lsl #2
	ldr	r1, [r2, #4]
	ldr	r3, [r3, #4]
	ubfx	r7, r1, #8, #8
	and	r0, r1, #-16777216
	mov	r2, r1, lsr #16
	uxtb	r1, r1
	mov	ip, r3, lsr #24
	uxtb	lr, r3
	mov	r2, r2, asl #24
	mov	ip, ip, asl #8
	orr	r2, r2, r1, asl #16
	orr	ip, ip, r7, asl #16
	mov	r1, r3, lsr #8
	orr	r2, r2, lr
	and	r1, r1, #65280
	ubfx	r3, r3, #8, #8
	orr	r0, ip, r0
	orr	r2, r2, r1
	orr	r3, r0, r3
	stmia	r9, {r2, r3}
	add	r9, r9, #8
	bne	.L1260
	b	.L1261
.L1250:
	ldrb	r1, [r8, #1230]	@ zero_extendqisi2
	cmp	r1, #0
	bne	.L1254
	add	r0, r4, #62464
	ldr	r9, .L1278+4
	add	r0, r0, #128
.L1255:
	and	r3, r1, #3
	add	r1, r1, #1
	cmp	r1, #24
	ldr	r3, [r9, r3, asl #2]
	bic	r2, r3, #16711680
	ubfx	ip, r3, #8, #8
	bic	r2, r2, #65280
	mov	r3, r3, lsr #8
	orr	r2, r2, ip, asl #16
	and	r3, r3, #65280
	orr	r3, r2, r3
	str	r3, [r0, #4]!
	bne	.L1255
	add	r8, r4, #62464
	mov	r7, #0
	add	r8, r8, #228
.L1256:
	add	r3, r7, #1
	and	r2, r7, #14
	and	r3, r3, #15
	add	r7, r7, #2
	add	r2, r9, r2, lsl #2
	cmp	r7, #32
	add	r3, r9, r3, lsl #2
	ldr	r2, [r2, #16]
	ldr	r1, [r3, #16]
	ubfx	r3, r2, #8, #8
	mov	r0, r2, lsr #24
	uxtb	r10, r2
	uxtb	lr, r1
	mov	ip, r1, lsr #16
	orr	r3, r3, r0, asl #8
	mov	r2, r2, lsr #8
	mov	lr, lr, asl #16
	and	r0, r1, #-16777216
	orr	ip, lr, ip, asl #24
	ubfx	r1, r1, #8, #8
	orr	ip, ip, r10
	and	r2, r2, #65280
	orr	r3, r3, r0
	orr	r2, ip, r2
	orr	r3, r3, r1, asl #16
	stmia	r8, {r2, r3}
	add	r8, r8, #8
	bne	.L1256
	b	.L1261
.L1241:
	add	r1, r4, #12288
	add	ip, r4, #20480
	mov	r6, #2208
	mov	lr, #4000
	ldr	r3, [r1, #1304]
	ldr	r2, [ip, #216]
	ldr	r1, [r1, #1300]
	mla	r2, r6, r2, r3
	ldr	r3, [r2, #28]
	mla	r3, lr, r3, r1
	b	.L1242
.L1247:
	ldr	r1, .L1278+8
	mov	r0, #0
	bl	dprint_vfmw
	mvn	r0, #0
	b	.L1274
.L1277:
	ldr	r3, [r7, #3656]
	ldr	r1, .L1278+12
	ldr	r2, [r3, #648]
	bl	dprint_vfmw
	mvn	r0, #0
	b	.L1274
.L1279:
	.align	2
.L1278:
	.word	.LC44
	.word	.LANCHOR1
	.word	.LC46
	.word	.LC45
	UNWIND(.fnend)
	.size	WritePicMsg, .-WritePicMsg
	.align	2
	.global	UpdatePicQpInf
	.type	UpdatePicQpInf, %function
UpdatePicQpInf:
	UNWIND(.fnstart)
	@ args = 0, pretend = 0, frame = 0
	@ frame_needed = 1, uses_anonymous_args = 0
	UNWIND(.movsp ip)
	mov	ip, sp
	stmfd	sp!, {fp, ip, lr, pc}
	UNWIND(.pad #4)
	UNWIND(.save {fp, ip, lr})
	UNWIND(.setfp fp, ip, #-4)
	sub	fp, ip, #4
	ldr	r2, [r1, #24]
	ldr	r3, [r1, #28]
	cmp	r2, r0
	movlt	r2, r0
	cmp	r3, r0
	str	r2, [r1, #24]
	movge	r3, r0
	str	r3, [r1, #28]
	ldmfd	sp, {fp, sp, pc}
	UNWIND(.fnend)
	.size	UpdatePicQpInf, .-UpdatePicQpInf
	.align	2
	.global	WriteSliceMsg
	.type	WriteSliceMsg, %function
WriteSliceMsg:
	UNWIND(.fnstart)
	@ args = 0, pretend = 0, frame = 16
	@ frame_needed = 1, uses_anonymous_args = 0
	UNWIND(.movsp ip)
	mov	ip, sp
	stmfd	sp!, {r4, r5, r6, r7, r8, r9, r10, fp, ip, lr, pc}
	UNWIND(.pad #4)
	UNWIND(.save {r4, r5, r6, r7, r8, r9, r10, fp, ip, lr})
	UNWIND(.setfp fp, ip, #-4)
	sub	fp, ip, #4
	UNWIND(.pad #20)
	sub	sp, sp, #20
	add	r7, r0, #61440
	mov	r4, r0
	ldr	r3, [r7, #2364]
	ldr	r2, [r7, #2276]
	cmp	r3, #1
	str	r2, [fp, #-48]
	beq	.L1282
	add	ip, r0, #17408
	add	r8, r0, #13568
	add	ip, ip, #188
	add	r8, r8, #28
	add	r3, r0, #12288
	add	r5, r0, #20480
.L1283:
	ldr	r1, [fp, #-48]
	movw	lr, #4060
	ldr	r9, [r7, #2272]
	add	r2, r1, #1
	str	r2, [r7, #2276]
	mul	lr, lr, r1
	ldr	r3, [r3, #1284]
	sub	r3, r3, #1
	cmp	r1, r3
	add	r6, r9, lr
	addcc	r3, lr, #4048
	addcc	r3, r3, #12
	movcs	r3, #0
	addcc	r3, r9, r3
	str	r3, [r6, #4056]
	ldr	r1, [r4, #368]
	ldrb	r2, [r1]	@ zero_extendqisi2
	ldr	r3, [r1, #68]
	cmp	r2, #1
	cmpls	r2, r3
	bcs	.L1286
	add	r0, r2, #3
	add	r0, r6, r0, lsl #2
.L1287:
	mov	r3, r2, asl #5
	sub	r3, r3, r2, asl #2
	add	r2, r2, #1
	add	r1, r1, r3
	ldr	r1, [r1, #24]
	str	r1, [r0, #4]!
	ldr	r1, [r4, #368]
	add	r1, r1, r3
	ldr	r1, [r1, #20]
	str	r1, [r0, #-8]
	ldr	r1, [r4, #368]
	add	r3, r1, r3
	ldr	r3, [r3, #28]
	str	r3, [r0, #8]
	ldr	r1, [r4, #368]
	ldr	r3, [r1, #68]
	cmp	r3, r2
	movhi	r10, #1
	movls	r10, #0
	cmp	r2, #1
	movhi	r10, #0
	cmp	r10, #0
	bne	.L1287
.L1286:
	cmp	r3, #1
	bhi	.L1292
	add	r3, r3, #3
	add	r1, r6, #20
	mov	r2, #0
	add	r3, r6, r3, lsl #2
.L1291:
	str	r2, [r3, #4]!
	cmp	r3, r1
	str	r2, [r3, #-8]
	str	r2, [r3, #8]
	bne	.L1291
.L1292:
	add	r10, r4, #57344
	ldrb	r3, [r10, #3017]	@ zero_extendqisi2
	strb	r3, [r6, #1]
	ldr	r3, [ip, #48]
	ldr	r0, [r5, #1816]
	add	r3, r3, #26
	add	r3, r3, r0
	str	r3, [r6, #32]
	ldr	r2, [r5, #1812]
	str	r2, [r6, #36]
	ldr	r2, [r5, #264]
	str	r2, [r6, #40]
	ldr	r2, [r5, #260]
	str	r2, [r6, #44]
	ldrb	r2, [r5, #208]	@ zero_extendqisi2
	strb	r2, [r9, lr]
	ldr	r2, [r5, #256]
	str	r2, [r6, #48]
	ldrb	r2, [r5, #214]	@ zero_extendqisi2
	strb	r2, [r6, #2]
	ldrb	r2, [r8, #20]	@ zero_extendqisi2
	strb	r2, [r6, #3]
	ldr	r2, [r5, #248]
	str	r2, [r6, #52]
	ldr	r2, [r5, #252]
	str	r2, [r6, #56]
	ldrb	r2, [r5, #208]	@ zero_extendqisi2
	cmp	r2, #1
	beq	.L1393
	cmp	r2, #0
	ldreqb	r2, [ip, #2]	@ zero_extendqisi2
	movne	r2, #0
	strb	r2, [r6, #4]
.L1293:
	ldr	r2, [ip, #52]
	str	r2, [r6, #60]
	ldr	r2, [ip, #56]
	str	r2, [r6, #64]
	ldr	r2, [r5, #1824]
	str	r2, [r6, #68]
	ldr	r2, [r5, #1828]
	str	r2, [r6, #72]
	ldr	r2, [r5, #1820]
	str	r2, [r6, #76]
	ldr	r2, [r7, #2364]
	cmp	r2, #1
	beq	.L1281
	ldrb	r2, [r5, #209]	@ zero_extendqisi2
	cmp	r2, #0
	beq	.L1394
	ldr	r8, [r10, #3656]
	ldrb	r2, [r5, #210]	@ zero_extendqisi2
	ldr	r1, [r7, #2276]
	ldr	r0, [r8, #692]
	cmp	r2, #0
	ldr	r2, [fp, #-48]
	mla	r0, r0, r2, r3
	bne	.L1298
	bl	__aeabi_uidiv
	str	r0, [r8, #768]
.L1297:
	ldr	r3, [fp, #-48]
	cmp	r3, #0
	ldr	r3, [r10, #3656]
	bne	.L1299
.L1398:
	ldr	r2, [r6, #32]
	str	r2, [r3, #720]
	ldr	r3, [r10, #3656]
	ldr	r2, [r6, #32]
	str	r2, [r3, #724]
.L1300:
	ldrb	r3, [r5, #208]	@ zero_extendqisi2
	cmp	r3, #2
	beq	.L1337
	ldr	r8, [r5, #248]
	cmp	r8, #0
	beq	.L1340
	add	r3, r4, #24576
	ldr	r3, [r3, #2548]
	ldr	r1, [r3, #36]
	ldrb	r3, [r1]	@ zero_extendqisi2
	cmp	r3, #0
	addne	r2, r4, #26880
	movne	r3, #0
	addne	r2, r2, #244
	bne	.L1305
	b	.L1303
.L1307:
	ldr	r1, [r2, #4]!
	ldr	r1, [r1, #36]
	ldrb	r0, [r1]	@ zero_extendqisi2
	cmp	r0, #0
	beq	.L1303
.L1305:
	add	r3, r3, #1
	cmp	r3, r8
	bne	.L1307
	mov	r3, #0
	str	r3, [fp, #-52]
.L1302:
	ldr	r9, [r5, #252]
	cmp	r9, #0
	beq	.L1341
	add	r3, r4, #24576
	ldr	r3, [r3, #2680]
	ldr	r1, [r3, #36]
	ldrb	r3, [r1]	@ zero_extendqisi2
	cmp	r3, #0
	addne	r2, r4, #27136
	movne	r3, #0
	addne	r2, r2, #120
	bne	.L1311
	b	.L1309
.L1313:
	ldr	r1, [r2, #4]!
	ldr	r1, [r1, #36]
	ldrb	r0, [r1]	@ zero_extendqisi2
	cmp	r0, #0
	beq	.L1309
.L1311:
	add	r3, r3, #1
	cmp	r3, r9
	bne	.L1313
	mov	r3, #0
	str	r3, [fp, #-56]
.L1308:
	ldrb	ip, [r10, #3011]	@ zero_extendqisi2
	ldr	r3, [r5, #248]
	cmp	ip, #0
	beq	.L1314
	cmp	r3, #0
	beq	.L1329
	add	r10, r4, #26880
	mov	r9, #0
	str	r4, [fp, #-60]
	mov	r8, r6
	mov	r4, r5
	add	r10, r10, #244
	mov	r5, r9
	ldr	r9, [fp, #-52]
	b	.L1328
.L1326:
	strb	r2, [r8, #1630]
	ldr	r2, [r10]
	ldrb	r2, [r2, #1]	@ zero_extendqisi2
	strb	r2, [r8, #1631]
	ldr	r2, [r10]
	ldr	r2, [r2, #12]
	str	r2, [r8, #1656]
.L1327:
	ldr	r2, [r4, #248]
	add	r5, r5, #1
	add	r10, r10, #4
	add	r8, r8, #36
	cmp	r2, r5
	bls	.L1395
.L1328:
	ldr	r2, [r10]
	ldr	r0, [r7, #2352]
	ldr	r2, [r2, #36]
	ldr	r1, [r2, #648]
	bl	FSP_GetLogicFs
	ldr	r2, [r10]
	ldr	r2, [r2, #36]
	ldr	r2, [r2, #684]
	str	r2, [r8, #1636]
	ldr	r2, [r10]
	ldr	r2, [r2, #36]
	ldrb	r2, [r2, #1]	@ zero_extendqisi2
	strb	r2, [r8, #1625]
	ldr	r2, [r10]
	ldr	r2, [r2, #36]
	ldrb	r2, [r2]	@ zero_extendqisi2
	cmp	r2, #1
	moveq	r0, r9
	beq	.L1325
	cmp	r0, #0
	ldrne	r2, [r0, #28]
	ldrne	r0, [r2, #4]
.L1325:
	str	r0, [r8, #1640]
	ldr	r2, [r10]
	ldr	r2, [r2, #36]
	ldr	r2, [r2, #688]
	str	r2, [r8, #1644]
	ldr	r2, [r10]
	ldr	r2, [r2, #36]
	ldr	r2, [r2, #664]
	str	r2, [r8, #1632]
	ldr	r2, [r10]
	ldrb	r2, [r2]	@ zero_extendqisi2
	strb	r2, [r8, #1624]
	ldr	r2, [r10]
	ldr	r2, [r2, #36]
	ldrb	r2, [r2, #696]	@ zero_extendqisi2
	strb	r2, [r8, #1626]
	ldr	r2, [r10]
	ldrb	r2, [r2]	@ zero_extendqisi2
	cmp	r2, #1
	bne	.L1326
	strb	r2, [r8, #1628]
	ldr	r2, [r10]
	ldrb	r2, [r2, #1]	@ zero_extendqisi2
	strb	r2, [r8, #1629]
	ldr	r2, [r10]
	ldr	r2, [r2, #12]
	str	r2, [r8, #1652]
	b	.L1327
.L1395:
	mov	r5, r4
	ldr	r4, [fp, #-60]
.L1329:
	ldrb	r3, [r5, #208]	@ zero_extendqisi2
	cmp	r3, #1
	beq	.L1396
.L1317:
	add	r2, r4, #26880
	add	r3, r6, #3920
	add	r0, r6, #4048
	add	r2, r2, #112
	add	r3, r3, #4
	add	r0, r0, #4
.L1334:
	ldr	r1, [r2, #4]!
	str	r1, [r3, #4]!
	cmp	r3, r0
	bne	.L1334
	add	r3, r4, #16384
	ldrb	r2, [r3, #1214]	@ zero_extendqisi2
	cmp	r2, #0
	str	r2, [r7, #1380]
	ldr	r3, [r3, #1256]
	str	r3, [r7, #1384]
	beq	.L1335
	ldrb	r2, [r5, #208]	@ zero_extendqisi2
	cmp	r2, #0
	beq	.L1336
.L1335:
	cmp	r3, #1
	beq	.L1397
.L1337:
	ldr	r3, [fp, #-48]
	mov	r2, #0
	ldr	r1, [r4, #368]
	add	r3, r3, #15424
	add	r3, r3, #40
	str	r1, [r4, r3, asl #2]
	str	r2, [r4, #368]
.L1281:
	sub	sp, fp, #40
	ldmfd	sp, {r4, r5, r6, r7, r8, r9, r10, fp, sp, pc}
.L1394:
	ldr	r8, [r10, #3656]
	ldr	r2, [fp, #-48]
	ldr	r1, [r7, #2276]
	ldr	r0, [r8, #692]
	mla	r0, r0, r2, r3
	bl	__aeabi_uidiv
	ldr	r3, [fp, #-48]
	cmp	r3, #0
	str	r0, [r8, #728]
	ldr	r3, [r10, #3656]
	beq	.L1398
.L1299:
	ldr	r1, [r6, #32]
	ldr	r0, [r3, #720]
	ldr	r2, [r3, #724]
	cmp	r0, r1
	movlt	r0, r1
	cmp	r2, r1
	str	r0, [r3, #720]
	movge	r2, r1
	str	r2, [r3, #724]
	b	.L1300
.L1303:
	ldr	r1, [r1, #648]
	ldr	r0, [r7, #2352]
	bl	FSP_GetLogicFs
	subs	r3, r0, #0
	moveq	r2, #7104
	beq	.L1389
	ldr	r3, [r3, #28]
	ldr	r3, [r3, #4]
	str	r3, [fp, #-52]
	b	.L1302
.L1393:
	ldr	r2, [ip, #44]
	strb	r2, [r6, #4]
	b	.L1293
.L1282:
	add	r3, r0, #12288
	add	r5, r0, #20480
	mov	ip, #2208
	mov	r8, #4000
	ldr	r1, [r3, #1304]
	ldr	r0, [r5, #216]
	ldr	r2, [r3, #1300]
	mla	ip, ip, r0, r1
	ldr	r1, [ip, #28]
	mla	r8, r8, r1, r2
	b	.L1283
.L1314:
	cmp	r3, #0
	beq	.L1322
	add	r10, r4, #26880
	ldr	r9, [fp, #-52]
	add	r10, r10, #244
	str	r4, [fp, #-60]
	mov	r8, r6
	mov	r4, r5
	mov	r5, ip
.L1321:
	ldr	r2, [r10]
	ldr	r0, [r7, #2352]
	ldr	r2, [r2, #36]
	ldr	r1, [r2, #648]
	bl	FSP_GetLogicFs
	ldr	r2, [r10]
	ldr	r2, [r2, #36]
	ldr	r2, [r2, #684]
	str	r2, [r8, #1636]
	ldr	r2, [r10]
	ldr	r2, [r2, #36]
	ldrb	r2, [r2, #1]	@ zero_extendqisi2
	strb	r2, [r8, #1625]
	ldr	r2, [r10]
	ldr	r2, [r2, #36]
	ldrb	r2, [r2]	@ zero_extendqisi2
	cmp	r2, #1
	moveq	r0, r9
	beq	.L1320
	cmp	r0, #0
	ldrne	r2, [r0, #28]
	ldrne	r0, [r2, #4]
.L1320:
	str	r0, [r8, #1640]
	mov	r3, #0
	ldr	r2, [r10]
	add	r5, r5, #1
	add	r8, r8, #36
	ldr	r2, [r2, #36]
	ldr	r2, [r2, #688]
	str	r2, [r8, #1608]
	ldr	r2, [r10]
	ldr	r2, [r2, #36]
	ldr	r2, [r2, #664]
	str	r2, [r8, #1596]
	ldr	r2, [r10]
	ldrb	r2, [r2, #1]	@ zero_extendqisi2
	strb	r2, [r8, #1591]
	ldr	r2, [r10]
	ldrb	r2, [r2]	@ zero_extendqisi2
	strb	r2, [r8, #1590]
	ldr	r2, [r10]
	ldr	r2, [r2, #36]
	ldr	r2, [r2, #708]
	str	r2, [r8, #1612]
	ldr	r2, [r10]
	ldr	r2, [r2, #36]
	ldr	r2, [r2, #748]
	str	r2, [r8, #1616]
	ldr	r2, [r10], #4
	ldr	r2, [r2, #36]
	ldr	r2, [r2, #788]
	strb	r3, [r8, #1588]
	str	r2, [r8, #1620]
	ldr	r2, [r4, #248]
	cmp	r2, r5
	bhi	.L1321
	mov	r5, r4
	ldr	r4, [fp, #-60]
.L1322:
	ldrb	r3, [r5, #208]	@ zero_extendqisi2
	cmp	r3, #1
	bne	.L1317
	ldr	r3, [r5, #252]
	cmp	r3, #0
	beq	.L1317
	mov	r9, #0
	add	r8, r4, #27136
	str	r4, [fp, #-52]
	mov	r4, r5
	mov	r5, r9
	ldr	r9, [fp, #-56]
	add	r8, r8, #120
	mov	r10, r6
.L1324:
	ldr	r2, [r8]
	ldr	r0, [r7, #2352]
	ldr	r2, [r2, #36]
	ldr	r1, [r2, #648]
	bl	FSP_GetLogicFs
	ldr	r2, [r8]
	ldr	r2, [r2, #36]
	ldr	r2, [r2, #684]
	str	r2, [r10, #2788]
	ldr	r2, [r8]
	ldr	r2, [r2, #36]
	ldrb	r2, [r2, #1]	@ zero_extendqisi2
	strb	r2, [r10, #2777]
	ldr	r2, [r8]
	ldr	r2, [r2, #36]
	ldrb	r2, [r2]	@ zero_extendqisi2
	cmp	r2, #1
	moveq	r0, r9
	beq	.L1323
	cmp	r0, #0
	ldrne	r2, [r0, #28]
	ldrne	r0, [r2, #4]
.L1323:
	str	r0, [r10, #1640]
	mov	r3, #0
	ldr	r2, [r8]
	add	r5, r5, #1
	add	r10, r10, #36
	ldr	r2, [r2, #36]
	ldr	r2, [r2, #688]
	str	r2, [r10, #2760]
	ldr	r2, [r8]
	ldr	r2, [r2, #36]
	ldr	r2, [r2, #664]
	str	r2, [r10, #2748]
	ldr	r2, [r8]
	ldrb	r2, [r2, #1]	@ zero_extendqisi2
	strb	r2, [r10, #2743]
	ldr	r2, [r8]
	ldrb	r2, [r2]	@ zero_extendqisi2
	strb	r2, [r10, #2742]
	ldr	r2, [r8]
	ldr	r2, [r2, #36]
	ldr	r2, [r2, #708]
	str	r2, [r10, #2764]
	ldr	r2, [r8]
	ldr	r2, [r2, #36]
	ldr	r2, [r2, #748]
	str	r2, [r10, #2768]
	ldr	r2, [r8], #4
	ldr	r2, [r2, #36]
	ldr	r2, [r2, #788]
	strb	r3, [r10, #2740]
	str	r2, [r10, #2772]
	ldr	r2, [r4, #252]
	cmp	r2, r5
	bhi	.L1324
.L1388:
	mov	r5, r4
	ldr	r4, [fp, #-52]
	b	.L1317
.L1309:
	ldr	r1, [r1, #648]
	ldr	r0, [r7, #2352]
	bl	FSP_GetLogicFs
	subs	r3, r0, #0
	beq	.L1399
	ldr	r3, [r3, #28]
	ldr	r3, [r3, #4]
	str	r3, [fp, #-56]
	b	.L1308
.L1298:
	bl	__aeabi_uidiv
	str	r0, [r8, #808]
	b	.L1297
.L1397:
	ldrb	r3, [r5, #208]	@ zero_extendqisi2
	cmp	r3, #1
	bne	.L1337
.L1336:
	ldr	r3, [r5, #268]
	add	r8, r4, #20736
	add	ip, r4, #21504
	add	lr, r4, #20992
	add	r1, r4, #21760
	mov	r7, r8
	str	r3, [r6, #80]
	mov	r0, ip
	ldr	r9, [r5, #272]
	add	r8, r8, #16
	add	r7, r7, #144
	add	lr, lr, #16
	add	ip, ip, #16
	add	r0, r0, #144
	add	r1, r1, #16
	mov	r10, r6
	mov	r3, r6
	mov	r2, #0
	str	r6, [fp, #-52]
	str	r9, [r10, #84]!
.L1338:
	ldr	r9, [r8, #4]!
	add	r2, r2, #1
	add	r3, r3, #4
	str	r9, [r10, #4]!
	ldr	r9, [r7, #4]!
	str	r9, [r3, #212]
	ldr	r9, [lr, #4]!
	str	r9, [r3, #340]
	ldr	r9, [ip, #4]!
	str	r9, [r3, #852]
	ldr	r9, [r0, #4]!
	str	r9, [r3, #980]
	ldr	r9, [r1, #4]!
	str	r9, [r3, #1108]
	ldr	r9, [r5, #260]
	cmp	r9, r2
	bcs	.L1338
	ldrb	r3, [r5, #208]	@ zero_extendqisi2
	cmp	r3, #1
	bne	.L1337
	add	lr, r4, #21248
	add	r1, r4, #22016
	add	r7, r4, #20992
	add	r0, r4, #21760
	ldr	r8, [fp, #-52]
	mov	ip, lr
	mov	r2, r1
	add	r6, r6, #468
	add	r7, r7, #144
	add	lr, lr, #16
	add	ip, ip, #144
	add	r0, r0, #144
	add	r1, r1, #16
	add	r2, r2, #144
	mov	r3, #0
.L1339:
	ldr	r9, [r7, #4]!
	add	r3, r3, #1
	add	r8, r8, #4
	str	r9, [r6, #4]!
	ldr	r9, [lr, #4]!
	str	r9, [r8, #596]
	ldr	r9, [ip, #4]!
	str	r9, [r8, #724]
	ldr	r9, [r0, #4]!
	str	r9, [r8, #1236]
	ldr	r9, [r1, #4]!
	str	r9, [r8, #1364]
	ldr	r9, [r2, #4]!
	str	r9, [r8, #1492]
	ldr	r9, [r5, #264]
	cmp	r9, r3
	bcs	.L1339
	b	.L1337
.L1396:
	ldr	r3, [r5, #252]
	cmp	r3, #0
	beq	.L1317
	add	r8, r4, #27136
	mov	r9, #0
	str	r4, [fp, #-52]
	mov	r10, r6
	mov	r4, r5
	add	r8, r8, #120
	mov	r5, r9
	ldr	r9, [fp, #-56]
	b	.L1333
.L1331:
	strb	r2, [r10, #2782]
	ldr	r2, [r8]
	ldrb	r2, [r2, #1]	@ zero_extendqisi2
	strb	r2, [r10, #2783]
	ldr	r2, [r8]
	ldr	r2, [r2, #12]
	str	r2, [r10, #2808]
.L1332:
	ldr	r2, [r4, #252]
	add	r5, r5, #1
	add	r8, r8, #4
	add	r10, r10, #36
	cmp	r2, r5
	bls	.L1388
.L1333:
	ldr	r2, [r8]
	ldr	r0, [r7, #2352]
	ldr	r2, [r2, #36]
	ldr	r1, [r2, #648]
	bl	FSP_GetLogicFs
	ldr	r2, [r8]
	ldr	r2, [r2, #36]
	ldr	r2, [r2, #684]
	str	r2, [r10, #2788]
	ldr	r2, [r8]
	ldr	r2, [r2, #36]
	ldrb	r2, [r2, #1]	@ zero_extendqisi2
	strb	r2, [r10, #2777]
	ldr	r2, [r8]
	ldr	r2, [r2, #36]
	ldrb	r2, [r2]	@ zero_extendqisi2
	cmp	r2, #1
	moveq	r0, r9
	beq	.L1330
	cmp	r0, #0
	ldrne	r2, [r0, #28]
	ldrne	r0, [r2, #4]
.L1330:
	str	r0, [r10, #2792]
	ldr	r2, [r8]
	ldr	r2, [r2, #36]
	ldr	r2, [r2, #688]
	str	r2, [r10, #2796]
	ldr	r2, [r8]
	ldr	r2, [r2, #36]
	ldr	r2, [r2, #664]
	str	r2, [r10, #2784]
	ldr	r2, [r8]
	ldrb	r2, [r2]	@ zero_extendqisi2
	strb	r2, [r10, #2776]
	ldr	r2, [r8]
	ldr	r2, [r2, #36]
	ldrb	r2, [r2, #696]	@ zero_extendqisi2
	strb	r2, [r10, #2778]
	ldr	r2, [r8]
	ldrb	r2, [r2]	@ zero_extendqisi2
	cmp	r2, #1
	bne	.L1331
	strb	r2, [r10, #2780]
	ldr	r2, [r8]
	ldrb	r2, [r2, #1]	@ zero_extendqisi2
	strb	r2, [r10, #2781]
	ldr	r2, [r8]
	ldr	r2, [r2, #12]
	str	r2, [r10, #2804]
	b	.L1332
.L1340:
	str	r8, [fp, #-52]
	b	.L1302
.L1341:
	str	r9, [fp, #-56]
	b	.L1308
.L1399:
	movw	r2, #7125
.L1389:
	ldr	r1, .L1400
	sub	sp, fp, #40
	ldmfd	sp, {r4, r5, r6, r7, r8, r9, r10, fp, sp, lr}
	b	dprint_vfmw
.L1401:
	.align	2
.L1400:
	.word	.LC47
	UNWIND(.fnend)
	.size	WriteSliceMsg, .-WriteSliceMsg
	.align	2
	.global	StopPicNum
	.type	StopPicNum, %function
StopPicNum:
	UNWIND(.fnstart)
	@ args = 0, pretend = 0, frame = 0
	@ frame_needed = 1, uses_anonymous_args = 0
	UNWIND(.movsp ip)
	mov	ip, sp
	stmfd	sp!, {fp, ip, lr, pc}
	UNWIND(.pad #4)
	UNWIND(.save {fp, ip, lr})
	UNWIND(.setfp fp, ip, #-4)
	sub	fp, ip, #4
	ldmfd	sp, {fp, sp, pc}
	UNWIND(.fnend)
	.size	StopPicNum, .-StopPicNum
	.align	2
	.global	H264_GetPicStreamSize
	.type	H264_GetPicStreamSize, %function
H264_GetPicStreamSize:
	UNWIND(.fnstart)
	@ args = 0, pretend = 0, frame = 0
	@ frame_needed = 1, uses_anonymous_args = 0
	UNWIND(.movsp ip)
	mov	ip, sp
	stmfd	sp!, {fp, ip, lr, pc}
	UNWIND(.pad #4)
	UNWIND(.save {fp, ip, lr})
	UNWIND(.setfp fp, ip, #-4)
	sub	fp, ip, #4
	add	r0, r0, #61440
	ldr	r2, [r0, #2024]
	cmp	r2, #0
	beq	.L1406
	mov	r0, #0
.L1405:
	ldr	r3, [r2, #8]
	ldr	r1, [r2, #12]
	ldr	r2, [r2, #4056]
	add	r3, r3, r1
	add	r3, r3, #7
	cmp	r2, #0
	add	r0, r0, r3, lsr #3
	bne	.L1405
	ldmfd	sp, {fp, sp, pc}
.L1406:
	mov	r0, r2
	ldmfd	sp, {fp, sp, pc}
	UNWIND(.fnend)
	.size	H264_GetPicStreamSize, .-H264_GetPicStreamSize
	.align	2
	.global	SliceCheck
	.type	SliceCheck, %function
SliceCheck:
	UNWIND(.fnstart)
	@ args = 0, pretend = 0, frame = 0
	@ frame_needed = 1, uses_anonymous_args = 0
	UNWIND(.movsp ip)
	mov	ip, sp
	stmfd	sp!, {r4, r5, r6, r7, fp, ip, lr, pc}
	UNWIND(.pad #4)
	UNWIND(.save {r4, r5, r6, r7, fp, ip, lr})
	UNWIND(.setfp fp, ip, #-4)
	sub	fp, ip, #4
	ldr	r1, .L1419
	add	r4, r0, #20480
	add	r6, r0, #61440
	mov	r5, r0
	bl	ue_v
	str	r0, [r4, #256]
	ldr	r3, [r6, #2292]
	cmp	r3, #0
	bne	.L1417
	cmp	r0, #262144
	bcs	.L1418
	add	r2, r5, #12288
	ldr	r1, [r2, #1276]
	ldr	r3, [r2, #1280]
	mul	r3, r3, r1
	sub	r3, r3, #1
	cmp	r0, r3
	bhi	.L1417
	mov	r0, r5
	ldr	r1, .L1419+4
	bl	ue_v
	ldr	r1, .L1419+8
	mov	r2, r0
	mov	r5, r0
	mov	r0, #19
	bl	dprint_vfmw
	ldr	r3, [r6, #2292]
	cmp	r3, #0
	bne	.L1417
	cmp	r5, #9
	bhi	.L1413
	mov	r1, #1
	movw	r0, #297
	mov	r2, r1, asl r5
	and	r0, r0, r2
	cmp	r0, #0
	bne	.L1414
	ands	r3, r2, #660
	bne	.L1415
	tst	r2, #66
	beq	.L1413
	strb	r1, [r4, #208]
	mov	r0, r3
	ldmfd	sp, {r4, r5, r6, r7, fp, sp, pc}
.L1414:
	strb	r3, [r4, #208]
	mov	r0, r3
	ldmfd	sp, {r4, r5, r6, r7, fp, sp, pc}
.L1413:
	mov	r2, r5
	ldr	r1, .L1419+12
	mov	r0, #1
	bl	dprint_vfmw
.L1417:
	mvn	r0, #0
	ldmfd	sp, {r4, r5, r6, r7, fp, sp, pc}
.L1415:
	mov	r3, #2
	strb	r3, [r4, #208]
	ldmfd	sp, {r4, r5, r6, r7, fp, sp, pc}
.L1418:
	ldr	r1, .L1419+16
	mov	r0, #1
	bl	dprint_vfmw
	mvn	r0, #0
	ldmfd	sp, {r4, r5, r6, r7, fp, sp, pc}
.L1420:
	.align	2
.L1419:
	.word	.LC48
	.word	.LC50
	.word	.LC51
	.word	.LC52
	.word	.LC49
	UNWIND(.fnend)
	.size	SliceCheck, .-SliceCheck
	.align	2
	.global	PPSSPSCheck
	.type	PPSSPSCheck, %function
PPSSPSCheck:
	UNWIND(.fnstart)
	@ args = 0, pretend = 0, frame = 0
	@ frame_needed = 1, uses_anonymous_args = 0
	UNWIND(.movsp ip)
	mov	ip, sp
	stmfd	sp!, {r4, r5, fp, ip, lr, pc}
	UNWIND(.pad #4)
	UNWIND(.save {r4, r5, fp, ip, lr})
	UNWIND(.setfp fp, ip, #-4)
	sub	fp, ip, #4
	add	r5, r0, #20480
	mov	r4, r0
	add	r4, r4, #12288
	ldr	r1, .L1427
	ldr	r2, [r5, #216]
	mov	r0, #19
	bl	dprint_vfmw
	ldr	r1, [r4, #1304]
	ldr	r2, [r5, #216]
	mov	r3, #2208
	mla	r3, r3, r2, r1
	ldrb	r1, [r3, #19]	@ zero_extendqisi2
	cmp	r1, #0
	beq	.L1425
	ldr	r2, [r3, #28]
	mov	r3, #4000
	ldr	r1, [r4, #1300]
	mla	r3, r3, r2, r1
	ldrb	r3, [r3, #23]	@ zero_extendqisi2
	cmp	r3, #0
	beq	.L1426
	mov	r0, #0
	ldmfd	sp, {r4, r5, fp, sp, pc}
.L1425:
	ldr	r1, .L1427+4
	mov	r0, #1
	bl	dprint_vfmw
	mvn	r0, #0
	ldmfd	sp, {r4, r5, fp, sp, pc}
.L1426:
	ldr	r1, .L1427+8
	mov	r0, #1
	bl	dprint_vfmw
	mvn	r0, #0
	ldmfd	sp, {r4, r5, fp, sp, pc}
.L1428:
	.align	2
.L1427:
	.word	.LC53
	.word	.LC54
	.word	.LC55
	UNWIND(.fnend)
	.size	PPSSPSCheck, .-PPSSPSCheck
	.align	2
	.global	PPSSPSCheckTmpId
	.type	PPSSPSCheckTmpId, %function
PPSSPSCheckTmpId:
	UNWIND(.fnstart)
	@ args = 0, pretend = 0, frame = 0
	@ frame_needed = 1, uses_anonymous_args = 0
	UNWIND(.movsp ip)
	mov	ip, sp
	stmfd	sp!, {r4, r5, fp, ip, lr, pc}
	UNWIND(.pad #4)
	UNWIND(.save {r4, r5, fp, ip, lr})
	UNWIND(.setfp fp, ip, #-4)
	sub	fp, ip, #4
	mov	r2, r1
	mov	r5, r1
	mov	r4, r0
	ldr	r1, .L1437
	mov	r0, #19
	bl	dprint_vfmw
	add	r0, r4, #12288
	mov	r3, #2208
	ldr	r2, [r0, #1304]
	mla	r3, r3, r5, r2
	ldrb	r2, [r3, #19]	@ zero_extendqisi2
	cmp	r2, #0
	beq	.L1434
	ldr	r1, [r0, #1288]
	ldr	r2, [r3, #28]
	sub	r3, r1, #1
	cmp	r2, r3
	bhi	.L1435
	ldr	r1, [r0, #1300]
	mov	r3, #4000
	mla	r3, r3, r2, r1
	ldrb	r3, [r3, #23]	@ zero_extendqisi2
	cmp	r3, #0
	beq	.L1436
	mov	r0, #0
	ldmfd	sp, {r4, r5, fp, sp, pc}
.L1434:
	mov	r2, r5
	ldr	r1, .L1437+4
	mov	r0, #1
	bl	dprint_vfmw
	mvn	r0, #0
	ldmfd	sp, {r4, r5, fp, sp, pc}
.L1435:
	ldr	r1, .L1437+8
	mov	r0, #1
	bl	dprint_vfmw
	mvn	r0, #0
	ldmfd	sp, {r4, r5, fp, sp, pc}
.L1436:
	ldr	r1, .L1437+12
	mov	r0, #1
	bl	dprint_vfmw
	mvn	r0, #0
	ldmfd	sp, {r4, r5, fp, sp, pc}
.L1438:
	.align	2
.L1437:
	.word	.LC56
	.word	.LC57
	.word	.LC58
	.word	.LC59
	UNWIND(.fnend)
	.size	PPSSPSCheckTmpId, .-PPSSPSCheckTmpId
	.align	2
	.global	IsNewPic
	.type	IsNewPic, %function
IsNewPic:
	UNWIND(.fnstart)
	@ args = 0, pretend = 0, frame = 0
	@ frame_needed = 1, uses_anonymous_args = 0
	UNWIND(.movsp ip)
	mov	ip, sp
	stmfd	sp!, {r4, r5, r6, r7, fp, ip, lr, pc}
	UNWIND(.pad #4)
	UNWIND(.save {r4, r5, r6, r7, fp, ip, lr})
	UNWIND(.setfp fp, ip, #-4)
	sub	fp, ip, #4
	add	r3, r0, #20480
	add	lr, r0, #12288
	ldr	ip, [r3, #1852]
	ldr	r1, [lr, #1344]
	ldr	r2, [r3, #1856]
	ldr	r4, [r3, #216]
	ldr	r6, [r3, #1864]
	cmp	r2, r4
	cmpeq	ip, r1
	ldr	r5, [r3, #224]
	ldrb	r4, [r3, #1848]	@ zero_extendqisi2
	ldrb	ip, [r3, #209]	@ zero_extendqisi2
	movne	r1, #1
	moveq	r1, #0
	cmp	r6, r5
	moveq	r2, r1
	orrne	r2, r1, #1
	cmp	r4, ip
	orrne	r2, r2, #1
	cmp	r4, #0
	cmpne	ip, #0
	beq	.L1441
	ldrb	ip, [r3, #1849]	@ zero_extendqisi2
	ldrb	r1, [r3, #210]	@ zero_extendqisi2
	cmp	ip, r1
	orrne	r2, r2, #1
.L1441:
	ldr	r1, [r3, #1860]
	ldr	ip, [r3, #236]
	cmp	r1, ip
	moveq	r1, #0
	beq	.L1442
	cmp	ip, #0
	cmpne	r1, #0
	moveq	r1, #1
	movne	r1, #0
.L1442:
	ldrb	ip, [r3, #1850]	@ zero_extendqisi2
	ldrb	r4, [r3, #211]	@ zero_extendqisi2
	cmp	ip, r4
	orrne	r2, r2, #1
	cmp	r4, #5
	cmpeq	ip, #5
	orr	r2, r2, r1
	beq	.L1450
.L1443:
	ldr	r1, [lr, #3508]
	cmp	r1, #0
	bne	.L1444
	add	r0, r0, #16384
	ldr	r1, [r3, #1872]
	ldr	ip, [r3, #1876]
	ldr	lr, [r0, #3424]
	ldr	r0, [r0, #3420]
	cmp	r1, r0
	cmpeq	ip, lr
	movne	r1, #1
	moveq	r1, #0
	orr	r2, r2, r1
.L1445:
	ldr	r4, [r3, #256]
	mov	r0, #19
	ldr	r1, .L1451
	cmp	r4, #0
	movne	r4, r2
	orreq	r4, r2, #1
	mov	r2, r4
	bl	dprint_vfmw
	mov	r0, r4
	ldmfd	sp, {r4, r5, r6, r7, fp, sp, pc}
.L1444:
	cmp	r1, #1
	bne	.L1445
	add	r0, r0, #16384
	ldr	r1, [r3, #1880]
	ldr	ip, [r3, #1884]
	ldr	lr, [r0, #3472]
	ldr	r0, [r0, #3468]
	cmp	r1, r0
	cmpeq	ip, lr
	movne	r1, #1
	moveq	r1, #0
	orr	r2, r2, r1
	b	.L1445
.L1450:
	ldr	ip, [r3, #1868]
	ldr	r1, [r3, #244]
	cmp	ip, r1
	orrne	r2, r2, #1
	b	.L1443
.L1452:
	.align	2
.L1451:
	.word	.LC60
	UNWIND(.fnend)
	.size	IsNewPic, .-IsNewPic
	.align	2
	.global	ref_pic_list_reordering
	.type	ref_pic_list_reordering, %function
ref_pic_list_reordering:
	UNWIND(.fnstart)
	@ args = 0, pretend = 0, frame = 0
	@ frame_needed = 1, uses_anonymous_args = 0
	UNWIND(.movsp ip)
	mov	ip, sp
	stmfd	sp!, {r3, r4, r5, r6, r7, r8, r9, r10, fp, ip, lr, pc}
	UNWIND(.pad #4)
	UNWIND(.save {r3, r4, r5, r6, r7, r8, r9, r10, fp, ip, lr})
	UNWIND(.setfp fp, ip, #-4)
	sub	fp, ip, #4
	add	r5, r0, #20480
	add	r3, r0, #12288
	mov	lr, #2208
	mov	ip, #4000
	ldr	r2, [r3, #1304]
	add	r8, r0, #16384
	ldr	r1, [r5, #216]
	mov	r4, r0
	ldr	r3, [r3, #1300]
	mov	r0, #0
	mov	r7, #1
	mla	r2, lr, r1, r2
	ldr	r2, [r2, #28]
	strb	r0, [r8, #3512]
	strb	r0, [r8, #3513]
	mla	r3, ip, r2, r3
	ldrb	r1, [r5, #209]	@ zero_extendqisi2
	cmp	r1, r0
	ldr	r3, [r3, #2196]
	addne	r3, r3, #5
	addeq	r3, r3, #4
	mov	r7, r7, asl r3
	ldrb	r3, [r5, #208]	@ zero_extendqisi2
	cmp	r3, #1
	addhi	r6, r4, #61440
	bls	.L1507
.L1506:
	ldr	r3, [r6, #2292]
.L1472:
	adds	r3, r3, #0
	movne	r3, #1
	rsb	r0, r3, #0
	ldmfd	sp, {r3, r4, r5, r6, r7, r8, r9, r10, fp, sp, pc}
.L1507:
	ldr	r1, .L1512
	mov	r0, r4
	bl	u_1
	uxtb	r0, r0
	strb	r0, [r8, #3512]
	cmp	r0, #0
	beq	.L1505
	ldr	r3, [r5, #260]
	cmn	r3, #2
	beq	.L1486
	add	r10, r4, #19712
	add	r6, r4, #61440
	add	r10, r10, #184
	mov	r9, #0
	b	.L1469
.L1464:
	cmp	r0, #2
	beq	.L1508
.L1467:
	ldr	r3, [r5, #260]
	add	r3, r3, #2
	cmp	r3, r9
	bls	.L1509
.L1469:
	ldr	r1, .L1512+4
	mov	r0, r4
	bl	ue_v
	add	r9, r9, #1
	cmp	r0, #3
	str	r0, [r10, #4]!
	ldr	r3, [r6, #2292]
	bhi	.L1460
	cmp	r3, #0
	bne	.L1460
	cmp	r0, #3
	beq	.L1463
	cmp	r0, #1
	bhi	.L1464
	ldr	r1, .L1512+8
	mov	r0, r4
	bl	ue_v
	cmp	r7, r0
	str	r0, [r10, #264]
	ldr	r3, [r6, #2292]
	bls	.L1466
	cmp	r3, #0
	beq	.L1467
.L1466:
	mov	r2, r0
	ldr	r1, .L1512+12
	mov	r0, #1
	bl	dprint_vfmw
	mvn	r0, #0
	ldmfd	sp, {r3, r4, r5, r6, r7, r8, r9, r10, fp, sp, pc}
.L1508:
	ldr	r1, .L1512+16
	mov	r0, r4
	bl	ue_v
	str	r0, [r10, #528]
	b	.L1467
.L1505:
	ldrb	r3, [r5, #208]	@ zero_extendqisi2
	add	r6, r4, #61440
.L1456:
	cmp	r3, #1
	bne	.L1506
	ldr	r1, .L1512+20
	mov	r0, r4
	bl	u_1
	uxtb	r0, r0
	strb	r0, [r8, #3513]
	cmp	r0, #0
	beq	.L1506
	ldr	r3, [r5, #264]
	cmn	r3, #2
	beq	.L1506
	add	r9, r4, #19968
	mov	r8, #0
	add	r9, r9, #60
	b	.L1484
.L1483:
	add	r8, r8, #1
	cmp	r8, r3
	bcs	.L1506
.L1484:
	ldr	r1, .L1512+24
	mov	r0, r4
	bl	ue_v
	cmp	r0, #3
	str	r0, [r9, #4]!
	ldr	r3, [r6, #2292]
	bhi	.L1476
	cmp	r3, #0
	bne	.L1476
	cmp	r0, #3
	beq	.L1472
	cmp	r0, #1
	bls	.L1510
	cmp	r0, #2
	beq	.L1511
	ldr	r3, [r5, #264]
	add	r3, r3, #2
	cmp	r3, r8
	bne	.L1483
.L1485:
	ldr	r1, .L1512+28
	mov	r0, #1
	bl	dprint_vfmw
	mvn	r0, #0
	ldmfd	sp, {r3, r4, r5, r6, r7, r8, r9, r10, fp, sp, pc}
.L1510:
	ldr	r1, .L1512+32
	mov	r0, r4
	bl	ue_v
	cmp	r7, r0
	str	r0, [r9, #264]
	ldr	r3, [r6, #2292]
	bls	.L1480
	cmp	r3, #0
	bne	.L1480
.L1481:
	ldr	r2, [r5, #264]
	add	r3, r2, #2
	cmp	r3, r8
	bne	.L1483
	add	r2, r2, #4992
	add	r2, r2, #18
	ldr	r2, [r4, r2, asl #2]
	cmp	r2, #3
	beq	.L1483
	b	.L1485
.L1511:
	ldr	r1, .L1512+36
	mov	r0, r4
	bl	ue_v
	str	r0, [r9, #524]
	b	.L1481
.L1463:
	ldrb	r3, [r5, #208]	@ zero_extendqisi2
	b	.L1456
.L1460:
	mov	r2, r0
	ldr	r1, .L1512+40
	mov	r0, #1
	bl	dprint_vfmw
	mvn	r0, #0
	ldmfd	sp, {r3, r4, r5, r6, r7, r8, r9, r10, fp, sp, pc}
.L1476:
	mov	r2, r0
	ldr	r1, .L1512+44
	mov	r0, #1
	bl	dprint_vfmw
	mvn	r0, #0
	ldmfd	sp, {r3, r4, r5, r6, r7, r8, r9, r10, fp, sp, pc}
.L1509:
	cmp	r9, r3
	bne	.L1463
.L1458:
	add	r3, r3, #4928
	add	r3, r3, #46
	add	r3, r4, r3, lsl #2
	ldr	r3, [r3, #4]
	cmp	r3, #3
	beq	.L1505
	ldr	r1, .L1512+48
	mov	r0, #1
	bl	dprint_vfmw
	mvn	r0, #0
	ldmfd	sp, {r3, r4, r5, r6, r7, r8, r9, r10, fp, sp, pc}
.L1480:
	mov	r2, r0
	ldr	r1, .L1512+52
	mov	r0, #1
	bl	dprint_vfmw
	mvn	r0, #0
	ldmfd	sp, {r3, r4, r5, r6, r7, r8, r9, r10, fp, sp, pc}
.L1486:
	mov	r3, #0
	b	.L1458
.L1513:
	.align	2
.L1512:
	.word	.LC61
	.word	.LC62
	.word	.LC64
	.word	.LC65
	.word	.LC66
	.word	.LC68
	.word	.LC69
	.word	.LC74
	.word	.LC71
	.word	.LC73
	.word	.LC63
	.word	.LC70
	.word	.LC67
	.word	.LC72
	UNWIND(.fnend)
	.size	ref_pic_list_reordering, .-ref_pic_list_reordering
	.align	2
	.global	pred_weight_table
	.type	pred_weight_table, %function
pred_weight_table:
	UNWIND(.fnstart)
	@ args = 0, pretend = 0, frame = 8
	@ frame_needed = 1, uses_anonymous_args = 0
	UNWIND(.movsp ip)
	mov	ip, sp
	stmfd	sp!, {r4, r5, r6, r7, r8, r9, r10, fp, ip, lr, pc}
	UNWIND(.pad #4)
	UNWIND(.save {r4, r5, r6, r7, r8, r9, r10, fp, ip, lr})
	UNWIND(.setfp fp, ip, #-4)
	sub	fp, ip, #4
	UNWIND(.pad #12)
	sub	sp, sp, #12
	add	r3, r0, #12288
	add	r6, r0, #20480
	mov	r10, #2208
	ldr	r2, [r3, #1304]
	mov	r7, #4000
	ldr	ip, [r6, #216]
	mov	r5, r0
	ldr	r3, [r3, #1300]
	mov	r4, #1
	ldr	r1, .L1544
	mla	r2, r10, ip, r2
	str	r2, [fp, #-48]
	ldr	r2, [r2, #28]
	mla	r7, r7, r2, r3
	bl	ue_v
	str	r0, [r6, #268]
	mov	r8, r4, asl r0
	ldr	r9, [r7, #40]
	cmp	r9, #0
	bne	.L1538
.L1515:
	cmp	r0, #7
	bhi	.L1518
	ldr	r3, [r6, #272]
	cmp	r3, #7
	bhi	.L1518
	add	r3, r5, #61440
	str	r3, [fp, #-52]
	ldr	r2, [r3, #2292]
	cmp	r2, #0
	addeq	r10, r5, #20736
	moveq	r4, r2
	addeq	r10, r10, #148
	beq	.L1526
	b	.L1517
.L1522:
	ldr	r2, [r7, #40]
	cmp	r2, #0
	bne	.L1539
.L1523:
	str	r2, [r10]
	str	r2, [r10, #768]
	str	r2, [r10, #128]
	str	r2, [r10, #896]
.L1525:
	ldr	r2, [r6, #260]
	add	r4, r4, #1
	add	r10, r10, #4
	cmp	r2, r4
	bcc	.L1540
.L1526:
	ldr	r1, .L1544+4
	mov	r0, r5
	bl	u_1
	cmp	r0, #0
	streq	r8, [r10, #-128]
	streq	r0, [r10, #640]
	beq	.L1522
	ldr	r1, .L1544+8
	mov	r0, r5
	bl	se_v
	ldr	r1, .L1544+12
	str	r0, [r10, #-128]
	mov	r0, r5
	bl	se_v
	str	r0, [r10, #640]
	ldr	r2, [r7, #40]
	cmp	r2, #0
	beq	.L1523
.L1539:
	ldr	r1, .L1544+16
	mov	r0, r5
	bl	u_1
	cmp	r0, #0
	bne	.L1541
	str	r9, [r10]
	str	r0, [r10, #768]
	str	r9, [r10, #128]
	str	r0, [r10, #896]
	b	.L1525
.L1540:
	ldr	r3, [fp, #-48]
	ldr	r3, [r3, #44]
	cmp	r3, #1
	beq	.L1527
.L1528:
	ldr	r3, [fp, #-52]
	ldr	r0, [r3, #2292]
	adds	r0, r0, #0
	movne	r0, #1
	rsb	r0, r0, #0
.L1520:
	sub	sp, fp, #40
	ldmfd	sp, {r4, r5, r6, r7, r8, r9, r10, fp, sp, pc}
.L1541:
	ldr	r1, .L1544+20
	mov	r0, r5
	bl	se_v
	ldr	r1, .L1544+24
	str	r0, [r10]
	mov	r0, r5
	bl	se_v
	ldr	r1, .L1544+20
	str	r0, [r10, #768]
	mov	r0, r5
	bl	se_v
	ldr	r1, .L1544+24
	str	r0, [r10, #128]
	mov	r0, r5
	bl	se_v
	str	r0, [r10, #896]
	b	.L1525
.L1538:
	ldr	r1, .L1544+28
	mov	r0, r5
	bl	ue_v
	mov	r3, r0
	ldr	r0, [r6, #268]
	mov	r9, r4, asl r3
	str	r3, [r6, #272]
	b	.L1515
.L1527:
	ldrb	r3, [r6, #208]	@ zero_extendqisi2
	cmp	r3, #1
	bne	.L1528
	add	r10, r5, #21248
	mov	r4, #0
	add	r10, r10, #20
	b	.L1534
.L1530:
	ldr	r3, [r7, #40]
	cmp	r3, #0
	bne	.L1542
.L1531:
	str	r3, [r10]
	str	r3, [r10, #768]
	str	r3, [r10, #128]
	str	r3, [r10, #896]
.L1533:
	ldr	r3, [r6, #264]
	add	r4, r4, #1
	add	r10, r10, #4
	cmp	r3, r4
	bcc	.L1528
.L1534:
	ldr	r1, .L1544+32
	mov	r0, r5
	bl	u_1
	cmp	r0, #0
	streq	r8, [r10, #-128]
	streq	r0, [r10, #640]
	beq	.L1530
	ldr	r1, .L1544+36
	mov	r0, r5
	bl	se_v
	ldr	r1, .L1544+40
	str	r0, [r10, #-128]
	mov	r0, r5
	bl	se_v
	str	r0, [r10, #640]
	ldr	r3, [r7, #40]
	cmp	r3, #0
	beq	.L1531
.L1542:
	ldr	r1, .L1544+44
	mov	r0, r5
	bl	u_1
	cmp	r0, #0
	bne	.L1543
	str	r9, [r10]
	str	r0, [r10, #768]
	str	r9, [r10, #128]
	str	r0, [r10, #896]
	b	.L1533
.L1518:
	add	r5, r5, #61440
	ldr	r2, [r5, #2292]
.L1517:
	ldr	r1, .L1544+48
	mov	r0, #1
	bl	dprint_vfmw
	mvn	r0, #0
	b	.L1520
.L1543:
	ldr	r1, .L1544+52
	mov	r0, r5
	bl	se_v
	ldr	r1, .L1544+56
	str	r0, [r10]
	mov	r0, r5
	bl	se_v
	ldr	r1, .L1544+52
	str	r0, [r10, #768]
	mov	r0, r5
	bl	se_v
	ldr	r1, .L1544+56
	str	r0, [r10, #128]
	mov	r0, r5
	bl	se_v
	str	r0, [r10, #896]
	b	.L1533
.L1545:
	.align	2
.L1544:
	.word	.LC75
	.word	.LC78
	.word	.LC79
	.word	.LC80
	.word	.LC81
	.word	.LC82
	.word	.LC83
	.word	.LC76
	.word	.LC84
	.word	.LC85
	.word	.LC86
	.word	.LC87
	.word	.LC77
	.word	.LC88
	.word	.LC89
	UNWIND(.fnend)
	.size	pred_weight_table, .-pred_weight_table
	.align	2
	.global	DecMMCO
	.type	DecMMCO, %function
DecMMCO:
	UNWIND(.fnstart)
	@ args = 0, pretend = 0, frame = 0
	@ frame_needed = 1, uses_anonymous_args = 0
	UNWIND(.movsp ip)
	mov	ip, sp
	stmfd	sp!, {r3, r4, r5, r6, r7, r8, r9, r10, fp, ip, lr, pc}
	UNWIND(.pad #4)
	UNWIND(.save {r3, r4, r5, r6, r7, r8, r9, r10, fp, ip, lr})
	UNWIND(.setfp fp, ip, #-4)
	sub	fp, ip, #4
	cmp	r1, #0
	mov	r9, r0
	moveq	r6, #100
	beq	.L1558
	add	r8, r0, #24576
	mov	r10, #0
	b	.L1549
.L1580:
	ldr	r1, .L1586
	mov	r0, r9
	bl	ue_v
	cmp	r4, #2
	beq	.L1578
.L1560:
	cmp	r4, #6
	orreq	r5, r5, #1
	cmp	r5, #0
	bne	.L1563
	cmp	r4, #4
	beq	.L1579
.L1564:
	cmp	r4, #6
	bhi	.L1556
.L1561:
	add	r3, r9, #61440
	ldr	r3, [r3, #2292]
	cmp	r3, #0
	bne	.L1556
	cmp	r4, #0
	beq	.L1566
.L1565:
	subs	r6, r6, #1
	beq	.L1567
.L1558:
	ldr	r1, .L1586+4
	mov	r0, r9
	bl	ue_v
	bic	r3, r0, #2
	sub	r5, r0, #3
	clz	r5, r5
	cmp	r3, #1
	mov	r4, r0
	mov	r5, r5, lsr #5
	beq	.L1580
	cmp	r4, #2
	bne	.L1560
.L1578:
	ldr	r1, .L1586+8
	mov	r0, r9
	bl	ue_v
	cmp	r5, #0
	beq	.L1561
.L1563:
	ldr	r1, .L1586+12
	mov	r0, r9
	bl	ue_v
	cmp	r4, #4
	bne	.L1564
.L1579:
	ldr	r1, .L1586+16
	mov	r0, r9
	bl	ue_v
	add	r3, r9, #61440
	ldr	r3, [r3, #2292]
	cmp	r3, #0
	beq	.L1565
.L1556:
	ldr	r1, .L1586+20
	mov	r0, #1
	bl	dprint_vfmw
	mvn	r0, #0
	ldmfd	sp, {r3, r4, r5, r6, r7, r8, r9, r10, fp, sp, pc}
.L1585:
	ldr	r1, .L1586
	mov	r0, r9
	bl	ue_v
	ldr	r2, [r4, #8]
	cmp	r2, #2
	str	r0, [r4, #12]
	beq	.L1581
.L1552:
	cmp	r2, #3
	cmpne	r2, #6
	beq	.L1582
.L1553:
	cmp	r2, #4
	beq	.L1583
.L1554:
	cmp	r2, #6
	bhi	.L1556
	add	r3, r9, #61440
	ldr	r3, [r3, #2292]
	cmp	r3, #0
	bne	.L1556
	cmp	r2, #0
	add	r10, r10, #1
	beq	.L1566
	cmp	r10, #100
	beq	.L1584
.L1549:
	ldr	r1, .L1586+4
	mov	r0, r9
	ldr	r5, [r8, #1804]
	bl	ue_v
	mov	r6, r10, asl #2
	mov	r7, r10, asl #4
	add	r4, r6, r7
	movw	r3, #2004
	mla	r4, r3, r5, r4
	add	r4, r9, r4
	add	r4, r4, #22272
	add	r4, r4, #96
	bic	r1, r0, #2
	str	r0, [r4, #8]
	cmp	r1, #1
	mov	r2, r0
	beq	.L1585
	cmp	r2, #2
	bne	.L1552
.L1581:
	ldr	r1, .L1586+8
	mov	r0, r9
	bl	ue_v
	add	r3, r6, r7
	movw	r2, #2004
	mla	r3, r2, r5, r3
	add	r3, r9, r3
	add	r2, r3, #22272
	str	r0, [r2, #112]
	ldr	r2, [r2, #104]
	cmp	r2, #3
	cmpne	r2, #6
	bne	.L1553
.L1582:
	ldr	r1, .L1586+12
	mov	r0, r9
	bl	ue_v
	add	r3, r6, r7
	movw	r2, #2004
	mla	r3, r2, r5, r3
	add	r3, r9, r3
	add	r2, r3, #22272
	str	r0, [r2, #116]
	ldr	r2, [r2, #104]
	cmp	r2, #4
	bne	.L1554
.L1583:
	ldr	r1, .L1586+16
	mov	r0, r9
	bl	ue_v
	add	r6, r6, r7
	movw	r7, #2004
	mla	r5, r7, r5, r6
	add	r5, r9, r5
	add	r3, r5, #22272
	add	r5, r3, #96
	ldr	r2, [r3, #104]
	str	r0, [r3, #120]
	b	.L1554
.L1566:
	mov	r0, #0
	ldmfd	sp, {r3, r4, r5, r6, r7, r8, r9, r10, fp, sp, pc}
.L1584:
	ldr	r1, .L1586+24
	mov	r0, #1
	bl	dprint_vfmw
	mvn	r0, #0
	ldmfd	sp, {r3, r4, r5, r6, r7, r8, r9, r10, fp, sp, pc}
.L1567:
	mvn	r0, #0
	ldmfd	sp, {r3, r4, r5, r6, r7, r8, r9, r10, fp, sp, pc}
.L1587:
	.align	2
.L1586:
	.word	.LC92
	.word	.LC91
	.word	.LC93
	.word	.LC94
	.word	.LC95
	.word	.LC96
	.word	.LC90
	UNWIND(.fnend)
	.size	DecMMCO, .-DecMMCO
	.align	2
	.global	dec_ref_pic_marking
	.type	dec_ref_pic_marking, %function
dec_ref_pic_marking:
	UNWIND(.fnstart)
	@ args = 0, pretend = 0, frame = 0
	@ frame_needed = 1, uses_anonymous_args = 0
	UNWIND(.movsp ip)
	mov	ip, sp
	stmfd	sp!, {r4, r5, r6, r7, r8, fp, ip, lr, pc}
	UNWIND(.pad #4)
	UNWIND(.save {r4, r5, r6, r7, r8, fp, ip, lr})
	UNWIND(.setfp fp, ip, #-4)
	sub	fp, ip, #4
	UNWIND(.pad #12)
	sub	sp, sp, #12
	add	r3, r0, #20480
	add	r6, r0, #24576
	mov	r5, r0
	ldrb	r8, [r3, #213]	@ zero_extendqisi2
	ldr	r7, [r6, #1804]
	cmp	r8, #0
	beq	.L1589
	clz	r4, r7
	mov	r4, r4, lsr #5
	str	r4, [r6, #1804]
	ldrb	r3, [r3, #211]	@ zero_extendqisi2
	cmp	r3, #5
	beq	.L1607
.L1590:
	ldr	r1, .L1612
	mov	r0, r5
	bl	u_1
	movw	r1, #2004
	mla	r4, r1, r4, r5
	ldr	r1, .L1612+4
	add	r4, r4, #22272
	add	r4, r4, #96
	mov	r3, r0
	uxtb	r2, r0
	strb	r3, [r4, #7]
	mov	r0, #16
	bl	dprint_vfmw
	ldrb	r3, [r4, #7]	@ zero_extendqisi2
	cmp	r3, #0
	bne	.L1592
.L1596:
	mov	r8, #0
.L1604:
	mov	r0, r8
	sub	sp, fp, #32
	ldmfd	sp, {r4, r5, r6, r7, r8, fp, sp, pc}
.L1589:
	movw	r4, #2004
	mla	r4, r4, r7, r0
	add	r4, r4, #22272
	add	r4, r4, #96
	ldrb	r2, [r4, #4]	@ zero_extendqisi2
	cmp	r2, #0
	bne	.L1608
	ldrb	r3, [r3, #211]	@ zero_extendqisi2
	mov	r4, r7
	cmp	r3, #5
	bne	.L1590
.L1607:
	ldr	r1, .L1612+8
	mov	r0, r5
	bl	u_1
	movw	r3, #2004
	mla	r4, r3, r4, r5
	ldr	r1, .L1612+12
	mov	r8, #0
	add	r4, r4, #22272
	strb	r0, [r4, #101]
	mov	r0, r5
	bl	u_1
	ldrb	r2, [r4, #101]	@ zero_extendqisi2
	ldr	r1, .L1612+16
	strb	r0, [r4, #102]
	mov	r0, #16
	bl	dprint_vfmw
	mov	r0, r8
	sub	sp, fp, #32
	ldmfd	sp, {r4, r5, r6, r7, r8, fp, sp, pc}
.L1608:
	ldrb	r3, [r3, #211]	@ zero_extendqisi2
	cmp	r3, #5
	beq	.L1609
	ldr	r1, .L1612
	ldrb	r6, [r4, #7]	@ zero_extendqisi2
	bl	u_1
	cmp	r6, r0
	bne	.L1610
	ldrb	r3, [r4, #7]	@ zero_extendqisi2
	cmp	r3, #0
	beq	.L1596
	mov	r1, r8
	mov	r0, r5
	sub	sp, fp, #32
	ldmfd	sp, {r4, r5, r6, r7, r8, fp, sp, lr}
	b	DecMMCO
.L1592:
	mov	r0, r5
	mov	r1, #1
	bl	DecMMCO
	cmn	r0, #1
	mov	r8, r0
	movne	r3, #1
	movne	r8, #0
	strneb	r3, [r4, #4]
	bne	.L1604
	mov	r3, #0
	ldr	r1, .L1612+20
	strb	r3, [r4, #4]
	mov	r0, #1
	str	r7, [r6, #1804]
	bl	dprint_vfmw
	b	.L1604
.L1609:
	ldr	r1, .L1612+8
	ldrb	r6, [r4, #5]	@ zero_extendqisi2
	bl	u_1
	cmp	r6, r0
	bne	.L1611
	mov	r0, r5
	ldr	r1, .L1612+12
	ldrb	r4, [r4, #6]	@ zero_extendqisi2
	bl	u_1
	cmp	r4, r0
	beq	.L1596
	ldr	r1, .L1612+24
	mov	r0, #1
	bl	dprint_vfmw
	mvn	r8, #0
	b	.L1604
.L1610:
	add	r5, r5, #61440
	ldr	r1, .L1612+28
	mov	r0, #1
	mvn	r8, #0
	bl	dprint_vfmw
	ldr	ip, [r5, #2296]
	ldr	r3, [r5, #2332]
	mov	r0, #1
	ldr	r2, [r5, #2316]
	ldr	r1, .L1612+32
	str	ip, [sp]
	bl	dprint_vfmw
	b	.L1604
.L1611:
	ldr	r1, .L1612+36
	mov	r0, #1
	bl	dprint_vfmw
	mvn	r8, #0
	b	.L1604
.L1613:
	.align	2
.L1612:
	.word	.LC100
	.word	.LC101
	.word	.LC97
	.word	.LC98
	.word	.LC99
	.word	.LC102
	.word	.LC104
	.word	.LC105
	.word	.LC106
	.word	.LC103
	UNWIND(.fnend)
	.size	dec_ref_pic_marking, .-dec_ref_pic_marking
	.align	2
	.global	ProcessSliceHeaderFirstPart
	.type	ProcessSliceHeaderFirstPart, %function
ProcessSliceHeaderFirstPart:
	UNWIND(.fnstart)
	@ args = 0, pretend = 0, frame = 0
	@ frame_needed = 1, uses_anonymous_args = 0
	UNWIND(.movsp ip)
	mov	ip, sp
	stmfd	sp!, {r3, r4, r5, r6, r7, r8, r9, r10, fp, ip, lr, pc}
	UNWIND(.pad #4)
	UNWIND(.save {r3, r4, r5, r6, r7, r8, r9, r10, fp, ip, lr})
	UNWIND(.setfp fp, ip, #-4)
	sub	fp, ip, #4
	ldr	r1, .L1688
	add	r5, r0, #12288
	mov	r6, r0
	bl	ue_v
	ldr	r3, [r5, #1292]
	sub	r3, r3, #1
	cmp	r0, r3
	mov	r10, r0
	bhi	.L1615
	add	r9, r6, #61440
	ldr	r3, [r9, #2292]
	cmp	r3, #0
	bne	.L1615
	mov	r1, r0
	mov	r0, r6
	bl	PPSSPSCheckTmpId
	subs	r8, r0, #0
	bne	.L1679
	add	r4, r6, #20480
	mov	r7, #2208
	mov	r1, #4000
	str	r10, [r4, #216]
	ldr	r2, [r5, #1304]
	ldrb	r0, [r4, #211]	@ zero_extendqisi2
	ldr	r3, [r5, #1300]
	mla	r7, r7, r10, r2
	cmp	r0, #5
	ldr	r2, [r7, #28]
	mla	r5, r1, r2, r3
	beq	.L1619
	ldr	r3, [r5, #3244]
	cmp	r3, #0
	beq	.L1619
.L1620:
	ldr	r1, [r5, #2196]
	mov	r0, r6
	ldr	r2, .L1688+4
	add	r1, r1, #4
	bl	u_v
	str	r0, [r4, #224]
	ldr	r3, [r9, #2292]
	cmp	r3, #0
	bne	.L1677
	ldrb	r3, [r4, #211]	@ zero_extendqisi2
	cmp	r3, #5
	beq	.L1680
.L1623:
	mov	r3, #0
	strb	r3, [r4, #209]
	strb	r3, [r4, #210]
	ldrb	r3, [r5, #18]	@ zero_extendqisi2
	cmp	r3, #0
	beq	.L1681
	ldr	r2, [r5, #3248]
	ldr	r1, [r5, #3252]
	add	r3, r2, #1
	mla	r3, r1, r3, r3
.L1647:
	ldrb	r2, [r5, #19]	@ zero_extendqisi2
	cmp	r2, #0
	bne	.L1630
	strb	r2, [r4, #212]
.L1632:
	ldr	r2, [r4, #256]
	cmp	r2, r3
	bcs	.L1682
.L1633:
	ldrb	r3, [r4, #211]	@ zero_extendqisi2
	cmp	r3, #5
	beq	.L1683
.L1635:
	add	r10, r6, #16384
	mov	r3, #0
	str	r3, [r10, #3420]
	str	r3, [r10, #3424]
	ldr	r3, [r5, #2200]
	cmp	r3, #0
	beq	.L1684
.L1639:
	mov	r3, #0
	str	r3, [r10, #3468]
	str	r3, [r10, #3472]
	ldr	r3, [r5, #2200]
	cmp	r3, #1
	beq	.L1685
.L1642:
	ldr	r3, [r9, #2292]
	cmp	r3, #0
	bne	.L1677
	ldrb	r3, [r7, #17]	@ zero_extendqisi2
	cmp	r3, #0
	beq	.L1645
	ldr	r1, .L1688+8
	mov	r0, r6
	bl	ue_v
	cmp	r0, #0
	bne	.L1646
	ldr	r3, [r9, #2292]
	cmp	r3, #0
	bne	.L1646
.L1645:
	mov	r0, r6
	bl	IsNewPic
	uxtb	r0, r0
	strb	r0, [r4, #213]
	cmp	r0, #0
	bne	.L1659
	ldr	r2, [r4, #256]
	ldr	r3, [r4, #1888]
	cmp	r2, r3
	bls	.L1686
.L1659:
	mov	r0, r8
	ldmfd	sp, {r3, r4, r5, r6, r7, r8, r9, r10, fp, sp, pc}
.L1619:
	ldrb	r3, [r4, #208]	@ zero_extendqisi2
	cmp	r3, #2
	beq	.L1620
	ldr	r1, .L1688+12
	mov	r0, #1
	bl	dprint_vfmw
	mvn	r8, #0
	b	.L1659
.L1630:
	mov	r2, #1
	strb	r2, [r4, #212]
.L1650:
	ldr	r2, [r4, #256]
	cmp	r2, r3, lsr #1
	bcc	.L1633
	ldr	r1, .L1688+16
	mov	r0, #1
	bl	dprint_vfmw
	mvn	r8, #0
	b	.L1659
.L1646:
	ldr	r1, .L1688+20
	mov	r0, #1
	bl	dprint_vfmw
	ldr	r3, .L1688+24
	ldr	ip, [r3]
	cmp	ip, #0
	beq	.L1677
	mov	r3, #0
	ldr	r0, [r9, #2352]
	mov	r2, r3
	mov	r1, #102
	blx	ip
.L1677:
	mvn	r8, #0
	mov	r0, r8
	ldmfd	sp, {r3, r4, r5, r6, r7, r8, r9, r10, fp, sp, pc}
.L1681:
	ldr	r1, .L1688+28
	mov	r0, r6
	bl	u_1
	uxtb	r0, r0
	strb	r0, [r4, #209]
	cmp	r0, #0
	bne	.L1687
	ldr	r2, [r5, #3248]
	ldrb	ip, [r5, #18]	@ zero_extendqisi2
	ldr	r1, [r5, #3252]
	add	r3, r2, #1
	cmp	ip, #0
	mla	r3, r1, r3, r3
	bne	.L1649
	mov	r3, r3, asl #1
	b	.L1647
.L1684:
	ldr	r1, [r5, #2204]
	mov	r0, r6
	ldr	r2, .L1688+32
	add	r1, r1, #4
	bl	u_v
	str	r0, [r10, #3420]
	ldrb	r3, [r7, #1]	@ zero_extendqisi2
	cmp	r3, #0
	beq	.L1639
	ldrb	r3, [r4, #209]	@ zero_extendqisi2
	cmp	r3, #0
	bne	.L1639
	ldr	r1, .L1688+36
	mov	r0, r6
	bl	se_v
	str	r0, [r10, #3424]
	b	.L1639
.L1680:
	cmp	r0, #0
	str	r0, [r4, #220]
	beq	.L1623
	ldr	r1, .L1688+40
	mov	r0, #1
	bl	dprint_vfmw
	b	.L1623
.L1685:
	ldrb	r3, [r5, #16]	@ zero_extendqisi2
	cmp	r3, #0
	bne	.L1642
	ldr	r1, .L1688+44
	mov	r0, r6
	bl	se_v
	str	r0, [r10, #3468]
	ldrb	r3, [r7, #1]	@ zero_extendqisi2
	cmp	r3, #1
	bne	.L1642
	ldrb	r3, [r4, #209]	@ zero_extendqisi2
	cmp	r3, #0
	bne	.L1642
	ldr	r1, .L1688+48
	mov	r0, r6
	bl	se_v
	str	r0, [r10, #3472]
	b	.L1642
.L1687:
	ldr	r1, .L1688+52
	mov	r0, r6
	bl	u_1
	strb	r0, [r4, #210]
	ldr	r2, [r5, #3248]
	ldrb	r0, [r5, #18]	@ zero_extendqisi2
	ldr	r1, [r5, #3252]
	add	r3, r2, #1
	cmp	r0, #0
	ldrb	r0, [r4, #209]	@ zero_extendqisi2
	mla	r3, r1, r3, r3
	moveq	r2, #2
	beq	.L1628
.L1649:
	mov	r2, #1
.L1628:
	cmp	r0, #0
	mul	r3, r2, r3
	beq	.L1647
	cmp	r0, #1
	mov	r2, #0
	strb	r2, [r4, #212]
	bne	.L1632
	b	.L1650
.L1683:
	ldr	r1, .L1688+56
	mov	r0, r6
	bl	ue_v
	cmp	r0, #65536
	str	r0, [r4, #244]
	bcs	.L1636
	ldr	r3, [r9, #2292]
	cmp	r3, #0
	beq	.L1635
.L1636:
	ldr	r1, .L1688+60
	mov	r0, #1
	bl	dprint_vfmw
	b	.L1635
.L1615:
	mov	r2, r10
	ldr	r1, .L1688+64
	mvn	r8, #0
	mov	r0, #1
	bl	dprint_vfmw
	mov	r0, r8
	ldmfd	sp, {r3, r4, r5, r6, r7, r8, r9, r10, fp, sp, pc}
.L1679:
	ldr	r1, .L1688+68
	mov	r0, #1
	bl	dprint_vfmw
	mvn	r8, #0
	b	.L1659
.L1682:
	ldr	r1, .L1688+72
	mov	r0, #1
	bl	dprint_vfmw
	mvn	r8, #0
	b	.L1659
.L1686:
	ldr	r1, .L1688+76
	mov	r0, #1
	bl	dprint_vfmw
	mvn	r8, #0
	b	.L1659
.L1689:
	.align	2
.L1688:
	.word	.LC107
	.word	.LC111
	.word	.LC123
	.word	.LC110
	.word	.LC115
	.word	.LC124
	.word	g_event_report
	.word	.LC113
	.word	.LC119
	.word	.LC120
	.word	.LC112
	.word	.LC121
	.word	.LC122
	.word	.LC114
	.word	.LC117
	.word	.LC118
	.word	.LC108
	.word	.LC109
	.word	.LC116
	.word	.LC125
	UNWIND(.fnend)
	.size	ProcessSliceHeaderFirstPart, .-ProcessSliceHeaderFirstPart
	.align	2
	.global	ProcessSliceHeaderSecondPart
	.type	ProcessSliceHeaderSecondPart, %function
ProcessSliceHeaderSecondPart:
	UNWIND(.fnstart)
	@ args = 0, pretend = 0, frame = 0
	@ frame_needed = 1, uses_anonymous_args = 0
	UNWIND(.movsp ip)
	mov	ip, sp
	stmfd	sp!, {r3, r4, r5, r6, r7, r8, r9, r10, fp, ip, lr, pc}
	UNWIND(.pad #4)
	UNWIND(.save {r3, r4, r5, r6, r7, r8, r9, r10, fp, ip, lr})
	UNWIND(.setfp fp, ip, #-4)
	sub	fp, ip, #4
	add	r6, r0, #12288
	add	r4, r0, #20480
	mov	r5, r0
	ldr	r3, [r6, #1292]
	ldr	r2, [r4, #216]
	sub	r3, r3, #1
	cmp	r3, r2
	bcc	.L1691
	add	r8, r0, #61440
	ldr	r3, [r8, #2292]
	cmp	r3, #0
	bne	.L1691
	bl	PPSSPSCheck
	cmp	r0, #0
	bne	.L1773
	ldr	r2, [r4, #216]
	mov	r7, #2208
	ldrb	r3, [r4, #208]	@ zero_extendqisi2
	ldr	r9, [r6, #1304]
	mul	r7, r7, r2
	cmp	r3, #1
	add	r6, r9, r7
	beq	.L1774
.L1695:
	ldr	r2, [r6, #36]
	cmp	r3, #1
	str	r2, [r4, #260]
	ldr	r2, [r6, #40]
	str	r2, [r4, #264]
	bls	.L1775
	cmp	r3, #2
	beq	.L1722
.L1706:
	mov	r3, #32
	str	r3, [r4, #264]
.L1707:
	mov	r0, r5
	bl	ref_pic_list_reordering
	subs	r10, r0, #0
	bne	.L1776
	ldrb	r3, [r6, #2]	@ zero_extendqisi2
	cmp	r3, #0
	beq	.L1709
	ldrb	r3, [r4, #208]	@ zero_extendqisi2
	cmp	r3, #0
	moveq	r2, #1
	moveq	r3, r2
	beq	.L1710
.L1709:
	ldr	r3, [r6, #44]
	cmp	r3, #1
	beq	.L1777
.L1726:
	mov	r2, #0
	mov	r3, r2
.L1710:
	strb	r3, [r4, #215]
	mov	r0, #19
	ldr	r1, .L1783
	bl	dprint_vfmw
	ldrb	r2, [r4, #215]	@ zero_extendqisi2
	mov	r3, #0
	str	r3, [r4, #268]
	cmp	r2, r3
	str	r3, [r4, #272]
	bne	.L1778
.L1711:
	ldr	r3, [r4, #236]
	cmp	r3, #0
	bne	.L1779
.L1712:
	mov	r3, #0
	str	r3, [r4, #1812]
	ldrb	r3, [r9, r7]	@ zero_extendqisi2
	cmp	r3, #0
	beq	.L1713
	ldrb	r3, [r4, #208]	@ zero_extendqisi2
	cmp	r3, #1
	bls	.L1780
.L1713:
	ldr	r1, .L1783+4
	mov	r0, r5
	bl	se_v
	mov	r3, #0
	str	r3, [r4, #1820]
	str	r3, [r4, #1824]
	str	r3, [r4, #1828]
	str	r0, [r4, #1816]
	ldrb	r3, [r6, #3]	@ zero_extendqisi2
	cmp	r3, #0
	bne	.L1781
.L1742:
	mov	r0, r10
	ldmfd	sp, {r3, r4, r5, r6, r7, r8, r9, r10, fp, sp, pc}
.L1722:
	mov	r3, #32
	str	r3, [r4, #260]
	b	.L1706
.L1781:
	ldr	r1, .L1783+8
	mov	r0, r5
	bl	ue_v
	cmp	r0, #2
	str	r0, [r4, #1820]
	bhi	.L1716
	ldr	r3, [r8, #2292]
	cmp	r3, #0
	bne	.L1716
	cmp	r0, #1
	beq	.L1742
	ldr	r1, .L1783+12
	mov	r0, r5
	bl	se_v
	add	r3, r0, #6
	str	r0, [r4, #1824]
	cmp	r3, #12
	bhi	.L1719
	ldr	r3, [r8, #2292]
	cmp	r3, #0
	bne	.L1719
	mov	r0, r5
	ldr	r1, .L1783+16
	bl	se_v
	add	r3, r0, #6
	str	r0, [r4, #1828]
	cmp	r3, #12
	bhi	.L1721
	ldr	r3, [r8, #2292]
	cmp	r3, #0
	beq	.L1742
.L1721:
	ldr	r1, .L1783+20
	mov	r0, #1
	bl	dprint_vfmw
	mvn	r10, #0
	b	.L1742
.L1778:
	mov	r0, r5
	bl	pred_weight_table
	cmp	r0, #0
	beq	.L1711
	ldr	r1, .L1783+24
	mov	r0, #1
	bl	dprint_vfmw
	mvn	r10, #0
	b	.L1742
.L1779:
	mov	r0, r5
	bl	dec_ref_pic_marking
	cmp	r0, #0
	beq	.L1712
	ldr	r1, .L1783+28
	mov	r0, #1
	bl	dprint_vfmw
	mvn	r10, #0
	b	.L1742
.L1777:
	ldrb	r3, [r4, #208]	@ zero_extendqisi2
	cmp	r3, #1
	moveq	r2, r3
	bne	.L1726
	b	.L1710
.L1774:
	ldr	r1, .L1783+32
	mov	r0, r5
	bl	u_1
	ldrb	r3, [r4, #208]	@ zero_extendqisi2
	strb	r0, [r4, #214]
	b	.L1695
.L1775:
	ldr	r1, .L1783+36
	mov	r0, r5
	bl	u_1
	cmp	r0, #0
	bne	.L1697
	ldr	r3, [r4, #260]
.L1698:
	ldrb	r2, [r4, #209]	@ zero_extendqisi2
	cmp	r2, #0
	bne	.L1699
	cmp	r3, #15
	bhi	.L1700
	ldr	r3, [r4, #264]
	cmp	r3, #15
	bhi	.L1782
.L1701:
	ldr	r3, [r8, #2292]
	cmp	r3, #0
	bne	.L1700
.L1702:
	ldrb	r3, [r4, #208]	@ zero_extendqisi2
	cmp	r3, #2
	beq	.L1722
	cmp	r3, #1
	bne	.L1706
	b	.L1707
.L1691:
	ldr	r1, .L1783+40
	mvn	r10, #0
	mov	r0, #1
	bl	dprint_vfmw
	mov	r0, r10
	ldmfd	sp, {r3, r4, r5, r6, r7, r8, r9, r10, fp, sp, pc}
.L1780:
	ldr	r1, .L1783+44
	mov	r0, r5
	bl	ue_v
	cmp	r0, #2
	str	r0, [r4, #1812]
	bhi	.L1714
	ldr	r3, [r8, #2292]
	cmp	r3, #0
	beq	.L1713
.L1714:
	ldr	r1, .L1783+48
	mov	r0, #1
	bl	dprint_vfmw
	mvn	r10, #0
	b	.L1742
.L1699:
	cmp	r3, #31
	bhi	.L1703
	ldr	r3, [r4, #264]
	cmp	r3, #31
	bls	.L1704
	ldrb	r3, [r4, #208]	@ zero_extendqisi2
	cmp	r3, #1
	bne	.L1704
.L1703:
	ldr	r1, .L1783+52
	mov	r0, #1
	bl	dprint_vfmw
	mvn	r10, #0
	b	.L1742
.L1704:
	ldr	r3, [r8, #2292]
	cmp	r3, #0
	beq	.L1702
	b	.L1703
.L1782:
	ldrb	r3, [r4, #208]	@ zero_extendqisi2
	cmp	r3, #1
	bne	.L1701
.L1700:
	ldr	r1, .L1783+56
	mov	r0, #1
	bl	dprint_vfmw
	mvn	r10, #0
	b	.L1742
.L1697:
	ldr	r1, .L1783+60
	mov	r0, r5
	bl	ue_v
	ldrb	r2, [r4, #208]	@ zero_extendqisi2
	cmp	r2, #1
	mov	r3, r0
	str	r0, [r4, #260]
	bne	.L1698
	ldr	r1, .L1783+64
	mov	r0, r5
	bl	ue_v
	ldr	r3, [r4, #260]
	str	r0, [r4, #264]
	b	.L1698
.L1719:
	ldr	r1, .L1783+68
	mov	r0, #1
	bl	dprint_vfmw
	mvn	r10, #0
	b	.L1742
.L1716:
	ldr	r1, .L1783+72
	mov	r0, #1
	bl	dprint_vfmw
	mvn	r10, #0
	b	.L1742
.L1773:
	ldr	r1, .L1783+76
	mov	r0, #1
	bl	dprint_vfmw
	mvn	r10, #0
	b	.L1742
.L1776:
	ldr	r1, .L1783+80
	mov	r0, #1
	bl	dprint_vfmw
	mvn	r10, #0
	b	.L1742
.L1784:
	.align	2
.L1783:
	.word	.LC133
	.word	.LC138
	.word	.LC139
	.word	.LC141
	.word	.LC143
	.word	.LC144
	.word	.LC134
	.word	.LC135
	.word	.LC126
	.word	.LC127
	.word	.LC108
	.word	.LC136
	.word	.LC137
	.word	.LC131
	.word	.LC130
	.word	.LC128
	.word	.LC129
	.word	.LC142
	.word	.LC140
	.word	.LC109
	.word	.LC132
	UNWIND(.fnend)
	.size	ProcessSliceHeaderSecondPart, .-ProcessSliceHeaderSecondPart
	.align	2
	.global	ExitSlice
	.type	ExitSlice, %function
ExitSlice:
	UNWIND(.fnstart)
	@ args = 0, pretend = 0, frame = 0
	@ frame_needed = 1, uses_anonymous_args = 0
	UNWIND(.movsp ip)
	mov	ip, sp
	stmfd	sp!, {r4, r5, r6, r7, fp, ip, lr, pc}
	UNWIND(.pad #4)
	UNWIND(.save {r4, r5, r6, r7, fp, ip, lr})
	UNWIND(.setfp fp, ip, #-4)
	sub	fp, ip, #4
	add	r3, r0, #20480
	add	lr, r0, #12288
	mov	r1, #2208
	mov	r7, #4000
	ldr	r2, [lr, #1304]
	ldr	ip, [r3, #216]
	ldr	r5, [lr, #1300]
	ldrb	r6, [r3, #209]	@ zero_extendqisi2
	mla	r1, r1, ip, r2
	cmp	r6, #0
	ldr	r4, [r3, #256]
	ldr	lr, [r3, #224]
	ldr	r2, [r1, #28]
	str	ip, [r3, #1856]
	ldr	ip, [r3, #236]
	mla	r2, r7, r2, r5
	ldr	r1, [r2, #36]
	str	r4, [r3, #1888]
	str	lr, [r3, #1864]
	str	r1, [r3, #1852]
	ldrneb	r1, [r3, #210]	@ zero_extendqisi2
	strb	r6, [r3, #1848]
	str	ip, [r3, #1860]
	strneb	r1, [r3, #1849]
	ldrb	r1, [r3, #211]	@ zero_extendqisi2
	cmp	r1, #5
	strb	r1, [r3, #1850]
	ldreq	r1, [r3, #244]
	streq	r1, [r3, #1868]
	ldr	r1, [r2, #2200]
	cmp	r1, #0
	bne	.L1788
	add	r1, r0, #16384
	ldr	ip, [r1, #3420]
	str	ip, [r3, #1872]
	ldr	r1, [r1, #3424]
	str	r1, [r3, #1876]
	ldr	r1, [r2, #2200]
.L1788:
	cmp	r1, #1
	addeq	r2, r0, #16384
	add	r0, r0, #61440
	ldreq	r1, [r2, #3468]
	streq	r1, [r3, #1880]
	ldreq	r2, [r2, #3472]
	streq	r2, [r3, #1884]
	ldr	r3, [r0, #2308]
	add	r3, r3, #1
	str	r3, [r0, #2308]
	ldmfd	sp, {r4, r5, r6, r7, fp, sp, pc}
	UNWIND(.fnend)
	.size	ExitSlice, .-ExitSlice
	.align	2
	.global	PicTypeStatistic
	.type	PicTypeStatistic, %function
PicTypeStatistic:
	UNWIND(.fnstart)
	@ args = 0, pretend = 0, frame = 0
	@ frame_needed = 1, uses_anonymous_args = 0
	UNWIND(.movsp ip)
	mov	ip, sp
	stmfd	sp!, {fp, ip, lr, pc}
	UNWIND(.pad #4)
	UNWIND(.save {fp, ip, lr})
	UNWIND(.setfp fp, ip, #-4)
	sub	fp, ip, #4
	add	r2, r0, #20480
	ldrb	r3, [r2, #208]	@ zero_extendqisi2
	cmp	r3, #1
	beq	.L1795
	bcc	.L1796
	cmp	r3, #2
	ldmnefd	sp, {fp, sp, pc}
	ldrb	r3, [r2, #211]	@ zero_extendqisi2
	add	r0, r0, #57344
	cmp	r3, #5
	beq	.L1805
.L1798:
	mov	r3, #0
	str	r3, [r0, #3696]
	ldmfd	sp, {fp, sp, pc}
.L1796:
	add	r0, r0, #57344
	ldr	r3, [r0, #3692]
	cmp	r3, #2
	movne	r3, #1
	strne	r3, [r0, #3692]
	b	.L1798
.L1795:
	add	r0, r0, #57344
	mov	r2, #2
	mov	r3, #0
	str	r2, [r0, #3692]
	str	r3, [r0, #3696]
	ldmfd	sp, {fp, sp, pc}
.L1805:
	mov	r3, #1
	str	r3, [r0, #3696]
	ldmfd	sp, {fp, sp, pc}
	UNWIND(.fnend)
	.size	PicTypeStatistic, .-PicTypeStatistic
	.align	2
	.global	CalcStreamBits
	.type	CalcStreamBits, %function
CalcStreamBits:
	UNWIND(.fnstart)
	@ args = 0, pretend = 0, frame = 0
	@ frame_needed = 1, uses_anonymous_args = 0
	UNWIND(.movsp ip)
	mov	ip, sp
	stmfd	sp!, {r4, r5, r6, r7, r8, fp, ip, lr, pc}
	UNWIND(.pad #4)
	UNWIND(.save {r4, r5, r6, r7, r8, fp, ip, lr})
	UNWIND(.setfp fp, ip, #-4)
	sub	fp, ip, #4
	UNWIND(.pad #12)
	sub	sp, sp, #12
	add	r3, r0, #16384
	mov	r4, r0
	ldrb	r3, [r3, #1212]	@ zero_extendqisi2
	cmp	r3, #0
	beq	.L1807
	ldr	r2, [r0, #368]
	ldr	r3, [r2, #64]
	add	r3, r3, #7
	bic	r3, r3, #7
	str	r3, [r2, #64]
	ldr	r2, [r0, #368]
	ldr	r3, [r2, #72]
	sub	r3, r3, #1
	str	r3, [r2, #72]
.L1807:
	ldr	r3, [r4, #368]
	ldrb	r6, [r3]	@ zero_extendqisi2
	cmp	r6, #0
	beq	.L1818
	mov	r1, #0
	mov	r0, r3
	mov	r5, r1
.L1809:
	add	r1, r1, #1
	ldr	ip, [r0, #12]
	cmp	r1, r6
	add	r0, r0, #28
	add	r5, r5, ip
	bne	.L1809
.L1808:
	mov	r7, r6, asl #5
	ldr	r0, [r3, #72]
	sub	r7, r7, r6, asl #2
	ldr	r2, [r3, #64]
	add	r1, r3, r7
	mov	r3, r5
	str	r0, [sp, #4]
	mov	r0, #7
	ldr	ip, [r1, #12]
	ldr	r1, .L1829
	str	ip, [sp]
	bl	dprint_vfmw
	ldr	r3, [r4, #368]
	mov	r2, r6
	mov	r0, #7
	ldr	r1, .L1829+4
	ldrb	r6, [r3]	@ zero_extendqisi2
	ldr	ip, [r3, #64]
	mov	lr, r6, asl #5
	and	ip, ip, r0
	sub	lr, lr, r6, asl #2
	add	r3, r3, lr
	str	ip, [r3, #24]
	ldr	r3, [r4, #368]
	ldrb	r6, [r3]	@ zero_extendqisi2
	ldr	r8, [r3, #64]
	mov	lr, r6, asl #5
	sub	lr, lr, r6, asl #2
	add	r3, r3, lr
	ldr	ip, [r3, #16]
	add	ip, ip, r8, lsr #3
	rsb	ip, r5, ip
	str	ip, [r3, #28]
	ldr	ip, [r4, #368]
	ldrb	r6, [ip]	@ zero_extendqisi2
	ldr	lr, [ip, #64]
	mov	r3, r6, asl #5
	sub	r3, r3, r6, asl #2
	add	ip, ip, r3
	ldr	r3, [ip, #12]
	add	r3, r5, r3
	rsb	r3, lr, r3, lsl #3
	str	r3, [ip, #20]
	ldr	ip, [r4, #368]
	ldrb	lr, [ip]	@ zero_extendqisi2
	mov	r3, lr, asl #5
	sub	r3, r3, lr, asl #2
	add	r3, ip, r3
	ldr	ip, [r3, #28]
	ldr	lr, [r3, #24]
	and	ip, ip, #3
	add	ip, lr, ip, lsl #3
	str	ip, [r3, #24]
	ldr	ip, [r4, #368]
	ldrb	lr, [ip]	@ zero_extendqisi2
	mov	r3, lr, asl #5
	sub	r3, r3, lr, asl #2
	add	r3, ip, r3
	ldr	ip, [r3, #28]
	bic	ip, ip, #3
	str	ip, [r3, #28]
	ldr	ip, [r4, #368]
	add	r7, ip, r7
	ldrb	r5, [ip]	@ zero_extendqisi2
	ldr	r3, [r7, #24]
	mov	lr, r5, asl #5
	sub	lr, lr, r5, asl #2
	add	ip, ip, lr
	ldr	ip, [ip, #28]
	str	ip, [sp, #4]
	ldr	ip, [r7, #20]
	str	ip, [sp]
	bl	dprint_vfmw
	ldr	ip, [r4, #368]
	ldr	r2, [ip, #68]
	sub	r3, r2, #1
	cmp	r3, #1
	bhi	.L1828
	ldrb	r6, [ip]	@ zero_extendqisi2
	add	r1, r6, #1
	cmp	r2, r1
	movhi	r2, #1
	movls	r2, #0
	cmp	r1, #1
	movhi	r2, #0
	cmp	r2, #0
	beq	.L1811
	add	r6, r6, #2
	mov	r5, #0
.L1812:
	sub	r3, r6, #1
	ldr	r1, .L1829+8
	mov	r0, #7
	mov	lr, r3, asl #5
	mov	r2, r3
	sub	r3, lr, r3, asl #2
	add	ip, ip, r3
	str	r5, [ip, #24]
	ldr	ip, [r4, #368]
	add	ip, ip, r3
	ldr	lr, [ip, #16]
	str	lr, [ip, #28]
	ldr	ip, [r4, #368]
	add	ip, ip, r3
	ldr	lr, [ip, #12]
	mov	lr, lr, asl #3
	str	lr, [ip, #20]
	ldr	ip, [r4, #368]
	add	ip, ip, r3
	ldr	lr, [ip, #28]
	ldr	r7, [ip, #24]
	and	lr, lr, #3
	add	lr, r7, lr, lsl #3
	str	lr, [ip, #24]
	ldr	ip, [r4, #368]
	add	ip, ip, r3
	ldr	lr, [ip, #28]
	bic	lr, lr, #3
	str	lr, [ip, #28]
	ldr	ip, [r4, #368]
	add	ip, ip, r3
	ldr	r3, [ip, #24]
	ldr	ip, [ip, #20]
	str	ip, [sp]
	bl	dprint_vfmw
	ldr	ip, [r4, #368]
	ldr	r3, [ip, #68]
	cmp	r6, #1
	cmpls	r6, r3
	add	r6, r6, #1
	movcc	r2, #1
	movcs	r2, #0
	cmp	r2, #0
	bne	.L1812
	sub	r3, r3, #1
.L1811:
	mov	r2, r3, asl #5
	ldr	r1, [ip, #72]
	sub	r3, r2, r3, asl #2
	add	ip, ip, r3
	ldr	r3, [ip, #20]
	rsb	r3, r1, r3
	str	r3, [ip, #20]
	ldr	ip, [r4, #368]
	ldrb	r1, [ip]	@ zero_extendqisi2
	ldr	r3, [ip, #68]
	cmp	r1, r3
	bcs	.L1806
	sxth	r3, r1
	add	r4, r4, #57344
	mov	r2, r3, asl #5
	sub	r3, r2, r3, asl #2
	add	r3, ip, r3
.L1816:
	ldr	r2, [r3, #28]
	add	r1, r1, #1
	ldr	r0, [r4, #3720]
	add	r3, r3, #28
	cmp	r2, r0
	strcc	r2, [r4, #3720]
	ldr	r2, [ip, #68]
	cmp	r2, r1
	bhi	.L1816
.L1806:
	sub	sp, fp, #32
	ldmfd	sp, {r4, r5, r6, r7, r8, fp, sp, pc}
.L1828:
	ldr	r1, .L1829+12
	mov	r0, #0
	sub	sp, fp, #32
	ldmfd	sp, {r4, r5, r6, r7, r8, fp, sp, lr}
	b	dprint_vfmw
.L1818:
	mov	r5, r6
	b	.L1808
.L1830:
	.align	2
.L1829:
	.word	.LC145
	.word	.LC146
	.word	.LC148
	.word	.LC147
	UNWIND(.fnend)
	.size	CalcStreamBits, .-CalcStreamBits
	.align	2
	.global	Scaling_List
	.type	Scaling_List, %function
Scaling_List:
	UNWIND(.fnstart)
	@ args = 4, pretend = 0, frame = 8
	@ frame_needed = 1, uses_anonymous_args = 0
	UNWIND(.movsp ip)
	mov	ip, sp
	stmfd	sp!, {r4, r5, r6, r7, r8, r9, r10, fp, ip, lr, pc}
	UNWIND(.pad #4)
	UNWIND(.save {r4, r5, r6, r7, r8, r9, r10, fp, ip, lr})
	UNWIND(.setfp fp, ip, #-4)
	sub	fp, ip, #4
	UNWIND(.pad #12)
	sub	sp, sp, #12
	subs	r7, r3, #0
	str	r0, [fp, #-52]
	mov	r6, r2
	ble	.L1831
	mov	r0, #8
	mov	r4, #0
	mov	r2, r7
	mov	r9, r6
	ldr	r8, .L1842
	mov	r10, #255
	mov	r7, r1
	mov	r6, r0
	mov	r5, r4
	b	.L1836
.L1835:
	mov	lr, r4, lsr #2
	and	r3, r4, #3
	str	r6, [r7, r4, asl #2]
	uxtb	r1, r6
	mov	r4, r3, asl #3
	ldr	r3, [r9, lr, asl #2]
	cmp	r5, r2
	bic	r3, r3, r10, asl r4
	orr	r1, r3, r1, asl r4
	str	r1, [r9, lr, asl #2]
	beq	.L1831
.L1836:
	cmp	r2, #16
	ldreq	r3, .L1842+4
	ldrneb	r4, [r5, r8]	@ zero_extendqisi2
	ldreqb	r4, [r5, r3]	@ zero_extendqisi2
	cmp	r0, #0
	add	r5, r5, #1
	beq	.L1835
	ldr	r1, .L1842+8
	ldr	r0, [fp, #-52]
	str	r2, [fp, #-48]
	bl	se_v
	ldr	r2, [fp, #4]
	add	r0, r6, r0
	ands	r0, r0, #255
	moveq	r3, #1
	movne	r3, #0
	cmp	r3, #0
	moveq	r6, r0
	cmp	r4, #0
	movne	r3, #0
	andeq	r3, r3, #1
	str	r3, [r2]
	ldr	r2, [fp, #-48]
	b	.L1835
.L1831:
	sub	sp, fp, #40
	ldmfd	sp, {r4, r5, r6, r7, r8, r9, r10, fp, sp, pc}
.L1843:
	.align	2
.L1842:
	.word	.LANCHOR0+40
	.word	.LANCHOR0+24
	.word	.LC149
	UNWIND(.fnend)
	.size	Scaling_List, .-Scaling_List
	.align	2
	.global	ProcessPPS
	.type	ProcessPPS, %function
ProcessPPS:
	UNWIND(.fnstart)
	@ args = 0, pretend = 0, frame = 40
	@ frame_needed = 1, uses_anonymous_args = 0
	UNWIND(.movsp ip)
	mov	ip, sp
	stmfd	sp!, {r4, r5, r6, r7, r8, r9, r10, fp, ip, lr, pc}
	UNWIND(.pad #4)
	UNWIND(.save {r4, r5, r6, r7, r8, r9, r10, fp, ip, lr})
	UNWIND(.setfp fp, ip, #-4)
	sub	fp, ip, #4
	UNWIND(.pad #52)
	sub	sp, sp, #52
	mov	r4, r1
	ldr	r1, .L1902
	mov	r5, r0
	bl	u_1
	add	r6, r5, #61440
	strb	r0, [r4]
	ldr	r3, [r6, #2292]
	cmp	r3, #0
	bne	.L1893
	ldr	r1, .L1902+4
	mov	r0, r5
	bl	u_1
	strb	r0, [r4, #1]
	ldr	r3, [r6, #2292]
	cmp	r3, #0
	bne	.L1893
	ldr	r1, .L1902+8
	mov	r0, r5
	bl	ue_v
	cmp	r0, #0
	str	r0, [r4, #32]
	bne	.L1848
	ldr	r3, [r6, #2292]
	cmp	r3, #0
	beq	.L1849
.L1848:
	ldr	r1, .L1902+12
	mov	r0, #1
	bl	dprint_vfmw
	ldr	r3, .L1902+16
	ldr	ip, [r3]
	cmp	ip, #0
	beq	.L1893
	mov	r3, #0
	ldr	r0, [r6, #2352]
	mov	r2, r3
	mov	r1, #102
	blx	ip
	mvn	r0, #0
.L1846:
	sub	sp, fp, #40
	ldmfd	sp, {r4, r5, r6, r7, r8, r9, r10, fp, sp, pc}
.L1856:
	ldr	r1, .L1902+20
	mov	r0, r5
	bl	u_1
	ldr	r1, .L1902+24
	str	r0, [r4, #60]
	mov	r0, r5
	bl	u_1
	uxtb	r0, r0
	strb	r0, [r4, #18]
	cmp	r0, #1
	beq	.L1857
.L1875:
	mov	r0, r5
	ldr	r1, .L1902+28
	bl	se_v
	add	r3, r0, #12
	str	r0, [r4, #56]
	cmp	r3, #24
	bhi	.L1858
	ldr	r3, [r6, #2292]
	cmp	r3, #0
	beq	.L1876
.L1858:
	ldr	r1, .L1902+32
	mov	r0, #1
	bl	dprint_vfmw
.L1893:
	mvn	r0, #0
	sub	sp, fp, #40
	ldmfd	sp, {r4, r5, r6, r7, r8, r9, r10, fp, sp, pc}
.L1849:
	ldr	r1, .L1902+36
	mov	r0, r5
	bl	ue_v
	cmp	r0, #31
	str	r0, [r4, #36]
	bhi	.L1850
	ldr	r3, [r6, #2292]
	cmp	r3, #0
	bne	.L1850
	ldr	r1, .L1902+40
	mov	r0, r5
	bl	ue_v
	cmp	r0, #31
	str	r0, [r4, #40]
	bhi	.L1852
	ldr	r3, [r6, #2292]
	cmp	r3, #0
	bne	.L1852
	ldr	r1, .L1902+44
	mov	r0, r5
	bl	u_1
	strb	r0, [r4, #2]
	ldr	r3, [r6, #2292]
	cmp	r3, #0
	bne	.L1893
	ldr	r2, .L1902+48
	mov	r1, #2
	mov	r0, r5
	bl	u_v
	cmp	r0, #2
	str	r0, [r4, #44]
	bhi	.L1894
	ldr	r1, .L1902+52
	mov	r0, r5
	bl	se_v
	ldr	r1, .L1902+56
	str	r0, [r4, #48]
	mov	r0, r5
	bl	se_v
	ldr	r1, .L1902+60
	mov	r0, r5
	bl	se_v
	ldr	r1, .L1902+64
	str	r0, [r4, #52]
	mov	r0, r5
	bl	u_1
	ldr	r1, .L1902+68
	strb	r0, [r4, #3]
	mov	r0, r5
	bl	u_1
	ldr	r1, .L1902+72
	strb	r0, [r4, #4]
	mov	r0, r5
	bl	u_1
	uxtb	r0, r0
	strb	r0, [r4, #17]
	cmp	r0, #0
	bne	.L1895
.L1855:
	ldr	r3, [r4, #52]
	add	r0, r5, #13504
	mov	r7, #0
	add	r0, r0, #24
	str	r7, [r4, #60]
	str	r3, [r4, #56]
	strb	r7, [r4, #18]
	bl	BsResidBits
	ldr	r3, [r5, #368]
	ldr	r3, [r3, #72]
	add	r3, r3, #3
	cmp	r0, r3
	bcs	.L1856
.L1876:
	mov	r0, #0
	sub	sp, fp, #40
	ldmfd	sp, {r4, r5, r6, r7, r8, r9, r10, fp, sp, pc}
.L1895:
	ldr	r1, .L1902+76
	mov	r0, #1
	bl	dprint_vfmw
	b	.L1855
.L1850:
	ldr	r1, .L1902+80
	mov	r0, #1
	bl	dprint_vfmw
	mvn	r0, #0
	b	.L1846
.L1852:
	ldr	r1, .L1902+84
	mov	r0, #1
	bl	dprint_vfmw
	mvn	r0, #0
	b	.L1846
.L1857:
	add	r3, r4, #4
	str	r6, [fp, #-80]
	sub	r9, fp, #72
	add	r8, r4, #1984
	add	r10, r4, #64
	mov	r6, r3
	b	.L1866
.L1899:
	ldr	lr, [lr, #1300]
	ldr	r3, [r4, #28]
	mla	r3, ip, r3, lr
	ldrb	ip, [r3, #25]	@ zero_extendqisi2
	cmp	ip, #1
	beq	.L1896
	ldr	r3, .L1902+88
	cmp	r1, #0
	add	ip, r3, #16
	moveq	r3, ip
	mov	r1, r3
	ldr	r3, .L1902+92
	ldr	r3, [r3, #52]
	blx	r3
.L1861:
	add	r7, r7, #1
	add	r8, r8, #16
	cmp	r7, #6
	add	r10, r10, #64
	beq	.L1897
.L1866:
	ldr	r1, .L1902+96
	mov	r0, r5
	bl	u_1
	clz	r1, r7
	add	lr, r5, #12288
	mov	ip, #4000
	mov	r2, #16
	mov	r1, r1, lsr #5
	cmp	r0, #1
	mov	r3, r0
	mov	r0, r8
	str	r3, [r9, #4]!
	strb	r3, [r6, #1]!
	beq	.L1898
	cmp	r7, #0
	cmpne	r7, #3
	beq	.L1899
	ldr	r3, .L1902+92
	mov	r2, #16
	sub	r1, r8, #16
	mov	r0, r8
	ldr	r3, [r3, #52]
	blx	r3
	b	.L1861
.L1897:
	ldr	r6, [fp, #-80]
	add	ip, r4, #448
	add	r3, r5, #12288
	sub	r8, fp, #76
	add	r9, r4, #2080
	add	r10, r4, #11
	str	r5, [fp, #-80]
	mov	r7, #0
	str	r6, [fp, #-84]
	mov	r5, r3
	mov	r6, r4
	mov	r4, ip
.L1874:
	ldr	r2, [r6, #60]
	mov	r3, #0
	cmp	r2, #1
	strne	r3, [r8]
	strneb	r3, [r10]
	beq	.L1900
.L1869:
	ldr	r1, [r6, #28]
	mov	lr, #4000
	ldr	r3, [r5, #1300]
	mov	r0, r9
	mov	r2, #64
	mla	r3, lr, r1, r3
	ldrb	r1, [r3, #25]	@ zero_extendqisi2
	cmp	r1, #1
	beq	.L1901
	ldr	r1, .L1902+100
	cmp	r7, #0
	ldr	r3, .L1902+92
	add	ip, r1, #64
	ldr	r3, [r3, #52]
	movne	r1, ip
	blx	r3
.L1870:
	add	r7, r7, #1
	add	r9, r9, #64
	cmp	r7, #2
	add	r4, r4, #256
	add	r8, r8, #4
	add	r10, r10, #1
	bne	.L1874
	mov	r4, r6
	ldr	r5, [fp, #-80]
	ldr	r6, [fp, #-84]
	b	.L1875
.L1898:
	mov	r3, r2
	str	r9, [sp]
	mov	r2, r8
	mov	r1, r10
	mov	r0, r5
	bl	Scaling_List
	ldr	r3, [r9]
	cmp	r3, #1
	bne	.L1861
	ldr	r1, .L1902+88
	mov	r2, #16
	ldr	r3, .L1902+92
	cmp	r7, #2
	add	r0, r1, r2
	ldr	r3, [r3, #52]
	movhi	r1, r0
	mov	r0, r8
	blx	r3
	b	.L1861
.L1896:
	add	r1, r3, r7, lsl #4
	ldr	r3, .L1902+92
	add	r1, r1, #1968
	mov	r2, #16
	add	r1, r1, #4
	mov	r0, r8
	ldr	r3, [r3, #52]
	blx	r3
	b	.L1861
.L1894:
	ldr	r1, .L1902+104
	mov	r0, #1
	bl	dprint_vfmw
	mvn	r0, #0
	b	.L1846
.L1900:
	ldr	r1, .L1902+108
	ldr	r0, [fp, #-80]
	bl	u_1
	mov	r2, r9
	mov	r1, r4
	mov	r3, #64
	mov	lr, r0
	cmp	lr, #1
	ldr	r0, [fp, #-80]
	str	lr, [r8]
	strb	lr, [r10]
	bne	.L1869
	str	r8, [sp]
	bl	Scaling_List
	ldr	r3, [r8]
	cmp	r3, #1
	bne	.L1870
	ldr	r1, .L1902+100
	mov	r2, #64
	ldr	r3, .L1902+92
	cmp	r7, #0
	add	r0, r1, r2
	ldr	r3, [r3, #52]
	movne	r1, r0
	mov	r0, r9
	blx	r3
	b	.L1870
.L1901:
	add	r1, r3, r7, lsl #6
	ldr	r3, .L1902+92
	add	r1, r1, #2064
	add	r1, r1, #4
	ldr	r3, [r3, #52]
	blx	r3
	b	.L1870
.L1903:
	.align	2
.L1902:
	.word	.LC150
	.word	.LC151
	.word	.LC152
	.word	.LC153
	.word	g_event_report
	.word	.LC168
	.word	.LC169
	.word	.LC170
	.word	.LC173
	.word	.LC154
	.word	.LC156
	.word	.LC158
	.word	.LC159
	.word	.LC161
	.word	.LC162
	.word	.LC163
	.word	.LC164
	.word	.LC165
	.word	.LC166
	.word	.LC167
	.word	.LC155
	.word	.LC157
	.word	.LANCHOR1+80
	.word	vfmw_Osal_Func_Ptr_S
	.word	.LC171
	.word	.LANCHOR1+112
	.word	.LC160
	.word	.LC172
	UNWIND(.fnend)
	.size	ProcessPPS, .-ProcessPPS
	.align	2
	.global	PPSEqual
	.type	PPSEqual, %function
PPSEqual:
	UNWIND(.fnstart)
	@ args = 0, pretend = 0, frame = 16
	@ frame_needed = 1, uses_anonymous_args = 0
	UNWIND(.movsp ip)
	mov	ip, sp
	stmfd	sp!, {r4, r5, r6, r7, r8, r9, r10, fp, ip, lr, pc}
	UNWIND(.pad #4)
	UNWIND(.save {r4, r5, r6, r7, r8, r9, r10, fp, ip, lr})
	UNWIND(.setfp fp, ip, #-4)
	sub	fp, ip, #4
	UNWIND(.pad #20)
	sub	sp, sp, #20
	subs	r6, r0, #0
	beq	.L1927
	cmp	r1, #0
	beq	.L1928
	ldr	r2, [r6, #24]
	ldr	ip, [r6, #28]
	ldr	r0, [r1, #28]
	ldr	r4, [r1, #24]
	ldrb	lr, [r6]	@ zero_extendqisi2
	cmp	ip, r0
	cmpeq	r2, r4
	ldrb	r3, [r1]	@ zero_extendqisi2
	ldrb	r4, [r6, #1]	@ zero_extendqisi2
	ldrb	ip, [r1, #1]	@ zero_extendqisi2
	moveq	r2, #1
	movne	r2, #0
	cmp	lr, r3
	movne	r0, #0
	andeq	r0, r2, #1
	ldr	lr, [r6, #36]
	cmp	r4, ip
	movne	r3, #0
	andeq	r3, r0, #1
	ldr	r2, [r1, #36]
	ldr	r4, [r6, #40]
	ldr	r0, [r1, #40]
	cmp	lr, r2
	movne	ip, #0
	andeq	ip, r3, #1
	ldrb	lr, [r6, #2]	@ zero_extendqisi2
	ldrb	r3, [r1, #2]	@ zero_extendqisi2
	cmp	r4, r0
	movne	r2, #0
	andeq	r2, ip, #1
	ldr	r4, [r6, #44]
	ldr	ip, [r1, #44]
	cmp	lr, r3
	movne	r0, #0
	andeq	r0, r2, #1
	ldr	lr, [r6, #48]
	ldr	r2, [r1, #48]
	cmp	r4, ip
	movne	r3, #0
	andeq	r3, r0, #1
	ldr	r4, [r6, #52]
	ldr	r0, [r1, #52]
	cmp	lr, r2
	movne	ip, #0
	andeq	ip, r3, #1
	ldrb	r5, [r6, #3]	@ zero_extendqisi2
	ldrb	lr, [r1, #3]	@ zero_extendqisi2
	cmp	r4, r0
	movne	r2, #0
	andeq	r2, ip, #1
	ldrb	r3, [r6, #4]	@ zero_extendqisi2
	ldrb	r4, [r1, #4]	@ zero_extendqisi2
	cmp	r5, lr
	movne	r0, #0
	andeq	r0, r2, #1
	ldr	ip, [r6, #60]
	ldr	lr, [r1, #60]
	cmp	r3, r4
	movne	r3, #0
	andeq	r3, r0, #1
	ldrb	r2, [r1, #18]	@ zero_extendqisi2
	ldrb	r0, [r6, #18]	@ zero_extendqisi2
	cmp	ip, lr
	movne	r3, #0
	andeq	r3, r3, #1
	cmp	r2, r0
	movne	r2, #0
	andeq	r2, r3, #1
	cmp	r0, #0
	beq	.L1908
	mov	ip, ip, asl #1
	adds	r3, ip, #6
	str	r3, [fp, #-48]
	beq	.L1908
	add	r0, r1, #4
	sub	r8, r1, #1088
	add	r3, r6, #4
	sub	r8, r8, #4
	add	r9, r1, #64
	mov	r5, r0
	mov	r10, r6
	mov	r7, r6
	str	r6, [fp, #-52]
	mov	r0, #0
	mov	r6, r3
	str	r1, [fp, #-56]
.L1913:
	ldrb	r3, [r6, #1]!	@ zero_extendqisi2
	ldrsb	ip, [r5, #1]!
	sxtb	r1, r3
	cmp	ip, r1
	movne	r2, #0
	andeq	r2, r2, #1
	cmp	r3, #0
	beq	.L1926
	cmp	r0, #5
	bhi	.L1910
	add	r4, r10, #64
	add	r10, r10, #128
	mov	r1, r9
	mov	r3, r4
.L1911:
	ldr	lr, [r3], #4
	ldr	ip, [r1], #4
	cmp	lr, ip
	movne	r2, #0
	andeq	r2, r2, #1
	cmp	r3, r10
	bne	.L1911
.L1909:
	ldr	r3, [fp, #-48]
	add	r0, r0, #1
	add	r7, r7, #256
	add	r8, r8, #256
	cmp	r0, r3
	mov	r10, r4
	add	r9, r9, #64
	bne	.L1913
	ldr	r6, [fp, #-52]
	ldr	r1, [fp, #-56]
.L1908:
	ldr	r0, [r6, #56]
	ldr	r3, [r1, #56]
	cmp	r0, r3
	movne	r0, #0
	andeq	r0, r2, #1
	eor	r0, r0, #1
	rsb	r0, r0, #0
.L1906:
	sub	sp, fp, #40
	ldmfd	sp, {r4, r5, r6, r7, r8, r9, r10, fp, sp, pc}
.L1910:
	sub	r3, r7, #1088
	sub	r4, r7, #836
	sub	r3, r3, #4
	mov	r1, r8
.L1912:
	ldr	lr, [r3, #4]!
	ldr	ip, [r1, #4]!
	cmp	lr, ip
	movne	r2, #0
	andeq	r2, r2, #1
	cmp	r3, r4
	bne	.L1912
.L1926:
	add	r4, r10, #64
	b	.L1909
.L1928:
	mov	r0, r1
	movw	r3, #9299
	ldr	r2, .L1929
	ldr	r1, .L1929+4
	bl	dprint_vfmw
	mvn	r0, #0
	b	.L1906
.L1927:
	movw	r3, #9298
	ldr	r2, .L1929
	ldr	r1, .L1929+4
	bl	dprint_vfmw
	mvn	r0, #0
	b	.L1906
.L1930:
	.align	2
.L1929:
	.word	.LC21
	.word	.LC22
	UNWIND(.fnend)
	.size	PPSEqual, .-PPSEqual
	.align	2
	.global	H264_DecPPS
	.type	H264_DecPPS, %function
H264_DecPPS:
	UNWIND(.fnstart)
	@ args = 0, pretend = 0, frame = 8
	@ frame_needed = 1, uses_anonymous_args = 0
	UNWIND(.movsp ip)
	mov	ip, sp
	stmfd	sp!, {r4, r5, r6, r7, r8, r9, fp, ip, lr, pc}
	UNWIND(.pad #4)
	UNWIND(.save {r4, r5, r6, r7, r8, r9, fp, ip, lr})
	UNWIND(.setfp fp, ip, #-4)
	sub	fp, ip, #4
	UNWIND(.pad #8)
	sub	sp, sp, #8
	ldr	r1, .L1948
	add	r4, r0, #12288
	mov	r5, r0
	bl	ue_v
	ldr	r3, [r4, #1292]
	sub	r3, r3, #1
	cmp	r0, r3
	mov	r6, r0
	bls	.L1932
	ldr	r1, .L1948+4
	mov	r0, #1
	bl	dprint_vfmw
	ldr	r3, [r4, #1292]
	sub	r2, r3, #1
	cmp	r6, r2
	bls	.L1940
	ldr	r2, .L1948+8
	ldr	ip, [r2]
	cmp	ip, #0
	beq	.L1940
	add	r5, r5, #61440
	str	r3, [fp, #-40]
	str	r6, [fp, #-44]
	mov	r3, #8
	ldr	r0, [r5, #2352]
	sub	r2, fp, #44
	mov	r1, #110
	blx	ip
	mvn	r0, #0
.L1933:
	sub	sp, fp, #36
	ldmfd	sp, {r4, r5, r6, r7, r8, r9, fp, sp, pc}
.L1932:
	ldr	r1, .L1948+12
	mov	r0, r5
	bl	ue_v
	ldr	r3, [r4, #1288]
	sub	r3, r3, #1
	cmp	r0, r3
	mov	ip, r0
	bhi	.L1944
	ldr	r2, [r4, #1300]
	mov	r3, #4000
	mla	r3, r3, r0, r2
	ldrb	r3, [r3, #23]	@ zero_extendqisi2
	cmp	r3, #0
	beq	.L1945
	mov	r9, #2208
	ldr	r3, [r4, #1304]
	mul	r7, r9, r6
	add	r3, r3, r7
	ldrb	r8, [r3, #19]	@ zero_extendqisi2
	cmp	r8, #0
	beq	.L1936
	ldr	r8, .L1948+16
	mov	r0, r5
	mov	r1, r8
	str	r6, [r8, #24]
	str	ip, [r8, #28]
	bl	ProcessPPS
	subs	r5, r0, #0
	bne	.L1946
	ldr	r1, [r4, #1304]
	mov	r0, r8
	add	r1, r1, r7
	bl	PPSEqual
	cmp	r0, #0
	beq	.L1933
	ldr	ip, .L1948+20
	mov	r3, #1
	ldr	r0, [r4, #1304]
	mov	r2, r9
	mov	r1, r8
	strb	r3, [r8, #20]
	add	r0, r0, r7
	ldr	ip, [ip, #56]
	strb	r3, [r8, #19]
	blx	ip
	mov	r0, r5
	b	.L1933
.L1936:
	str	r6, [r3, #24]
	mov	r0, r5
	ldr	r3, [r4, #1304]
	add	r3, r3, r7
	str	ip, [r3, #28]
	ldr	r1, [r4, #1304]
	add	r1, r1, r7
	bl	ProcessPPS
	cmp	r0, #0
	bne	.L1947
	ldr	r3, [r4, #1304]
	mov	r2, #1
	add	r3, r3, r7
	strb	r2, [r3, #20]
	ldr	r3, [r4, #1304]
	add	r7, r3, r7
	strb	r2, [r7, #19]
	sub	sp, fp, #36
	ldmfd	sp, {r4, r5, r6, r7, r8, r9, fp, sp, pc}
.L1940:
	mvn	r0, #0
	sub	sp, fp, #36
	ldmfd	sp, {r4, r5, r6, r7, r8, r9, fp, sp, pc}
.L1944:
	ldr	r1, .L1948+24
	mov	r0, #1
	bl	dprint_vfmw
	mvn	r0, #0
	b	.L1933
.L1946:
	ldr	r2, .L1948+28
	mov	r0, #1
	ldr	r1, .L1948+32
	bl	dprint_vfmw
	mvn	r0, #0
	b	.L1933
.L1945:
	ldr	r1, .L1948+36
	mov	r0, #1
	bl	dprint_vfmw
	mvn	r0, #0
	b	.L1933
.L1947:
	ldr	r2, .L1948+28
	mov	r0, #1
	ldr	r1, .L1948+40
	bl	dprint_vfmw
	ldr	r3, [r4, #1304]
	mov	r2, #1
	mvn	r0, #0
	add	r3, r3, r7
	strb	r2, [r3, #20]
	ldr	r3, [r4, #1304]
	add	r7, r3, r7
	strb	r8, [r7, #19]
	b	.L1933
.L1949:
	.align	2
.L1948:
	.word	.LC174
	.word	.LC175
	.word	g_event_report
	.word	.LC176
	.word	.LANCHOR2
	.word	vfmw_Osal_Func_Ptr_S
	.word	.LC177
	.word	.LANCHOR0+104
	.word	.LC179
	.word	.LC178
	.word	.LC180
	UNWIND(.fnend)
	.size	H264_DecPPS, .-H264_DecPPS
	.align	2
	.global	vui_parameters
	.type	vui_parameters, %function
vui_parameters:
	UNWIND(.fnstart)
	@ args = 0, pretend = 0, frame = 0
	@ frame_needed = 1, uses_anonymous_args = 0
	UNWIND(.movsp ip)
	mov	ip, sp
	stmfd	sp!, {r4, r5, r6, r7, r8, r9, fp, ip, lr, pc}
	UNWIND(.pad #4)
	UNWIND(.save {r4, r5, r6, r7, r8, r9, fp, ip, lr})
	UNWIND(.setfp fp, ip, #-4)
	sub	fp, ip, #4
	mov	r5, r1
	ldr	r1, .L1999
	mov	r4, r0
	bl	u_1
	uxtb	r0, r0
	strb	r0, [r5]
	cmp	r0, #0
	streqb	r0, [r5, #15]
	bne	.L1993
.L1952:
	ldr	r1, .L1999+4
	mov	r0, r4
	bl	u_1
	uxtb	r0, r0
	strb	r0, [r5, #1]
	cmp	r0, #0
	bne	.L1994
.L1953:
	ldr	r1, .L1999+8
	mov	r0, r4
	bl	u_1
	uxtb	r0, r0
	strb	r0, [r5, #3]
	cmp	r0, #0
	moveq	r3, #5
	streq	r3, [r5, #28]
	bne	.L1995
.L1955:
	ldr	r1, .L1999+12
	mov	r0, r4
	bl	u_1
	uxtb	r0, r0
	strb	r0, [r5, #6]
	cmp	r0, #0
	bne	.L1996
.L1956:
	ldr	r1, .L1999+16
	mov	r0, r4
	bl	u_1
	uxtb	r0, r0
	strb	r0, [r5, #8]
	cmp	r0, #0
	bne	.L1997
.L1958:
	ldr	r1, .L1999+20
	mov	r0, r4
	bl	u_1
	uxtb	r0, r0
	strb	r0, [r5, #7]
	cmp	r0, #0
	beq	.L1960
	ldr	r1, .L1999+24
	mov	r0, r4
	bl	ue_v
	ldr	r2, .L1999+28
	mov	r1, #4
	str	r0, [r5, #120]
	mov	r0, r4
	bl	u_v
	ldr	r2, .L1999+32
	mov	r1, #4
	strb	r0, [r5, #116]
	mov	r0, r4
	bl	u_v
	ldr	r3, [r5, #120]
	cmp	r3, #31
	strb	r0, [r5, #117]
	bhi	.L1963
	add	r9, r4, #61440
	ldr	r6, [r9, #2292]
	cmp	r6, #0
	bne	.L1963
	add	r7, r5, #120
	add	r8, r5, #83
.L1964:
	ldr	r1, .L1999+36
	mov	r0, r4
	bl	ue_v
	ldr	r1, .L1999+40
	add	r6, r6, #1
	str	r0, [r7, #4]!
	mov	r0, r4
	bl	ue_v
	ldr	r1, .L1999+44
	str	r0, [r7, #128]
	mov	r0, r4
	bl	u_1
	strb	r0, [r8, #1]!
	ldr	r3, [r5, #120]
	cmp	r3, r6
	bcs	.L1964
	ldr	r2, .L1999+48
	mov	r1, #5
	mov	r0, r4
	bl	u_v
	ldr	r2, .L1999+52
	mov	r1, #5
	str	r0, [r5, #380]
	mov	r0, r4
	bl	u_v
	ldr	r2, .L1999+56
	mov	r1, #5
	str	r0, [r5, #384]
	mov	r0, r4
	bl	u_v
	ldr	r2, .L1999+60
	mov	r1, #5
	str	r0, [r5, #388]
	mov	r0, r4
	bl	u_v
	str	r0, [r5, #392]
.L1960:
	ldr	r1, .L1999+64
	mov	r0, r4
	bl	u_1
	uxtb	r0, r0
	strb	r0, [r5, #10]
	cmp	r0, #0
	bne	.L1998
	ldrb	r3, [r5, #7]	@ zero_extendqisi2
	add	r9, r4, #61440
	cmp	r3, #0
	bne	.L1969
.L1968:
	ldr	r1, .L1999+68
	mov	r0, r4
	bl	u_1
	ldr	r1, .L1999+72
	strb	r0, [r5, #11]
	mov	r0, r4
	bl	u_1
	uxtb	r0, r0
	strb	r0, [r5, #12]
	cmp	r0, #0
	bne	.L1970
	ldr	r0, [r9, #2292]
.L1971:
	adds	r0, r0, #0
	movne	r0, #1
	rsb	r0, r0, #0
	ldmfd	sp, {r4, r5, r6, r7, r8, r9, fp, sp, pc}
.L1998:
	ldr	r1, .L1999+24
	mov	r0, r4
	bl	ue_v
	ldr	r2, .L1999+28
	mov	r1, #4
	str	r0, [r5, #432]
	mov	r0, r4
	bl	u_v
	ldr	r2, .L1999+32
	mov	r1, #4
	strb	r0, [r5, #428]
	mov	r0, r4
	bl	u_v
	ldr	r3, [r5, #432]
	cmp	r3, #31
	strb	r0, [r5, #429]
	bhi	.L1963
	add	r9, r4, #61440
	ldr	r6, [r9, #2292]
	cmp	r6, #0
	bne	.L1963
	add	r8, r5, #392
	add	r7, r5, #432
	add	r8, r8, #3
.L1966:
	ldr	r1, .L1999+36
	mov	r0, r4
	bl	ue_v
	ldr	r1, .L1999+40
	add	r6, r6, #1
	str	r0, [r7, #4]!
	mov	r0, r4
	bl	ue_v
	ldr	r1, .L1999+44
	str	r0, [r7, #128]
	mov	r0, r4
	bl	u_1
	strb	r0, [r8, #1]!
	ldr	r3, [r5, #432]
	cmp	r3, r6
	bcs	.L1966
	ldr	r2, .L1999+48
	mov	r1, #5
	mov	r0, r4
	bl	u_v
	ldr	r2, .L1999+52
	mov	r1, #5
	str	r0, [r5, #692]
	mov	r0, r4
	bl	u_v
	ldr	r2, .L1999+56
	mov	r1, #5
	str	r0, [r5, #696]
	mov	r0, r4
	bl	u_v
	ldr	r2, .L1999+60
	mov	r1, #5
	str	r0, [r5, #700]
	mov	r0, r4
	bl	u_v
	ldrb	r3, [r5, #7]	@ zero_extendqisi2
	cmp	r3, #0
	str	r0, [r5, #704]
	bne	.L1969
	ldrb	r3, [r5, #10]	@ zero_extendqisi2
	cmp	r3, #0
	beq	.L1968
.L1969:
	ldr	r1, .L1999+76
	mov	r0, r4
	bl	u_1
	strb	r0, [r5, #14]
	b	.L1968
.L1997:
	ldr	r2, .L1999+80
	mov	r1, #32
	mov	r0, r4
	bl	u_v
	ldr	r2, .L1999+84
	mov	r1, #32
	str	r0, [r5, #52]
	mov	r0, r4
	bl	u_v
	ldr	r1, .L1999+88
	str	r0, [r5, #56]
	mov	r0, r4
	bl	u_1
	uxtb	r0, r0
	strb	r0, [r5, #9]
	cmp	r0, #1
	bne	.L1958
	ldr	r2, [r5, #52]
	cmp	r2, #0
	beq	.L1958
	ldr	r0, [r5, #56]
	movw	r1, #10000
	ldr	r3, .L1999+92
	add	r9, r4, #61440
	umull	r0, r1, r0, r1
	ldr	r3, [r3, #236]
	movs	r1, r1, lsr #1
	mov	r0, r0, rrx
	blx	r3
	movw	r2, #52429
	movt	r2, 52428
	add	r0, r0, #5
	umull	r2, r3, r0, r2
	mov	r3, r3, lsr #3
	str	r3, [r9, #1052]
	b	.L1958
.L1996:
	ldr	r1, .L1999+96
	mov	r0, r4
	bl	ue_v
	ldr	r1, .L1999+100
	str	r0, [r5, #44]
	mov	r0, r4
	bl	ue_v
	str	r0, [r5, #48]
	b	.L1956
.L1995:
	ldr	r2, .L1999+104
	mov	r1, #3
	mov	r0, r4
	bl	u_v
	ldr	r1, .L1999+108
	str	r0, [r5, #28]
	mov	r0, r4
	bl	u_1
	ldr	r1, .L1999+112
	strb	r0, [r5, #4]
	mov	r0, r4
	bl	u_1
	uxtb	r0, r0
	strb	r0, [r5, #5]
	cmp	r0, #0
	beq	.L1955
	ldr	r2, .L1999+116
	mov	r1, #8
	mov	r0, r4
	bl	u_v
	ldr	r2, .L1999+120
	mov	r1, #8
	str	r0, [r5, #32]
	mov	r0, r4
	bl	u_v
	ldr	r2, .L1999+124
	mov	r1, #8
	str	r0, [r5, #36]
	mov	r0, r4
	bl	u_v
	str	r0, [r5, #40]
	b	.L1955
.L1994:
	ldr	r1, .L1999+128
	mov	r0, r4
	bl	u_1
	strb	r0, [r5, #2]
	b	.L1953
.L1993:
	ldr	r2, .L1999+132
	mov	r1, #8
	mov	r0, r4
	bl	u_v
	uxtb	r0, r0
	strb	r0, [r5, #15]
	cmp	r0, #255
	bne	.L1952
	ldr	r2, .L1999+136
	mov	r1, #16
	mov	r0, r4
	bl	u_v
	ldr	r2, .L1999+140
	mov	r1, #16
	str	r0, [r5, #16]
	mov	r0, r4
	bl	u_v
	str	r0, [r5, #20]
	b	.L1952
.L1970:
	ldr	r1, .L1999+144
	mov	r0, r4
	bl	u_1
	ldr	r1, .L1999+148
	strb	r0, [r5, #13]
	mov	r0, r4
	bl	ue_v
	ldr	r1, .L1999+152
	str	r0, [r5, #60]
	mov	r0, r4
	bl	ue_v
	ldr	r1, .L1999+156
	str	r0, [r5, #64]
	mov	r0, r4
	bl	ue_v
	ldr	r1, .L1999+160
	str	r0, [r5, #72]
	mov	r0, r4
	bl	ue_v
	ldr	r1, .L1999+164
	str	r0, [r5, #68]
	mov	r0, r4
	bl	ue_v
	ldr	r1, .L1999+168
	str	r0, [r5, #76]
	mov	r0, r4
	bl	ue_v
	str	r0, [r5, #80]
	ldr	r0, [r9, #2292]
	cmp	r0, #0
	beq	.L1971
	mvn	r0, #0
	ldmfd	sp, {r4, r5, r6, r7, r8, r9, fp, sp, pc}
.L1963:
	ldr	r1, .L1999+172
	mov	r0, #1
	bl	dprint_vfmw
	mvn	r0, #0
	ldmfd	sp, {r4, r5, r6, r7, r8, r9, fp, sp, pc}
.L2000:
	.align	2
.L1999:
	.word	.LC181
	.word	.LC185
	.word	.LC187
	.word	.LC194
	.word	.LC197
	.word	.LC201
	.word	.LC202
	.word	.LC203
	.word	.LC204
	.word	.LC206
	.word	.LC207
	.word	.LC208
	.word	.LC209
	.word	.LC210
	.word	.LC211
	.word	.LC212
	.word	.LC213
	.word	.LC215
	.word	.LC216
	.word	.LC214
	.word	.LC198
	.word	.LC199
	.word	.LC200
	.word	vfmw_Osal_Func_Ptr_S
	.word	.LC195
	.word	.LC196
	.word	.LC188
	.word	.LC189
	.word	.LC190
	.word	.LC191
	.word	.LC192
	.word	.LC193
	.word	.LC186
	.word	.LC182
	.word	.LC183
	.word	.LC184
	.word	.LC217
	.word	.LC218
	.word	.LC219
	.word	.LC220
	.word	.LC221
	.word	.LC222
	.word	.LC223
	.word	.LC205
	UNWIND(.fnend)
	.size	vui_parameters, .-vui_parameters
	.align	2
	.global	SPSEqual
	.type	SPSEqual, %function
SPSEqual:
	UNWIND(.fnstart)
	@ args = 0, pretend = 0, frame = 8
	@ frame_needed = 1, uses_anonymous_args = 0
	UNWIND(.movsp ip)
	mov	ip, sp
	stmfd	sp!, {r4, r5, r6, r7, r8, r9, r10, fp, ip, lr, pc}
	UNWIND(.pad #4)
	UNWIND(.save {r4, r5, r6, r7, r8, r9, r10, fp, ip, lr})
	UNWIND(.setfp fp, ip, #-4)
	sub	fp, ip, #4
	UNWIND(.pad #12)
	sub	sp, sp, #12
	subs	r5, r0, #0
	beq	.L2033
	cmp	r1, #0
	beq	.L2034
	ldrb	lr, [r1]	@ zero_extendqisi2
	ldrb	r3, [r5]	@ zero_extendqisi2
	ldr	ip, [r5, #28]
	ldr	r2, [r1, #28]
	ldrb	r0, [r5, #1]	@ zero_extendqisi2
	cmp	r3, lr
	cmpeq	ip, r2
	ldrb	r6, [r1, #1]	@ zero_extendqisi2
	ldrb	r2, [r5, #2]	@ zero_extendqisi2
	ldrb	r4, [r1, #2]	@ zero_extendqisi2
	moveq	lr, #1
	movne	lr, #0
	ldr	r3, [r5, #32]
	cmp	r0, r6
	movne	ip, #0
	andeq	ip, lr, #1
	ldr	r6, [r1, #32]
	cmp	r2, r4
	movne	r0, #0
	andeq	r0, ip, #1
	ldr	lr, [r1, #36]
	ldr	r4, [r5, #36]
	cmp	r3, r6
	movne	r2, #0
	andeq	r2, r0, #1
	ldrb	ip, [r1, #25]	@ zero_extendqisi2
	ldrb	r0, [r5, #25]	@ zero_extendqisi2
	cmp	r4, lr
	movne	r3, #0
	andeq	r3, r2, #1
	cmp	ip, r0
	movne	r3, #0
	andeq	r3, r3, #1
	cmp	r0, #0
	beq	.L2005
	add	r0, r1, #3
	add	r2, r5, #3
	sub	r9, r1, #1104
	add	r7, r1, #48
	mov	ip, r0
	mov	r8, r5
	mov	r6, r5
	str	r5, [fp, #-48]
	mov	r0, #0
	mov	r4, r2
	mov	r5, ip
	str	r1, [fp, #-52]
.L2010:
	ldrb	r2, [r4, #1]!	@ zero_extendqisi2
	ldrsb	ip, [r5, #1]!
	sxtb	r1, r2
	cmp	ip, r1
	movne	r3, #0
	andeq	r3, r3, #1
	cmp	r2, #0
	beq	.L2006
	cmp	r0, #5
	bhi	.L2007
	add	r2, r6, #48
	add	r10, r6, #112
	mov	r1, r7
.L2008:
	ldr	lr, [r2, #4]!
	ldr	ip, [r1, #4]!
	cmp	lr, ip
	movne	r3, #0
	andeq	r3, r3, #1
	cmp	r2, r10
	bne	.L2008
.L2006:
	add	r0, r0, #1
	add	r8, r8, #256
	cmp	r0, #8
	add	r9, r9, #256
	add	r6, r6, #64
	add	r7, r7, #64
	bne	.L2010
	ldr	r5, [fp, #-48]
	ldr	r1, [fp, #-52]
.L2005:
	ldr	r2, [r1, #2196]
	ldr	ip, [r5, #2200]
	ldr	r0, [r1, #2200]
	ldr	lr, [r5, #2196]
	cmp	ip, r0
	cmpeq	lr, r2
	moveq	r2, #1
	movne	r2, #0
	cmp	ip, #0
	and	r3, r3, r2
	beq	.L2012
	cmp	ip, #1
	bne	.L2011
	ldr	r0, [r1, #2208]
	ldr	ip, [r5, #2208]
	ldrb	r2, [r5, #16]	@ zero_extendqisi2
	ldrb	r6, [r1, #16]	@ zero_extendqisi2
	ldr	r4, [r5, #2212]
	cmp	ip, r0
	cmpeq	r2, r6
	ldr	lr, [r1, #2212]
	ldr	r6, [r5, #2216]
	ldr	ip, [r1, #2216]
	moveq	r0, #1
	movne	r0, #0
	cmp	r4, lr
	movne	r2, #0
	andeq	r2, r0, #1
	cmp	r6, ip
	movne	r2, #0
	andeq	r2, r2, #1
	cmp	r6, #0
	and	r3, r3, r2
	beq	.L2011
	add	ip, r5, #2208
	add	r0, r1, #2208
	add	ip, ip, #8
	add	r0, r0, #8
	mov	r2, #0
.L2014:
	ldr	r4, [ip, #4]!
	add	r2, r2, #1
	ldr	lr, [r0, #4]!
	cmp	r4, lr
	movne	r3, #0
	andeq	r3, r3, #1
	cmp	r2, r6
	bne	.L2014
.L2011:
	ldrb	ip, [r1, #17]	@ zero_extendqisi2
	ldrb	lr, [r5, #17]	@ zero_extendqisi2
	ldr	r0, [r5, #3244]
	ldr	r4, [r1, #3244]
	ldr	r2, [r5, #3248]
	cmp	lr, ip
	cmpeq	r0, r4
	ldr	r7, [r1, #3248]
	ldr	r6, [r5, #3252]
	ldr	r4, [r1, #3252]
	moveq	ip, #1
	movne	ip, #0
	ldrb	lr, [r1, #18]	@ zero_extendqisi2
	cmp	r2, r7
	movne	r0, #0
	andeq	r0, ip, #1
	ldrb	ip, [r5, #18]	@ zero_extendqisi2
	cmp	r6, r4
	movne	r2, #0
	andeq	r2, r0, #1
	cmp	lr, ip
	movne	r2, #0
	andeq	r2, r2, #1
	cmp	ip, #0
	and	r3, r3, r2
	bne	.L2015
	ldrb	r0, [r5, #19]	@ zero_extendqisi2
	ldrb	r2, [r1, #19]	@ zero_extendqisi2
	cmp	r0, r2
	movne	r3, #0
	andeq	r3, r3, #1
.L2015:
	ldrb	r2, [r1, #20]	@ zero_extendqisi2
	ldrb	ip, [r5, #21]	@ zero_extendqisi2
	ldrb	r0, [r1, #21]	@ zero_extendqisi2
	ldrb	lr, [r5, #20]	@ zero_extendqisi2
	cmp	r0, ip
	cmpeq	lr, r2
	moveq	r2, #1
	movne	r2, #0
	cmp	ip, #0
	and	r3, r3, r2
	bne	.L2035
.L2016:
	ldrb	r2, [r5, #22]	@ zero_extendqisi2
	ldr	r0, [r5, #3316]
	ldr	ip, [r1, #3316]
	ldrb	r1, [r1, #22]	@ zero_extendqisi2
	cmp	r0, ip
	cmpeq	r2, r1
	moveq	r2, #1
	movne	r2, #0
	tst	r3, r2
	mvneq	r0, #0
	movne	r0, #0
.L2003:
	sub	sp, fp, #40
	ldmfd	sp, {r4, r5, r6, r7, r8, r9, r10, fp, sp, pc}
.L2035:
	ldr	ip, [r1, #3260]
	ldr	lr, [r5, #3260]
	ldr	r0, [r5, #3256]
	ldr	r4, [r1, #3256]
	ldr	r2, [r1, #3264]
	cmp	lr, ip
	cmpeq	r0, r4
	ldr	r6, [r5, #3264]
	ldr	r4, [r5, #3268]
	ldr	lr, [r1, #3268]
	moveq	ip, #1
	movne	ip, #0
	cmp	r6, r2
	movne	r0, #0
	andeq	r0, ip, #1
	cmp	r4, lr
	movne	r2, #0
	andeq	r2, r0, #1
	and	r3, r3, r2
	b	.L2016
.L2007:
	sub	r2, r8, #1104
	sub	r10, r8, #848
	mov	r1, r9
.L2009:
	ldr	lr, [r2, #4]!
	ldr	ip, [r1, #4]!
	cmp	lr, ip
	movne	r3, #0
	andeq	r3, r3, #1
	cmp	r2, r10
	bne	.L2009
	b	.L2006
.L2012:
	ldr	r0, [r5, #2204]
	ldr	r2, [r1, #2204]
	cmp	r0, r2
	movne	r3, #0
	andeq	r3, r3, #1
	b	.L2011
.L2034:
	mov	r0, r1
	mov	r3, #9536
	ldr	r2, .L2036
	ldr	r1, .L2036+4
	bl	dprint_vfmw
	mvn	r0, #0
	b	.L2003
.L2033:
	movw	r3, #9535
	ldr	r2, .L2036
	ldr	r1, .L2036+4
	bl	dprint_vfmw
	mvn	r0, #0
	b	.L2003
.L2037:
	.align	2
.L2036:
	.word	.LC21
	.word	.LC22
	UNWIND(.fnend)
	.size	SPSEqual, .-SPSEqual
	.global	__aeabi_idiv
	.align	2
	.global	H264GetDar
	.type	H264GetDar, %function
H264GetDar:
	UNWIND(.fnstart)
	@ args = 4, pretend = 0, frame = 0
	@ frame_needed = 1, uses_anonymous_args = 0
	UNWIND(.movsp ip)
	mov	ip, sp
	stmfd	sp!, {r4, r5, fp, ip, lr, pc}
	UNWIND(.pad #4)
	UNWIND(.save {r4, r5, fp, ip, lr})
	UNWIND(.setfp fp, ip, #-4)
	sub	fp, ip, #4
	subs	r4, r0, #0
	mov	lr, r1
	mov	r5, r3
	beq	.L2064
	subs	r1, r4, #255
	movne	r1, #1
	cmp	r4, #16
	movle	r0, #0
	andgt	r0, r1, #1
	cmp	r0, #0
	bne	.L2051
	cmp	r2, #0
	cmpne	lr, #0
	moveq	ip, #1
	movne	ip, #0
	cmp	r4, #255
	movne	ip, #0
	andeq	ip, ip, #1
	cmp	ip, #0
	bne	.L2052
	cmp	r4, #1
	beq	.L2065
	cmp	r1, #0
	ldrne	r0, .L2067
	addne	r4, r0, r4, lsl #3
	ldrne	r2, [r4, #120]
	ldrne	lr, [r4, #116]
	mov	r1, r2
	mov	r0, lr, asl #10
	bl	__aeabi_idiv
	ldr	r1, [fp, #4]
	mov	r4, r0
	mov	r0, r5, asl #10
	bl	__aeabi_idiv
	movw	r3, #2405
	movw	r1, #2262
	mul	r0, r0, r4
	add	r2, r0, #1020
	cmp	r0, #0
	add	r2, r2, #3
	movlt	r0, r2
	mov	r2, r0, asr #10
	cmp	r2, r3
	rsble	r3, r2, #2400
	subgt	r3, r2, #2400
	addle	r3, r3, #6
	subgt	r3, r3, #6
	cmp	r2, r1
	ble	.L2066
	sub	r1, r2, #2256
	sub	r1, r1, #7
	cmp	r3, r1
	bge	.L2045
.L2057:
	mov	r4, #4
	b	.L2039
.L2051:
	mov	r4, #0
.L2064:
	mov	r2, r4
.L2039:
	mov	r3, r4
	ldr	r1, .L2067+4
	mov	r0, #22
	bl	dprint_vfmw
	mov	r0, r4
	ldmfd	sp, {r4, r5, fp, sp, pc}
.L2066:
	rsb	r1, r2, #2256
	add	r1, r1, #7
	cmp	r3, r1
	blt	.L2057
.L2045:
	movw	r3, #1819
	cmp	r2, r3
	bgt	.L2046
	rsb	r3, r2, #1808
	add	r3, r3, #12
	cmp	r1, r3
	blt	.L2059
.L2047:
	movw	r1, #1364
	cmp	r2, r1
	rsble	r4, r2, #1360
	subgt	r4, r2, #1360
	addle	r4, r4, #5
	subgt	r4, r4, #5
	cmp	r3, r4
	movlt	r4, #2
	movge	r4, #1
	b	.L2039
.L2065:
	ldr	r3, [fp, #4]
	sub	r3, r3, #1072
	sub	r3, r3, #8
	bics	r3, r3, #8
	moveq	r2, #1
	movne	r2, #0
	cmp	r5, #1920
	movne	r2, #0
	andeq	r2, r2, #1
	cmp	r2, #0
	movne	r2, ip
	movne	r4, #2
	bne	.L2039
	ldr	r3, [fp, #4]
	cmp	r5, #1280
	cmpeq	r3, #720
	moveq	r1, #1
	movne	r1, #0
	moveq	r4, #2
	beq	.L2039
	cmp	r5, #640
	cmpeq	r3, #480
	mov	r2, r1
	moveq	r4, #1
	movne	r4, #5
	b	.L2039
.L2052:
	mov	r4, r0
	mov	r2, r0
	b	.L2039
.L2046:
	sub	r3, r2, #1808
	sub	r3, r3, #12
	cmp	r1, r3
	bge	.L2047
.L2059:
	mov	r4, #3
	b	.L2039
.L2068:
	.align	2
.L2067:
	.word	.LANCHOR0
	.word	.LC224
	UNWIND(.fnend)
	.size	H264GetDar, .-H264GetDar
	.align	2
	.global	ProcessSPS
	.type	ProcessSPS, %function
ProcessSPS:
	UNWIND(.fnstart)
	@ args = 0, pretend = 0, frame = 40
	@ frame_needed = 1, uses_anonymous_args = 0
	UNWIND(.movsp ip)
	mov	ip, sp
	stmfd	sp!, {r4, r5, r6, r7, r8, r9, r10, fp, ip, lr, pc}
	UNWIND(.pad #4)
	UNWIND(.save {r4, r5, r6, r7, r8, r9, r10, fp, ip, lr})
	UNWIND(.setfp fp, ip, #-4)
	sub	fp, ip, #4
	UNWIND(.pad #52)
	sub	sp, sp, #52
	subs	r4, r1, #0
	mov	r5, r0
	beq	.L2186
	ldr	r2, [r4, #28]
	cmp	r2, #100
	cmpne	r2, #110
	moveq	r3, #1
	movne	r3, #0
	cmp	r2, #122
	orreq	r3, r3, #1
	cmp	r2, #144
	orreq	r3, r3, #1
	cmp	r2, #83
	orreq	r3, r3, #1
	cmp	r2, #86
	orreq	r3, r3, #1
	cmp	r3, #0
	streqb	r3, [r4, #25]
	moveq	r3, #1
	streq	r3, [r4, #40]
	bne	.L2187
.L2086:
	ldr	r1, .L2203
	mov	r0, r5
	bl	ue_v
	cmp	r0, #12
	str	r0, [r4, #2196]
	bhi	.L2099
	add	r6, r5, #61440
	ldr	r3, [r6, #2292]
	cmp	r3, #0
	bne	.L2099
	ldr	r1, .L2203+4
	mov	r0, r5
	bl	ue_v
	cmp	r0, #2
	str	r0, [r4, #2200]
	bhi	.L2101
	ldr	r3, [r6, #2292]
	cmp	r3, #0
	bne	.L2101
	cmp	r0, #0
	beq	.L2188
	cmp	r0, #1
	beq	.L2189
.L2106:
	ldr	r1, .L2203+8
	mov	r0, r5
	bl	ue_v
	str	r0, [r4, #3244]
	ldr	r3, [r6, #2292]
	cmp	r3, #0
	bne	.L2184
	ldr	r1, .L2203+12
	mov	r0, r5
	bl	u_1
	strb	r0, [r4, #17]
	ldr	r3, [r6, #2292]
	cmp	r3, #0
	bne	.L2184
	ldr	r1, .L2203+16
	mov	r0, r5
	bl	ue_v
	movw	r8, #509
	sub	r3, r0, #1
	str	r0, [r4, #3248]
	cmp	r3, r8
	bhi	.L2110
	ldr	r3, [r6, #2292]
	cmp	r3, #0
	bne	.L2110
	ldr	r1, .L2203+20
	mov	r0, r5
	bl	ue_v
	str	r0, [r4, #3252]
	ldr	r3, [r6, #2292]
	cmp	r3, #0
	bne	.L2184
	ldr	r1, .L2203+24
	mov	r0, r5
	bl	u_1
	uxtb	r0, r0
	strb	r0, [r4, #18]
	ldr	r3, [r6, #2292]
	cmp	r3, #0
	bne	.L2184
	cmp	r0, #0
	bne	.L2190
	ldr	r1, .L2203+28
	mov	r0, r5
	bl	u_1
	ldr	r7, [r4, #3252]
	add	r7, r7, #1
	cmp	r7, #255
	strb	r0, [r4, #19]
	bhi	.L2142
	ldr	r3, [r4, #3248]
	add	r3, r3, #1
	cmp	r7, #1
	cmphi	r3, #3
	movhi	r9, #2
	bls	.L2142
.L2114:
	mul	r7, r7, r9
	mov	r10, r3, asl #4
	mov	r7, r7, asl #4
	mul	r1, r10, r7
	add	r1, r1, r1, lsr #1
	cmp	r1, #100663296
	bhi	.L2191
	ldr	r2, [r4, #32]
	sub	r3, r2, #10
	cmp	r3, #31
	ldrls	pc, [pc, r3, asl #2]
	b	.L2116
.L2118:
	.word	.L2117
	.word	.L2119
	.word	.L2149
	.word	.L2149
	.word	.L2116
	.word	.L2116
	.word	.L2116
	.word	.L2116
	.word	.L2116
	.word	.L2116
	.word	.L2149
	.word	.L2121
	.word	.L2123
	.word	.L2116
	.word	.L2116
	.word	.L2116
	.word	.L2116
	.word	.L2116
	.word	.L2116
	.word	.L2116
	.word	.L2123
	.word	.L2124
	.word	.L2125
	.word	.L2116
	.word	.L2116
	.word	.L2116
	.word	.L2116
	.word	.L2116
	.word	.L2116
	.word	.L2116
	.word	.L2127
	.word	.L2127
.L2187:
	ldr	r1, .L2203+32
	bl	ue_v
	cmp	r0, #1
	str	r0, [r4, #40]
	bls	.L2192
.L2073:
	mov	r2, r0
	ldr	r1, .L2203+36
	mov	r0, #1
	bl	dprint_vfmw
	ldr	r1, .L2203+40
	mov	r0, r5
	bl	ue_v
	uxth	r0, r0
	add	r2, r0, #8
	str	r2, [r4, #44]
	cmp	r2, #8
	beq	.L2193
.L2075:
	ldr	r1, .L2203+44
	mov	r0, #1
	bl	dprint_vfmw
	ldr	r3, .L2203+48
	ldr	ip, [r3]
	cmp	ip, #0
	beq	.L2184
	ldr	r1, [r4, #44]
	add	r5, r5, #61440
	mov	lr, #0
	mov	r3, #8
	ldr	r0, [r5, #2352]
	sub	r2, fp, #68
	str	r1, [fp, #-64]
	mov	r1, #119
	str	lr, [fp, #-68]
	blx	ip
	mvn	r0, #0
.L2177:
	sub	sp, fp, #40
	ldmfd	sp, {r4, r5, r6, r7, r8, r9, r10, fp, sp, pc}
.L2192:
	add	r6, r5, #61440
	ldr	r3, [r6, #2292]
	cmp	r3, #0
	bne	.L2073
	ldr	r1, .L2203+40
	mov	r0, r5
	bl	ue_v
	uxth	r0, r0
	add	r2, r0, #8
	str	r2, [r4, #44]
	cmp	r2, #8
	bne	.L2077
	ldr	r3, [r6, #2292]
	cmp	r3, #0
	beq	.L2078
.L2077:
	ldr	r1, .L2203+44
	mov	r0, #1
	bl	dprint_vfmw
	ldr	r3, .L2203+48
	ldr	ip, [r3]
	cmp	ip, #0
	beq	.L2078
	ldr	r0, [r4, #44]
	mov	r2, #0
	mov	r3, #8
	str	r2, [fp, #-68]
	mov	r1, #119
	sub	r2, fp, #68
	str	r0, [fp, #-64]
	ldr	r0, [r6, #2352]
	blx	ip
.L2078:
	ldr	r1, .L2203+52
	mov	r0, r5
	bl	ue_v
	uxth	r0, r0
	add	r2, r0, #8
	str	r2, [r4, #48]
	cmp	r2, #8
	bne	.L2080
	ldr	r3, [r6, #2292]
	cmp	r3, #0
	bne	.L2080
.L2081:
	ldr	r1, .L2203+56
	mov	r0, r5
	bl	u_1
	cmp	r0, #0
	bne	.L2083
	ldr	r6, [r6, #2292]
	cmp	r6, #0
	bne	.L2083
	ldr	r1, .L2203+60
	mov	r0, r5
	bl	u_1
	uxtb	r0, r0
	strb	r0, [r4, #25]
	cmp	r0, #1
	bne	.L2086
	add	r10, r4, #1968
	sub	r7, fp, #72
	add	r10, r10, #4
	add	r9, r4, #3
	add	r8, r4, #52
	b	.L2092
.L2196:
	ldr	r3, .L2203+64
	cmp	r1, #0
	add	ip, r3, #16
	moveq	r3, ip
	mov	r1, r3
	ldr	r3, .L2203+68
	ldr	r3, [r3, #52]
	blx	r3
.L2088:
	add	r6, r6, #1
	add	r10, r10, #16
	cmp	r6, #6
	add	r8, r8, #64
	beq	.L2194
.L2092:
	ldr	r1, .L2203+72
	mov	r0, r5
	bl	u_1
	clz	r1, r6
	mov	r2, #16
	mov	r1, r1, lsr #5
	cmp	r0, #1
	mov	r3, r0
	mov	r0, r10
	str	r3, [r7, #4]!
	strb	r3, [r9, #1]!
	beq	.L2195
	cmp	r6, #0
	cmpne	r6, #3
	beq	.L2196
	ldr	r3, .L2203+68
	mov	r2, #16
	sub	r1, r10, #16
	mov	r0, r10
	ldr	r3, [r3, #52]
	blx	r3
	b	.L2088
.L2193:
	add	r3, r5, #61440
	ldr	r3, [r3, #2292]
	cmp	r3, #0
	bne	.L2075
.L2184:
	mvn	r0, #0
	sub	sp, fp, #40
	ldmfd	sp, {r4, r5, r6, r7, r8, r9, r10, fp, sp, pc}
.L2188:
	ldr	r1, .L2203+76
	mov	r0, r5
	bl	ue_v
	cmp	r0, #12
	str	r0, [r4, #2204]
	bhi	.L2104
	ldr	r3, [r6, #2292]
	cmp	r3, #0
	beq	.L2106
.L2104:
	ldr	r1, .L2203+80
	mov	r0, #1
	bl	dprint_vfmw
	mvn	r0, #0
	b	.L2177
.L2080:
	ldr	r1, .L2203+84
	mov	r0, #1
	bl	dprint_vfmw
	ldr	r3, .L2203+48
	ldr	ip, [r3]
	cmp	ip, #0
	beq	.L2081
	ldr	r0, [r4, #48]
	mov	r2, #0
	mov	r3, #8
	str	r2, [fp, #-68]
	mov	r1, #119
	sub	r2, fp, #68
	str	r0, [fp, #-64]
	ldr	r0, [r6, #2352]
	blx	ip
	b	.L2081
.L2190:
	ldr	r7, [r4, #3252]
	strb	r3, [r4, #19]
	sub	r3, r7, #1
	cmp	r3, r8
	bhi	.L2142
	ldr	r3, [r4, #3248]
	mov	r9, #1
	add	r7, r7, #1
	add	r3, r3, r9
	b	.L2114
.L2149:
	mov	r0, #60416
	movt	r0, 13
.L2120:
	bl	__aeabi_uidiv
	ldr	r1, .L2203+88
	cmp	r0, #16
	movcc	r8, r0
	movcs	r8, #16
	mov	r2, r8
	mov	r0, #21
	bl	dprint_vfmw
	ldr	r2, [r4, #3244]
	cmp	r2, r8
	bhi	.L2128
	ldr	r3, [r6, #2292]
	cmp	r3, #0
	beq	.L2129
.L2128:
	mov	r3, r8
	ldr	r1, .L2203+92
	mov	r0, #0
	bl	dprint_vfmw
	ldr	r3, [r4, #3244]
	cmp	r3, #16
	bhi	.L2181
	cmp	r8, r3
	movcc	r8, r3
.L2181:
	str	r8, [r4, #3244]
.L2129:
	ldr	r1, .L2203+96
	mov	r0, r5
	bl	u_1
	strb	r0, [r4, #20]
	ldr	r3, [r6, #2292]
	cmp	r3, #0
	bne	.L2184
	ldr	r1, .L2203+100
	mov	r0, r5
	bl	u_1
	uxtb	r0, r0
	strb	r0, [r4, #21]
	ldr	r3, [r6, #2292]
	cmp	r3, #0
	bne	.L2184
	cmp	r0, #0
	bne	.L2197
.L2131:
	mov	r2, r10, lsr #1
	mov	r3, r7, lsr #1
	str	r10, [r4, #3276]
	str	r7, [r4, #3280]
	str	r2, [r4, #3284]
	str	r3, [r4, #3288]
.L2133:
	ldr	r1, .L2203+104
	mov	r0, r5
	bl	u_1
	uxtb	r3, r0
	strb	r3, [r4, #22]
	ldr	r2, [r6, #2292]
	cmp	r2, #0
	bne	.L2184
	cmp	r3, #0
	mov	r2, #2
	str	r2, [r4, #3332]
	bne	.L2198
	mov	r0, r3
	strb	r3, [r4, #3307]
	mov	r3, #5
	str	r3, [r4, #3320]
.L2136:
	ldr	r2, [r4, #3312]
	mov	r3, r10
	ldr	r1, [r4, #3308]
	str	r7, [sp]
	bl	H264GetDar
	ldr	r3, [r4, #3244]
	cmp	r3, #0
	str	r0, [r4, #3316]
	beq	.L2139
	ldr	r2, [r4, #3372]
	cmp	r3, r2
	bls	.L2139
	cmp	r8, r3
	movcs	r8, r3
.L2139:
	cmp	r8, #16
	add	r3, r5, #12288
	movcs	r8, #16
	str	r8, [r3, #1296]
	ldr	r3, [r5]
	ldr	r2, [r3, #28]
	cmp	r2, #25
	beq	.L2199
.L2140:
	add	r8, r8, #1
	mov	r0, #0
	str	r8, [r4, #3272]
	b	.L2177
.L2127:
	mov	r0, #12582912
	b	.L2120
.L2123:
	mov	r0, #30208
	movt	r0, 47
	b	.L2120
.L2119:
	mov	r0, #17920
	movt	r0, 5
	b	.L2120
.L2117:
	mov	r0, #20992
	movt	r0, 2
	b	.L2120
.L2125:
	mov	r0, #7864320
	b	.L2120
.L2124:
	mov	r0, #30720
	movt	r0, 105
	b	.L2120
.L2121:
	mov	r0, #55296
	movt	r0, 27
	b	.L2120
.L2116:
	ldr	r1, .L2203+108
	mov	r0, #1
	bl	dprint_vfmw
	mvn	r0, #0
	b	.L2177
.L2099:
	ldr	r1, .L2203+112
	mov	r0, #1
	bl	dprint_vfmw
	mvn	r0, #0
	b	.L2177
.L2142:
	ldr	r1, .L2203+116
	mov	r0, #1
	bl	dprint_vfmw
	mvn	r0, #0
	b	.L2177
.L2197:
	ldr	r1, .L2203+120
	mov	r0, r5
	bl	ue_v
	ldr	r1, .L2203+124
	str	r0, [r4, #3256]
	mov	r0, r5
	bl	ue_v
	ldr	r1, .L2203+128
	str	r0, [r4, #3260]
	mov	r0, r5
	bl	ue_v
	ldr	r1, .L2203+132
	str	r0, [r4, #3264]
	mov	r0, r5
	bl	ue_v
	ldr	r2, [r4, #3264]
	ldr	r1, [r4, #3256]
	mov	ip, r9, asl #1
	ldr	r3, [r4, #3260]
	mov	r2, r2, asl #1
	mov	r1, r1, asl #1
	mul	r9, r9, r2
	rsb	r2, r1, r10
	sub	r3, r2, r3, asl #1
	rsb	r2, r9, r7
	str	r0, [r4, #3268]
	mls	r0, r0, ip, r2
	cmp	r3, #0
	cmpgt	r0, #0
	ble	.L2131
	add	r1, r1, r3, lsr #1
	add	r9, r9, r0, lsr #1
	str	r1, [r4, #3284]
	str	r9, [r4, #3288]
	str	r3, [r4, #3276]
	str	r0, [r4, #3280]
	b	.L2133
.L2198:
	add	r1, r4, #3280
	mov	r0, r5
	add	r1, r1, #12
	bl	vui_parameters
	cmp	r0, #0
	bne	.L2183
	ldrb	r3, [r4, #3304]	@ zero_extendqisi2
	cmp	r3, #0
	beq	.L2183
	ldr	r2, [r4, #3372]
	clz	r3, r2
	mov	r3, r3, lsr #5
	cmp	r8, r2
	orrcc	r3, r3, #1
	cmp	r3, #0
	bne	.L2200
	ldr	r3, [r4, #3244]
	ldrb	r0, [r4, #3307]	@ zero_extendqisi2
	cmp	r2, r3
	movcs	r8, r2
	movcc	r8, r3
	b	.L2136
.L2199:
	ldr	r2, [r3, #724]
	cmp	r2, #0
	bne	.L2140
	ldr	r2, [r3, #708]
	ldr	r1, [r3, #684]
	cmp	r8, r2
	ldr	r0, [r3, #688]
	bls	.L2141
	ldr	r3, .L2203+48
	ldr	ip, [r3]
	cmp	ip, #0
	beq	.L2184
	str	r2, [fp, #-72]
	mov	r3, #8
	str	r8, [fp, #-76]
	sub	r2, fp, #76
	ldr	r0, [r6, #2352]
	mov	r1, #106
	blx	ip
	mvn	r0, #0
	b	.L2177
.L2200:
	mov	r3, r8
	ldr	r1, .L2203+136
	mov	r0, #1
	bl	dprint_vfmw
.L2183:
	ldrb	r0, [r4, #3307]	@ zero_extendqisi2
	b	.L2136
.L2194:
	add	r6, r4, #2064
	sub	r7, fp, #88
	add	r6, r6, #4
	add	r9, r4, #9
	add	r8, r4, #436
	mov	r10, #0
.L2097:
	ldr	r1, .L2203+72
	mov	r0, r5
	bl	u_1
	mov	r2, #64
	mov	r3, r0
	cmp	r3, #1
	mov	r0, r6
	str	r3, [r7, #4]!
	strb	r3, [r9, #1]!
	beq	.L2201
	ldr	r1, .L2203+140
	cmp	r10, #0
	ldr	r3, .L2203+68
	add	ip, r1, #64
	ldr	r3, [r3, #52]
	movne	r1, ip
	blx	r3
.L2094:
	add	r10, r10, #1
	add	r6, r6, #64
	cmp	r10, #2
	add	r8, r8, #256
	bne	.L2097
	b	.L2086
.L2189:
	ldr	r1, .L2203+144
	mov	r0, r5
	bl	u_1
	strb	r0, [r4, #16]
	ldr	r3, [r6, #2292]
	cmp	r3, #0
	bne	.L2184
	ldr	r1, .L2203+148
	mov	r0, r5
	bl	se_v
	str	r0, [r4, #2208]
	ldr	r3, [r6, #2292]
	cmp	r3, #0
	bne	.L2184
	ldr	r1, .L2203+152
	mov	r0, r5
	bl	se_v
	str	r0, [r4, #2212]
	ldr	r3, [r6, #2292]
	cmp	r3, #0
	bne	.L2184
	ldr	r1, .L2203+156
	mov	r0, r5
	bl	ue_v
	cmp	r0, #255
	str	r0, [r4, #2216]
	bhi	.L2107
	ldr	r7, [r6, #2292]
	cmp	r7, #0
	bne	.L2107
	cmp	r0, #0
	addne	r8, r4, #2208
	addne	r8, r8, #8
	bne	.L2109
	b	.L2106
.L2202:
	ldr	r3, [r4, #2216]
	cmp	r3, r7
	bls	.L2106
.L2109:
	ldr	r1, .L2203+160
	mov	r0, r5
	bl	se_v
	add	r7, r7, #1
	str	r0, [r8, #4]!
	ldr	r3, [r6, #2292]
	cmp	r3, #0
	beq	.L2202
	b	.L2184
.L2195:
	mov	r3, r2
	str	r7, [sp]
	mov	r2, r10
	mov	r1, r8
	mov	r0, r5
	bl	Scaling_List
	ldr	r3, [r7]
	cmp	r3, #1
	bne	.L2088
	ldr	r1, .L2203+64
	mov	r2, #16
	ldr	r3, .L2203+68
	cmp	r6, #2
	add	r0, r1, r2
	ldr	r3, [r3, #52]
	movhi	r1, r0
	mov	r0, r10
	blx	r3
	b	.L2088
.L2110:
	mov	r2, r0
	ldr	r1, .L2203+164
	mov	r0, #1
	bl	dprint_vfmw
	mvn	r0, #0
	b	.L2177
.L2101:
	ldr	r1, .L2203+168
	mov	r0, #1
	bl	dprint_vfmw
	mvn	r0, #0
	b	.L2177
.L2083:
	ldr	r1, .L2203+172
	mov	r0, #1
	bl	dprint_vfmw
	mvn	r0, #0
	b	.L2177
.L2201:
	mov	r3, r2
	str	r7, [sp]
	mov	r2, r6
	mov	r1, r8
	mov	r0, r5
	bl	Scaling_List
	ldr	r3, [r7]
	cmp	r3, #1
	bne	.L2094
	ldr	r1, .L2203+140
	mov	r2, #64
	ldr	r3, .L2203+68
	cmp	r10, #0
	add	r0, r1, r2
	ldr	r3, [r3, #52]
	movne	r1, r0
	mov	r0, r6
	blx	r3
	b	.L2094
.L2141:
	cmp	r1, r10
	cmpcs	r0, r7
	bcs	.L2140
	ldr	r3, .L2203+48
	ldr	ip, [r3]
	cmp	ip, #0
	beq	.L2184
	strh	r1, [fp, #-72]	@ movhi
	mov	r3, #8
	strh	r0, [fp, #-70]	@ movhi
	sub	r2, fp, #76
	strh	r10, [fp, #-76]	@ movhi
	mov	r1, #107
	strh	r7, [fp, #-74]	@ movhi
	ldr	r0, [r6, #2352]
	blx	ip
	b	.L2184
.L2186:
	mov	r0, r4
	movw	r3, #9742
	ldr	r2, .L2203+176
	ldr	r1, .L2203+180
	bl	dprint_vfmw
	mvn	r0, #0
	b	.L2177
.L2191:
	ldr	r1, .L2203+184
	mov	r0, #0
	bl	dprint_vfmw
	mvn	r0, #0
	b	.L2177
.L2107:
	ldr	r1, .L2203+188
	mov	r0, #1
	bl	dprint_vfmw
	mvn	r0, #0
	b	.L2177
.L2204:
	.align	2
.L2203:
	.word	.LC234
	.word	.LC236
	.word	.LC239
	.word	.LC247
	.word	.LC248
	.word	.LC250
	.word	.LC251
	.word	.LC265
	.word	.LC225
	.word	.LC226
	.word	.LC227
	.word	.LC228
	.word	g_event_report
	.word	.LC229
	.word	.LC231
	.word	.LC233
	.word	.LANCHOR1+80
	.word	vfmw_Osal_Func_Ptr_S
	.word	.LC171
	.word	.LC238
	.word	.LC240
	.word	.LC230
	.word	.LC255
	.word	.LC256
	.word	.LC257
	.word	.LC258
	.word	.LC263
	.word	.LC254
	.word	.LC235
	.word	.LC252
	.word	.LC259
	.word	.LC260
	.word	.LC261
	.word	.LC262
	.word	.LC264
	.word	.LANCHOR1+112
	.word	.LC241
	.word	.LC242
	.word	.LC243
	.word	.LC244
	.word	.LC246
	.word	.LC249
	.word	.LC237
	.word	.LC232
	.word	.LC21
	.word	.LC22
	.word	.LC253
	.word	.LC245
	UNWIND(.fnend)
	.size	ProcessSPS, .-ProcessSPS
	.align	2
	.global	Sps_SvcExt
	.type	Sps_SvcExt, %function
Sps_SvcExt:
	UNWIND(.fnstart)
	@ args = 0, pretend = 0, frame = 0
	@ frame_needed = 1, uses_anonymous_args = 0
	UNWIND(.movsp ip)
	mov	ip, sp
	stmfd	sp!, {r4, r5, r6, fp, ip, lr, pc}
	UNWIND(.pad #4)
	UNWIND(.save {r4, r5, r6, fp, ip, lr})
	UNWIND(.setfp fp, ip, #-4)
	sub	fp, ip, #4
	UNWIND(.pad #12)
	sub	sp, sp, #12
	add	r1, r0, #12288
	add	r2, r0, #20480
	mov	lr, #2208
	ldr	r3, [r1, #1304]
	mov	r4, r0
	ldr	r2, [r2, #216]
	add	r0, r0, #13504
	ldr	ip, [r1, #1300]
	mov	r5, #4000
	mov	r1, #32
	add	r0, r0, #24
	mla	r3, lr, r2, r3
	ldr	r3, [r3, #28]
	mla	r5, r5, r3, ip
	bl	BsGet
	ldr	r1, .L2219
	mov	r6, r0
	mov	r0, r4
	bl	u_1
	ldr	r1, .L2219+4
	mov	r2, r0
	mov	r0, #17
	bl	dprint_vfmw
	mov	r0, r4
	ldr	r2, .L2219+8
	mov	r1, #2
	bl	u_v
	cmp	r0, #1
	beq	.L2215
	ldr	r2, [r5, #40]
	sub	r1, r2, #1
	cmp	r1, #1
	bls	.L2216
.L2208:
	cmp	r2, #1
	beq	.L2217
.L2209:
	ldr	r1, .L2219+12
	mov	r0, r4
	bl	u_1
	cmp	r0, #0
	bne	.L2218
.L2210:
	mov	r0, r4
	ldr	r1, .L2219+16
	bl	u_1
	cmp	r0, #1
	moveq	r0, #0
	beq	.L2207
	ldr	ip, [r5, #40]
	mov	r2, r0
	mov	r3, r6
	ldr	r1, .L2219+20
	mov	r0, #1
	str	ip, [sp]
	bl	dprint_vfmw
	mov	r0, #0
.L2207:
	sub	sp, fp, #24
	ldmfd	sp, {r4, r5, r6, fp, sp, pc}
.L2218:
	ldr	r1, .L2219+24
	mov	r0, r4
	bl	u_1
	ldr	r1, .L2219+28
	mov	r2, r0
	mov	r0, #17
	bl	dprint_vfmw
	b	.L2210
.L2217:
	ldr	r2, .L2219+32
	mov	r1, #2
	mov	r0, r4
	bl	u_v
	ldr	r1, .L2219+36
	mov	r2, r0
	mov	r0, #17
	bl	dprint_vfmw
	b	.L2209
.L2216:
	ldr	r1, .L2219+40
	mov	r0, r4
	bl	u_1
	ldr	r1, .L2219+44
	mov	r2, r0
	mov	r0, #17
	bl	dprint_vfmw
	ldr	r2, [r5, #40]
	b	.L2208
.L2215:
	ldr	r1, .L2219+48
	bl	dprint_vfmw
	mvn	r0, #0
	b	.L2207
.L2220:
	.align	2
.L2219:
	.word	.LC266
	.word	.LC267
	.word	.LC268
	.word	.LC274
	.word	.LC277
	.word	.LC278
	.word	.LC275
	.word	.LC276
	.word	.LC272
	.word	.LC273
	.word	.LC270
	.word	.LC271
	.word	.LC269
	UNWIND(.fnend)
	.size	Sps_SvcExt, .-Sps_SvcExt
	.align	2
	.global	H264_DecSPS
	.type	H264_DecSPS, %function
H264_DecSPS:
	UNWIND(.fnstart)
	@ args = 0, pretend = 0, frame = 32
	@ frame_needed = 1, uses_anonymous_args = 0
	UNWIND(.movsp ip)
	mov	ip, sp
	stmfd	sp!, {r4, r5, r6, r7, r8, r9, r10, fp, ip, lr, pc}
	UNWIND(.pad #4)
	UNWIND(.save {r4, r5, r6, r7, r8, r9, r10, fp, ip, lr})
	UNWIND(.setfp fp, ip, #-4)
	sub	fp, ip, #4
	UNWIND(.pad #36)
	sub	sp, sp, #36
	ldr	r2, .L2256
	mov	r1, #8
	mov	r4, r0
	add	r7, r0, #61440
	bl	u_v
	ldr	r1, .L2256+4
	mov	r10, r0
	mov	r0, r4
	bl	u_1
	ldr	r1, .L2256+8
	str	r0, [fp, #-56]
	mov	r0, r4
	bl	u_1
	ldr	r1, .L2256+12
	str	r0, [fp, #-60]
	mov	r0, r4
	bl	u_1
	ldr	r1, .L2256+16
	str	r0, [fp, #-64]
	mov	r0, r4
	bl	u_1
	ldr	r2, .L2256+20
	mov	r1, #4
	str	r0, [fp, #-68]
	mov	r0, r4
	bl	u_v
	ldr	r2, .L2256+24
	mov	r1, #8
	mov	r0, r4
	bl	u_v
	ldr	r1, .L2256+28
	mov	r6, r0
	mov	r0, r4
	bl	ue_v
	ldr	r2, [r7, #2292]
	cmp	r2, #0
	mov	r9, r0
	bne	.L2250
	add	r5, r4, #12288
	ldr	r2, [r5, #1288]
	sub	r2, r2, #1
	cmp	r0, r2
	bhi	.L2251
	sub	r2, r10, #66
	mov	r8, r10
	cmp	r2, #78
	ldrls	pc, [pc, r2, asl #2]
	b	.L2226
.L2228:
	.word	.L2227
	.word	.L2226
	.word	.L2226
	.word	.L2226
	.word	.L2226
	.word	.L2226
	.word	.L2226
	.word	.L2226
	.word	.L2226
	.word	.L2226
	.word	.L2226
	.word	.L2229
	.word	.L2226
	.word	.L2226
	.word	.L2226
	.word	.L2226
	.word	.L2226
	.word	.L2229
	.word	.L2226
	.word	.L2226
	.word	.L2229
	.word	.L2226
	.word	.L2230
	.word	.L2226
	.word	.L2226
	.word	.L2226
	.word	.L2226
	.word	.L2226
	.word	.L2226
	.word	.L2226
	.word	.L2226
	.word	.L2226
	.word	.L2226
	.word	.L2226
	.word	.L2229
	.word	.L2226
	.word	.L2226
	.word	.L2226
	.word	.L2226
	.word	.L2226
	.word	.L2226
	.word	.L2226
	.word	.L2226
	.word	.L2226
	.word	.L2231
	.word	.L2226
	.word	.L2226
	.word	.L2226
	.word	.L2226
	.word	.L2226
	.word	.L2226
	.word	.L2226
	.word	.L2226
	.word	.L2226
	.word	.L2226
	.word	.L2226
	.word	.L2231
	.word	.L2226
	.word	.L2226
	.word	.L2226
	.word	.L2226
	.word	.L2226
	.word	.L2226
	.word	.L2226
	.word	.L2226
	.word	.L2226
	.word	.L2226
	.word	.L2226
	.word	.L2226
	.word	.L2226
	.word	.L2226
	.word	.L2226
	.word	.L2226
	.word	.L2226
	.word	.L2226
	.word	.L2226
	.word	.L2226
	.word	.L2226
	.word	.L2231
.L2227:
	ldr	r1, .L2256+32
	mov	r0, #1
	bl	dprint_vfmw
.L2229:
	cmp	r6, #9
	mov	r2, r6
	bls	.L2249
.L2255:
	cmp	r6, #41
	bhi	.L2249
.L2233:
	mov	r3, #4000
	ldr	r1, [r5, #1300]
	mul	r7, r3, r9
	add	r1, r1, r7
	ldrb	r6, [r1, #23]	@ zero_extendqisi2
	cmp	r6, #0
	beq	.L2234
	ldr	r6, .L2256+36
	mov	r0, r4
	str	r3, [fp, #-72]
	ldrb	r3, [fp, #-56]	@ zero_extendqisi2
	add	r1, r6, #2208
	str	r8, [r6, #2236]
	str	r2, [r6, #2240]
	strb	r3, [r6, #2208]
	ldrb	r3, [fp, #-60]	@ zero_extendqisi2
	str	r9, [r6, #2244]
	strb	r3, [r6, #2209]
	ldrb	r3, [fp, #-64]	@ zero_extendqisi2
	strb	r3, [r6, #2210]
	ldrb	r3, [fp, #-68]	@ zero_extendqisi2
	strb	r3, [r6, #2211]
	bl	ProcessSPS
	ldr	r3, [fp, #-72]
	cmp	r0, #0
	bne	.L2252
	ldr	r1, [r5, #1300]
	add	r0, r6, #2208
	str	r3, [fp, #-56]
	add	r1, r1, r7
	bl	SPSEqual
	ldr	r3, [fp, #-56]
	cmp	r0, #0
	bne	.L2253
.L2236:
	cmp	r8, #83
	cmpne	r8, #86
	beq	.L2238
.L2239:
	mov	r0, #0
.L2223:
	sub	sp, fp, #40
	ldmfd	sp, {r4, r5, r6, r7, r8, r9, r10, fp, sp, pc}
.L2249:
	mov	r3, #41
	ldr	r1, .L2256+40
	mov	r0, #1
	bl	dprint_vfmw
	mov	r2, #41
	b	.L2233
.L2234:
	str	r8, [r1, #28]
	mov	r0, r4
	ldr	r3, [r5, #1300]
	ldrb	r1, [fp, #-56]	@ zero_extendqisi2
	strb	r1, [r3, r7]
	ldr	r3, [r5, #1300]
	ldrb	r1, [fp, #-60]	@ zero_extendqisi2
	add	r3, r3, r7
	strb	r1, [r3, #1]
	ldr	r3, [r5, #1300]
	ldrb	r1, [fp, #-64]	@ zero_extendqisi2
	add	r3, r3, r7
	strb	r1, [r3, #2]
	ldr	r3, [r5, #1300]
	ldrb	r1, [fp, #-68]	@ zero_extendqisi2
	add	r3, r3, r7
	strb	r1, [r3, #3]
	ldr	r3, [r5, #1300]
	add	r3, r3, r7
	str	r2, [r3, #32]
	ldr	r3, [r5, #1300]
	add	r3, r3, r7
	str	r9, [r3, #36]
	ldr	r1, [r5, #1300]
	add	r1, r1, r7
	bl	ProcessSPS
	cmp	r0, #0
	bne	.L2254
	ldr	r3, [r5, #1300]
	mov	r2, #1
	cmp	r8, #83
	cmpne	r8, #86
	add	r3, r3, r7
	strb	r2, [r3, #24]
	ldr	r3, [r5, #1300]
	add	r7, r3, r7
	strb	r2, [r7, #23]
	bne	.L2239
.L2238:
	mov	r0, r4
	bl	Sps_SvcExt
	cmp	r0, #0
	beq	.L2239
	ldr	r1, .L2256+44
	mov	r0, #1
	bl	dprint_vfmw
.L2250:
	mvn	r0, #0
	sub	sp, fp, #40
	ldmfd	sp, {r4, r5, r6, r7, r8, r9, r10, fp, sp, pc}
.L2251:
	ldr	r1, .L2256+48
	mov	r0, #1
	bl	dprint_vfmw
	ldr	r2, [r5, #1288]
	sub	r3, r2, #1
	cmp	r9, r3
	bls	.L2250
	ldr	r3, .L2256+52
	ldr	r4, [r3]
	cmp	r4, #0
	beq	.L2250
	str	r2, [fp, #-48]
	mov	r3, #8
	str	r9, [fp, #-52]
	sub	r2, fp, #52
	ldr	r0, [r7, #2352]
	mov	r1, #109
	blx	r4
	mvn	r0, #0
	sub	sp, fp, #40
	ldmfd	sp, {r4, r5, r6, r7, r8, r9, r10, fp, sp, pc}
.L2231:
	ldr	r1, .L2256+56
	mov	r0, #1
	bl	dprint_vfmw
	cmp	r6, #9
	mov	r2, r6
	bhi	.L2255
	b	.L2249
.L2230:
	ldr	r1, .L2256+60
	mov	r0, #1
	bl	dprint_vfmw
	cmp	r6, #9
	mov	r2, r6
	bhi	.L2255
	b	.L2249
.L2226:
	mov	r2, r10
	ldr	r1, .L2256+64
	mov	r0, #1
	mov	r8, #100
	bl	dprint_vfmw
	cmp	r6, #9
	mov	r2, r6
	bhi	.L2255
	b	.L2249
.L2253:
	ldr	ip, .L2256+68
	mov	r2, r3
	ldr	r0, [r5, #1300]
	mov	r3, #1
	add	r1, r6, #2208
	strb	r3, [r6, #2232]
	add	r0, r0, r7
	ldr	ip, [ip, #56]
	strb	r3, [r6, #2231]
	blx	ip
	b	.L2236
.L2252:
	mov	r3, r9
	movw	r2, #10356
	ldr	r1, .L2256+72
	mov	r0, #1
	bl	dprint_vfmw
	mvn	r0, #0
	b	.L2223
.L2254:
	mov	r3, r9
	movw	r2, #10381
	ldr	r1, .L2256+72
	mov	r0, #1
	bl	dprint_vfmw
	ldr	r3, [r5, #1300]
	mov	r2, #1
	mvn	r0, #0
	add	r3, r3, r7
	strb	r2, [r3, #24]
	ldr	r3, [r5, #1300]
	add	r7, r3, r7
	strb	r6, [r7, #23]
	b	.L2223
.L2257:
	.align	2
.L2256:
	.word	.LC279
	.word	.LC280
	.word	.LC281
	.word	.LC282
	.word	.LC283
	.word	.LC284
	.word	.LC285
	.word	.LC286
	.word	.LC287
	.word	.LANCHOR2
	.word	.LC291
	.word	.LC293
	.word	.LC177
	.word	g_event_report
	.word	.LC289
	.word	.LC288
	.word	.LC290
	.word	vfmw_Osal_Func_Ptr_S
	.word	.LC292
	UNWIND(.fnend)
	.size	H264_DecSPS, .-H264_DecSPS
	.align	2
	.global	PassBytes
	.type	PassBytes, %function
PassBytes:
	UNWIND(.fnstart)
	@ args = 0, pretend = 0, frame = 0
	@ frame_needed = 1, uses_anonymous_args = 0
	UNWIND(.movsp ip)
	mov	ip, sp
	stmfd	sp!, {r4, r5, r6, fp, ip, lr, pc}
	UNWIND(.pad #4)
	UNWIND(.save {r4, r5, r6, fp, ip, lr})
	UNWIND(.setfp fp, ip, #-4)
	sub	fp, ip, #4
	ldr	ip, [r0, #368]
	cmp	ip, #0
	cmpne	r1, #0
	beq	.L2267
	ldrb	r3, [ip]	@ zero_extendqisi2
	mov	r2, r3, asl #2
	mov	r5, r3, asl #5
	rsb	r4, r2, r5
	add	r4, ip, r4
	add	r6, r4, #8
	ldr	lr, [r4, #8]
	cmp	lr, #0
	beq	.L2267
	ldr	lr, [ip, #68]
	cmp	r3, #1
	cmpls	lr, #2
	bhi	.L2267
	cmp	lr, r3
	bls	.L2267
	ldr	lr, [r4, #12]
	mov	r6, r2
	ldr	r4, [r4, #24]
	mov	lr, lr, asl #3
	add	r1, r4, r1, lsl #3
	cmp	r1, lr
	bhi	.L2262
	b	.L2260
.L2263:
	ldr	r4, [r2, #24]
	ldr	r2, [r2, #12]
	rsb	lr, lr, r4
	add	r1, r1, lr
	mov	lr, r2, asl #3
	cmp	r1, lr
	bls	.L2260
.L2262:
	rsb	r2, r6, r5
	add	r3, r3, #1
	add	ip, ip, r2
	mov	r6, r3, asl #2
	mov	r5, r3, asl #5
	str	lr, [ip, #24]
	rsb	r2, r6, r5
	ldr	ip, [r0, #368]
	ldrb	r4, [ip]	@ zero_extendqisi2
	add	r4, r4, #1
	strb	r4, [ip]
	ldr	ip, [r0, #368]
	add	r2, ip, r2
	ldr	r4, [ip, #68]
	cmp	r4, r3
	bhi	.L2263
	mov	r0, #0
	ldmfd	sp, {r4, r5, r6, fp, sp, pc}
.L2260:
	rsb	r2, r6, r5
	mov	r0, #1
	add	ip, ip, r2
	str	r1, [ip, #24]
	ldmfd	sp, {r4, r5, r6, fp, sp, pc}
.L2267:
	mvn	r0, #0
	ldmfd	sp, {r4, r5, r6, fp, sp, pc}
	UNWIND(.fnend)
	.size	PassBytes, .-PassBytes
	.align	2
	.global	GetBytes
	.type	GetBytes, %function
GetBytes:
	UNWIND(.fnstart)
	@ args = 0, pretend = 0, frame = 0
	@ frame_needed = 1, uses_anonymous_args = 0
	UNWIND(.movsp ip)
	mov	ip, sp
	stmfd	sp!, {r4, r5, r6, r7, r8, fp, ip, lr, pc}
	UNWIND(.pad #4)
	UNWIND(.save {r4, r5, r6, r7, r8, fp, ip, lr})
	UNWIND(.setfp fp, ip, #-4)
	sub	fp, ip, #4
	cmp	r1, #0
	beq	.L2282
	ldr	r3, [r0, #368]
	cmp	r3, #0
	cmpne	r2, #0
	ble	.L2282
	ldrb	r7, [r3]	@ zero_extendqisi2
	mov	ip, r7, asl #5
	sub	ip, ip, r7, asl #2
	add	ip, r3, ip
	ldr	ip, [ip, #8]
	cmp	ip, #0
	beq	.L2282
	ldr	ip, [r3, #68]
	cmp	r7, #1
	cmpls	ip, #2
	movhi	lr, #1
	movls	lr, #0
	bhi	.L2282
	cmp	ip, r7
	bls	.L2282
.L2277:
	mov	r5, r7, asl #5
	sub	r5, r5, r7, asl #2
	add	r3, r3, r5
	ldr	r4, [r3, #24]
	ldr	r8, [r3, #8]
	add	r4, r4, #7
	ldr	r6, [r3, #12]
	add	ip, r8, r4, lsr #3
	add	r6, r8, r6
	cmp	ip, r6
	bcs	.L2273
	ldrb	r3, [r8, r4, lsr #3]	@ zero_extendqisi2
	add	lr, lr, #1
	cmp	lr, r2
	add	r4, r1, #1
	add	ip, ip, #1
	strb	r3, [r1]
	b	.L2284
.L2275:
	cmp	ip, r6
	mov	r1, r4
	beq	.L2273
	ldrb	r3, [ip], #1	@ zero_extendqisi2
	add	lr, lr, #1
	cmp	lr, r2
	strb	r3, [r4], #1
.L2284:
	ldr	r3, [r0, #368]
	add	r3, r3, r5
	ldr	r1, [r3, #24]
	add	r1, r1, #8
	str	r1, [r3, #24]
	bcc	.L2275
	mov	r0, r2
	ldmfd	sp, {r4, r5, r6, r7, r8, fp, sp, pc}
.L2273:
	ldr	ip, [r0, #368]
	add	r7, r7, #1
	ldrb	r3, [ip]	@ zero_extendqisi2
	add	r3, r3, #1
	strb	r3, [ip]
	ldr	r3, [r0, #368]
	ldr	ip, [r3, #68]
	cmp	ip, r7
	bhi	.L2277
	mov	r0, lr
	ldmfd	sp, {r4, r5, r6, r7, r8, fp, sp, pc}
.L2282:
	mvn	r0, #0
	ldmfd	sp, {r4, r5, r6, r7, r8, fp, sp, pc}
	UNWIND(.fnend)
	.size	GetBytes, .-GetBytes
	.align	2
	.global	H264_DecFramePackingSEI
	.type	H264_DecFramePackingSEI, %function
H264_DecFramePackingSEI:
	UNWIND(.fnstart)
	@ args = 0, pretend = 0, frame = 0
	@ frame_needed = 1, uses_anonymous_args = 0
	UNWIND(.movsp ip)
	mov	ip, sp
	stmfd	sp!, {r4, r5, fp, ip, lr, pc}
	UNWIND(.pad #4)
	UNWIND(.save {r4, r5, fp, ip, lr})
	UNWIND(.setfp fp, ip, #-4)
	sub	fp, ip, #4
	ldr	r1, .L2292
	mov	r5, r0
	bl	ue_v
	add	r4, r5, #24576
	ldr	r2, .L2292+4
	mov	r1, #1
	str	r0, [r4, #1832]
	mov	r0, r5
	bl	u_v
	uxtb	r0, r0
	strb	r0, [r4, #1809]
	cmp	r0, #0
	beq	.L2291
.L2286:
	mov	r0, r5
	ldr	r2, .L2292+8
	mov	r1, #1
	bl	u_v
	mov	r3, #1
	strb	r3, [r4, #1808]
	strb	r0, [r4, #1810]
	mov	r0, #0
	ldmfd	sp, {r4, r5, fp, sp, pc}
.L2291:
	ldr	r2, .L2292+12
	mov	r1, #7
	mov	r0, r5
	bl	u_v
	ldr	r2, .L2292+16
	mov	r1, #1
	str	r0, [r4, #1824]
	mov	r0, r5
	bl	u_v
	ldr	r2, .L2292+20
	mov	r1, #6
	strb	r0, [r4, #1811]
	mov	r0, r5
	bl	u_v
	ldr	r2, .L2292+24
	mov	r1, #1
	str	r0, [r4, #1828]
	mov	r0, r5
	bl	u_v
	ldr	r2, .L2292+28
	mov	r1, #1
	strb	r0, [r4, #1812]
	mov	r0, r5
	bl	u_v
	ldr	r2, .L2292+32
	mov	r1, #1
	strb	r0, [r4, #1813]
	mov	r0, r5
	bl	u_v
	ldr	r2, .L2292+36
	mov	r1, #1
	strb	r0, [r4, #1814]
	mov	r0, r5
	bl	u_v
	ldr	r2, .L2292+40
	mov	r1, #1
	strb	r0, [r4, #1815]
	mov	r0, r5
	bl	u_v
	ldr	r2, .L2292+44
	mov	r1, #1
	strb	r0, [r4, #1816]
	mov	r0, r5
	bl	u_v
	ldrb	r3, [r4, #1811]	@ zero_extendqisi2
	cmp	r3, #0
	strb	r0, [r4, #1817]
	bne	.L2287
	ldr	r3, [r4, #1824]
	cmp	r3, #5
	beq	.L2287
	ldr	r2, .L2292+48
	mov	r1, #1
	mov	r0, r5
	bl	u_v
	ldr	r2, .L2292+52
	mov	r1, #1
	strb	r0, [r4, #1818]
	mov	r0, r5
	bl	u_v
	ldr	r2, .L2292+56
	mov	r1, #1
	strb	r0, [r4, #1819]
	mov	r0, r5
	bl	u_v
	ldr	r2, .L2292+60
	mov	r1, #1
	strb	r0, [r4, #1820]
	mov	r0, r5
	bl	u_v
	strb	r0, [r4, #1821]
.L2287:
	ldr	r2, .L2292+64
	mov	r1, #8
	mov	r0, r5
	bl	u_v
	ldr	r1, .L2292+68
	str	r0, [r4, #1836]
	mov	r0, r5
	bl	ue_v
	str	r0, [r4, #1840]
	b	.L2286
.L2293:
	.align	2
.L2292:
	.word	.LC294
	.word	.LC295
	.word	.LC311
	.word	.LC296
	.word	.LC297
	.word	.LC298
	.word	.LC299
	.word	.LC300
	.word	.LC301
	.word	.LC302
	.word	.LC303
	.word	.LC304
	.word	.LC305
	.word	.LC306
	.word	.LC307
	.word	.LC308
	.word	.LC309
	.word	.LC310
	UNWIND(.fnend)
	.size	H264_DecFramePackingSEI, .-H264_DecFramePackingSEI
	.align	2
	.global	H264_Sei_Get_Dpb_Output_Time
	.type	H264_Sei_Get_Dpb_Output_Time, %function
H264_Sei_Get_Dpb_Output_Time:
	UNWIND(.fnstart)
	@ args = 0, pretend = 0, frame = 0
	@ frame_needed = 1, uses_anonymous_args = 0
	UNWIND(.movsp ip)
	mov	ip, sp
	stmfd	sp!, {r4, r5, r6, r7, r8, fp, ip, lr, pc}
	UNWIND(.pad #4)
	UNWIND(.save {r4, r5, r6, r7, r8, fp, ip, lr})
	UNWIND(.setfp fp, ip, #-4)
	sub	fp, ip, #4
	add	r2, r0, #12288
	add	r3, r0, #20480
	mov	r4, #2208
	add	r0, r0, #24576
	ldr	lr, [r2, #1304]
	mov	r1, #4000
	ldr	r3, [r3, #216]
	ldr	r6, [r2, #1300]
	ldr	ip, [r0, #1848]
	mla	r4, r4, r3, lr
	ldr	r3, [r0, #1860]
	ldr	lr, [r0, #1852]
	add	r3, r3, #1
	ldr	r2, [r0, #1864]
	subs	r5, r3, #1
	add	r2, r2, #1
	ldr	r4, [r4, #28]
	movne	r5, #1
	cmp	ip, #0
	str	ip, [r0, #1868]
	str	r2, [r0, #1864]
	mla	r1, r1, r4, r6
	movne	r5, #0
	cmp	r5, #0
	str	r3, [r0, #1860]
	str	lr, [r0, #1876]
	ldrne	ip, [r0, #1872]
	ldr	r2, [r1, #3344]
	addne	ip, ip, #2
	str	r2, [r0, #1912]
	ldr	r2, [r1, #3348]
	strne	ip, [r0, #1868]
	cmp	r3, #1
	str	r2, [r0, #1916]
	beq	.L2302
	ldrb	r3, [r0, #1936]	@ zero_extendqisi2
	add	r4, r0, #1856
	cmp	r3, #1
	ldrd	r2, [r4, #48]
	beq	.L2303
	adds	r2, r2, ip
	adc	r3, r3, #0
	strd	r2, [r4, #40]
.L2297:
	adds	r2, r2, lr
	mov	lr, #0
	adc	r3, r3, #0
	strb	lr, [r0, #1936]
	ldr	r4, [r1, #3368]
	movs	r3, r3, lsr #1
	mov	r2, r2, rrx
	ldr	r8, [r1, #3344]
	add	lr, r0, #1856
	subs	r6, r2, r4
	sbc	r7, r3, #0
	umull	r4, r5, r6, r8
	mla	r5, r8, r7, r5
	strd	r4, [lr, #24]
	ldr	r1, [r1, #3368]
	subs	r2, r2, r1
	sbc	r3, r3, #0
	strd	r2, [lr, #32]
	str	ip, [r0, #1872]
	ldmfd	sp, {r4, r5, r6, r7, r8, fp, sp, pc}
.L2302:
	mov	r6, #0
	str	r6, [r0, #1896]
	mov	r2, r6
	mov	r3, r6
	str	r6, [r0, #1904]
	str	r6, [r0, #1900]
	str	r6, [r0, #1908]
	b	.L2297
.L2303:
	adds	r2, r2, ip
	adc	r3, r3, #0
	strd	r2, [r4, #40]
	strd	r2, [r4, #48]
	b	.L2297
	UNWIND(.fnend)
	.size	H264_Sei_Get_Dpb_Output_Time, .-H264_Sei_Get_Dpb_Output_Time
	.align	2
	.global	H264_Get_Last_IDR_Frame_Info
	.type	H264_Get_Last_IDR_Frame_Info, %function
H264_Get_Last_IDR_Frame_Info:
	UNWIND(.fnstart)
	@ args = 0, pretend = 0, frame = 0
	@ frame_needed = 1, uses_anonymous_args = 0
	UNWIND(.movsp ip)
	mov	ip, sp
	stmfd	sp!, {r4, r5, r6, r7, fp, ip, lr, pc}
	UNWIND(.pad #4)
	UNWIND(.save {r4, r5, r6, r7, fp, ip, lr})
	UNWIND(.setfp fp, ip, #-4)
	sub	fp, ip, #4
	cmp	r1, #5
	ldmnefd	sp, {r4, r5, r6, r7, fp, sp, pc}
	ldr	r1, [r0]
	mvn	r3, #0
	mvn	r2, #0
	ldrd	r4, [r1, #56]
	cmp	r5, r3
	cmpeq	r4, r2
	ldmeqfd	sp, {r4, r5, r6, r7, fp, sp, pc}
	movw	r2, #26464
	add	r3, r0, #26368
	ldrd	r6, [r0, r2]
	movw	r2, #26496
	strd	r4, [r0, r2]
	strd	r6, [r3, #136]
	ldmfd	sp, {r4, r5, r6, r7, fp, sp, pc}
	UNWIND(.fnend)
	.size	H264_Get_Last_IDR_Frame_Info, .-H264_Get_Last_IDR_Frame_Info
	.align	2
	.global	H264_Sei_Get_Frame_Pts
	.type	H264_Sei_Get_Frame_Pts, %function
H264_Sei_Get_Frame_Pts:
	UNWIND(.fnstart)
	@ args = 0, pretend = 0, frame = 16
	@ frame_needed = 1, uses_anonymous_args = 0
	UNWIND(.movsp ip)
	mov	ip, sp
	stmfd	sp!, {r4, r5, r6, r7, r8, r9, r10, fp, ip, lr, pc}
	UNWIND(.pad #4)
	UNWIND(.save {r4, r5, r6, r7, r8, r9, r10, fp, ip, lr})
	UNWIND(.setfp fp, ip, #-4)
	sub	fp, ip, #4
	UNWIND(.pad #20)
	sub	sp, sp, #20
	add	r3, r0, #26368
	add	r2, r0, #24576
	add	r3, r3, #144
	mov	r4, r0
	movw	r0, #26496
	ldr	r5, [r2, #1912]
	movw	r1, #26464
	ldr	r10, [r2, #1916]
	ldrd	r2, [r3, #-8]
	cmp	r5, #0
	ldrd	r6, [r4, r1]
	strd	r2, [fp, #-60]
	ldrd	r2, [r4, r0]
	strd	r2, [fp, #-52]
	beq	.L2309
	mov	r9, r5
	mov	r0, r10
	b	.L2308
.L2310:
	mov	r9, r1
.L2308:
	mov	r1, r9
	bl	__aeabi_uidivmod
	mov	r0, r9
	cmp	r1, #0
	bne	.L2310
.L2307:
	ldrd	r2, [fp, #-60]
	mov	r1, r9
	mov	r0, r5
	mov	r8, #1000
	subs	r2, r6, r2
	add	r4, r4, #60928
	mul	r6, r8, r2
	bl	__aeabi_uidiv
	mov	r1, r9
	mul	r6, r0, r6
	mov	r0, r10
	bl	__aeabi_uidiv
	mov	r1, r0
	mov	r0, r6
	bl	__aeabi_uidiv
	ldrd	r2, [fp, #-52]
	adds	r2, r2, r0
	adc	r3, r3, #0
	mov	r0, r2
	mov	r1, r3
	strd	r0, [r4, #24]
	sub	sp, fp, #40
	ldmfd	sp, {r4, r5, r6, r7, r8, r9, r10, fp, sp, pc}
.L2309:
	mov	r9, r10
	b	.L2307
	UNWIND(.fnend)
	.size	H264_Sei_Get_Frame_Pts, .-H264_Sei_Get_Frame_Pts
	.align	2
	.global	H264_DecPicTimingSEI
	.type	H264_DecPicTimingSEI, %function
H264_DecPicTimingSEI:
	UNWIND(.fnstart)
	@ args = 0, pretend = 0, frame = 0
	@ frame_needed = 1, uses_anonymous_args = 0
	UNWIND(.movsp ip)
	mov	ip, sp
	stmfd	sp!, {r4, r5, r6, r7, fp, ip, lr, pc}
	UNWIND(.pad #4)
	UNWIND(.save {r4, r5, r6, r7, fp, ip, lr})
	UNWIND(.setfp fp, ip, #-4)
	sub	fp, ip, #4
	add	r2, r0, #12288
	mov	r4, #4000
	mov	r5, r0
	ldr	r1, [r2, #1344]
	ldr	r3, [r2, #1300]
	mla	r4, r4, r1, r3
	ldrb	r1, [r4, #23]	@ zero_extendqisi2
	cmp	r1, #0
	bne	.L2312
	ldr	ip, [r2, #1288]
	cmp	ip, #0
	ble	.L2313
	ldrb	r2, [r3, #23]	@ zero_extendqisi2
	cmp	r2, #0
	addeq	r3, r3, #4000
	beq	.L2316
	b	.L2334
.L2317:
	ldrb	r1, [r3, #-3977]	@ zero_extendqisi2
	cmp	r1, #0
	bne	.L2314
.L2316:
	add	r2, r2, #1
	mov	r4, r3
	cmp	r2, ip
	add	r3, r3, #4000
	bne	.L2317
.L2313:
	ldr	r1, .L2337
	mov	r0, #1
	bl	dprint_vfmw
	mvn	r3, #0
.L2318:
	mov	r0, r3
	ldmfd	sp, {r4, r5, r6, r7, fp, sp, pc}
.L2334:
	mov	r4, r3
.L2314:
	cmp	r4, #0
	beq	.L2313
.L2312:
	ldrb	r3, [r4, #22]	@ zero_extendqisi2
	cmp	r3, #0
	beq	.L2320
	ldrb	r3, [r4, #3299]	@ zero_extendqisi2
	cmp	r3, #0
	beq	.L2335
	ldr	r1, [r4, #3676]
	ldr	r7, [r4, #3680]
	add	r1, r1, #1
	add	r7, r7, #1
.L2324:
	ldr	r2, .L2337+4
	mov	r0, r5
	bl	u_v
	add	r6, r5, #24576
	ldr	r2, .L2337+8
	mov	r1, r7
	str	r0, [r6, #1848]
	mov	r0, r5
	bl	u_v
	add	r3, r5, #61440
	ldr	r2, .L2337+12
	str	r0, [r6, #1852]
	ldr	r3, [r3, #2352]
	ldr	r3, [r2, r3, asl #2]
	ldrsb	r2, [r3, #44]
	cmp	r2, #1
	beq	.L2336
.L2320:
	ldrb	r0, [r4, #3303]	@ zero_extendqisi2
	cmp	r0, #0
	moveq	r3, r0
	beq	.L2318
	ldr	r2, .L2337+16
	mov	r1, #4
	mov	r0, r5
	add	r5, r5, #24576
	bl	u_v
	mov	r3, #0
	strb	r0, [r5, #1844]
	mov	r0, r3
	ldmfd	sp, {r4, r5, r6, r7, fp, sp, pc}
.L2335:
	ldrb	r3, [r4, #3302]	@ zero_extendqisi2
	cmp	r3, #0
	beq	.L2320
	ldr	r1, [r4, #3988]
	ldr	r7, [r4, #3992]
	add	r1, r1, #1
	add	r7, r7, #1
	b	.L2324
.L2336:
	ldr	r2, [r3, #156]
	cmp	r2, #0
	bne	.L2320
	ldr	r3, [r3, #160]
	cmp	r3, #1
	bne	.L2320
	mov	r0, r5
	bl	H264_Sei_Get_Dpb_Output_Time
	b	.L2320
.L2338:
	.align	2
.L2337:
	.word	.LC312
	.word	.LC313
	.word	.LC314
	.word	s_pstVfmwChan
	.word	.LC315
	UNWIND(.fnend)
	.size	H264_DecPicTimingSEI, .-H264_DecPicTimingSEI
	.align	2
	.global	H264_DecSEI
	.type	H264_DecSEI, %function
H264_DecSEI:
	UNWIND(.fnstart)
	@ args = 0, pretend = 0, frame = 32
	@ frame_needed = 1, uses_anonymous_args = 0
	UNWIND(.movsp ip)
	mov	ip, sp
	stmfd	sp!, {r4, r5, r6, r7, r8, r9, r10, fp, ip, lr, pc}
	UNWIND(.pad #4)
	UNWIND(.save {r4, r5, r6, r7, r8, r9, r10, fp, ip, lr})
	UNWIND(.setfp fp, ip, #-4)
	sub	fp, ip, #4
	UNWIND(.pad #36)
	sub	sp, sp, #36
	add	r10, r0, #61440
	ldr	r3, .L2613
	mov	r1, #0
	ldr	r2, [r10, #2352]
	mov	r7, r0
	strb	r1, [fp, #-45]
	ldr	r3, [r3, r2, asl #2]
	ldrsb	r2, [r3, #44]
	cmp	r2, #1
	beq	.L2578
.L2340:
	ldr	r3, [r7, #368]
	mov	r2, #32
	str	r2, [r3, #24]
.L2341:
	add	r6, r7, #13504
	add	r4, r7, #12288
	add	r6, r6, #24
	mov	r8, #0
	b	.L2344
.L2580:
	bl	BsSkip
	cmp	r5, #0
	ble	.L2343
	ldrb	r3, [fp, #-45]	@ zero_extendqisi2
	cmp	r3, #255
	bne	.L2579
.L2344:
	mov	r2, #1
	sub	r1, fp, #45
	mov	r0, r7
	bl	GetBytes
	ldr	r3, [r4, #1264]
	ldr	ip, [r4, #1256]
	mov	r1, #8
	add	r3, r3, r1
	ldrb	r2, [fp, #-45]	@ zero_extendqisi2
	cmp	r3, ip, asl #3
	add	r8, r8, r2
	mov	r5, r0
	mov	r0, r6
	bls	.L2580
.L2343:
	ldr	r1, .L2613+4
	mov	r0, #1
	bl	dprint_vfmw
	mvn	r0, #0
	b	.L2346
.L2579:
	mov	r3, #0
	str	r3, [fp, #-60]
.L2524:
	mov	r5, #0
	b	.L2350
.L2582:
	bl	BsSkip
	cmp	r9, #0
	ble	.L2348
	ldrb	r3, [fp, #-45]	@ zero_extendqisi2
	cmp	r3, #255
	bne	.L2581
.L2350:
	mov	r2, #1
	sub	r1, fp, #45
	mov	r0, r7
	bl	GetBytes
	ldr	r3, [r4, #1264]
	ldr	ip, [r4, #1256]
	mov	r1, #8
	add	r3, r3, r1
	ldrb	r2, [fp, #-45]	@ zero_extendqisi2
	cmp	r3, ip, asl #3
	add	r5, r5, r2
	mov	r9, r0
	mov	r0, r6
	bls	.L2582
.L2348:
	ldr	r1, .L2613+8
	mov	r0, #1
	bl	dprint_vfmw
	mvn	r0, #0
.L2346:
	sub	sp, fp, #40
	ldmfd	sp, {r4, r5, r6, r7, r8, r9, r10, fp, sp, pc}
.L2581:
	cmp	r5, #409600
	bgt	.L2348
	ldr	r3, [r7, #368]
	ldr	r2, [r3, #68]
	cmp	r2, #2
	ldreq	r2, [r3, #52]
	ldreq	r3, [r3, #24]
	ldrne	r2, [r3, #24]
	addeq	r2, r2, r3
	moveq	r2, r2, lsr #3
	cmp	r8, #45
	ldrls	pc, [pc, r8, asl #2]
	b	.L2353
.L2355:
	.word	.L2354
	.word	.L2356
	.word	.L2357
	.word	.L2358
	.word	.L2359
	.word	.L2360
	.word	.L2361
	.word	.L2362
	.word	.L2363
	.word	.L2364
	.word	.L2365
	.word	.L2366
	.word	.L2367
	.word	.L2368
	.word	.L2369
	.word	.L2370
	.word	.L2371
	.word	.L2372
	.word	.L2373
	.word	.L2374
	.word	.L2375
	.word	.L2376
	.word	.L2353
	.word	.L2353
	.word	.L2353
	.word	.L2353
	.word	.L2353
	.word	.L2353
	.word	.L2353
	.word	.L2353
	.word	.L2353
	.word	.L2353
	.word	.L2353
	.word	.L2353
	.word	.L2353
	.word	.L2353
	.word	.L2353
	.word	.L2353
	.word	.L2353
	.word	.L2353
	.word	.L2353
	.word	.L2353
	.word	.L2353
	.word	.L2353
	.word	.L2353
	.word	.L2377
.L2377:
	mov	r1, r5
	mov	r0, r7
	ldr	r8, [r4, #1264]
	bl	H264_DecFramePackingSEI
	ldr	r0, [r4, #1264]
	mov	r9, r5, asl #3
	rsb	r3, r8, r0
	cmp	r3, r9
	bge	.L2507
	rsb	r3, r3, r9
	str	r3, [fp, #-56]
	cmp	r3, #0
	add	r8, r3, #7
	movge	r8, r3
	ldr	r3, [r4, #1256]
	mov	r8, r8, asr #3
	cmp	r8, #0
	movle	r3, r3, asl #3
	ble	.L2509
	add	r2, r0, #8
	mov	r3, r3, asl #3
	cmp	r2, r3
	bhi	.L2509
	mov	r9, #0
	b	.L2510
.L2511:
	add	r2, r0, #8
	cmp	r2, r3
	bhi	.L2509
.L2510:
	mov	r1, #8
	mov	r0, r6
	bl	BsSkip
	add	r9, r9, #1
	ldr	r3, [r4, #1256]
	cmp	r9, r8
	ldr	r0, [r4, #1264]
	mov	r3, r3, asl #3
	bne	.L2511
.L2509:
	ldr	r2, [fp, #-56]
	mov	r1, r2, asr #31
	mov	r1, r1, lsr #29
	add	r2, r2, r1
	and	r2, r2, #7
	rsb	r1, r1, r2
	add	r2, r0, r1
	cmp	r3, r2
	bcs	.L2583
.L2507:
	mov	r1, r5
	mov	r0, r7
	bl	PassBytes
	cmp	r0, #0
	blt	.L2584
.L2573:
	ldr	r3, [r10, #1056]
.L2380:
	cmp	r3, #3
	bhi	.L2585
.L2519:
	mov	r8, #0
	b	.L2523
.L2521:
	bl	BsSkip
	cmp	r5, #0
	ble	.L2522
	ldrb	r3, [fp, #-45]	@ zero_extendqisi2
	cmp	r3, #255
	bne	.L2586
.L2523:
	mov	r2, #1
	sub	r1, fp, #45
	mov	r0, r7
	bl	GetBytes
	ldr	r3, [r4, #1264]
	ldr	ip, [r4, #1256]
	mov	r1, #8
	add	r3, r3, r1
	ldrb	r2, [fp, #-45]	@ zero_extendqisi2
	cmp	r3, ip, asl #3
	add	r8, r8, r2
	mov	r5, r0
	mov	r0, r6
	bls	.L2521
.L2522:
	mov	r0, #0
.L2611:
	sub	sp, fp, #40
	ldmfd	sp, {r4, r5, r6, r7, r8, r9, r10, fp, sp, pc}
.L2376:
	mov	r3, r5
	ldr	r1, .L2613+12
	mov	r0, #20
	bl	dprint_vfmw
	mov	r1, r5
	mov	r0, r7
	bl	PassBytes
	cmp	r0, #0
	blt	.L2587
.L2501:
	cmp	r5, #0
	ble	.L2573
	ldr	r3, [r4, #1264]
	ldr	r2, [r4, #1256]
	add	r3, r3, #8
	cmp	r3, r2, asl #3
	bhi	.L2573
	mov	r8, #0
	b	.L2504
.L2505:
	ldr	r3, [r4, #1264]
	ldr	r2, [r4, #1256]
	add	r3, r3, #8
	cmp	r3, r2, asl #3
	bhi	.L2573
.L2504:
	add	r8, r8, #1
	mov	r1, #8
	mov	r0, r6
	bl	BsSkip
	cmp	r5, r8
	bne	.L2505
	b	.L2573
.L2375:
	mov	r3, r5
	ldr	r1, .L2613+16
	mov	r0, #20
	bl	dprint_vfmw
	mov	r1, r5
	mov	r0, r7
	bl	PassBytes
	cmp	r0, #0
	blt	.L2588
.L2496:
	cmp	r5, #0
	ble	.L2573
	ldr	r3, [r4, #1264]
	ldr	r2, [r4, #1256]
	add	r3, r3, #8
	cmp	r3, r2, asl #3
	bhi	.L2573
	mov	r8, #0
	b	.L2499
.L2500:
	ldr	r3, [r4, #1264]
	ldr	r2, [r4, #1256]
	add	r3, r3, #8
	cmp	r3, r2, asl #3
	bhi	.L2573
.L2499:
	add	r8, r8, #1
	mov	r1, #8
	mov	r0, r6
	bl	BsSkip
	cmp	r5, r8
	bne	.L2500
	b	.L2573
.L2372:
	mov	r3, r5
	ldr	r1, .L2613+20
	mov	r0, #20
	bl	dprint_vfmw
	mov	r1, r5
	mov	r0, r7
	bl	PassBytes
	cmp	r0, #0
	blt	.L2589
.L2481:
	cmp	r5, #0
	ble	.L2573
	ldr	r3, [r4, #1264]
	ldr	r2, [r4, #1256]
	add	r3, r3, #8
	cmp	r3, r2, asl #3
	bhi	.L2573
	mov	r8, #0
	b	.L2484
.L2485:
	ldr	r3, [r4, #1264]
	ldr	r2, [r4, #1256]
	add	r3, r3, #8
	cmp	r3, r2, asl #3
	bhi	.L2573
.L2484:
	add	r8, r8, #1
	mov	r1, #8
	mov	r0, r6
	bl	BsSkip
	cmp	r5, r8
	bne	.L2485
	b	.L2573
.L2371:
	mov	r3, r5
	ldr	r1, .L2613+24
	mov	r0, #20
	bl	dprint_vfmw
	mov	r1, r5
	mov	r0, r7
	bl	PassBytes
	cmp	r0, #0
	blt	.L2590
.L2476:
	cmp	r5, #0
	ble	.L2573
	ldr	r3, [r4, #1264]
	ldr	r2, [r4, #1256]
	add	r3, r3, #8
	cmp	r3, r2, asl #3
	bhi	.L2573
	mov	r8, #0
	b	.L2479
.L2480:
	ldr	r3, [r4, #1264]
	ldr	r2, [r4, #1256]
	add	r3, r3, #8
	cmp	r3, r2, asl #3
	bhi	.L2573
.L2479:
	add	r8, r8, #1
	mov	r1, #8
	mov	r0, r6
	bl	BsSkip
	cmp	r5, r8
	bne	.L2480
	b	.L2573
.L2370:
	mov	r3, r5
	ldr	r1, .L2613+28
	mov	r0, #20
	bl	dprint_vfmw
	mov	r1, r5
	mov	r0, r7
	bl	PassBytes
	cmp	r0, #0
	blt	.L2591
.L2471:
	cmp	r5, #0
	ble	.L2573
	ldr	r3, [r4, #1264]
	ldr	r2, [r4, #1256]
	add	r3, r3, #8
	cmp	r3, r2, asl #3
	bhi	.L2573
	mov	r8, #0
	b	.L2474
.L2475:
	ldr	r3, [r4, #1264]
	ldr	r2, [r4, #1256]
	add	r3, r3, #8
	cmp	r3, r2, asl #3
	bhi	.L2573
.L2474:
	add	r8, r8, #1
	mov	r1, #8
	mov	r0, r6
	bl	BsSkip
	cmp	r5, r8
	bne	.L2475
	b	.L2573
.L2369:
	mov	r3, r5
	ldr	r1, .L2613+32
	mov	r0, #20
	bl	dprint_vfmw
	mov	r1, r5
	mov	r0, r7
	bl	PassBytes
	cmp	r0, #0
	blt	.L2592
.L2466:
	cmp	r5, #0
	ble	.L2573
	ldr	r3, [r4, #1264]
	ldr	r2, [r4, #1256]
	add	r3, r3, #8
	cmp	r3, r2, asl #3
	bhi	.L2573
	mov	r8, #0
	b	.L2469
.L2470:
	ldr	r3, [r4, #1264]
	ldr	r2, [r4, #1256]
	add	r3, r3, #8
	cmp	r3, r2, asl #3
	bhi	.L2573
.L2469:
	add	r8, r8, #1
	mov	r1, #8
	mov	r0, r6
	bl	BsSkip
	cmp	r5, r8
	bne	.L2470
	b	.L2573
.L2374:
	mov	r3, r5
	ldr	r1, .L2613+36
	mov	r0, #20
	bl	dprint_vfmw
	mov	r1, r5
	mov	r0, r7
	bl	PassBytes
	cmp	r0, #0
	blt	.L2593
.L2491:
	cmp	r5, #0
	ble	.L2573
	ldr	r3, [r4, #1264]
	ldr	r2, [r4, #1256]
	add	r3, r3, #8
	cmp	r3, r2, asl #3
	bhi	.L2573
	mov	r8, #0
	b	.L2494
.L2495:
	ldr	r3, [r4, #1264]
	ldr	r2, [r4, #1256]
	add	r3, r3, #8
	cmp	r3, r2, asl #3
	bhi	.L2573
.L2494:
	add	r8, r8, #1
	mov	r1, #8
	mov	r0, r6
	bl	BsSkip
	cmp	r5, r8
	bne	.L2495
	b	.L2573
.L2373:
	mov	r3, r5
	ldr	r1, .L2613+40
	mov	r0, #20
	bl	dprint_vfmw
	mov	r1, r5
	mov	r0, r7
	bl	PassBytes
	cmp	r0, #0
	blt	.L2594
.L2486:
	cmp	r5, #0
	ble	.L2573
	ldr	r3, [r4, #1264]
	ldr	r2, [r4, #1256]
	add	r3, r3, #8
	cmp	r3, r2, asl #3
	bhi	.L2573
	mov	r8, #0
	b	.L2489
.L2490:
	ldr	r3, [r4, #1264]
	ldr	r2, [r4, #1256]
	add	r3, r3, #8
	cmp	r3, r2, asl #3
	bhi	.L2573
.L2489:
	add	r8, r8, #1
	mov	r1, #8
	mov	r0, r6
	bl	BsSkip
	cmp	r5, r8
	bne	.L2490
	b	.L2573
.L2368:
	mov	r3, r5
	ldr	r1, .L2613+44
	mov	r0, #20
	bl	dprint_vfmw
	mov	r1, r5
	mov	r0, r7
	bl	PassBytes
	cmp	r0, #0
	blt	.L2595
.L2461:
	cmp	r5, #0
	ble	.L2573
	ldr	r3, [r4, #1264]
	ldr	r2, [r4, #1256]
	add	r3, r3, #8
	cmp	r3, r2, asl #3
	bhi	.L2573
	mov	r8, #0
	b	.L2464
.L2465:
	ldr	r3, [r4, #1264]
	ldr	r2, [r4, #1256]
	add	r3, r3, #8
	cmp	r3, r2, asl #3
	bhi	.L2573
.L2464:
	add	r8, r8, #1
	mov	r1, #8
	mov	r0, r6
	bl	BsSkip
	cmp	r5, r8
	bne	.L2465
	b	.L2573
.L2367:
	mov	r3, r5
	ldr	r1, .L2613+48
	mov	r0, #20
	bl	dprint_vfmw
	mov	r1, r5
	mov	r0, r7
	bl	PassBytes
	cmp	r0, #0
	blt	.L2596
.L2456:
	cmp	r5, #0
	ble	.L2573
	ldr	r3, [r4, #1264]
	ldr	r2, [r4, #1256]
	add	r3, r3, #8
	cmp	r3, r2, asl #3
	bhi	.L2573
	mov	r8, #0
	b	.L2459
.L2460:
	ldr	r3, [r4, #1264]
	ldr	r2, [r4, #1256]
	add	r3, r3, #8
	cmp	r3, r2, asl #3
	bhi	.L2573
.L2459:
	add	r8, r8, #1
	mov	r1, #8
	mov	r0, r6
	bl	BsSkip
	cmp	r5, r8
	bne	.L2460
	b	.L2573
.L2366:
	mov	r3, r5
	ldr	r1, .L2613+52
	mov	r0, #20
	bl	dprint_vfmw
	mov	r1, r5
	mov	r0, r7
	bl	PassBytes
	cmp	r0, #0
	blt	.L2597
.L2451:
	cmp	r5, #0
	ble	.L2573
	ldr	r3, [r4, #1264]
	ldr	r2, [r4, #1256]
	add	r3, r3, #8
	cmp	r3, r2, asl #3
	bhi	.L2573
	mov	r8, #0
	b	.L2454
.L2455:
	ldr	r3, [r4, #1264]
	ldr	r2, [r4, #1256]
	add	r3, r3, #8
	cmp	r3, r2, asl #3
	bhi	.L2573
.L2454:
	add	r8, r8, #1
	mov	r1, #8
	mov	r0, r6
	bl	BsSkip
	cmp	r5, r8
	bne	.L2455
	b	.L2573
.L2365:
	mov	r3, r5
	ldr	r1, .L2613+56
	mov	r0, #20
	bl	dprint_vfmw
	mov	r1, r5
	mov	r0, r7
	bl	PassBytes
	cmp	r0, #0
	blt	.L2598
.L2446:
	cmp	r5, #0
	ble	.L2573
	ldr	r3, [r4, #1264]
	ldr	r2, [r4, #1256]
	add	r3, r3, #8
	cmp	r3, r2, asl #3
	bhi	.L2573
	mov	r8, #0
	b	.L2449
.L2450:
	ldr	r3, [r4, #1264]
	ldr	r2, [r4, #1256]
	add	r3, r3, #8
	cmp	r3, r2, asl #3
	bhi	.L2573
.L2449:
	add	r8, r8, #1
	mov	r1, #8
	mov	r0, r6
	bl	BsSkip
	cmp	r5, r8
	bne	.L2450
	b	.L2573
.L2364:
	mov	r3, r5
	ldr	r1, .L2613+60
	mov	r0, #20
	bl	dprint_vfmw
	mov	r1, r5
	mov	r0, r7
	bl	PassBytes
	cmp	r0, #0
	blt	.L2599
.L2441:
	cmp	r5, #0
	ble	.L2573
	ldr	r3, [r4, #1264]
	ldr	r2, [r4, #1256]
	add	r3, r3, #8
	cmp	r3, r2, asl #3
	bhi	.L2573
	mov	r8, #0
	b	.L2444
.L2445:
	ldr	r3, [r4, #1264]
	ldr	r2, [r4, #1256]
	add	r3, r3, #8
	cmp	r3, r2, asl #3
	bhi	.L2573
.L2444:
	add	r8, r8, #1
	mov	r1, #8
	mov	r0, r6
	bl	BsSkip
	cmp	r5, r8
	bne	.L2445
	b	.L2573
.L2363:
	mov	r3, r5
	ldr	r1, .L2613+64
	mov	r0, #20
	bl	dprint_vfmw
	mov	r1, r5
	mov	r0, r7
	bl	PassBytes
	cmp	r0, #0
	blt	.L2600
.L2436:
	cmp	r5, #0
	ble	.L2573
	ldr	r3, [r4, #1264]
	ldr	r2, [r4, #1256]
	add	r3, r3, #8
	cmp	r3, r2, asl #3
	bhi	.L2573
	mov	r8, #0
	b	.L2439
.L2440:
	ldr	r3, [r4, #1264]
	ldr	r2, [r4, #1256]
	add	r3, r3, #8
	cmp	r3, r2, asl #3
	bhi	.L2573
.L2439:
	add	r8, r8, #1
	mov	r1, #8
	mov	r0, r6
	bl	BsSkip
	cmp	r5, r8
	bne	.L2440
	b	.L2573
.L2362:
	mov	r3, r5
	ldr	r1, .L2613+68
	mov	r0, #20
	bl	dprint_vfmw
	mov	r1, r5
	mov	r0, r7
	bl	PassBytes
	cmp	r0, #0
	blt	.L2601
.L2431:
	cmp	r5, #0
	ble	.L2573
	ldr	r3, [r4, #1264]
	ldr	r2, [r4, #1256]
	add	r3, r3, #8
	cmp	r3, r2, asl #3
	bhi	.L2573
	mov	r8, #0
	b	.L2434
.L2435:
	ldr	r3, [r4, #1264]
	ldr	r2, [r4, #1256]
	add	r3, r3, #8
	cmp	r3, r2, asl #3
	bhi	.L2573
.L2434:
	add	r8, r8, #1
	mov	r1, #8
	mov	r0, r6
	bl	BsSkip
	cmp	r5, r8
	bne	.L2435
	b	.L2573
.L2361:
	mov	r3, r5
	ldr	r1, .L2613+72
	mov	r0, #20
	bl	dprint_vfmw
	cmp	r5, #0
	ble	.L2428
	ldr	r3, [r4, #1264]
	ldr	r2, [r4, #1256]
	add	r3, r3, #8
	cmp	r3, r2, asl #3
	bhi	.L2428
	mov	r8, #0
	b	.L2429
.L2430:
	ldr	r3, [r4, #1264]
	ldr	r2, [r4, #1256]
	add	r3, r3, #8
	cmp	r3, r2, asl #3
	bhi	.L2428
.L2429:
	add	r8, r8, #1
	mov	r1, #8
	mov	r0, r6
	bl	BsSkip
	cmp	r5, r8
	bne	.L2430
.L2428:
	mov	r1, r5
	mov	r0, r7
	bl	PassBytes
	cmp	r0, #0
	bge	.L2573
	movw	r3, #11196
	b	.L2574
.L2360:
	ldr	r3, [fp, #-60]
	cmp	r3, #0
	bne	.L2359
	mov	r3, r5
	ldr	r1, .L2613+76
	mov	r0, #20
	bl	dprint_vfmw
	ldr	r8, [r10, #1056]
	cmp	r8, #3
	bhi	.L2602
.L2404:
	ldr	r0, [r10, #2352]
	bl	GetUsd
	add	r3, r8, #15616
	add	r3, r3, #8
	add	r3, r7, r3, lsl #2
	str	r0, [r3, #4]
	ldr	r3, [r10, #1056]
	add	r3, r3, #15616
	add	r3, r3, #8
	add	r3, r7, r3, lsl #2
	ldr	ip, [r3, #4]
	cmp	ip, #0
	beq	.L2527
	ldr	r2, [r7, #368]
	cmp	r5, #1024
	movlt	r9, r5
	movge	r9, #1024
	ldrb	r0, [r2]	@ zero_extendqisi2
	ldr	lr, [r2, #68]
	cmp	r0, lr
	bcs	.L2528
	sxth	r3, r0
	mov	r8, #0
	mov	r1, r3, asl #5
	sub	r1, r1, r3, asl #2
	add	r1, r2, r1
.L2406:
	ldr	r3, [r1, #24]
	add	r0, r0, #1
	ldr	r2, [r1, #12]
	cmp	r0, lr
	add	r3, r3, #7
	add	r1, r1, #28
	sub	r3, r2, r3, lsr #3
	add	r8, r8, r3
	bne	.L2406
	mov	r3, r8
.L2405:
	cmp	r9, r3
