#include "hi_asm_define.h"
	.arch armv7-a
	.fpu softvfp
	.eabi_attribute 20, 1
	.eabi_attribute 21, 1
	.eabi_attribute 23, 3
	.eabi_attribute 24, 1
	.eabi_attribute 25, 1
	.eabi_attribute 26, 2
	.eabi_attribute 30, 2
	.eabi_attribute 34, 0
	.eabi_attribute 18, 4
	.file	"hevc.c"
	.text
	.align	2
	.type	HEVC_ComparePicByPocAsc, %function
HEVC_ComparePicByPocAsc:
	UNWIND(.fnstart)
	@ args = 0, pretend = 0, frame = 0
	@ frame_needed = 1, uses_anonymous_args = 0
	UNWIND(.movsp ip)
	mov	ip, sp
	stmfd	sp!, {fp, ip, lr, pc}
	UNWIND(.pad #4)
	UNWIND(.save {fp, ip, lr})
	UNWIND(.setfp fp, ip, #-4)
	sub	fp, ip, #4
	ldr	r2, [r0]
	ldr	r3, [r1]
	ldr	r2, [r2, #8]
	ldr	r3, [r3, #8]
	cmp	r2, r3
	blt	.L3
	movgt	r0, #1
	movle	r0, #0
	ldmfd	sp, {fp, sp, pc}
.L3:
	mvn	r0, #0
	ldmfd	sp, {fp, sp, pc}
	UNWIND(.fnend)
	.size	HEVC_ComparePicByPocAsc, .-HEVC_ComparePicByPocAsc
	.align	2
	.type	HEVC_UpdateInterLayerReflist, %function
HEVC_UpdateInterLayerReflist:
	UNWIND(.fnstart)
	@ args = 0, pretend = 0, frame = 32
	@ frame_needed = 1, uses_anonymous_args = 0
	UNWIND(.movsp ip)
	mov	ip, sp
	stmfd	sp!, {r4, r5, r6, r7, r8, r9, r10, fp, ip, lr, pc}
	UNWIND(.pad #4)
	UNWIND(.save {r4, r5, r6, r7, r8, r9, r10, fp, ip, lr})
	UNWIND(.setfp fp, ip, #-4)
	sub	fp, ip, #4
	UNWIND(.pad #52)
	sub	sp, sp, #52
	add	r9, r0, #4096
	mov	r5, r0
	ldr	r3, [r9, #728]
	cmp	r3, #0
	streq	r3, [r0, #3052]
	streq	r3, [r0, #3056]
	beq	.L5
	ldr	r2, [r9, #2056]
	ldr	r1, [r0, #2824]
	cmp	r2, #0
	ble	.L34
	add	r2, r3, #1024
	add	r0, r1, #12288
	add	r2, r2, #8
	add	ip, r5, #6144
	mov	r3, r3, asl #1
	str	r3, [fp, #-52]
	add	r3, r1, #16384
	str	r3, [fp, #-48]
	add	r3, r0, r2, lsl #2
	str	r3, [fp, #-56]
	add	r3, ip, #8
	mov	r6, #0
	mov	r8, r6
	str	r6, [fp, #-60]
	str	r6, [fp, #-64]
	mov	r7, r0
	mov	r6, r3
.L26:
	ldr	r1, [fp, #-52]
	ldr	r3, [r6, #4]!
	ldr	r2, [fp, #-56]
	add	r3, r1, r3
	ldr	r1, [fp, #-48]
	add	r3, r3, #1040
	add	r3, r3, #4
	ldr	r2, [r2, #132]
	ldr	r4, [r1, #164]
	add	r3, r7, r3, lsl #2
	cmp	r2, r4
	ldr	r10, [r3, #132]
	add	r3, r10, #1024
	add	r3, r3, #8
	add	r3, r7, r3, lsl #2
	ble	.L56
	ldr	r4, [r3, #132]
	cmp	r2, r4
	movlt	r4, #0
	movge	r4, #1
.L10:
	ldr	ip, [r5, #3028]
	cmp	ip, #0
	beq	.L12
	add	r1, r5, #3184
	ldr	lr, [r9, #708]
	add	r1, r1, #8
	mov	r3, #0
	b	.L25
.L13:
	add	r3, r3, #1
	cmp	r3, ip
	beq	.L12
.L25:
	ldr	r2, [r1, #4]!
	ldr	r0, [r2, #8]
	cmp	r0, lr
	bne	.L13
	ldr	r0, [r2, #32]
	cmp	r0, r10
	bne	.L13
	add	r10, r5, r3, lsl #2
	mov	r3, #1
	strb	r3, [r2, #1]
	ldr	r2, [r10, #3196]
	ldrb	r3, [r2, #1]	@ zero_extendqisi2
	cmp	r3, #0
	bne	.L57
.L14:
	mov	r3, #0
	str	r3, [r2, #64]
	ldr	r2, [r10, #3196]
	mov	r1, #1
	str	r1, [r2, #60]
	ldr	r2, [r10, #3196]
	str	r1, [r2, #72]
	ldr	ip, [r10, #3196]
	cmp	ip, r3
	beq	.L58
	ldr	r2, [r9, #728]
	mov	r1, #280
	mul	r1, r1, r2
	add	lr, r5, r1
	add	r0, lr, #13120
	add	r0, r0, #24
	ldr	r0, [r0, #4]
	cmp	r0, #0
	beq	.L16
	add	lr, lr, #13120
	add	lr, lr, #32
	ldr	lr, [lr, #4]
	cmp	lr, #0
	addne	r1, r1, #13120
	addne	r1, r1, #36
	addne	r1, r5, r1
	bne	.L19
	b	.L59
.L23:
	ldr	lr, [r1, #4]!
	cmp	lr, #0
	beq	.L17
.L19:
	add	r3, r3, #1
	cmp	r3, r0
	bne	.L23
.L16:
	cmp	r4, #0
	beq	.L24
	ldr	r2, [fp, #-60]
	add	r3, r5, r2, lsl #2
	str	ip, [r3, #3060]
	add	r3, r2, #1
	str	r3, [fp, #-60]
.L12:
	ldr	r3, [r9, #2056]
	add	r8, r8, #1
	cmp	r3, r8
	bgt	.L26
	ldr	r7, [fp, #-60]
	ldr	r6, [fp, #-64]
	mov	r1, r7
	mov	r3, r6
.L8:
	ldr	r2, [r5, #3024]
	str	r3, [r5, #3056]
	cmp	r2, r7
	str	r1, [r5, #3052]
	addgt	r3, r7, #764
	movgt	r1, #0
	addgt	r3, r5, r3, lsl #2
	ble	.L31
.L30:
	add	r7, r7, #1
	str	r1, [r3, #4]!
	cmp	r7, r2
	bne	.L30
.L31:
	cmp	r2, r6
	ble	.L5
	add	r1, r6, #780
	mov	r3, #0
	add	r1, r1, #1
	add	r5, r5, r1, lsl #2
.L32:
	add	r6, r6, #1
	str	r3, [r5, #4]!
	cmp	r6, r2
	bne	.L32
.L5:
	sub	sp, fp, #40
	ldmfd	sp, {r4, r5, r6, r7, r8, r9, r10, fp, sp, pc}
.L56:
	ldr	r3, [r3, #132]
	cmp	r2, r3
	movle	r4, #1
	ble	.L10
	cmp	r2, r4
	movlt	r4, #0
	movge	r4, #1
	b	.L10
.L24:
	ldr	r2, [fp, #-64]
	add	r3, r2, #780
	add	r2, r2, #1
	add	r3, r3, #2
	str	r2, [fp, #-64]
	str	ip, [r5, r3, asl #2]
	b	.L12
.L59:
	mov	r3, lr
.L17:
	ldr	r1, [ip, #28]
	ldr	r0, [r5, #276]
	str	ip, [fp, #-68]
	str	r3, [fp, #-76]
	str	r2, [fp, #-72]
	bl	FSP_GetLogicFs
	ldr	ip, [fp, #-68]
	subs	lr, r0, #0
	beq	.L20
	ldr	r1, [lr, #28]
	ldr	r2, [fp, #-72]
	cmp	r1, #0
	ldr	r3, [fp, #-76]
	beq	.L20
	mov	r1, #70
	mov	r0, #280
	mla	r1, r1, r2, r3
	mla	r2, r0, r2, r5
	add	r1, r5, r1, lsl #2
	add	r0, r2, #13120
	add	r1, r1, #12288
	add	r2, r2, r3
	str	r2, [fp, #-68]
	mov	r2, #1
	str	r2, [r1, #868]
	ldr	lr, [lr, #28]
	ldr	r2, [fp, #-68]
	ldr	lr, [lr, #4]
	add	r2, r2, #13376
	str	lr, [r1, #932]
	ldr	lr, [ip, #8]
	str	lr, [r1, #996]
	ldr	lr, [r0, #32]
	add	lr, lr, #1
	str	lr, [r0, #32]
	ldr	r0, [ip, #32]
	str	r0, [r1, #1060]
	str	r3, [ip, #36]
	mov	r3, #1
	strb	r3, [r2, #36]
	ldr	ip, [r10, #3196]
	b	.L16
.L57:
	ldr	r1, [r2, #28]
	mov	r2, #1
	ldr	r0, [r5, #276]
	bl	FSP_SetRef
	ldr	r2, [r10, #3196]
	b	.L14
.L34:
	mov	r3, #0
	mov	r1, r3
	mov	r6, r3
	mov	r7, r3
	b	.L8
.L58:
	mov	r0, ip
	mov	r3, #200
	ldr	r2, .L60
	ldr	r1, .L60+4
	bl	dprint_vfmw
	ldr	ip, [r10, #3196]
	b	.L16
.L20:
	ldrb	r1, [ip, #1]	@ zero_extendqisi2
	mov	r0, #0
	ldr	r2, [ip, #28]
	ldr	r3, [ip, #8]
	stmia	sp, {r1, lr}
	str	r0, [sp, #8]
	ldr	r1, .L60+8
	bl	dprint_vfmw
	ldr	ip, [r10, #3196]
	b	.L16
.L61:
	.align	2
.L60:
	.word	.LC2
	.word	.LC3
	.word	.LC4
	UNWIND(.fnend)
	.size	HEVC_UpdateInterLayerReflist, .-HEVC_UpdateInterLayerReflist
	.global	__aeabi_idivmod
	.align	2
	.type	HEVC_CheckThatAllRefPicsAreAvailable.part.15, %function
HEVC_CheckThatAllRefPicsAreAvailable.part.15:
	UNWIND(.fnstart)
	@ args = 0, pretend = 0, frame = 40
	@ frame_needed = 1, uses_anonymous_args = 0
	UNWIND(.movsp ip)
	mov	ip, sp
	stmfd	sp!, {r4, r5, r6, r7, r8, r9, r10, fp, ip, lr, pc}
	UNWIND(.pad #4)
	UNWIND(.save {r4, r5, r6, r7, r8, r9, r10, fp, ip, lr})
	UNWIND(.setfp fp, ip, #-4)
	sub	fp, ip, #4
	UNWIND(.pad #44)
	sub	sp, sp, #44
	add	r3, r0, #4096
	ldr	ip, [r0, #2808]
	movw	r6, #5036
	ldr	r2, [r3, #732]
	movw	r4, #12668
	ldr	r5, [r3, #1632]
	mov	r7, r0
	str	r1, [fp, #-84]
	mla	ip, r6, r2, ip
	ldr	r1, [r3, #1628]
	ldr	lr, [r0, #2804]
	add	r1, r5, r1
	ldr	r2, [r3, #1636]
	str	r1, [fp, #-80]
	mov	r5, r1
	cmp	r1, r2
	ldr	ip, [ip, #32]
	str	r0, [fp, #-60]
	mov	r0, #1
	mla	r1, r4, ip, lr
	ldr	r10, [r1, #116]
	mov	r10, r0, asl r10
	bcs	.L63
	add	r9, r5, #1456
	ldr	r6, [r7, #3028]
	mov	r0, #0
	add	r2, r2, #5696
	add	r1, r5, #5696
	add	r9, r7, r9, lsl #2
	mov	ip, r0
	add	r2, r2, #40
	add	r1, r1, #40
	str	r0, [fp, #-64]
	mov	r0, r7
	add	r2, r7, r2
	str	ip, [fp, #-72]
	str	r2, [fp, #-68]
	add	r2, r7, r1
	str	r3, [fp, #-76]
	str	r2, [fp, #-56]
.L64:
	cmp	r6, #0
	beq	.L70
	ldr	r3, [fp, #-60]
	mov	r2, #0
	mov	r5, r2
	ldr	r8, [r9, #-944]
	add	r4, r3, #3184
	str	r2, [fp, #-52]
	add	r4, r4, #12
	b	.L67
.L107:
	ldr	r3, [r4]
	ldr	r1, [r3, #60]
	cmp	r1, #0
	beq	.L66
	ldr	r0, [r3, #8]
	ldr	r1, [r9]
	cmp	r0, r1
	ldreqb	r3, [r3, #1]	@ zero_extendqisi2
	beq	.L105
.L66:
	add	r5, r5, #1
	add	r4, r4, #4
	cmp	r5, r6
	beq	.L106
.L67:
	cmp	r8, #0
	bne	.L107
	ldr	r7, [r4]
	mov	r1, r10
	ldr	r3, [r7, #60]
	cmp	r3, #0
	beq	.L66
	ldr	r0, [r7, #8]
	bl	__aeabi_idivmod
	ldr	r0, [r9]
	str	r1, [fp, #-48]
	mov	r1, r10
	bl	__aeabi_idivmod
	ldr	r3, [fp, #-48]
	cmp	r3, r1
	bne	.L66
	ldrb	r3, [r7, #1]	@ zero_extendqisi2
.L105:
	cmp	r3, #0
	add	r5, r5, #1
	ldr	r3, [fp, #-52]
	add	r4, r4, #4
	movne	r3, #1
	cmp	r5, r6
	str	r3, [fp, #-52]
	bne	.L67
.L106:
	ldr	r2, [fp, #-52]
	cmp	r2, #0
	beq	.L70
.L68:
	ldr	r3, [fp, #-56]
	add	r9, r9, #4
	ldr	r2, [fp, #-68]
	add	r3, r3, #1
	str	r3, [fp, #-56]
	cmp	r3, r2
	bne	.L64
	ldr	r2, [fp, #-80]
	ldr	r3, [fp, #-76]
	cmp	r2, #0
	beq	.L72
.L71:
	ldr	r2, [fp, #-60]
	mov	r7, #0
	ldr	r10, [fp, #-80]
	add	r4, r2, #5696
	ldr	r0, [fp, #-72]
	mov	r9, r2
	mov	r8, r4
	add	r4, r4, #60
	add	r8, r8, #40
.L76:
	cmp	r6, #0
	beq	.L77
	add	lr, r9, #3184
	mov	r5, #0
	add	lr, lr, #8
	mov	r2, r5
	str	r0, [fp, #-48]
	b	.L74
.L73:
	cmp	r2, r6
	beq	.L108
.L74:
	ldr	r1, [lr, #4]!
	add	r2, r2, #1
	ldr	ip, [r1, #60]
	cmp	ip, #0
	bne	.L73
	ldr	r0, [r4]
	ldr	ip, [r3, #708]
	add	ip, ip, r0
	ldr	r0, [r1, #8]
	cmp	r0, ip
	bne	.L73
	ldrb	r1, [r1, #1]	@ zero_extendqisi2
	cmp	r1, #0
	movne	r5, #1
	cmp	r2, r6
	bne	.L74
.L108:
	cmp	r5, #0
	ldr	r0, [fp, #-48]
	beq	.L77
.L75:
	add	r7, r7, #1
	add	r4, r4, #4
	cmp	r10, r7
	add	r8, r8, #1
	bhi	.L76
	str	r0, [fp, #-72]
.L72:
	ldr	r3, [fp, #-72]
	cmp	r3, #0
	ldrne	r3, [fp, #-84]
	movne	r0, #0
	ldrne	r2, [fp, #-64]
	moveq	r0, #1
	strne	r2, [r3]
.L104:
	sub	sp, fp, #40
	ldmfd	sp, {r4, r5, r6, r7, r8, r9, r10, fp, sp, pc}
.L77:
	ldr	r1, [r3, #728]
	ldr	r2, [r3, #708]
	ldr	ip, [r4]
	add	r1, r9, r1, lsl #2
	add	r2, r2, ip
	ldr	r1, [r1, #244]
	cmp	r2, r1
	blt	.L75
	ldrb	r1, [r8]	@ zero_extendqisi2
	cmp	r1, #0
	ldr	r1, [fp, #-64]
	movne	r0, #1
	movne	r1, r2
	str	r1, [fp, #-64]
	b	.L75
.L70:
	ldr	r3, [fp, #-76]
	ldr	r0, [r9, #-68]
	ldr	r1, [r3, #728]
	ldr	r2, [r3, #708]
	ldr	r3, [fp, #-60]
	add	r2, r2, r0
	add	r1, r3, r1, lsl #2
	ldr	r1, [r1, #244]
	cmp	r2, r1
	blt	.L68
	ldr	r3, [fp, #-56]
	ldrb	r1, [r3]	@ zero_extendqisi2
	ldr	r3, [fp, #-64]
	cmp	r1, #0
	movne	r3, r2
	str	r3, [fp, #-64]
	ldr	r3, [fp, #-72]
	movne	r3, #1
	str	r3, [fp, #-72]
	b	.L68
.L63:
	ldr	r2, [fp, #-80]
	cmp	r2, #0
	beq	.L104
	ldr	r1, [fp, #-60]
	mov	r2, #0
	str	r2, [fp, #-64]
	str	r2, [fp, #-72]
	ldr	r6, [r1, #3028]
	b	.L71
	UNWIND(.fnend)
	.size	HEVC_CheckThatAllRefPicsAreAvailable.part.15, .-HEVC_CheckThatAllRefPicsAreAvailable.part.15
	.align	2
	.type	HEVC_SetFrmRepeatCount.part.16, %function
HEVC_SetFrmRepeatCount.part.16:
	UNWIND(.fnstart)
	@ args = 0, pretend = 0, frame = 0
	@ frame_needed = 1, uses_anonymous_args = 0
	UNWIND(.movsp ip)
	mov	ip, sp
	stmfd	sp!, {fp, ip, lr, pc}
	UNWIND(.pad #4)
	UNWIND(.save {fp, ip, lr})
	UNWIND(.setfp fp, ip, #-4)
	sub	fp, ip, #4
	ldr	ip, [r0, #308]
	ldr	r2, [r0, #3024]
	ldr	r3, [r0, #304]
	add	r2, r2, ip
	add	ip, r2, #1
	cmp	r3, ip
	movcc	r3, #0
	strcc	r3, [r1, #16]
	ldmccfd	sp, {fp, sp, pc}
	sub	r3, r3, #1
	rsb	r3, r2, r3
	cmp	r3, #1
	movhi	r3, #2
	movls	r3, #1
	strhi	r3, [r1, #16]
	strls	r3, [r1, #16]
	ldrhi	r3, [r0, #308]
	ldrls	r3, [r0, #308]
	addhi	r3, r3, #2
	addls	r3, r3, #1
	str	r3, [r0, #308]
	ldmfd	sp, {fp, sp, pc}
	UNWIND(.fnend)
	.size	HEVC_SetFrmRepeatCount.part.16, .-HEVC_SetFrmRepeatCount.part.16
	.align	2
	.type	HEVC_OutputFrame, %function
HEVC_OutputFrame:
	UNWIND(.fnstart)
	@ args = 0, pretend = 0, frame = 8
	@ frame_needed = 1, uses_anonymous_args = 0
	UNWIND(.movsp ip)
	mov	ip, sp
	stmfd	sp!, {r4, r5, r6, r7, r8, r9, r10, fp, ip, lr, pc}
	UNWIND(.pad #4)
	UNWIND(.save {r4, r5, r6, r7, r8, r9, r10, fp, ip, lr})
	UNWIND(.setfp fp, ip, #-4)
	sub	fp, ip, #4
	UNWIND(.pad #20)
	sub	sp, sp, #20
	mov	r4, r0
	mov	r6, r1
	ldr	r0, [r0, #276]
	ldr	r1, [r1, #28]
	bl	FSP_GetFsImagePtr
	subs	r5, r0, #0
	beq	.L164
	ldrb	r2, [r4, #1]	@ zero_extendqisi2
	cmp	r2, #1
	beq	.L165
.L116:
	mov	r2, #1
	ldr	r1, [r6, #28]
	ldr	r0, [r4, #276]
	bl	FSP_SetDisplay
	add	r3, r4, #6144
	ldr	r0, [r4, #276]
	add	r3, r3, #24
	str	r5, [sp]
	mov	r2, r4
	mov	r1, #16
	bl	InsertImgToVoQueue
	cmp	r0, #1
	bne	.L166
.L136:
	ldr	r3, [r4, #2844]
	ldr	r3, [r3, #612]
	add	r3, r3, #2032
	add	r3, r3, #15
	cmp	r3, #4096
	movcc	r3, #0
	strcc	r3, [r5, #16]
	bcs	.L167
.L134:
	ldr	r2, [r4, #316]
	mov	r0, #0
	ldr	r3, [r4, #308]
	add	r2, r2, #1
	str	r2, [r4, #316]
	add	r3, r3, #1
	str	r3, [r4, #308]
.L157:
	sub	sp, fp, #40
	ldmfd	sp, {r4, r5, r6, r7, r8, r9, r10, fp, sp, pc}
.L167:
	mov	r1, r5
	mov	r0, r4
	bl	HEVC_SetFrmRepeatCount.part.16
	b	.L134
.L165:
	ldr	r1, [r6, #28]
	ldr	r0, [r4, #276]
	bl	FSP_SetDisplay
	ldr	r3, [r4, #2844]
	ldr	r3, [r3, #24]
	cmp	r3, #6
	beq	.L168
	bics	r2, r3, #4
	bne	.L131
	ldr	r3, [r6, #32]
	cmp	r3, #0
	beq	.L116
	b	.L132
.L131:
	cmp	r3, #5
	bne	.L116
	ldr	r3, [r6, #32]
	cmp	r3, #1
	beq	.L116
.L132:
	ldr	r1, [r6, #28]
	mov	r2, #0
	ldr	r0, [r4, #276]
	bl	FSP_SetDisplay
	b	.L136
.L168:
	cmp	r6, #0
	addeq	r10, r4, #2400
	addeq	r10, r10, #4
	beq	.L118
	ldr	r3, [r6, #32]
	cmp	r3, #0
	movw	r3, #2404
	addeq	r10, r4, #2400
	addne	r7, r4, #2592
	addeq	r10, r10, #4
	addne	r7, r7, #8
	ldrh	r3, [r4, r3]
	addne	r10, r4, #2400
	moveq	r7, r10
	addne	r10, r10, #4
	ldrh	r1, [r7, #2]
	add	r2, r1, #1
	and	r0, r2, #15
	cmp	r0, r3
	beq	.L169
.L121:
	mov	r3, r1, asl #4
	ldr	r0, [r6, #8]
	sub	r3, r3, r1, asl #2
	and	r2, r2, #15
	add	r3, r7, r3
	str	r0, [r3, #4]
	ldr	r1, [r6, #28]
	str	r1, [r3, #8]!
	str	r5, [r3, #4]
	strh	r2, [r7, #2]	@ movhi
.L118:
	movw	r3, #2404
	add	r2, r4, #6144
	ldrh	r3, [r4, r3]
	add	r2, r2, #24
	str	r5, [fp, #-52]
	str	r2, [fp, #-48]
.L122:
	ldrh	r2, [r10, #2]
	cmp	r2, r3
	beq	.L161
.L172:
	add	r8, r4, #2592
	add	r8, r8, #8
	ldrh	r1, [r8]
	ldrh	r2, [r8, #2]
	cmp	r2, r1
	beq	.L161
	mov	r7, r3, asl #4
	sub	r7, r7, r3, asl #2
	add	r7, r4, r7
	add	r2, r7, #2400
	add	r2, r2, #12
	ldr	lr, [r2, #4]
	cmp	lr, #0
	beq	.L161
	mov	r9, r1, asl #2
	mov	r6, r1, asl #4
	rsb	ip, r9, r6
	add	r5, r4, ip
	ldr	r3, [r5, #2612]
	cmp	r3, #0
	beq	.L161
	ldr	r3, [r7, #2408]
	ldr	r1, [r5, #2604]
	cmp	r3, r1
	bgt	.L170
	blt	.L171
	ldr	r3, [lr, #180]
	cmp	r3, #0
	beq	.L127
	mov	r3, #0
	str	r3, [lr, #180]
	ldr	r3, [r5, #2612]
	mov	r1, #1
	str	r1, [r3, #180]
	ldr	lr, [r2, #4]
.L127:
	ldr	r0, [r4, #276]
	mov	r2, r4
	ldr	r3, [fp, #-48]
	mov	r1, #16
	str	lr, [sp]
	bl	InsertImgToVoQueue
	cmp	r0, #1
	beq	.L128
	ldr	r2, .L173
	mov	r0, #1
	ldr	r1, .L173+4
	ldr	r3, [r7, #2408]
	bl	dprint_vfmw
	ldr	r1, [r7, #2412]
	mov	r2, #0
	ldr	r0, [r4, #276]
	bl	FSP_SetDisplay
.L128:
	ldrh	r0, [r10]
	rsb	r1, r9, r6
	add	r1, r4, r1
	ldr	r3, [fp, #-48]
	add	r0, r0, #1
	mov	r2, r4
	and	r0, r0, #15
	strh	r0, [r10]	@ movhi
	ldr	lr, [r1, #2612]
	mov	r1, #16
	ldr	r0, [r4, #276]
	str	lr, [sp]
	bl	InsertImgToVoQueue
	cmp	r0, #1
	beq	.L129
	ldr	r3, [r5, #2604]
	mov	r0, #1
	ldr	r2, .L173
	ldr	r1, .L173+8
	bl	dprint_vfmw
.L162:
	ldr	r1, [r5, #2608]
	mov	r2, #0
	ldr	r0, [r4, #276]
	bl	FSP_SetDisplay
.L129:
	ldrh	r3, [r8]
	add	r3, r3, #1
	and	r3, r3, #15
	strh	r3, [r8]	@ movhi
	ldrh	r3, [r10]
	ldrh	r2, [r10, #2]
	cmp	r2, r3
	bne	.L172
.L161:
	ldr	r5, [fp, #-52]
	b	.L136
.L170:
	str	r1, [sp]
	mov	r0, #1
	ldr	r2, .L173
	ldr	r1, .L173+12
	bl	dprint_vfmw
	b	.L162
.L171:
	str	r3, [sp]
	mov	r0, #1
	mov	r3, r1
	ldr	r2, .L173
	ldr	r1, .L173+16
	bl	dprint_vfmw
	ldr	r1, [r7, #2412]
	mov	r2, #0
	ldr	r0, [r4, #276]
	bl	FSP_SetDisplay
	ldrh	r3, [r10]
	add	r3, r3, #1
	and	r3, r3, #15
	strh	r3, [r10]	@ movhi
	b	.L122
.L166:
	ldr	r2, .L173+20
	mov	r0, #1
	ldr	r1, .L173+24
	bl	dprint_vfmw
	ldr	r0, [r4, #276]
	ldr	r1, [r6, #28]
	mov	r2, #0
	bl	FSP_SetDisplay
	mvn	r0, #0
	b	.L157
.L164:
	ldr	r2, .L173+20
	ldr	r1, .L173+28
	bl	dprint_vfmw
	mvn	r0, #0
	b	.L157
.L169:
	ldrh	r1, [r7]
	mov	r2, #0
	ldr	r0, [r4, #276]
	mov	r3, r1, asl #4
	sub	r3, r3, r1, asl #2
	add	r3, r7, r3
	ldr	r8, [r3, #8]
	mov	r1, r8
	bl	FSP_SetDisplay
	ldrh	r2, [r7]
	ldr	r1, .L173+32
	mov	r3, r8
	add	r2, r2, #1
	mov	r0, #1
	and	r2, r2, #15
	strh	r2, [r7]	@ movhi
	ldr	r2, [r6, #32]
	bl	dprint_vfmw
	ldrh	r1, [r7, #2]
	add	r2, r1, #1
	b	.L121
.L174:
	.align	2
.L173:
	.word	.LANCHOR0+20
	.word	.LC9
	.word	.LC10
	.word	.LC7
	.word	.LC8
	.word	.LANCHOR0
	.word	.LC11
	.word	.LC5
	.word	.LC6
	UNWIND(.fnend)
	.size	HEVC_OutputFrame, .-HEVC_OutputFrame
	.align	2
	.global	HEVC_CheckVpsExtOverlap
	.type	HEVC_CheckVpsExtOverlap, %function
HEVC_CheckVpsExtOverlap:
	UNWIND(.fnstart)
	@ args = 0, pretend = 0, frame = 0
	@ frame_needed = 1, uses_anonymous_args = 0
	UNWIND(.movsp ip)
	mov	ip, sp
	stmfd	sp!, {r4, r5, fp, ip, lr, pc}
	UNWIND(.pad #4)
	UNWIND(.save {r4, r5, fp, ip, lr})
	UNWIND(.setfp fp, ip, #-4)
	sub	fp, ip, #4
	subs	r4, r0, #0
	beq	.L179
.L176:
	add	r3, r4, #12288
	ldrb	r0, [r4]	@ zero_extendqisi2
	ldrb	r3, [r3, #200]	@ zero_extendqisi2
	cmp	r3, #0
	movne	r3, #2
	moveq	r3, #0
	cmp	r0, #0
	moveq	r0, r3
	orrne	r0, r3, #1
	ldmfd	sp, {r4, r5, fp, sp, pc}
.L179:
	ldr	r2, .L180
	mov	r0, #1
	ldr	r1, .L180+4
	bl	dprint_vfmw
	b	.L176
.L181:
	.align	2
.L180:
	.word	.LANCHOR0+48
	.word	.LC12
	UNWIND(.fnend)
	.size	HEVC_CheckVpsExtOverlap, .-HEVC_CheckVpsExtOverlap
	.align	2
	.global	HEVC_CheckPpsExtOverlap
	.type	HEVC_CheckPpsExtOverlap, %function
HEVC_CheckPpsExtOverlap:
	UNWIND(.fnstart)
	@ args = 0, pretend = 0, frame = 0
	@ frame_needed = 1, uses_anonymous_args = 0
	UNWIND(.movsp ip)
	mov	ip, sp
	stmfd	sp!, {r4, r5, fp, ip, lr, pc}
	UNWIND(.pad #4)
	UNWIND(.save {r4, r5, fp, ip, lr})
	UNWIND(.setfp fp, ip, #-4)
	sub	fp, ip, #4
	subs	r4, r0, #0
	beq	.L186
.L183:
	ldrb	r3, [r4, #3144]	@ zero_extendqisi2
	ldrb	r0, [r4]	@ zero_extendqisi2
	cmp	r3, #0
	movne	r3, #2
	moveq	r3, #0
	cmp	r0, #0
	moveq	r0, r3
	orrne	r0, r3, #1
	ldmfd	sp, {r4, r5, fp, sp, pc}
.L186:
	ldr	r2, .L187
	mov	r0, #1
	ldr	r1, .L187+4
	bl	dprint_vfmw
	b	.L183
.L188:
	.align	2
.L187:
	.word	.LANCHOR0+72
	.word	.LC13
	UNWIND(.fnend)
	.size	HEVC_CheckPpsExtOverlap, .-HEVC_CheckPpsExtOverlap
	.align	2
	.global	HEVC_CheckSliceExtOverlap
	.type	HEVC_CheckSliceExtOverlap, %function
HEVC_CheckSliceExtOverlap:
	UNWIND(.fnstart)
	@ args = 0, pretend = 0, frame = 0
	@ frame_needed = 1, uses_anonymous_args = 0
	UNWIND(.movsp ip)
	mov	ip, sp
	stmfd	sp!, {r4, r5, fp, ip, lr, pc}
	UNWIND(.pad #4)
	UNWIND(.save {r4, r5, fp, ip, lr})
	UNWIND(.setfp fp, ip, #-4)
	sub	fp, ip, #4
	subs	r4, r0, #0
	beq	.L193
.L190:
	ldrb	r3, [r4, #16]	@ zero_extendqisi2
	ldrb	r0, [r4]	@ zero_extendqisi2
	cmp	r3, #0
	movne	r3, #2
	moveq	r3, #0
	cmp	r0, #0
	moveq	r0, r3
	orrne	r0, r3, #1
	ldmfd	sp, {r4, r5, fp, sp, pc}
.L193:
	ldr	r2, .L194
	mov	r0, #1
	ldr	r1, .L194+4
	bl	dprint_vfmw
	b	.L190
.L195:
	.align	2
.L194:
	.word	.LANCHOR0+96
	.word	.LC14
	UNWIND(.fnend)
	.size	HEVC_CheckSliceExtOverlap, .-HEVC_CheckSliceExtOverlap
	.align	2
	.global	HEVC_Sei_ParsePts_Init
	.type	HEVC_Sei_ParsePts_Init, %function
HEVC_Sei_ParsePts_Init:
	UNWIND(.fnstart)
	@ args = 0, pretend = 0, frame = 0
	@ frame_needed = 1, uses_anonymous_args = 0
	UNWIND(.movsp ip)
	mov	ip, sp
	stmfd	sp!, {r4, r5, r6, r7, fp, ip, lr, pc}
	UNWIND(.pad #4)
	UNWIND(.save {r4, r5, r6, r7, fp, ip, lr})
	UNWIND(.setfp fp, ip, #-4)
	sub	fp, ip, #4
	ldr	r3, .L197
	mov	r6, r0
	mov	r2, #56
	add	r0, r0, #11712
	mov	r1, #0
	mov	r4, #0
	ldr	r3, [r3, #48]
	mov	r5, #0
	blx	r3
	add	r3, r6, #3488
	mov	r2, #0
	strd	r4, [r3, #32]
	strd	r4, [r3, #8]
	strd	r4, [r3, #16]
	strd	r4, [r3, #24]
	str	r2, [r6, #3476]
	ldmfd	sp, {r4, r5, r6, r7, fp, sp, pc}
.L198:
	.align	2
.L197:
	.word	vfmw_Osal_Func_Ptr_S
	UNWIND(.fnend)
	.size	HEVC_Sei_ParsePts_Init, .-HEVC_Sei_ParsePts_Init
	.align	2
	.global	HEVC_Sei_Get_Dpb_Output_Time
	.type	HEVC_Sei_Get_Dpb_Output_Time, %function
HEVC_Sei_Get_Dpb_Output_Time:
	UNWIND(.fnstart)
	@ args = 0, pretend = 0, frame = 0
	@ frame_needed = 1, uses_anonymous_args = 0
	UNWIND(.movsp ip)
	mov	ip, sp
	stmfd	sp!, {r4, r5, r6, r7, r8, r9, fp, ip, lr, pc}
	UNWIND(.pad #4)
	UNWIND(.save {r4, r5, r6, r7, r8, r9, fp, ip, lr})
	UNWIND(.setfp fp, ip, #-4)
	sub	fp, ip, #4
	add	r3, r0, #4096
	ldr	r5, [r0, #2808]
	movw	r6, #5036
	ldr	r1, [r0, #2804]
	ldr	ip, [r3, #732]
	movw	r4, #12668
	ldr	lr, [r2, #36]
	add	r3, r0, #8192
	mla	ip, r6, ip, r5
	ldr	r5, [r3, #3524]
	cmp	r5, #1
	ldr	ip, [ip, #32]
	str	lr, [r3, #3532]
	ldr	lr, [r2, #40]
	mla	r1, r4, ip, r1
	str	lr, [r3, #3536]
	ldr	ip, [r1, #52]
	add	ip, ip, #90
	ldrb	ip, [r1, ip, asl #2]	@ zero_extendqisi2
	beq	.L207
	ldrb	r1, [r3, #3521]	@ zero_extendqisi2
	cmp	r1, #0
	bne	.L208
	add	r1, r0, #3488
	ldr	lr, [r0, #3488]
	ldrd	r4, [r1, #8]
	adds	r4, r4, lr
	adc	r5, r5, #0
	strd	r4, [r1, #32]
.L201:
	add	lr, r0, #11712
	strd	r4, [r1, #24]
	mov	r1, #0
	strb	r1, [r3, #3521]
	ldrd	r6, [lr, #32]
	strd	r6, [lr, #48]
	ldrb	r3, [r2, #2]	@ zero_extendqisi2
	cmp	r3, r1
	ldr	r3, [r0, #3492]
	bne	.L209
	adds	r4, r4, r3
	adc	r5, r5, #0
	subs	r4, r4, ip
	sbc	r5, r5, #0
	strd	r4, [lr, #32]
	ldmfd	sp, {r4, r5, r6, r7, r8, r9, fp, sp, pc}
.L208:
	ldrb	r1, [r0, #3472]	@ zero_extendqisi2
	cmp	r1, #0
	add	r1, r0, #3488
	bne	.L210
	ldrd	r4, [r1, #8]
	ldrd	r8, [r1, #16]
.L204:
	ldr	r6, [r0, #3488]
	mov	r7, #0
	adds	r4, r4, r6
	adc	r5, r5, r7
	cmp	r4, r8
	sbcs	lr, r5, r9
	strd	r4, [r1, #32]
	strd	r4, [r1, #8]
	bge	.L201
	adds	r4, r6, r8
	adc	r5, r7, r9
	strd	r4, [r1, #32]
	strd	r4, [r1, #8]
	b	.L201
.L209:
	adds	r4, r4, r3
	adc	r5, r5, #0
	movs	r5, r5, asr #1
	mov	r4, r4, rrx
	subs	r4, r4, ip
	sbc	r5, r5, #0
	strd	r4, [lr, #32]
	ldmfd	sp, {r4, r5, r6, r7, r8, r9, fp, sp, pc}
.L207:
	ldr	r4, [r0, #3476]
	add	r1, r0, #3488
	mov	r5, r4, asr #31
	strd	r4, [r1, #32]
	strd	r4, [r1, #8]
	b	.L201
.L210:
	ldrd	r4, [r1, #16]
	mov	r8, r4
	mov	r9, r5
	b	.L204
	UNWIND(.fnend)
	.size	HEVC_Sei_Get_Dpb_Output_Time, .-HEVC_Sei_Get_Dpb_Output_Time
	.align	2
	.global	HEVC_Get_Last_IDR_Frame_Info
	.type	HEVC_Get_Last_IDR_Frame_Info, %function
HEVC_Get_Last_IDR_Frame_Info:
	UNWIND(.fnstart)
	@ args = 0, pretend = 0, frame = 0
	@ frame_needed = 1, uses_anonymous_args = 0
	UNWIND(.movsp ip)
	mov	ip, sp
	stmfd	sp!, {r4, r5, fp, ip, lr, pc}
	UNWIND(.pad #4)
	UNWIND(.save {r4, r5, fp, ip, lr})
	UNWIND(.setfp fp, ip, #-4)
	sub	fp, ip, #4
	sub	r3, r1, #19
	cmp	r3, #1
	bls	.L215
.L212:
	sub	r1, r1, #6
	cmp	r1, #3
	addhi	r0, r0, #3488
	ldrhid	r2, [r0, #32]
	strhid	r2, [r0, #16]
	ldmfd	sp, {r4, r5, fp, sp, pc}
.L215:
	ldr	ip, [r0, #2844]
	mvn	r3, #0
	mvn	r2, #0
	ldrd	r4, [ip, #56]
	cmp	r5, r3
	cmpeq	r4, r2
	beq	.L213
	add	r3, r0, #11712
	movw	r2, #11744
	add	r3, r3, #32
	add	ip, r0, #11712
	strd	r4, [r3, #-8]
	ldrd	r2, [r2, r0]
	strd	r2, [ip, #40]
.L213:
	add	r3, r0, #8192
	mov	r2, #1
	strb	r2, [r3, #3520]
	b	.L212
	UNWIND(.fnend)
	.size	HEVC_Get_Last_IDR_Frame_Info, .-HEVC_Get_Last_IDR_Frame_Info
	.global	__aeabi_uidivmod
	.global	__aeabi_uidiv
	.align	2
	.global	HEVC_Sei_Get_Frame_Pts
	.type	HEVC_Sei_Get_Frame_Pts, %function
HEVC_Sei_Get_Frame_Pts:
	UNWIND(.fnstart)
	@ args = 0, pretend = 0, frame = 16
	@ frame_needed = 1, uses_anonymous_args = 0
	UNWIND(.movsp ip)
	mov	ip, sp
	stmfd	sp!, {r4, r5, r6, r7, r8, r9, r10, fp, ip, lr, pc}
	UNWIND(.pad #4)
	UNWIND(.save {r4, r5, r6, r7, r8, r9, r10, fp, ip, lr})
	UNWIND(.setfp fp, ip, #-4)
	sub	fp, ip, #4
	UNWIND(.pad #20)
	sub	sp, sp, #20
	add	r2, r0, #11712
	add	r1, r0, #8192
	add	r3, r2, #48
	ldrd	r6, [r2, #24]
	mov	r4, r0
	ldr	r5, [r1, #3532]
	movw	r0, #11744
	ldrd	r2, [r3, #-8]
	cmp	r5, #0
	strd	r6, [fp, #-52]
	ldr	r10, [r1, #3536]
	strd	r2, [fp, #-60]
	ldrd	r6, [r4, r0]
	beq	.L219
	mov	r9, r5
	mov	r0, r10
	b	.L218
.L220:
	mov	r9, r1
.L218:
	mov	r1, r9
	bl	__aeabi_uidivmod
	mov	r0, r9
	cmp	r1, #0
	bne	.L220
.L217:
	ldrd	r2, [fp, #-60]
	mov	r1, r9
	mov	r0, r5
	mov	r8, #1000
	subs	r2, r6, r2
	add	r4, r4, #4736
	mul	r6, r8, r2
	bl	__aeabi_uidiv
	mov	r1, r9
	mul	r6, r0, r6
	mov	r0, r10
	bl	__aeabi_uidiv
	mov	r1, r0
	mov	r0, r6
	bl	__aeabi_uidiv
	ldrd	r2, [fp, #-52]
	adds	r2, r2, r0
	adc	r3, r3, #0
	mov	r0, r2
	mov	r1, r3
	strd	r0, [r4, #8]
	sub	sp, fp, #40
	ldmfd	sp, {r4, r5, r6, r7, r8, r9, r10, fp, sp, pc}
.L219:
	mov	r9, r10
	b	.L217
	UNWIND(.fnend)
	.size	HEVC_Sei_Get_Frame_Pts, .-HEVC_Sei_Get_Frame_Pts
	.align	2
	.global	HEVC_InitSigLastScan
	.type	HEVC_InitSigLastScan, %function
HEVC_InitSigLastScan:
	UNWIND(.fnstart)
	@ args = 16, pretend = 0, frame = 24
	@ frame_needed = 1, uses_anonymous_args = 0
	UNWIND(.movsp ip)
	mov	ip, sp
	stmfd	sp!, {r4, r5, r6, r7, r8, r9, r10, fp, ip, lr, pc}
	UNWIND(.pad #4)
	UNWIND(.save {r4, r5, r6, r7, r8, r9, r10, fp, ip, lr})
	UNWIND(.setfp fp, ip, #-4)
	sub	fp, ip, #4
	UNWIND(.pad #28)
	sub	sp, sp, #28
	ldr	r4, [fp, #8]
	str	r0, [fp, #-48]
	cmp	r4, #15
	ldr	r6, [fp, #4]
	bgt	.L222
	cmp	r4, #8
	mul	r9, r4, r4
	beq	.L255
	cmp	r9, #0
	movne	r10, r6
	beq	.L222
.L224:
	mov	r5, #0
	rsb	r7, r4, #1
	mov	r8, r5
.L230:
	cmp	r4, r8
	bgt	.L242
	rsb	lr, r4, r8
	sub	r2, r4, #1
	add	lr, lr, #1
.L231:
	cmp	r2, #0
	cmpge	r4, lr
	ble	.L228
	mla	r0, r2, r4, lr
	add	ip, r10, r5, lsl #2
	mov	r1, r5
.L229:
	add	r1, r1, #1
	sub	r2, r2, #1
	rsb	r3, r5, r1
	str	r0, [ip], #4
	add	r3, r3, lr
	add	r0, r0, r7
	cmp	r2, #0
	cmpge	r4, r3
	bgt	.L229
	mov	r5, r1
.L228:
	cmp	r9, r5
	add	r8, r8, #1
	bhi	.L230
.L222:
	cmp	r4, #4
	ble	.L221
	mov	r3, r4, asr #2
	ldr	r1, [fp, #-48]
	str	r3, [fp, #-64]
	mov	r2, r3
	add	r3, r1, r3
	mul	r2, r2, r2
	mov	r0, r2
	str	r2, [fp, #-60]
	cmp	r0, #0
	ldrsb	r2, [r3, #15]
	add	r2, r2, #1
	beq	.L221
	add	r3, r1, #364
.L226:
	ldr	r1, .L256
	rsb	r7, r4, #1
	str	r3, [fp, #-52]
	mov	r3, #0
	add	r2, r1, r2, lsl #16
	str	r3, [fp, #-48]
	sub	r3, r2, #4
	str	r3, [fp, #-56]
.L240:
	ldr	r3, [fp, #-56]
	cmp	r4, #32
	ldr	r9, [fp, #-64]
	mov	r8, #0
	ldr	r5, [r3, #4]!
	mov	r1, r9
	str	r3, [fp, #-56]
	ldreq	r3, [fp, #-52]
	ldreq	r5, [r3]
	mov	r0, r5
	bl	__aeabi_uidiv
	ldr	ip, [fp, #-48]
	mov	r3, r8
	mov	r2, r8
	mov	lr, r8
	mov	r10, ip, asl #4
	mla	r1, r4, r0, r5
	mls	r1, r9, r0, r1
	mov	r9, r1, asl #2
.L234:
	cmp	lr, #3
	mvn	r1, r2
	mov	r1, r1, lsr #31
	movgt	r1, #0
	cmp	r1, #0
	beq	.L235
	mla	r1, r2, r4, lr
	add	r0, r3, r10
	rsb	lr, r3, lr
	add	r0, r6, r0, lsl #2
	add	r1, r1, r9
.L236:
	add	r3, r3, #1
	sub	r2, r2, #1
	add	r5, lr, r3
	str	r1, [r0], #4
	cmp	r5, #3
	mvn	ip, r2
	mov	ip, ip, lsr #31
	add	r1, r1, r7
	movgt	ip, #0
	cmp	ip, #0
	bne	.L236
.L235:
	cmp	r3, #15
	add	r8, r8, #1
	bhi	.L237
	cmp	r8, #3
	movle	r2, r8
	movle	lr, #0
	subgt	lr, r8, #3
	movgt	r2, #3
	b	.L234
.L237:
	ldr	r2, [fp, #-52]
	ldr	r3, [fp, #-48]
	add	r2, r2, #4
	str	r2, [fp, #-52]
	ldr	r2, [fp, #-60]
	add	r3, r3, #1
	str	r3, [fp, #-48]
	cmp	r3, r2
	bne	.L240
.L221:
	sub	sp, fp, #40
	ldmfd	sp, {r4, r5, r6, r7, r8, r9, r10, fp, sp, pc}
.L242:
	mov	r2, r8
	mov	lr, #0
	b	.L231
.L255:
	add	r3, r0, #364
	cmp	r9, #0
	mov	r10, r3
	bne	.L224
	ldr	r2, [fp, #-48]
	mov	r1, #2
	str	r1, [fp, #-64]
	mov	r1, #4
	str	r1, [fp, #-60]
	ldrsb	r2, [r2, #17]
	add	r2, r2, #1
	b	.L226
.L257:
	.align	2
.L256:
	.word	.LANCHOR1
	UNWIND(.fnend)
	.size	HEVC_InitSigLastScan, .-HEVC_InitSigLastScan
	.align	2
	.global	HEVC_InitScalingOrderTable
	.type	HEVC_InitScalingOrderTable, %function
HEVC_InitScalingOrderTable:
	UNWIND(.fnstart)
	@ args = 0, pretend = 0, frame = 0
	@ frame_needed = 1, uses_anonymous_args = 0
	UNWIND(.movsp ip)
	mov	ip, sp
	stmfd	sp!, {r4, r5, r6, r7, fp, ip, lr, pc}
	UNWIND(.pad #4)
	UNWIND(.save {r4, r5, r6, r7, fp, ip, lr})
	UNWIND(.setfp fp, ip, #-4)
	sub	fp, ip, #4
	UNWIND(.pad #16)
	sub	sp, sp, #16
	add	r3, r0, #14
	add	r1, r0, #143
	mov	r7, r0
	mvn	r2, #0
.L259:
	strb	r2, [r3, #1]!
	cmp	r3, r1
	bne	.L259
	ldr	r6, .L263
	mov	r2, #0
	mov	r3, #2
	mov	r5, r2
	mov	r4, r3
	strb	r2, [r7, #19]
	strb	r3, [r7, #31]
	mov	r2, #1
	mov	r3, #3
	strb	r2, [r7, #23]
	strb	r3, [r7, #47]
	mov	r3, #4
	strb	r3, [r7, #79]
.L260:
	mov	r3, #0
	str	r5, [sp, #12]
	str	r4, [sp, #8]
	add	r5, r5, #1
	str	r4, [sp, #4]
	mov	r2, r3
	str	r6, [sp]
	mov	r1, r3
	mov	r0, r7
	mov	r4, r4, asl #1
	bl	HEVC_InitSigLastScan
	cmp	r5, #7
	add	r6, r6, #65536
	bne	.L260
	sub	sp, fp, #28
	ldmfd	sp, {r4, r5, r6, r7, fp, sp, pc}
.L264:
	.align	2
.L263:
	.word	.LANCHOR1
	UNWIND(.fnend)
	.size	HEVC_InitScalingOrderTable, .-HEVC_InitScalingOrderTable
	.global	__aeabi_idiv
	.align	2
	.global	HEVC_GetDar
	.type	HEVC_GetDar, %function
HEVC_GetDar:
	UNWIND(.fnstart)
	@ args = 4, pretend = 0, frame = 8
	@ frame_needed = 1, uses_anonymous_args = 0
	UNWIND(.movsp ip)
	mov	ip, sp
	stmfd	sp!, {r4, fp, ip, lr, pc}
	UNWIND(.pad #4)
	UNWIND(.save {r4, fp, ip, lr})
	UNWIND(.setfp fp, ip, #-4)
	sub	fp, ip, #4
	UNWIND(.pad #12)
	sub	sp, sp, #12
	cmp	r0, #0
	mov	ip, r1
	moveq	r4, r0
	beq	.L266
	subs	lr, r0, #255
	movne	lr, #1
	cmp	r0, #16
	movle	r4, #0
	andgt	r4, lr, #1
	cmp	r4, #0
	movne	r4, #0
	bne	.L266
	cmp	r2, #0
	cmpne	r1, #0
	moveq	r1, #1
	movne	r1, #0
	cmp	r0, #255
	movne	r1, #0
	andeq	r1, r1, #1
	cmp	r1, #0
	bne	.L266
	cmp	r0, #1
	moveq	r4, #5
	beq	.L266
	cmp	lr, #0
	str	r3, [fp, #-24]
	ldrne	r2, .L288
	addne	r0, r2, r0, lsl #3
	ldrne	r2, [r0, #128]
	ldrne	ip, [r0, #124]
	mov	r1, r2
	mov	r0, ip, asl #10
	bl	__aeabi_idiv
	ldr	r3, [fp, #-24]
	ldr	r1, [fp, #4]
	mov	r4, r0
	mov	r0, r3, asl #10
	bl	__aeabi_idiv
	movw	r3, #2405
	movw	r2, #2262
	mul	r0, r0, r4
	add	r4, r0, #1020
	cmp	r0, #0
	add	r4, r4, #3
	movlt	r0, r4
	mov	r0, r0, asr #10
	cmp	r0, r3
	rsble	r3, r0, #2400
	subgt	r3, r0, #2400
	addle	r3, r3, #6
	subgt	r3, r3, #6
	cmp	r0, r2
	bgt	.L270
	rsb	r2, r0, #2256
	add	r2, r2, #7
	cmp	r3, r2
	bge	.L271
.L281:
	mov	r4, #4
.L266:
	mov	r2, r4
	ldr	r1, .L288+4
	mov	r0, #22
	bl	dprint_vfmw
	mov	r0, r4
	sub	sp, fp, #16
	ldmfd	sp, {r4, fp, sp, pc}
.L270:
	sub	r2, r0, #2256
	sub	r2, r2, #7
	cmp	r3, r2
	blt	.L281
.L271:
	movw	r3, #1819
	cmp	r0, r3
	bgt	.L272
	rsb	r3, r0, #1808
	add	r3, r3, #12
	cmp	r2, r3
	blt	.L283
.L273:
	movw	r2, #1364
	cmp	r0, r2
	rsble	r0, r0, #1360
	subgt	r0, r0, #1360
	addle	r0, r0, #5
	subgt	r0, r0, #5
	cmp	r3, r0
	movlt	r4, #2
	movge	r4, #1
	b	.L266
.L272:
	sub	r3, r0, #1808
	sub	r3, r3, #12
	cmp	r2, r3
	bge	.L273
.L283:
	mov	r4, #3
	b	.L266
.L289:
	.align	2
.L288:
	.word	.LANCHOR0
	.word	.LC15
	UNWIND(.fnend)
	.size	HEVC_GetDar, .-HEVC_GetDar
	.align	2
	.global	HEVC_PrintNaluArraySlot
	.type	HEVC_PrintNaluArraySlot, %function
HEVC_PrintNaluArraySlot:
	UNWIND(.fnstart)
	@ args = 0, pretend = 0, frame = 0
	@ frame_needed = 1, uses_anonymous_args = 0
	UNWIND(.movsp ip)
	mov	ip, sp
	stmfd	sp!, {r4, r5, r6, r7, fp, ip, lr, pc}
	UNWIND(.pad #4)
	UNWIND(.save {r4, r5, r6, r7, fp, ip, lr})
	UNWIND(.setfp fp, ip, #-4)
	sub	fp, ip, #4
	UNWIND(.pad #8)
	sub	sp, sp, #8
	ldr	r1, .L296
	mov	r7, r0
	mov	r0, #1
	bl	dprint_vfmw
	ldr	r3, [r7, #168]
	cmn	r3, #1
	movne	r5, #0
	movwne	r6, #52429
	movne	r4, r5
	movtne	r6, 52428
	bne	.L293
	b	.L294
.L292:
	ldr	r3, [r7, #168]
	add	r3, r3, #1
	cmp	r3, r4
	bls	.L294
.L293:
	ldr	r3, [r7, #2840]
	mov	r2, r4
	ldr	r1, .L296+4
	mov	r0, #1
	add	r3, r3, r5
	add	r5, r5, #96
	ldr	ip, [r3, #32]
	str	ip, [sp]
	bl	dprint_vfmw
	umull	r2, r3, r4, r6
	mov	r2, r3, lsr #3
	mov	r3, r2, asl #3
	add	r3, r3, r2, lsl #1
	cmp	r4, r3
	add	r4, r4, #1
	bne	.L292
	ldr	r1, .L296+8
	mov	r0, #1
	bl	dprint_vfmw
	ldr	r3, [r7, #168]
	add	r3, r3, #1
	cmp	r3, r4
	bhi	.L293
.L294:
	ldr	r1, .L296+8
	mov	r0, #1
	bl	dprint_vfmw
	ldr	r1, .L296+12
	mov	r0, #1
	sub	sp, fp, #28
	ldmfd	sp, {r4, r5, r6, r7, fp, sp, lr}
	b	dprint_vfmw
.L297:
	.align	2
.L296:
	.word	.LC16
	.word	.LC19
	.word	.LC17
	.word	.LC18
	UNWIND(.fnend)
	.size	HEVC_PrintNaluArraySlot, .-HEVC_PrintNaluArraySlot
	.align	2
	.global	HEVC_PrintCurrSlicelistX
	.type	HEVC_PrintCurrSlicelistX, %function
HEVC_PrintCurrSlicelistX:
	UNWIND(.fnstart)
	@ args = 0, pretend = 0, frame = 0
	@ frame_needed = 1, uses_anonymous_args = 0
	UNWIND(.movsp ip)
	mov	ip, sp
	stmfd	sp!, {r4, r5, r6, r7, fp, ip, lr, pc}
	UNWIND(.pad #4)
	UNWIND(.save {r4, r5, r6, r7, fp, ip, lr})
	UNWIND(.setfp fp, ip, #-4)
	sub	fp, ip, #4
	add	r6, r0, #4096
	mov	r7, r0
	ldr	r1, .L319
	mov	r0, #1
	bl	dprint_vfmw
	ldr	r2, [r6, #764]
	ldr	r1, .L319+4
	mov	r0, #1
	bl	dprint_vfmw
	ldr	r3, [r6, #764]
	cmp	r3, #0
	addne	r5, r7, #2848
	movne	r4, #0
	addne	r5, r5, #4
	beq	.L306
.L305:
	ldr	r3, [r5, #4]!
	mov	r2, r4
	ldr	r1, .L319+8
	mov	r0, #1
	bl	dprint_vfmw
	mov	r0, #1
	ldr	r3, [r5]
	add	r4, r4, r0
	ldr	r1, .L319+12
	cmp	r3, #0
	beq	.L303
	ldr	r2, [r3, #20]
	bl	dprint_vfmw
	ldr	r3, [r5]
	ldr	r3, [r3, #20]
	cmp	r3, #0
	beq	.L303
	ldr	r1, [r3, #28]
	ldr	r0, [r7, #276]
	bl	FSP_GetLogicFs
	ldr	r1, .L319+16
	mov	r2, r0
	mov	r0, #1
	bl	dprint_vfmw
.L303:
	ldr	r1, .L319+20
	mov	r0, #1
	bl	dprint_vfmw
	ldr	r3, [r6, #764]
	cmp	r3, r4
	bhi	.L305
.L306:
	ldr	r2, [r6, #768]
	mov	r0, #1
	ldr	r1, .L319+24
	bl	dprint_vfmw
	ldr	r3, [r6, #768]
	cmp	r3, #0
	addne	r5, r7, #2912
	movne	r4, #0
	addne	r5, r5, #8
	beq	.L301
.L310:
	ldr	r3, [r5, #4]!
	mov	r2, r4
	ldr	r1, .L319+28
	mov	r0, #1
	bl	dprint_vfmw
	mov	r0, #1
	ldr	r3, [r5]
	add	r4, r4, r0
	ldr	r1, .L319+12
	cmp	r3, #0
	beq	.L308
	ldr	r2, [r3, #20]
	bl	dprint_vfmw
	ldr	r3, [r5]
	ldr	r3, [r3, #20]
	cmp	r3, #0
	beq	.L308
	ldr	r1, [r3, #28]
	ldr	r0, [r7, #276]
	bl	FSP_GetLogicFs
	ldr	r1, .L319+16
	mov	r2, r0
	mov	r0, #1
	bl	dprint_vfmw
.L308:
	ldr	r1, .L319+20
	mov	r0, #1
	bl	dprint_vfmw
	ldr	r3, [r6, #768]
	cmp	r3, r4
	bhi	.L310
.L301:
	ldr	r1, .L319+32
	mov	r0, #1
	sub	sp, fp, #28
	ldmfd	sp, {r4, r5, r6, r7, fp, sp, lr}
	b	dprint_vfmw
.L320:
	.align	2
.L319:
	.word	.LC20
	.word	.LC21
	.word	.LC23
	.word	.LC24
	.word	.LC25
	.word	.LC17
	.word	.LC22
	.word	.LC27
	.word	.LC26
	UNWIND(.fnend)
	.size	HEVC_PrintCurrSlicelistX, .-HEVC_PrintCurrSlicelistX
	.align	2
	.global	HEVC_PrintFrameStoreState
	.type	HEVC_PrintFrameStoreState, %function
HEVC_PrintFrameStoreState:
	UNWIND(.fnstart)
	@ args = 0, pretend = 0, frame = 0
	@ frame_needed = 1, uses_anonymous_args = 0
	UNWIND(.movsp ip)
	mov	ip, sp
	stmfd	sp!, {r4, r5, r6, r7, r8, r9, r10, fp, ip, lr, pc}
	UNWIND(.pad #4)
	UNWIND(.save {r4, r5, r6, r7, r8, r9, r10, fp, ip, lr})
	UNWIND(.setfp fp, ip, #-4)
	sub	fp, ip, #4
	UNWIND(.pad #20)
	sub	sp, sp, #20
	ldr	r1, .L328
	mov	r10, r0
	mov	r0, #1
	bl	dprint_vfmw
	ldr	r3, [r10, #180]
	cmp	r3, #0
	addne	r8, r10, #13696
	movne	r9, #0
	addne	r8, r8, #16
	beq	.L325
.L324:
	ldrb	ip, [r8, #2]	@ zero_extendqisi2
	mov	r3, r8
	mov	r2, r9
	ldr	r1, .L328+4
	mov	r0, #1
	add	r5, r8, #616
	str	ip, [sp, #8]
	mov	r4, #0
	ldrb	ip, [r8, #1]	@ zero_extendqisi2
	str	ip, [sp, #4]
	ldr	ip, [r8, #48]
	str	ip, [sp]
	bl	dprint_vfmw
.L323:
	ldrd	r6, [r5, #8]!
	mov	r2, r4
	ldr	r1, .L328+8
	add	r4, r4, #1
	mov	r0, #1
	strd	r6, [sp]
	bl	dprint_vfmw
	cmp	r4, #4
	bne	.L323
	ldr	r1, .L328+12
	mov	r0, #1
	bl	dprint_vfmw
	ldr	r3, [r10, #180]
	add	r9, r9, #1
	add	r8, r8, #712
	cmp	r3, r9
	bhi	.L324
.L325:
	ldr	r1, .L328+16
	mov	r0, #1
	sub	sp, fp, #40
	ldmfd	sp, {r4, r5, r6, r7, r8, r9, r10, fp, sp, lr}
	b	dprint_vfmw
.L329:
	.align	2
.L328:
	.word	.LC28
	.word	.LC30
	.word	.LC31
	.word	.LC17
	.word	.LC29
	UNWIND(.fnend)
	.size	HEVC_PrintFrameStoreState, .-HEVC_PrintFrameStoreState
	.align	2
	.global	HEVC_PrintAPCState
	.type	HEVC_PrintAPCState, %function
HEVC_PrintAPCState:
	UNWIND(.fnstart)
	@ args = 0, pretend = 0, frame = 0
	@ frame_needed = 1, uses_anonymous_args = 0
	UNWIND(.movsp ip)
	mov	ip, sp
	stmfd	sp!, {r4, r5, r6, r7, fp, ip, lr, pc}
	UNWIND(.pad #4)
	UNWIND(.save {r4, r5, r6, r7, fp, ip, lr})
	UNWIND(.setfp fp, ip, #-4)
	sub	fp, ip, #4
	UNWIND(.pad #8)
	sub	sp, sp, #8
	ldr	r1, .L335
	mov	r6, r0
	mov	r0, #1
	bl	dprint_vfmw
	add	r6, r6, #13120
	add	r6, r6, #32
	mov	r7, #0
.L332:
	ldr	ip, [r6, #-4]
	mov	r2, r7
	ldr	r3, [r6]
	mov	r0, #1
	ldr	r1, .L335+4
	mov	r5, r6
	str	ip, [sp]
	mov	r4, #0
	bl	dprint_vfmw
.L331:
	ldr	r3, [r5, #4]!
	mov	r2, r4
	ldr	r1, .L335+8
	add	r4, r4, #1
	mov	r0, #1
	ldr	ip, [r5, #128]
	str	ip, [sp, #4]
	ldr	ip, [r5, #64]
	str	ip, [sp]
	bl	dprint_vfmw
	cmp	r4, #16
	bne	.L331
	add	r7, r7, #1
	add	r6, r6, #280
	cmp	r7, #2
	bne	.L332
	ldr	r1, .L335+12
	mov	r0, #1
	sub	sp, fp, #28
	ldmfd	sp, {r4, r5, r6, r7, fp, sp, lr}
	b	dprint_vfmw
.L336:
	.align	2
.L335:
	.word	.LC32
	.word	.LC33
	.word	.LC34
	.word	.LC35
	UNWIND(.fnend)
	.size	HEVC_PrintAPCState, .-HEVC_PrintAPCState
	.align	2
	.global	HEVC_PrintDPBState
	.type	HEVC_PrintDPBState, %function
HEVC_PrintDPBState:
	UNWIND(.fnstart)
	@ args = 0, pretend = 0, frame = 24
	@ frame_needed = 1, uses_anonymous_args = 0
	UNWIND(.movsp ip)
	mov	ip, sp
	stmfd	sp!, {r4, r5, r6, r7, r8, r9, r10, fp, ip, lr, pc}
	UNWIND(.pad #4)
	UNWIND(.save {r4, r5, r6, r7, r8, r9, r10, fp, ip, lr})
	UNWIND(.setfp fp, ip, #-4)
	sub	fp, ip, #4
	UNWIND(.pad #76)
	sub	sp, sp, #76
	ldr	r1, .L353
	mov	r9, r0
	mov	r0, #1
	bl	dprint_vfmw
	ldr	r1, [r9, #3040]
	ldr	lr, [r9, #3036]
	mov	r0, #1
	ldr	ip, [r9, #3044]
	ldr	r3, [r9, #3028]
	ldr	r2, [r9, #3024]
	stmia	sp, {r1, ip, lr}
	ldr	r1, .L353+4
	bl	dprint_vfmw
	ldr	r3, [r9, #3028]
	cmp	r3, #0
	addne	r4, r9, #3184
	movne	r5, #0
	addne	r4, r4, #8
	beq	.L342
.L341:
	ldr	r3, [r4, #4]!
	ldr	r0, [r9, #276]
	ldrb	ip, [r3]	@ zero_extendqisi2
	ldr	r2, [r3, #32]
	ldr	lr, [r3, #48]
	ldrb	r6, [r3, #1]	@ zero_extendqisi2
	str	ip, [fp, #-52]
	ldr	ip, [r3, #60]
	ldr	r1, [r3, #28]
	str	r2, [fp, #-48]
	str	lr, [fp, #-56]
	ldrb	r8, [r3, #2]	@ zero_extendqisi2
	str	ip, [fp, #-64]
	ldr	r10, [r3, #8]
	str	r6, [fp, #-60]
	bl	FSP_GetLogicFs
	ldr	r3, [r4]
	ldr	r1, [r3, #28]
	mov	r6, r0
	ldr	r0, [r9, #276]
	bl	FSP_GetRef
	ldr	r3, [r4]
	ldr	r1, [r3, #28]
	mov	r7, r0
	ldr	r0, [r9, #276]
	bl	FSP_GetDisplay
	ldr	r1, [r4]
	ldr	ip, [fp, #-64]
	mov	r2, r5
	add	r5, r5, #1
	ldr	lr, [r1, #228]
	mov	r3, r1
	str	lr, [sp, #44]
	ldr	r1, [r1, #28]
	ldr	lr, [fp, #-56]
	str	ip, [sp, #24]
	str	r1, [sp, #40]
	str	r8, [sp, #16]
	ldr	r1, [fp, #-48]
	ldr	r8, [fp, #-60]
	ldr	ip, [fp, #-52]
	str	r1, [sp]
	str	r10, [sp, #20]
	str	r8, [sp, #12]
	str	lr, [sp, #8]
	str	ip, [sp, #4]
	str	r7, [sp, #32]
	str	r6, [sp, #28]
	ldr	r1, .L353+8
	str	r0, [sp, #36]
	mov	r0, #1
	bl	dprint_vfmw
	ldr	r3, [r9, #3028]
	cmp	r3, r5
	bhi	.L341
.L342:
	ldr	r1, .L353+12
	mov	r0, #1
	bl	dprint_vfmw
	ldr	r3, [r9, #3028]
	cmp	r3, #0
	addne	r5, r9, #3184
	movne	r6, #0
	addne	r5, r5, #8
	bne	.L349
	b	.L340
.L352:
	bl	dprint_vfmw
	ldr	r2, [r4, #20]
	ldr	r1, .L353+16
	mov	r0, #1
	bl	dprint_vfmw
	ldrsb	r2, [r4]
	ldr	r1, .L353+20
	mov	r0, #1
	bl	dprint_vfmw
	ldrsb	r2, [r4, #1]
	ldr	r1, .L353+24
	mov	r0, #1
	bl	dprint_vfmw
.L344:
	cmp	r8, #0
	mov	r2, r8
	ldr	r1, .L353+28
	mov	r0, #1
	beq	.L345
	bl	dprint_vfmw
	ldr	r2, [r8, #72]
	ldr	r1, .L353+32
	mov	r0, #1
	bl	dprint_vfmw
.L346:
	cmp	r7, #0
	mov	r2, r7
	ldr	r1, .L353+36
	mov	r0, #1
	beq	.L347
	bl	dprint_vfmw
	ldr	r2, [r7, #72]
	ldr	r1, .L353+40
	mov	r0, #1
	bl	dprint_vfmw
.L348:
	ldr	r1, .L353+12
	mov	r0, #1
	bl	dprint_vfmw
	ldr	r3, [r9, #3028]
	add	r6, r6, #1
	cmp	r3, r6
	bls	.L340
.L349:
	ldr	r3, [r5, #4]!
	ldr	r0, [r9, #276]
	ldr	r1, [r3, #28]
	bl	FSP_GetLogicFs
	ldr	r3, [r5]
	ldr	r1, [r3, #28]
	mov	r4, r0
	ldr	r0, [r9, #276]
	bl	FSP_GetDecPhyFs
	ldr	r3, [r5]
	ldr	r1, [r3, #28]
	mov	r8, r0
	ldr	r0, [r9, #276]
	bl	FSP_GetDispPhyFs
	mov	r2, r6
	ldr	r1, .L353+44
	mov	r7, r0
	mov	r0, #1
	bl	dprint_vfmw
	cmp	r4, #0
	mov	r2, r4
	ldr	r1, .L353+48
	mov	r0, #1
	bne	.L352
	ldr	r1, .L353+52
	mov	r0, #1
	bl	dprint_vfmw
	b	.L344
.L347:
	ldr	r1, .L353+56
	mov	r0, #1
	bl	dprint_vfmw
	b	.L348
.L345:
	ldr	r1, .L353+60
	mov	r0, #1
	bl	dprint_vfmw
	b	.L346
.L340:
	ldr	r1, .L353+64
	mov	r0, #1
	sub	sp, fp, #40
	ldmfd	sp, {r4, r5, r6, r7, r8, r9, r10, fp, sp, lr}
	b	dprint_vfmw
.L354:
	.align	2
.L353:
	.word	.LC36
	.word	.LC37
	.word	.LC38
	.word	.LC17
	.word	.LC42
	.word	.LC43
	.word	.LC44
	.word	.LC46
	.word	.LC47
	.word	.LC49
	.word	.LC50
	.word	.LC40
	.word	.LC41
	.word	.LC45
	.word	.LC51
	.word	.LC48
	.word	.LC39
	UNWIND(.fnend)
	.size	HEVC_PrintDPBState, .-HEVC_PrintDPBState
	.align	2
	.global	HEVC_IsSliceUnit
	.type	HEVC_IsSliceUnit, %function
HEVC_IsSliceUnit:
	UNWIND(.fnstart)
	@ args = 0, pretend = 0, frame = 0
	@ frame_needed = 1, uses_anonymous_args = 0
	UNWIND(.movsp ip)
	mov	ip, sp
	stmfd	sp!, {fp, ip, lr, pc}
	UNWIND(.pad #4)
	UNWIND(.save {fp, ip, lr})
	UNWIND(.setfp fp, ip, #-4)
	sub	fp, ip, #4
	cmp	r0, #9
	bls	.L357
	sub	r0, r0, #16
	cmp	r0, #5
	movhi	r0, #0
	movls	r0, #1
	ldmfd	sp, {fp, sp, pc}
.L357:
	mov	r0, #1
	ldmfd	sp, {fp, sp, pc}
	UNWIND(.fnend)
	.size	HEVC_IsSliceUnit, .-HEVC_IsSliceUnit
	.align	2
	.global	HEVC_IsIUnit
	.type	HEVC_IsIUnit, %function
HEVC_IsIUnit:
	UNWIND(.fnstart)
	@ args = 0, pretend = 0, frame = 0
	@ frame_needed = 1, uses_anonymous_args = 0
	UNWIND(.movsp ip)
	mov	ip, sp
	stmfd	sp!, {fp, ip, lr, pc}
	UNWIND(.pad #4)
	UNWIND(.save {fp, ip, lr})
	UNWIND(.setfp fp, ip, #-4)
	sub	fp, ip, #4
	sub	r0, r0, #16
	cmp	r0, #5
	movhi	r0, #0
	movls	r0, #1
	ldmfd	sp, {fp, sp, pc}
	UNWIND(.fnend)
	.size	HEVC_IsIUnit, .-HEVC_IsIUnit
	.align	2
	.global	HEVC_IsNonRefPic
	.type	HEVC_IsNonRefPic, %function
HEVC_IsNonRefPic:
	UNWIND(.fnstart)
	@ args = 0, pretend = 0, frame = 0
	@ frame_needed = 1, uses_anonymous_args = 0
	UNWIND(.movsp ip)
	mov	ip, sp
	stmfd	sp!, {fp, ip, lr, pc}
	UNWIND(.pad #4)
	UNWIND(.save {fp, ip, lr})
	UNWIND(.setfp fp, ip, #-4)
	sub	fp, ip, #4
	bics	r0, r0, #6
	subne	r0, r0, #8
	clzne	r0, r0
	movne	r0, r0, lsr #5
	moveq	r0, #1
	ldmfd	sp, {fp, sp, pc}
	UNWIND(.fnend)
	.size	HEVC_IsNonRefPic, .-HEVC_IsNonRefPic
	.align	2
	.global	HEVC_IsFlushUnit
	.type	HEVC_IsFlushUnit, %function
HEVC_IsFlushUnit:
	UNWIND(.fnstart)
	@ args = 0, pretend = 0, frame = 0
	@ frame_needed = 1, uses_anonymous_args = 0
	UNWIND(.movsp ip)
	mov	ip, sp
	stmfd	sp!, {fp, ip, lr, pc}
	UNWIND(.pad #4)
	UNWIND(.save {fp, ip, lr})
	UNWIND(.setfp fp, ip, #-4)
	sub	fp, ip, #4
	sub	r0, r0, #16
	cmp	r0, #4
	movhi	r0, #0
	movls	r0, #1
	ldmfd	sp, {fp, sp, pc}
	UNWIND(.fnend)
	.size	HEVC_IsFlushUnit, .-HEVC_IsFlushUnit
	.align	2
	.global	HEVC_IsPVRFlushPic
	.type	HEVC_IsPVRFlushPic, %function
HEVC_IsPVRFlushPic:
	UNWIND(.fnstart)
	@ args = 0, pretend = 0, frame = 0
	@ frame_needed = 1, uses_anonymous_args = 0
	UNWIND(.movsp ip)
	mov	ip, sp
	stmfd	sp!, {fp, ip, lr, pc}
	UNWIND(.pad #4)
	UNWIND(.save {fp, ip, lr})
	UNWIND(.setfp fp, ip, #-4)
	sub	fp, ip, #4
	add	r3, r0, #4096
	ldr	r3, [r3, #16]
	cmp	r3, #0
	bne	.L365
	ldr	r2, [r0, #2844]
	ldr	r1, [r2, #652]
	cmp	r1, #1
	beq	.L369
.L367:
	mov	r0, r3
	ldmfd	sp, {fp, sp, pc}
.L365:
	mov	r0, #0
	ldmfd	sp, {fp, sp, pc}
.L369:
	ldr	r0, [r2, #648]
	cmp	r0, #0
	bne	.L367
	ldr	r3, [r2, #656]
	cmp	r3, #0
	ldmnefd	sp, {fp, sp, pc}
	ldr	r3, [r2, #612]
	add	r3, r3, #1024
	cmp	r3, #2048
	movls	r0, #0
	movhi	r0, #1
	ldmfd	sp, {fp, sp, pc}
	UNWIND(.fnend)
	.size	HEVC_IsPVRFlushPic, .-HEVC_IsPVRFlushPic
	.align	2
	.global	HEVC_IsEosNal
	.type	HEVC_IsEosNal, %function
HEVC_IsEosNal:
	UNWIND(.fnstart)
	@ args = 0, pretend = 0, frame = 0
	@ frame_needed = 1, uses_anonymous_args = 0
	UNWIND(.movsp ip)
	mov	ip, sp
	stmfd	sp!, {r4, r5, fp, ip, lr, pc}
	UNWIND(.pad #4)
	UNWIND(.save {r4, r5, fp, ip, lr})
	UNWIND(.setfp fp, ip, #-4)
	sub	fp, ip, #4
	mov	r1, #32
	mov	r4, r0
	ldr	r0, [r0, #2796]
	bl	BsGet
	mov	r1, #32
	mov	r5, r0
	ldr	r0, [r4, #2796]
	bl	BsGet
	movw	r2, #20036
	movw	r3, #20553
	movt	r2, 17221
	movt	r3, 18515
	cmp	r0, r2
	cmpeq	r5, r3
	moveq	r0, #1
	movne	r0, #0
	ldmfd	sp, {r4, r5, fp, sp, pc}
	UNWIND(.fnend)
	.size	HEVC_IsEosNal, .-HEVC_IsEosNal
	.align	2
	.global	HEVC_CalcTileInfo
	.type	HEVC_CalcTileInfo, %function
HEVC_CalcTileInfo:
	UNWIND(.fnstart)
	@ args = 0, pretend = 0, frame = 8
	@ frame_needed = 1, uses_anonymous_args = 0
	UNWIND(.movsp ip)
	mov	ip, sp
	stmfd	sp!, {r4, r5, r6, r7, r8, r9, r10, fp, ip, lr, pc}
	UNWIND(.pad #4)
	UNWIND(.save {r4, r5, r6, r7, r8, r9, r10, fp, ip, lr})
	UNWIND(.setfp fp, ip, #-4)
	sub	fp, ip, #4
	UNWIND(.pad #20)
	sub	sp, sp, #20
	mov	r8, r1
	ldr	r1, [r0, #2832]
	mov	r6, r2
	ldr	r2, [r0, #2828]
	mov	r5, r0
	str	r3, [fp, #-48]
	ldr	r7, [r1, #68]
	ldr	r2, [r2, #128]
	sub	r3, r7, #1
	ldr	r9, [r1, #72]
	cmp	r3, #9
	str	r2, [fp, #-52]
	bhi	.L399
	sub	r3, r9, #1
	cmp	r3, #10
	bhi	.L400
	ldr	r4, .L401
	mov	r2, #512
	mov	r1, #0
	mov	r0, r8
	ldr	r3, [r4, #48]
	blx	r3
	ldr	r3, [r4, #48]
	mov	r2, #80
	mov	r1, #0
	mov	r0, r6
	blx	r3
	ldr	r3, [r4, #48]
	mov	r2, #88
	mov	r1, #0
	ldr	r0, [fp, #-48]
	blx	r3
	cmp	r7, #0
	ble	.L380
	ldr	r3, [fp, #-52]
	mov	r2, #0
	mov	r1, r2
	mov	r0, r6
	sub	r10, r3, #4
.L379:
	str	r2, [r6, r1, asl #3]
	mov	r3, r2, asl r10
	ldr	ip, [r5, #2832]
	add	ip, ip, r1, lsl #1
	ldrsh	ip, [ip, #172]
	add	r2, ip, r2
	sub	ip, r2, #1
	str	ip, [r0, #4]
	mov	lr, r2, asl r10
	cmp	r3, lr
	bge	.L385
	cmp	r3, #255
	bhi	.L381
	uxtb	r4, r1
	add	ip, r8, r3
	b	.L383
.L384:
	cmp	r3, #256
	beq	.L381
.L383:
	add	r3, r3, #1
	strb	r4, [ip], #1
	cmp	r3, lr
	bne	.L384
.L385:
	add	r1, r1, #1
	add	r0, r0, #8
	cmp	r1, r7
	bne	.L379
.L380:
	cmp	r9, #0
	ble	.L377
	ldr	r3, [fp, #-52]
	mov	ip, #0
	ldr	r7, [fp, #-48]
	mov	lr, ip
	sub	r4, r3, #4
	mov	r6, r7
.L387:
	str	ip, [r7, lr, asl #3]
	mov	r3, ip, asl r4
	ldr	r2, [r5, #2832]
	add	r2, r2, lr, lsl #1
	ldrsh	r2, [r2, #212]
	add	ip, r2, ip
	sub	r2, ip, #1
	str	r2, [r6, #4]
	mov	r1, ip, asl r4
	cmp	r3, r1
	bge	.L392
	cmp	r3, #255
	bhi	.L388
	add	r2, r3, #255
	uxtb	r0, lr
	add	r2, r8, r2
	b	.L390
.L391:
	cmp	r3, #256
	beq	.L388
.L390:
	add	r3, r3, #1
	strb	r0, [r2, #1]!
	cmp	r3, r1
	bne	.L391
.L392:
	add	lr, lr, #1
	add	r6, r6, #8
	cmp	lr, r9
	bne	.L387
.L377:
	mov	r0, #0
	b	.L373
.L381:
	ldr	r2, .L401+4
	mov	r0, #1
	ldr	r1, .L401+8
	bl	dprint_vfmw
	mvn	r0, #0
.L373:
	sub	sp, fp, #40
	ldmfd	sp, {r4, r5, r6, r7, r8, r9, r10, fp, sp, pc}
.L388:
	ldr	r2, .L401+4
	mov	r0, #1
	ldr	r1, .L401+12
	bl	dprint_vfmw
	mvn	r0, #0
	b	.L373
.L400:
	mov	r1, #11
	mov	r3, r9
	str	r1, [sp]
	mov	r0, #1
	ldr	r2, .L401+4
	ldr	r1, .L401+16
	bl	dprint_vfmw
	mvn	r0, #0
	b	.L373
.L399:
	mov	r1, #10
	mov	r3, r7
	str	r1, [sp]
	mov	r0, #1
	ldr	r2, .L401+4
	ldr	r1, .L401+20
	bl	dprint_vfmw
	mvn	r0, #0
	b	.L373
.L402:
	.align	2
.L401:
	.word	vfmw_Osal_Func_Ptr_S
	.word	.LANCHOR0+260
	.word	.LC54
	.word	.LC55
	.word	.LC53
	.word	.LC52
	UNWIND(.fnend)
	.size	HEVC_CalcTileInfo, .-HEVC_CalcTileInfo
	.align	2
	.global	HEVC_Sei_More_Data_In_Payload
	.type	HEVC_Sei_More_Data_In_Payload, %function
HEVC_Sei_More_Data_In_Payload:
	UNWIND(.fnstart)
	@ args = 0, pretend = 0, frame = 0
	@ frame_needed = 1, uses_anonymous_args = 0
	UNWIND(.movsp ip)
	mov	ip, sp
	stmfd	sp!, {r4, r5, fp, ip, lr, pc}
	UNWIND(.pad #4)
	UNWIND(.save {r4, r5, fp, ip, lr})
	UNWIND(.setfp fp, ip, #-4)
	sub	fp, ip, #4
	ldr	r2, [r0, #2796]
	mov	r5, r1
	ldr	r3, [r2, #24]
	mov	r0, r2
	ldr	r4, [r2, #28]
	rsb	r4, r4, r3
	bl	BsIsByteAligned
	cmp	r4, r5, asl #3
	movne	r3, #1
	moveq	r3, #0
	cmp	r0, #0
	moveq	r0, #0
	andne	r0, r3, #1
	eor	r0, r0, #1
	ldmfd	sp, {r4, r5, fp, sp, pc}
	UNWIND(.fnend)
	.size	HEVC_Sei_More_Data_In_Payload, .-HEVC_Sei_More_Data_In_Payload
	.align	2
	.global	HEVC_Sei_Payload_Extension_Present
	.type	HEVC_Sei_Payload_Extension_Present, %function
HEVC_Sei_Payload_Extension_Present:
	UNWIND(.fnstart)
	@ args = 0, pretend = 0, frame = 32
	@ frame_needed = 1, uses_anonymous_args = 0
	UNWIND(.movsp ip)
	mov	ip, sp
	stmfd	sp!, {r4, r5, fp, ip, lr, pc}
	UNWIND(.pad #4)
	UNWIND(.save {r4, r5, fp, ip, lr})
	UNWIND(.setfp fp, ip, #-4)
	sub	fp, ip, #4
	UNWIND(.pad #32)
	sub	sp, sp, #32
	ldr	r3, .L411
	mov	r5, r1
	mov	r2, #32
	ldr	r1, [r0, #2796]
	sub	r0, fp, #52
	ldr	r3, [r3, #52]
	mov	r5, r5, asl #3
	blx	r3
	ldr	r3, [fp, #-28]
	ldr	r2, [fp, #-24]
	rsb	r3, r2, r3
	cmp	r3, r5
	movcs	r0, #0
	bcc	.L410
.L405:
	sub	sp, fp, #20
	ldmfd	sp, {r4, r5, fp, sp, pc}
.L410:
	mov	r1, #1
	sub	r0, fp, #52
	bl	BsShow
	cmp	r0, #0
	moveq	r0, #1
	beq	.L405
	mov	r1, #1
	sub	r0, fp, #52
	bl	BsSkip
	ldr	r3, [fp, #-28]
	ldr	r4, [fp, #-24]
	rsb	r4, r4, r3
	b	.L406
.L407:
	bl	BsSkip
	ldr	r3, [fp, #-28]
	ldr	r4, [fp, #-24]
	rsb	r4, r4, r3
.L406:
	mov	r1, #1
	sub	r0, fp, #52
	bl	BsShow
	cmp	r4, r5
	mov	r1, #1
	movcs	r3, #0
	movcc	r3, #1
	cmp	r0, #0
	movne	r2, #0
	andeq	r2, r3, #1
	sub	r0, fp, #52
	cmp	r2, #0
	bne	.L407
	mov	r0, r3
	sub	sp, fp, #20
	ldmfd	sp, {r4, r5, fp, sp, pc}
.L412:
	.align	2
.L411:
	.word	vfmw_Osal_Func_Ptr_S
	UNWIND(.fnend)
	.size	HEVC_Sei_Payload_Extension_Present, .-HEVC_Sei_Payload_Extension_Present
	.align	2
	.global	HEVC_Sei_Decoded_Picture_Hash
	.type	HEVC_Sei_Decoded_Picture_Hash, %function
HEVC_Sei_Decoded_Picture_Hash:
	UNWIND(.fnstart)
	@ args = 0, pretend = 0, frame = 0
	@ frame_needed = 1, uses_anonymous_args = 0
	UNWIND(.movsp ip)
	mov	ip, sp
	stmfd	sp!, {r4, r5, r6, r7, fp, ip, lr, pc}
	UNWIND(.pad #4)
	UNWIND(.save {r4, r5, r6, r7, fp, ip, lr})
	UNWIND(.setfp fp, ip, #-4)
	sub	fp, ip, #4
	cmp	r1, #0
	cmpne	r0, #0
	mov	r5, r0
	beq	.L421
	mov	r1, #8
	ldr	r0, [r0, #2796]
	bl	BsGet
	mov	r6, #3
	mov	r7, r0
.L420:
	cmp	r7, #0
	bne	.L415
	mov	r4, #16
.L416:
	mov	r1, #8
	ldr	r0, [r5, #2796]
	bl	BsGet
	subs	r4, r4, #1
	bne	.L416
.L417:
	subs	r6, r6, #1
	bne	.L420
.L425:
	mov	r0, r6
	ldmfd	sp, {r4, r5, r6, r7, fp, sp, pc}
.L415:
	cmp	r7, #1
	beq	.L424
	cmp	r7, #2
	bne	.L417
	mov	r1, #32
	ldr	r0, [r5, #2796]
	bl	BsGet
	subs	r6, r6, #1
	bne	.L420
	b	.L425
.L424:
	mov	r1, #16
	ldr	r0, [r5, #2796]
	bl	BsGet
	subs	r6, r6, #1
	bne	.L420
	b	.L425
.L421:
	mvn	r0, #0
	ldmfd	sp, {r4, r5, r6, r7, fp, sp, pc}
	UNWIND(.fnend)
	.size	HEVC_Sei_Decoded_Picture_Hash, .-HEVC_Sei_Decoded_Picture_Hash
	.align	2
	.global	HEVC_Sei_Region_Refresh_Info
	.type	HEVC_Sei_Region_Refresh_Info, %function
HEVC_Sei_Region_Refresh_Info:
	UNWIND(.fnstart)
	@ args = 0, pretend = 0, frame = 0
	@ frame_needed = 1, uses_anonymous_args = 0
	UNWIND(.movsp ip)
	mov	ip, sp
	stmfd	sp!, {r4, r5, fp, ip, lr, pc}
	UNWIND(.pad #4)
	UNWIND(.save {r4, r5, fp, ip, lr})
	UNWIND(.setfp fp, ip, #-4)
	sub	fp, ip, #4
	cmp	r1, #0
	cmpne	r0, #0
	moveq	r4, #1
	movne	r4, #0
	beq	.L428
	mov	r1, #1
	ldr	r0, [r0, #2796]
	bl	BsGet
	mov	r0, r4
	ldmfd	sp, {r4, r5, fp, sp, pc}
.L428:
	mvn	r0, #0
	ldmfd	sp, {r4, r5, fp, sp, pc}
	UNWIND(.fnend)
	.size	HEVC_Sei_Region_Refresh_Info, .-HEVC_Sei_Region_Refresh_Info
	.align	2
	.global	HEVC_Sei_Mastering_Display_Colour_Volume
	.type	HEVC_Sei_Mastering_Display_Colour_Volume, %function
HEVC_Sei_Mastering_Display_Colour_Volume:
	UNWIND(.fnstart)
	@ args = 0, pretend = 0, frame = 0
	@ frame_needed = 1, uses_anonymous_args = 0
	UNWIND(.movsp ip)
	mov	ip, sp
	stmfd	sp!, {r4, r5, r6, r7, fp, ip, lr, pc}
	UNWIND(.pad #4)
	UNWIND(.save {r4, r5, r6, r7, fp, ip, lr})
	UNWIND(.setfp fp, ip, #-4)
	sub	fp, ip, #4
	cmp	r1, #0
	cmpne	r0, #0
	mov	r5, r0
	mov	r6, r1
	beq	.L432
	add	r7, r1, #12
	mov	r4, r1
	mov	r3, #1
	strb	r3, [r1]
.L431:
	mov	r1, #16
	ldr	r0, [r5, #2796]
	bl	BsGet
	mov	r1, #16
	str	r0, [r4, #4]!
	ldr	r0, [r5, #2796]
	bl	BsGet
	cmp	r4, r7
	str	r0, [r4, #12]
	bne	.L431
	mov	r1, #16
	ldr	r0, [r5, #2796]
	bl	BsGet
	mov	r1, #16
	str	r0, [r6, #28]
	ldr	r0, [r5, #2796]
	bl	BsGet
	mov	r1, #32
	str	r0, [r6, #32]
	ldr	r0, [r5, #2796]
	bl	BsGet
	mov	r1, #32
	str	r0, [r6, #36]
	ldr	r0, [r5, #2796]
	bl	BsGet
	mov	r3, #0
	str	r0, [r6, #40]
.L430:
	mov	r0, r3
	ldmfd	sp, {r4, r5, r6, r7, fp, sp, pc}
.L432:
	mvn	r3, #0
	b	.L430
	UNWIND(.fnend)
	.size	HEVC_Sei_Mastering_Display_Colour_Volume, .-HEVC_Sei_Mastering_Display_Colour_Volume
	.align	2
	.global	HEVC_Sei_Content_Light_Level_Information
	.type	HEVC_Sei_Content_Light_Level_Information, %function
HEVC_Sei_Content_Light_Level_Information:
	UNWIND(.fnstart)
	@ args = 0, pretend = 0, frame = 0
	@ frame_needed = 1, uses_anonymous_args = 0
	UNWIND(.movsp ip)
	mov	ip, sp
	stmfd	sp!, {r4, r5, r6, r7, fp, ip, lr, pc}
	UNWIND(.pad #4)
	UNWIND(.save {r4, r5, r6, r7, fp, ip, lr})
	UNWIND(.setfp fp, ip, #-4)
	sub	fp, ip, #4
	cmp	r1, #0
	cmpne	r0, #0
	mov	r6, r0
	mov	r5, r1
	moveq	r4, #1
	movne	r4, #0
	beq	.L436
	mov	r3, #1
	mov	r1, #16
	strb	r3, [r5]
	ldr	r0, [r0, #2796]
	bl	BsGet
	mov	r1, #16
	strh	r0, [r5, #2]	@ movhi
	ldr	r0, [r6, #2796]
	bl	BsGet
	mov	r3, r4
	strh	r0, [r5, #4]	@ movhi
.L435:
	mov	r0, r3
	ldmfd	sp, {r4, r5, r6, r7, fp, sp, pc}
.L436:
	mvn	r3, #0
	b	.L435
	UNWIND(.fnend)
	.size	HEVC_Sei_Content_Light_Level_Information, .-HEVC_Sei_Content_Light_Level_Information
	.align	2
	.global	HEVC_Sei_HLGHDR_Comapitibility_Info
	.type	HEVC_Sei_HLGHDR_Comapitibility_Info, %function
HEVC_Sei_HLGHDR_Comapitibility_Info:
	UNWIND(.fnstart)
	@ args = 0, pretend = 0, frame = 0
	@ frame_needed = 1, uses_anonymous_args = 0
	UNWIND(.movsp ip)
	mov	ip, sp
	stmfd	sp!, {r4, r5, fp, ip, lr, pc}
	UNWIND(.pad #4)
	UNWIND(.save {r4, r5, fp, ip, lr})
	UNWIND(.setfp fp, ip, #-4)
	sub	fp, ip, #4
	cmp	r1, #0
	cmpne	r0, #0
	mov	r5, r1
	moveq	r4, #1
	movne	r4, #0
	beq	.L439
	ldr	r0, [r0, #2796]
	mov	r1, #8
	bl	BsGet
	mov	r3, r4
	strb	r0, [r5]
.L438:
	mov	r0, r3
	ldmfd	sp, {r4, r5, fp, sp, pc}
.L439:
	mvn	r3, #0
	b	.L438
	UNWIND(.fnend)
	.size	HEVC_Sei_HLGHDR_Comapitibility_Info, .-HEVC_Sei_HLGHDR_Comapitibility_Info
	.align	2
	.global	HEVC_Sei_Temporal_Sub_Layer_Zero_Index
	.type	HEVC_Sei_Temporal_Sub_Layer_Zero_Index, %function
HEVC_Sei_Temporal_Sub_Layer_Zero_Index:
	UNWIND(.fnstart)
	@ args = 0, pretend = 0, frame = 0
	@ frame_needed = 1, uses_anonymous_args = 0
	UNWIND(.movsp ip)
	mov	ip, sp
	stmfd	sp!, {r4, r5, fp, ip, lr, pc}
	UNWIND(.pad #4)
	UNWIND(.save {r4, r5, fp, ip, lr})
	UNWIND(.setfp fp, ip, #-4)
	sub	fp, ip, #4
	cmp	r1, #0
	cmpne	r0, #0
	mov	r5, r0
	moveq	r4, #1
	movne	r4, #0
	beq	.L442
	mov	r1, #1
	ldr	r0, [r0, #2796]
	bl	BsGet
	mov	r1, #1
	ldr	r0, [r5, #2796]
	bl	BsGet
	ldr	r0, [r5, #2796]
	bl	BsToNextByte
	mov	r0, r4
	ldmfd	sp, {r4, r5, fp, sp, pc}
.L442:
	mvn	r0, #0
	ldmfd	sp, {r4, r5, fp, sp, pc}
	UNWIND(.fnend)
	.size	HEVC_Sei_Temporal_Sub_Layer_Zero_Index, .-HEVC_Sei_Temporal_Sub_Layer_Zero_Index
	.align	2
	.global	HEVC_Sei_Display_Orientation
	.type	HEVC_Sei_Display_Orientation, %function
HEVC_Sei_Display_Orientation:
	UNWIND(.fnstart)
	@ args = 0, pretend = 0, frame = 0
	@ frame_needed = 1, uses_anonymous_args = 0
	UNWIND(.movsp ip)
	mov	ip, sp
	stmfd	sp!, {r4, r5, fp, ip, lr, pc}
	UNWIND(.pad #4)
	UNWIND(.save {r4, r5, fp, ip, lr})
	UNWIND(.setfp fp, ip, #-4)
	sub	fp, ip, #4
	cmp	r1, #0
	cmpne	r0, #0
	mov	r4, r0
	beq	.L446
	mov	r1, #1
	ldr	r0, [r0, #2796]
	bl	BsGet
	tst	r0, #255
	beq	.L447
.L445:
	ldr	r0, [r4, #2796]
	bl	BsToNextByte
	mov	r0, #0
	ldmfd	sp, {r4, r5, fp, sp, pc}
.L447:
	mov	r1, #1
	ldr	r0, [r4, #2796]
	bl	BsGet
	mov	r1, #1
	ldr	r0, [r4, #2796]
	bl	BsGet
	mov	r1, #16
	ldr	r0, [r4, #2796]
	bl	BsGet
	mov	r1, #1
	ldr	r0, [r4, #2796]
	bl	BsGet
	b	.L445
.L446:
	mvn	r0, #0
	ldmfd	sp, {r4, r5, fp, sp, pc}
	UNWIND(.fnend)
	.size	HEVC_Sei_Display_Orientation, .-HEVC_Sei_Display_Orientation
	.align	2
	.global	HEVC_Sei_TSI
	.type	HEVC_Sei_TSI, %function
HEVC_Sei_TSI:
	UNWIND(.fnstart)
	@ args = 0, pretend = 0, frame = 0
	@ frame_needed = 1, uses_anonymous_args = 0
	UNWIND(.movsp ip)
	mov	ip, sp
	stmfd	sp!, {r4, r5, r6, r7, fp, ip, lr, pc}
	UNWIND(.pad #4)
	UNWIND(.save {r4, r5, r6, r7, fp, ip, lr})
	UNWIND(.setfp fp, ip, #-4)
	sub	fp, ip, #4
	cmp	r1, #0
	cmpne	r0, #0
	mov	r6, r0
	mov	r5, r1
	moveq	r4, #1
	movne	r4, #0
	beq	.L450
	mov	r1, #4
	ldr	r0, [r0, #2796]
	bl	BsGet
	mov	r1, #4
	strb	r0, [r5, #1]
	ldr	r0, [r6, #2796]
	bl	BsGet
	mov	r3, r4
	mov	r2, #1
	strb	r2, [r5]
	strb	r0, [r5, #2]
.L449:
	mov	r0, r3
	ldmfd	sp, {r4, r5, r6, r7, fp, sp, pc}
.L450:
	mvn	r3, #0
	b	.L449
	UNWIND(.fnend)
	.size	HEVC_Sei_TSI, .-HEVC_Sei_TSI
	.align	2
	.global	HEVC_Sei_User_Data_Unregistered
	.type	HEVC_Sei_User_Data_Unregistered, %function
HEVC_Sei_User_Data_Unregistered:
	UNWIND(.fnstart)
	@ args = 0, pretend = 0, frame = 0
	@ frame_needed = 1, uses_anonymous_args = 0
	UNWIND(.movsp ip)
	mov	ip, sp
	stmfd	sp!, {r4, r5, r6, r7, fp, ip, lr, pc}
	UNWIND(.pad #4)
	UNWIND(.save {r4, r5, r6, r7, fp, ip, lr})
	UNWIND(.setfp fp, ip, #-4)
	sub	fp, ip, #4
	cmp	r2, #15
	mov	r6, r2
	mov	r5, r0
	movhi	r4, #16
	bls	.L460
.L454:
	mov	r1, #8
	ldr	r0, [r5, #2796]
	bl	BsGet
	subs	r4, r4, #1
	bne	.L454
	subs	r6, r6, #16
	beq	.L456
.L455:
	add	r4, r4, #1
	mov	r1, #8
	ldr	r0, [r5, #2796]
	bl	BsGet
	cmp	r6, r4
	bne	.L455
.L456:
	mov	r0, #0
	ldmfd	sp, {r4, r5, r6, r7, fp, sp, pc}
.L460:
	ldr	r1, .L461
	mov	r0, #1
	bl	dprint_vfmw
	mvn	r0, #0
	ldmfd	sp, {r4, r5, r6, r7, fp, sp, pc}
.L462:
	.align	2
.L461:
	.word	.LC56
	UNWIND(.fnend)
	.size	HEVC_Sei_User_Data_Unregistered, .-HEVC_Sei_User_Data_Unregistered
	.align	2
	.global	HEVC_IsRefListWrong
	.type	HEVC_IsRefListWrong, %function
HEVC_IsRefListWrong:
	UNWIND(.fnstart)
	@ args = 0, pretend = 0, frame = 0
	@ frame_needed = 1, uses_anonymous_args = 0
	UNWIND(.movsp ip)
	mov	ip, sp
	stmfd	sp!, {r4, r5, r6, r7, fp, ip, lr, pc}
	UNWIND(.pad #4)
	UNWIND(.save {r4, r5, r6, r7, fp, ip, lr})
	UNWIND(.setfp fp, ip, #-4)
	sub	fp, ip, #4
	UNWIND(.pad #8)
	sub	sp, sp, #8
	add	r7, r0, #4096
	mov	r5, r0
	ldr	r3, [r7, #764]
	cmp	r3, #0
	beq	.L464
	ldr	r4, [r0, #2856]
	cmp	r4, #0
	beq	.L465
	ldr	r2, [r4, #20]
	cmp	r2, #0
	addne	r6, r0, #2848
	movne	r4, #0
	addne	r6, r6, #8
	bne	.L470
	b	.L508
.L471:
	ldr	r3, [ip, #28]
	cmp	r3, #0
	beq	.L472
	ldr	r3, [r7, #764]
	add	r4, r4, #1
	cmp	r4, r3
	bcs	.L509
	ldr	r2, [r6, #4]!
	cmp	r2, #0
	beq	.L465
	ldr	r2, [r2, #20]
	cmp	r2, #0
	beq	.L466
.L470:
	ldr	r1, [r2, #28]
	ldr	r0, [r5, #276]
	bl	FSP_GetLogicFs
	subs	ip, r0, #0
	bne	.L471
.L472:
	add	r3, r4, #712
	mov	r2, r4
	add	r3, r3, #2
	ldr	r1, .L513
	mov	r0, #1
	ldr	r3, [r5, r3, asl #2]
	ldr	r3, [r3, #20]
	str	ip, [sp]
	bl	dprint_vfmw
.L469:
	mvn	r0, #0
	sub	sp, fp, #28
	ldmfd	sp, {r4, r5, r6, r7, fp, sp, pc}
.L509:
	cmp	r3, #0
	beq	.L464
	ldr	r2, [r7, #768]
	cmp	r2, #0
	beq	.L464
	ldr	r4, [r5, #2924]
	cmp	r4, #0
	beq	.L477
	ldr	r2, [r4, #20]
	cmp	r2, #0
	addne	r6, r5, #2912
	movne	r4, #0
	addne	r6, r6, #12
	bne	.L481
	b	.L510
.L482:
	ldr	r3, [r0, #28]
	cmp	r3, #0
	beq	.L483
	ldr	r3, [r7, #768]
	add	r4, r4, #1
	cmp	r4, r3
	bcs	.L464
	ldr	r3, [r6, #4]!
	cmp	r3, #0
	beq	.L511
	ldr	r2, [r3, #20]
	cmp	r2, #0
	beq	.L512
.L481:
	ldr	r1, [r2, #28]
	ldr	r0, [r5, #276]
	bl	FSP_GetLogicFs
	cmp	r0, #0
	bne	.L482
.L483:
	mov	r3, r0
	mov	r2, r4
	ldr	r1, .L513+4
	mov	r0, #1
	bl	dprint_vfmw
	mvn	r0, #0
	b	.L503
.L464:
	mov	r0, #0
.L503:
	sub	sp, fp, #28
	ldmfd	sp, {r4, r5, r6, r7, fp, sp, pc}
.L465:
	mov	r2, r4
	ldr	r1, .L513+8
	mov	r0, #1
	bl	dprint_vfmw
	b	.L469
.L508:
	mov	r4, r2
.L466:
	mov	r2, r4
	ldr	r1, .L513+12
	mov	r0, #1
	bl	dprint_vfmw
	b	.L469
.L511:
	ldr	r3, [r7, #764]
.L477:
	mov	r2, r4
	ldr	r1, .L513+16
	mov	r0, #1
	bl	dprint_vfmw
	mvn	r0, #0
	b	.L503
.L512:
	ldr	r3, [r7, #764]
.L478:
	mov	r2, r4
	ldr	r1, .L513+20
	mov	r0, #1
	bl	dprint_vfmw
	mvn	r0, #0
	b	.L503
.L510:
	mov	r4, r2
	b	.L478
.L514:
	.align	2
.L513:
	.word	.LC59
	.word	.LC62
	.word	.LC57
	.word	.LC58
	.word	.LC60
	.word	.LC61
	UNWIND(.fnend)
	.size	HEVC_IsRefListWrong, .-HEVC_IsRefListWrong
	.align	2
	.global	HEVC_GetUnRefPicWithMinPoc
	.type	HEVC_GetUnRefPicWithMinPoc, %function
HEVC_GetUnRefPicWithMinPoc:
	UNWIND(.fnstart)
	@ args = 0, pretend = 0, frame = 0
	@ frame_needed = 1, uses_anonymous_args = 0
	UNWIND(.movsp ip)
	mov	ip, sp
	stmfd	sp!, {r4, fp, ip, lr, pc}
	UNWIND(.pad #4)
	UNWIND(.save {r4, fp, ip, lr})
	UNWIND(.setfp fp, ip, #-4)
	sub	fp, ip, #4
	UNWIND(.pad #12)
	sub	sp, sp, #12
	mvn	r4, #0
	str	r4, [r1]
	ldr	r3, [r0, #3028]
	cmp	r3, #16
	bhi	.L516
	cmp	r3, #0
	addne	ip, r0, #3184
	mvnne	r4, #-2147483648
	addne	ip, ip, #8
	movne	r3, #0
	beq	.L518
.L521:
	ldr	r2, [ip, #4]!
	ldr	lr, [r2, #8]
	cmp	lr, r4
	bge	.L520
	ldr	r2, [r2]
	bic	r2, r2, #-16777216
	bic	r2, r2, #255
	cmp	r2, #0
	streq	r3, [r1]
	moveq	r4, lr
.L520:
	ldr	r2, [r0, #3028]
	add	r3, r3, #1
	cmp	r2, r3
	bhi	.L521
	ldr	r3, [r1]
	cmn	r3, #1
	beq	.L518
	str	r4, [sp]
	mov	r0, #1
	ldr	r2, .L524
	ldr	r1, .L524+4
	bl	dprint_vfmw
	mov	r0, #0
.L519:
	sub	sp, fp, #16
	ldmfd	sp, {r4, fp, sp, pc}
.L516:
	ldr	r2, .L524
	mov	r0, #1
	ldr	r1, .L524+8
	bl	dprint_vfmw
	mov	r0, r4
	b	.L519
.L518:
	ldr	r2, .L524
	mov	r0, #1
	ldr	r1, .L524+12
	bl	dprint_vfmw
	mvn	r0, #0
	b	.L519
.L525:
	.align	2
.L524:
	.word	.LANCHOR0+280
	.word	.LC65
	.word	.LC63
	.word	.LC64
	UNWIND(.fnend)
	.size	HEVC_GetUnRefPicWithMinPoc, .-HEVC_GetUnRefPicWithMinPoc
	.align	2
	.global	HEVC_IncreaseDPBSize
	.type	HEVC_IncreaseDPBSize, %function
HEVC_IncreaseDPBSize:
	UNWIND(.fnstart)
	@ args = 0, pretend = 0, frame = 0
	@ frame_needed = 1, uses_anonymous_args = 0
	UNWIND(.movsp ip)
	mov	ip, sp
	stmfd	sp!, {r4, r5, fp, ip, lr, pc}
	UNWIND(.pad #4)
	UNWIND(.save {r4, r5, fp, ip, lr})
	UNWIND(.setfp fp, ip, #-4)
	sub	fp, ip, #4
	UNWIND(.pad #8)
	sub	sp, sp, #8
	ldr	r3, [r0, #3024]
	mov	r5, r0
	cmp	r3, #16
	bhi	.L530
	ldr	r0, [r0, #276]
	bl	FSP_GetTotalValidFsNum
	add	r3, r5, #4096
	ldr	r2, [r5, #276]
	ldr	r1, [r3, #24]
	mov	r4, r0
	ldr	r0, [r3, #20]
	bl	FSP_GetOccupiedNum
	rsb	r0, r0, r4
	bic	r2, r0, r0, asr #31
	cmp	r2, #0
	ble	.L529
	ldr	r3, [r5, #3024]
	add	r3, r3, #1
	cmp	r2, r3
	bcc	.L529
	str	r3, [r5, #3024]
	mov	r0, #13
	ldr	r2, .L531
	ldr	r1, .L531+4
	bl	dprint_vfmw
	mov	r0, #0
.L528:
	sub	sp, fp, #20
	ldmfd	sp, {r4, r5, fp, sp, pc}
.L529:
	mov	r3, r2
	ldr	r1, .L531+8
	ldr	r2, .L531
	mov	r0, #1
	bl	dprint_vfmw
	mvn	r0, #0
	b	.L528
.L530:
	mov	r4, #17
	ldr	r2, .L531
	mov	r0, #1
	str	r4, [sp]
	ldr	r1, .L531+12
	bl	dprint_vfmw
	str	r4, [r5, #3024]
	mvn	r0, #0
	b	.L528
.L532:
	.align	2
.L531:
	.word	.LANCHOR0+308
	.word	.LC67
	.word	.LC68
	.word	.LC66
	UNWIND(.fnend)
	.size	HEVC_IncreaseDPBSize, .-HEVC_IncreaseDPBSize
	.align	2
	.global	HEVC_PicTypeStatistic
	.type	HEVC_PicTypeStatistic, %function
HEVC_PicTypeStatistic:
	UNWIND(.fnstart)
	@ args = 0, pretend = 0, frame = 0
	@ frame_needed = 1, uses_anonymous_args = 0
	UNWIND(.movsp ip)
	mov	ip, sp
	stmfd	sp!, {fp, ip, lr, pc}
	UNWIND(.pad #4)
	UNWIND(.save {fp, ip, lr})
	UNWIND(.setfp fp, ip, #-4)
	sub	fp, ip, #4
	add	r0, r0, #4096
	ldr	r3, [r0, #724]
	sub	r2, r3, #16
	cmp	r2, #5
	bls	.L534
	ldr	r3, [r0, #4]
	sub	r3, r3, #16
	cmp	r3, #5
	bls	.L545
	ldr	r3, [r0, #716]
	cmp	r3, #1
	beq	.L537
	cmp	r3, #2
	beq	.L538
	cmp	r3, #0
	moveq	r3, #2
	streq	r3, [r0, #16]
	ldmfd	sp, {fp, sp, pc}
.L534:
	str	r3, [r0, #4]
	mov	r3, #0
	str	r3, [r0, #16]
	ldmfd	sp, {fp, sp, pc}
.L537:
	ldr	r2, [r0, #16]
	cmp	r2, #2
	beq	.L546
	str	r3, [r0, #16]
	ldmfd	sp, {fp, sp, pc}
.L538:
	ldr	r3, [r0, #16]
	sub	r3, r3, #1
	cmp	r3, #1
	movhi	r3, #0
	strhi	r3, [r0, #16]
	ldmfd	sp, {fp, sp, pc}
.L546:
	ldmfd	sp, {fp, sp, pc}
.L545:
	ldmfd	sp, {fp, sp, pc}
	UNWIND(.fnend)
	.size	HEVC_PicTypeStatistic, .-HEVC_PicTypeStatistic
	.align	2
	.global	HEVC_IsReferenceNalu
	.type	HEVC_IsReferenceNalu, %function
HEVC_IsReferenceNalu:
	UNWIND(.fnstart)
	@ args = 0, pretend = 0, frame = 0
	@ frame_needed = 1, uses_anonymous_args = 0
	UNWIND(.movsp ip)
	mov	ip, sp
	stmfd	sp!, {fp, ip, lr, pc}
	UNWIND(.pad #4)
	UNWIND(.save {fp, ip, lr})
	UNWIND(.setfp fp, ip, #-4)
	sub	fp, ip, #4
	add	r0, r0, #4096
	ldr	r0, [r0, #724]
	cmp	r0, #15
	bhi	.L548
	tst	r0, #1
	bne	.L550
.L548:
	sub	r0, r0, #16
	cmp	r0, #7
	movhi	r0, #0
	movls	r0, #1
	ldmfd	sp, {fp, sp, pc}
.L550:
	mov	r0, #1
	ldmfd	sp, {fp, sp, pc}
	UNWIND(.fnend)
	.size	HEVC_IsReferenceNalu, .-HEVC_IsReferenceNalu
	.align	2
	.global	HEVC_WriteQmatrix_4x4
	.type	HEVC_WriteQmatrix_4x4, %function
HEVC_WriteQmatrix_4x4:
	UNWIND(.fnstart)
	@ args = 0, pretend = 0, frame = 0
	@ frame_needed = 1, uses_anonymous_args = 0
	UNWIND(.movsp ip)
	mov	ip, sp
	stmfd	sp!, {fp, ip, lr, pc}
	UNWIND(.pad #4)
	UNWIND(.save {fp, ip, lr})
	UNWIND(.setfp fp, ip, #-4)
	sub	fp, ip, #4
	add	r1, r1, r0, lsl #6
	ldr	r0, [r1, #628]
	ldr	r3, [r1, #632]
	ldrb	ip, [r1, #620]	@ zero_extendqisi2
	ldrb	lr, [r1, #624]	@ zero_extendqisi2
	mov	r0, r0, asl #8
	orr	r3, ip, r3, asl #24
	uxth	r0, r0
	orr	r3, r3, lr, asl #16
	orr	r3, r3, r0
	str	r3, [r2]
	ldr	r0, [r1, #628]
	ldrb	lr, [r1, #621]	@ zero_extendqisi2
	ldrb	r3, [r1, #633]	@ zero_extendqisi2
	and	r0, r0, #65280
	ldrb	ip, [r1, #625]	@ zero_extendqisi2
	orr	r0, lr, r0
	orr	r3, r0, r3, asl #24
	orr	r3, r3, ip, asl #16
	str	r3, [r2, #4]
	ldr	r0, [r1, #624]
	ldrb	lr, [r1, #622]	@ zero_extendqisi2
	ldrb	r3, [r1, #634]	@ zero_extendqisi2
	and	r0, r0, #16711680
	ldrb	ip, [r1, #630]	@ zero_extendqisi2
	orr	r0, lr, r0
	orr	r3, r0, r3, asl #24
	orr	r3, r3, ip, asl #8
	str	r3, [r2, #8]
	ldr	r0, [r1, #632]
	ldrb	r3, [r1, #627]	@ zero_extendqisi2
	ldrb	lr, [r1, #623]	@ zero_extendqisi2
	and	r0, r0, #-16777216
	ldrb	ip, [r1, #631]	@ zero_extendqisi2
	orr	r1, lr, r0
	orr	r3, r1, r3, asl #16
	orr	r3, r3, ip, asl #8
	str	r3, [r2, #12]
	ldmfd	sp, {fp, sp, pc}
	UNWIND(.fnend)
	.size	HEVC_WriteQmatrix_4x4, .-HEVC_WriteQmatrix_4x4
	.align	2
	.global	HEVC_WriteQmatrix_32x32
	.type	HEVC_WriteQmatrix_32x32, %function
HEVC_WriteQmatrix_32x32:
	UNWIND(.fnstart)
	@ args = 0, pretend = 0, frame = 0
	@ frame_needed = 1, uses_anonymous_args = 0
	UNWIND(.movsp ip)
	mov	ip, sp
	stmfd	sp!, {r4, fp, ip, lr, pc}
	UNWIND(.pad #4)
	UNWIND(.save {r4, fp, ip, lr})
	UNWIND(.setfp fp, ip, #-4)
	sub	fp, ip, #4
	add	lr, r0, #18
	add	r0, r1, r0, lsl #6
	add	lr, r1, lr, lsl #6
	ldr	r1, [r0, #1780]
	ldr	r3, [r0, #1796]
	ldrb	ip, [lr, #620]	@ zero_extendqisi2
	ldrb	r4, [r0, #1788]	@ zero_extendqisi2
	mov	r1, r1, asl #8
	orr	r3, ip, r3, asl #24
	uxth	r1, r1
	orr	r3, r3, r4, asl #16
	orr	r3, r3, r1
	str	r3, [r2]
	ldr	r1, [r0, #1812]
	ldr	r3, [r0, #1828]
	ldrb	ip, [r0, #1804]	@ zero_extendqisi2
	ldrb	r4, [r0, #1820]	@ zero_extendqisi2
	mov	r1, r1, asl #8
	orr	r3, ip, r3, asl #24
	uxth	r1, r1
	orr	r3, r3, r4, asl #16
	orr	r3, r3, r1
	str	r3, [r2, #4]
	ldr	r1, [r0, #1780]
	ldrb	r4, [lr, #621]	@ zero_extendqisi2
	ldrb	r3, [r0, #1797]	@ zero_extendqisi2
	and	r1, r1, #65280
	ldrb	ip, [r0, #1789]	@ zero_extendqisi2
	orr	r1, r4, r1
	orr	r3, r1, r3, asl #24
	orr	r3, r3, ip, asl #16
	str	r3, [r2, #8]
	ldr	r1, [r0, #1812]
	ldrb	r4, [r0, #1805]	@ zero_extendqisi2
	ldrb	r3, [r0, #1829]	@ zero_extendqisi2
	and	r1, r1, #65280
	ldrb	ip, [r0, #1821]	@ zero_extendqisi2
	orr	r1, r4, r1
	orr	r3, r1, r3, asl #24
	orr	r3, r3, ip, asl #16
	str	r3, [r2, #12]
	ldr	ip, [r0, #1788]
	ldrb	r4, [lr, #622]	@ zero_extendqisi2
	ldrb	r3, [r0, #1798]	@ zero_extendqisi2
	and	ip, ip, #16711680
	ldrb	r1, [r0, #1782]	@ zero_extendqisi2
	orr	ip, r4, ip
	orr	r3, ip, r3, asl #24
	orr	r3, r3, r1, asl #8
	str	r3, [r2, #16]
	ldr	ip, [r0, #1820]
	ldrb	r4, [r0, #1806]	@ zero_extendqisi2
	ldrb	r3, [r0, #1830]	@ zero_extendqisi2
	and	ip, ip, #16711680
	ldrb	r1, [r0, #1814]	@ zero_extendqisi2
	orr	ip, r4, ip
	orr	r3, ip, r3, asl #24
	orr	r3, r3, r1, asl #8
	str	r3, [r2, #20]
	ldr	r1, [r0, #1796]
	ldrb	lr, [lr, #623]	@ zero_extendqisi2
	ldrb	r3, [r0, #1791]	@ zero_extendqisi2
	and	r1, r1, #-16777216
	ldrb	ip, [r0, #1783]	@ zero_extendqisi2
	orr	r1, lr, r1
	orr	r3, r1, r3, asl #16
	orr	r3, r3, ip, asl #8
	str	r3, [r2, #24]
	ldr	r1, [r0, #1828]
	ldrb	lr, [r0, #1807]	@ zero_extendqisi2
	ldrb	r3, [r0, #1823]	@ zero_extendqisi2
	and	r1, r1, #-16777216
	ldrb	ip, [r0, #1815]	@ zero_extendqisi2
	orr	r1, lr, r1
	orr	r3, r1, r3, asl #16
	orr	r3, r3, ip, asl #8
	str	r3, [r2, #28]
	ldr	r1, [r0, #1784]
	ldr	r3, [r0, #1800]
	ldrb	ip, [r0, #1776]	@ zero_extendqisi2
	ldrb	lr, [r0, #1792]	@ zero_extendqisi2
	mov	r1, r1, asl #8
	orr	r3, ip, r3, asl #24
	uxth	r1, r1
	orr	r3, r3, lr, asl #16
	orr	r3, r3, r1
	str	r3, [r2, #32]
	ldr	r1, [r0, #1816]
	ldr	r3, [r0, #1832]
	ldrb	ip, [r0, #1808]	@ zero_extendqisi2
	ldrb	lr, [r0, #1824]	@ zero_extendqisi2
	mov	r1, r1, asl #8
	orr	r3, ip, r3, asl #24
	uxth	r1, r1
	orr	r3, r3, lr, asl #16
	orr	r3, r3, r1
	str	r3, [r2, #36]
	ldr	r1, [r0, #1784]
	ldrb	lr, [r0, #1777]	@ zero_extendqisi2
	ldrb	r3, [r0, #1801]	@ zero_extendqisi2
	and	r1, r1, #65280
	ldrb	ip, [r0, #1793]	@ zero_extendqisi2
	orr	r1, lr, r1
	orr	r3, r1, r3, asl #24
	orr	r3, r3, ip, asl #16
	str	r3, [r2, #40]
	ldr	r1, [r0, #1816]
	ldrb	lr, [r0, #1809]	@ zero_extendqisi2
	ldrb	r3, [r0, #1833]	@ zero_extendqisi2
	and	r1, r1, #65280
	ldrb	ip, [r0, #1825]	@ zero_extendqisi2
	orr	r1, lr, r1
	orr	r3, r1, r3, asl #24
	orr	r3, r3, ip, asl #16
	str	r3, [r2, #44]
	ldr	r1, [r0, #1792]
	ldrb	lr, [r0, #1778]	@ zero_extendqisi2
	ldrb	r3, [r0, #1802]	@ zero_extendqisi2
	and	r1, r1, #16711680
	ldrb	ip, [r0, #1786]	@ zero_extendqisi2
	orr	r1, lr, r1
	orr	r3, r1, r3, asl #24
	orr	r3, r3, ip, asl #8
	str	r3, [r2, #48]
	ldrb	lr, [r0, #1810]	@ zero_extendqisi2
	ldr	r1, [r0, #1824]
	ldrb	r3, [r0, #1834]	@ zero_extendqisi2
	ldrb	ip, [r0, #1818]	@ zero_extendqisi2
	and	r1, r1, #16711680
	orr	r1, lr, r1
	orr	r3, r1, r3, asl #24
	orr	r3, r3, ip, asl #8
	str	r3, [r2, #52]
	ldr	r1, [r0, #1800]
	ldrb	lr, [r0, #1779]	@ zero_extendqisi2
	ldrb	r3, [r0, #1795]	@ zero_extendqisi2
	and	r1, r1, #-16777216
	ldrb	ip, [r0, #1787]	@ zero_extendqisi2
	orr	r1, lr, r1
	orr	r3, r1, r3, asl #16
	orr	r3, r3, ip, asl #8
	str	r3, [r2, #56]
	ldr	r1, [r0, #1832]
	ldrb	ip, [r0, #1811]	@ zero_extendqisi2
	ldrb	r3, [r0, #1827]	@ zero_extendqisi2
	and	r1, r1, #-16777216
	ldrb	r0, [r0, #1819]	@ zero_extendqisi2
	orr	r1, ip, r1
	orr	r3, r1, r3, asl #16
	orr	r3, r3, r0, asl #8
	str	r3, [r2, #60]
	ldmfd	sp, {r4, fp, sp, pc}
	UNWIND(.fnend)
	.size	HEVC_WriteQmatrix_32x32, .-HEVC_WriteQmatrix_32x32
	.align	2
	.global	HEVC_WriteQmatrix_8x8
	.type	HEVC_WriteQmatrix_8x8, %function
HEVC_WriteQmatrix_8x8:
	UNWIND(.fnstart)
	@ args = 0, pretend = 0, frame = 0
	@ frame_needed = 1, uses_anonymous_args = 0
	UNWIND(.movsp ip)
	mov	ip, sp
	stmfd	sp!, {r4, fp, ip, lr, pc}
	UNWIND(.pad #4)
	UNWIND(.save {r4, fp, ip, lr})
	UNWIND(.setfp fp, ip, #-4)
	sub	fp, ip, #4
	add	lr, r0, #6
	add	r0, r1, r0, lsl #6
	add	lr, r1, lr, lsl #6
	ldr	r1, [r0, #1020]
	ldr	r3, [r0, #1052]
	ldrb	ip, [lr, #620]	@ zero_extendqisi2
	ldrb	r4, [r0, #1036]	@ zero_extendqisi2
	mov	r1, r1, asl #8
	orr	r3, ip, r3, asl #24
	uxth	r1, r1
	orr	r3, r3, r4, asl #16
	orr	r3, r3, r1
	str	r3, [r2]
	ldr	r1, [r0, #1028]
	ldr	r3, [r0, #1060]
	ldrb	ip, [r0, #1012]	@ zero_extendqisi2
	ldrb	r4, [r0, #1044]	@ zero_extendqisi2
	mov	r1, r1, asl #8
	orr	r3, ip, r3, asl #24
	uxth	r1, r1
	orr	r3, r3, r4, asl #16
	orr	r3, r3, r1
	str	r3, [r2, #4]
	ldr	r1, [r0, #1020]
	ldrb	r4, [lr, #621]	@ zero_extendqisi2
	ldrb	r3, [r0, #1053]	@ zero_extendqisi2
	and	r1, r1, #65280
	ldrb	ip, [r0, #1037]	@ zero_extendqisi2
	orr	r1, r4, r1
	orr	r3, r1, r3, asl #24
	orr	r3, r3, ip, asl #16
	str	r3, [r2, #8]
	ldr	r1, [r0, #1028]
	ldrb	r4, [r0, #1013]	@ zero_extendqisi2
	ldrb	r3, [r0, #1061]	@ zero_extendqisi2
	and	r1, r1, #65280
	ldrb	ip, [r0, #1045]	@ zero_extendqisi2
	orr	r1, r4, r1
	orr	r3, r1, r3, asl #24
	orr	r3, r3, ip, asl #16
	str	r3, [r2, #12]
	ldr	ip, [r0, #1036]
	ldrb	r4, [lr, #622]	@ zero_extendqisi2
	ldrb	r3, [r0, #1054]	@ zero_extendqisi2
	and	ip, ip, #16711680
	ldrb	r1, [r0, #1022]	@ zero_extendqisi2
	orr	ip, r4, ip
	orr	r3, ip, r3, asl #24
	orr	r3, r3, r1, asl #8
	str	r3, [r2, #16]
	ldr	ip, [r0, #1044]
	ldrb	r4, [r0, #1014]	@ zero_extendqisi2
	ldrb	r3, [r0, #1062]	@ zero_extendqisi2
	and	ip, ip, #16711680
	ldrb	r1, [r0, #1030]	@ zero_extendqisi2
	orr	ip, r4, ip
	orr	r3, ip, r3, asl #24
	orr	r3, r3, r1, asl #8
	str	r3, [r2, #20]
	ldr	r1, [r0, #1052]
	ldrb	lr, [lr, #623]	@ zero_extendqisi2
	ldrb	r3, [r0, #1039]	@ zero_extendqisi2
	and	r1, r1, #-16777216
	ldrb	ip, [r0, #1023]	@ zero_extendqisi2
	orr	r1, lr, r1
	orr	r3, r1, r3, asl #16
	orr	r3, r3, ip, asl #8
	str	r3, [r2, #24]
	ldr	r1, [r0, #1060]
	ldrb	lr, [r0, #1015]	@ zero_extendqisi2
	ldrb	r3, [r0, #1047]	@ zero_extendqisi2
	and	r1, r1, #-16777216
	ldrb	ip, [r0, #1031]	@ zero_extendqisi2
	orr	r1, lr, r1
	orr	r3, r1, r3, asl #16
	orr	r3, r3, ip, asl #8
	str	r3, [r2, #28]
	ldr	r1, [r0, #1024]
	ldr	r3, [r0, #1056]
	ldrb	ip, [r0, #1008]	@ zero_extendqisi2
	ldrb	lr, [r0, #1040]	@ zero_extendqisi2
	mov	r1, r1, asl #8
	orr	r3, ip, r3, asl #24
	uxth	r1, r1
	orr	r3, r3, lr, asl #16
	orr	r3, r3, r1
	str	r3, [r2, #32]
	ldr	r1, [r0, #1032]
	ldr	r3, [r0, #1064]
	ldrb	ip, [r0, #1016]	@ zero_extendqisi2
	ldrb	lr, [r0, #1048]	@ zero_extendqisi2
	mov	r1, r1, asl #8
	orr	r3, ip, r3, asl #24
	uxth	r1, r1
	orr	r3, r3, lr, asl #16
	orr	r3, r3, r1
	str	r3, [r2, #36]
	ldr	r1, [r0, #1024]
	ldrb	lr, [r0, #1009]	@ zero_extendqisi2
	ldrb	r3, [r0, #1057]	@ zero_extendqisi2
	and	r1, r1, #65280
	ldrb	ip, [r0, #1041]	@ zero_extendqisi2
	orr	r1, lr, r1
	orr	r3, r1, r3, asl #24
	orr	r3, r3, ip, asl #16
	str	r3, [r2, #40]
	ldr	r1, [r0, #1032]
	ldrb	lr, [r0, #1017]	@ zero_extendqisi2
	ldrb	r3, [r0, #1065]	@ zero_extendqisi2
	and	r1, r1, #65280
	ldrb	ip, [r0, #1049]	@ zero_extendqisi2
	orr	r1, lr, r1
	orr	r3, r1, r3, asl #24
	orr	r3, r3, ip, asl #16
	str	r3, [r2, #44]
	ldr	r1, [r0, #1040]
	ldrb	lr, [r0, #1010]	@ zero_extendqisi2
	ldrb	r3, [r0, #1058]	@ zero_extendqisi2
	and	r1, r1, #16711680
	ldrb	ip, [r0, #1026]	@ zero_extendqisi2
	orr	r1, lr, r1
	orr	r3, r1, r3, asl #24
	orr	r3, r3, ip, asl #8
	str	r3, [r2, #48]
	ldrb	lr, [r0, #1018]	@ zero_extendqisi2
	ldr	r1, [r0, #1048]
	ldrb	r3, [r0, #1066]	@ zero_extendqisi2
	ldrb	ip, [r0, #1034]	@ zero_extendqisi2
	and	r1, r1, #16711680
	orr	r1, lr, r1
	orr	r3, r1, r3, asl #24
	orr	r3, r3, ip, asl #8
	str	r3, [r2, #52]
	ldr	r1, [r0, #1056]
	ldrb	lr, [r0, #1011]	@ zero_extendqisi2
	ldrb	r3, [r0, #1043]	@ zero_extendqisi2
	and	r1, r1, #-16777216
	ldrb	ip, [r0, #1027]	@ zero_extendqisi2
	orr	r1, lr, r1
	orr	r3, r1, r3, asl #16
	orr	r3, r3, ip, asl #8
	str	r3, [r2, #56]
	ldr	r1, [r0, #1064]
	ldrb	ip, [r0, #1019]	@ zero_extendqisi2
	ldrb	r3, [r0, #1051]	@ zero_extendqisi2
	and	r1, r1, #-16777216
	ldrb	r0, [r0, #1035]	@ zero_extendqisi2
	orr	r1, ip, r1
	orr	r3, r1, r3, asl #16
	orr	r3, r3, r0, asl #8
	str	r3, [r2, #60]
	ldmfd	sp, {r4, fp, sp, pc}
	UNWIND(.fnend)
	.size	HEVC_WriteQmatrix_8x8, .-HEVC_WriteQmatrix_8x8
	.align	2
	.global	HEVC_WriteQmatrix_16x16
	.type	HEVC_WriteQmatrix_16x16, %function
HEVC_WriteQmatrix_16x16:
	UNWIND(.fnstart)
	@ args = 0, pretend = 0, frame = 0
	@ frame_needed = 1, uses_anonymous_args = 0
	UNWIND(.movsp ip)
	mov	ip, sp
	stmfd	sp!, {r4, fp, ip, lr, pc}
	UNWIND(.pad #4)
	UNWIND(.save {r4, fp, ip, lr})
	UNWIND(.setfp fp, ip, #-4)
	sub	fp, ip, #4
	add	lr, r0, #12
	add	r0, r1, r0, lsl #6
	add	lr, r1, lr, lsl #6
	ldr	r1, [r0, #1396]
	ldr	r3, [r0, #1412]
	ldrb	ip, [lr, #620]	@ zero_extendqisi2
	ldrb	r4, [r0, #1404]	@ zero_extendqisi2
	mov	r1, r1, asl #8
	orr	r3, ip, r3, asl #24
	uxth	r1, r1
	orr	r3, r3, r4, asl #16
	orr	r3, r3, r1
	str	r3, [r2]
	ldr	r1, [r0, #1428]
	ldr	r3, [r0, #1444]
	ldrb	ip, [r0, #1420]	@ zero_extendqisi2
	ldrb	r4, [r0, #1436]	@ zero_extendqisi2
	mov	r1, r1, asl #8
	orr	r3, ip, r3, asl #24
	uxth	r1, r1
	orr	r3, r3, r4, asl #16
	orr	r3, r3, r1
	str	r3, [r2, #4]
	ldr	r1, [r0, #1396]
	ldrb	r4, [lr, #621]	@ zero_extendqisi2
	ldrb	r3, [r0, #1413]	@ zero_extendqisi2
	and	r1, r1, #65280
	ldrb	ip, [r0, #1405]	@ zero_extendqisi2
	orr	r1, r4, r1
	orr	r3, r1, r3, asl #24
	orr	r3, r3, ip, asl #16
	str	r3, [r2, #8]
	ldr	r1, [r0, #1428]
	ldrb	r4, [r0, #1421]	@ zero_extendqisi2
	ldrb	r3, [r0, #1445]	@ zero_extendqisi2
	and	r1, r1, #65280
	ldrb	ip, [r0, #1437]	@ zero_extendqisi2
	orr	r1, r4, r1
	orr	r3, r1, r3, asl #24
	orr	r3, r3, ip, asl #16
	str	r3, [r2, #12]
	ldr	ip, [r0, #1404]
	ldrb	r4, [lr, #622]	@ zero_extendqisi2
	ldrb	r3, [r0, #1414]	@ zero_extendqisi2
	and	ip, ip, #16711680
	ldrb	r1, [r0, #1398]	@ zero_extendqisi2
	orr	ip, r4, ip
	orr	r3, ip, r3, asl #24
	orr	r3, r3, r1, asl #8
	str	r3, [r2, #16]
	ldr	ip, [r0, #1436]
	ldrb	r4, [r0, #1422]	@ zero_extendqisi2
	ldrb	r3, [r0, #1446]	@ zero_extendqisi2
	and	ip, ip, #16711680
	ldrb	r1, [r0, #1430]	@ zero_extendqisi2
	orr	ip, r4, ip
	orr	r3, ip, r3, asl #24
	orr	r3, r3, r1, asl #8
	str	r3, [r2, #20]
	ldr	r1, [r0, #1412]
	ldrb	lr, [lr, #623]	@ zero_extendqisi2
	ldrb	r3, [r0, #1407]	@ zero_extendqisi2
	and	r1, r1, #-16777216
	ldrb	ip, [r0, #1399]	@ zero_extendqisi2
	orr	r1, lr, r1
	orr	r3, r1, r3, asl #16
	orr	r3, r3, ip, asl #8
	str	r3, [r2, #24]
	ldr	r1, [r0, #1444]
	ldrb	lr, [r0, #1423]	@ zero_extendqisi2
	ldrb	r3, [r0, #1439]	@ zero_extendqisi2
	and	r1, r1, #-16777216
	ldrb	ip, [r0, #1431]	@ zero_extendqisi2
	orr	r1, lr, r1
	orr	r3, r1, r3, asl #16
	orr	r3, r3, ip, asl #8
	str	r3, [r2, #28]
	ldr	r1, [r0, #1400]
	ldr	r3, [r0, #1416]
	ldrb	ip, [r0, #1392]	@ zero_extendqisi2
	ldrb	lr, [r0, #1408]	@ zero_extendqisi2
	mov	r1, r1, asl #8
	orr	r3, ip, r3, asl #24
	uxth	r1, r1
	orr	r3, r3, lr, asl #16
	orr	r3, r3, r1
	str	r3, [r2, #32]
	ldr	r1, [r0, #1432]
	ldr	r3, [r0, #1448]
	ldrb	ip, [r0, #1424]	@ zero_extendqisi2
	ldrb	lr, [r0, #1440]	@ zero_extendqisi2
	mov	r1, r1, asl #8
	orr	r3, ip, r3, asl #24
	uxth	r1, r1
	orr	r3, r3, lr, asl #16
	orr	r3, r3, r1
	str	r3, [r2, #36]
	ldr	r1, [r0, #1400]
	ldrb	lr, [r0, #1393]	@ zero_extendqisi2
	ldrb	r3, [r0, #1417]	@ zero_extendqisi2
	and	r1, r1, #65280
	ldrb	ip, [r0, #1409]	@ zero_extendqisi2
	orr	r1, lr, r1
	orr	r3, r1, r3, asl #24
	orr	r3, r3, ip, asl #16
	str	r3, [r2, #40]
	ldr	r1, [r0, #1432]
	ldrb	lr, [r0, #1425]	@ zero_extendqisi2
	ldrb	r3, [r0, #1449]	@ zero_extendqisi2
	and	r1, r1, #65280
	ldrb	ip, [r0, #1441]	@ zero_extendqisi2
	orr	r1, lr, r1
	orr	r3, r1, r3, asl #24
	orr	r3, r3, ip, asl #16
	str	r3, [r2, #44]
	ldr	r1, [r0, #1408]
	ldrb	lr, [r0, #1394]	@ zero_extendqisi2
	ldrb	r3, [r0, #1418]	@ zero_extendqisi2
	and	r1, r1, #16711680
	ldrb	ip, [r0, #1402]	@ zero_extendqisi2
	orr	r1, lr, r1
	orr	r3, r1, r3, asl #24
	orr	r3, r3, ip, asl #8
	str	r3, [r2, #48]
	ldrb	lr, [r0, #1426]	@ zero_extendqisi2
	ldr	r1, [r0, #1440]
	ldrb	r3, [r0, #1450]	@ zero_extendqisi2
	ldrb	ip, [r0, #1434]	@ zero_extendqisi2
	and	r1, r1, #16711680
	orr	r1, lr, r1
	orr	r3, r1, r3, asl #24
	orr	r3, r3, ip, asl #8
	str	r3, [r2, #52]
	ldr	r1, [r0, #1416]
	ldrb	lr, [r0, #1395]	@ zero_extendqisi2
	ldrb	r3, [r0, #1411]	@ zero_extendqisi2
	and	r1, r1, #-16777216
	ldrb	ip, [r0, #1403]	@ zero_extendqisi2
	orr	r1, lr, r1
	orr	r3, r1, r3, asl #16
	orr	r3, r3, ip, asl #8
	str	r3, [r2, #56]
	ldr	r1, [r0, #1448]
	ldrb	ip, [r0, #1427]	@ zero_extendqisi2
	ldrb	r3, [r0, #1443]	@ zero_extendqisi2
	and	r1, r1, #-16777216
	ldrb	r0, [r0, #1435]	@ zero_extendqisi2
	orr	r1, ip, r1
	orr	r3, r1, r3, asl #16
	orr	r3, r3, r0, asl #8
	str	r3, [r2, #60]
	ldmfd	sp, {r4, fp, sp, pc}
	UNWIND(.fnend)
	.size	HEVC_WriteQmatrix_16x16, .-HEVC_WriteQmatrix_16x16
	.align	2
	.global	HEVC_CtbRsAddrToTsAddr
	.type	HEVC_CtbRsAddrToTsAddr, %function
HEVC_CtbRsAddrToTsAddr:
	UNWIND(.fnstart)
	@ args = 0, pretend = 0, frame = 200
	@ frame_needed = 1, uses_anonymous_args = 0
	UNWIND(.movsp ip)
	mov	ip, sp
	stmfd	sp!, {r4, r5, r6, r7, r8, r9, r10, fp, ip, lr, pc}
	UNWIND(.pad #4)
	UNWIND(.save {r4, r5, r6, r7, r8, r9, r10, fp, ip, lr})
	UNWIND(.setfp fp, ip, #-4)
	sub	fp, ip, #4
	UNWIND(.pad #204)
	sub	sp, sp, #204
	ldr	ip, [r0, #2832]
	mov	r6, r1
	ldrb	r3, [ip, #13]	@ zero_extendqisi2
	cmp	r3, #0
	beq	.L590
	ldr	r3, [ip, #72]
	ldr	r7, [ip, #68]
	ldrb	r4, [ip, #15]	@ zero_extendqisi2
	mov	r2, r3
	str	r3, [fp, #-236]
	ldr	r3, [r0, #2828]
	cmp	r2, #0
	sub	r8, r2, #1
	sub	r2, r7, #1
	str	r2, [fp, #-240]
	ldr	r5, [r3, #64]
	ldr	r1, [r3, #128]
	ble	.L561
	ldr	r3, [fp, #-236]
	add	r2, ip, #210
	sub	r0, fp, #216
	add	lr, r3, #105
	add	lr, ip, lr, lsl #1
.L560:
	ldrsh	r3, [r2, #2]!
	cmp	r2, lr
	sub	r3, r3, #1
	str	r3, [r0, #4]!
	bne	.L560
.L561:
	cmp	r7, #0
	ble	.L559
	add	r3, r7, #85
	add	r2, ip, #170
	sub	r0, fp, #128
	add	ip, ip, r3, lsl #1
.L564:
	ldrsh	r3, [r2, #2]!
	cmp	r2, ip
	sub	r3, r3, #1
	str	r3, [r0, #4]!
	bne	.L564
.L559:
	mov	r10, #1
	mov	r0, r5
	mov	r10, r10, asl r1
	mov	r1, r10
	bl	__aeabi_idiv
	mov	r1, r10
	mov	r9, r0
	mov	r0, r5
	bl	__aeabi_idivmod
	mov	r0, r6
	cmp	r1, #0
	addne	r9, r9, #1
	mov	r1, r9
	bl	__aeabi_idivmod
	mov	r0, r6
	mov	r5, r1
	mov	r1, r9
	bl	__aeabi_idiv
	cmp	r4, #0
	beq	.L602
	cmp	r8, #0
	mov	r3, #0
	blt	.L581
	sub	r10, fp, #212
	mov	r4, r3
	mov	r6, r3
	mov	r8, r3
	str	r3, [fp, #-232]
	str	r3, [fp, #-244]
.L567:
	ldr	r2, [fp, #-240]
	cmp	r2, #0
	blt	.L584
	ldr	r8, [r10]
	mov	r2, #0
	ldr	r3, [fp, #-232]
	mov	r1, r2
	add	r8, r8, #1
	sub	lr, fp, #128
	mov	r6, r4
	add	r9, r3, r8
	b	.L570
.L582:
	mov	r6, r4
.L570:
	ldr	r3, [lr, #4]!
	add	r1, r1, #1
	add	r3, r3, #1
	add	ip, r2, r3
	cmp	r5, ip
	mla	r4, r8, r3, r4
	bge	.L568
	cmp	r0, r9
	blt	.L600
.L568:
	cmp	r1, r7
	mov	r2, ip
	bne	.L582
.L573:
	add	r2, ip, r3
	cmp	r5, r2
	bge	.L583
	cmp	r0, r9
	blt	.L603
.L583:
	ldr	r2, [fp, #-244]
	add	r10, r10, #4
	ldr	r1, [fp, #-236]
	add	r2, r2, #1
	str	r9, [fp, #-232]
	cmp	r2, r1
	str	r2, [fp, #-244]
	bne	.L567
	rsb	r0, r9, r0
	mov	r2, ip
	rsb	r2, r2, r5
	mul	r3, r0, r3
	add	r3, r2, r3
	add	r6, r3, r6
.L590:
	mov	r0, r6
	sub	sp, fp, #40
	ldmfd	sp, {r4, r5, r6, r7, r8, r9, r10, fp, sp, pc}
.L602:
	cmp	r8, #0
	mov	r3, r4
	blt	.L581
	sub	r10, fp, #212
	mov	lr, r4
	mov	r6, r4
	mov	r8, r4
	str	r4, [fp, #-232]
	str	r4, [fp, #-244]
.L566:
	ldr	r2, [fp, #-240]
	cmp	r2, #0
	blt	.L587
	ldr	r8, [r10]
	mov	r2, #0
	ldr	r3, [fp, #-232]
	mov	ip, r2
	add	r8, r8, #1
	sub	r4, fp, #128
	mov	r6, lr
	add	r9, r3, r8
	b	.L576
.L585:
	mov	r6, lr
.L576:
	ldr	r3, [r4, #4]!
	add	ip, ip, #1
	add	r3, r3, #1
	add	r1, r2, r3
	cmp	r5, r1
	mla	lr, r8, r3, lr
	bge	.L574
	cmp	r0, r9
	blt	.L575
.L574:
	cmp	ip, r7
	mov	r2, r1
	bne	.L585
.L579:
	add	r2, r1, r3
	cmp	r5, r2
	bge	.L599
	cmp	r0, r9
	blt	.L604
.L599:
	ldr	r2, [fp, #-244]
	add	r10, r10, #4
	ldr	ip, [fp, #-236]
	add	r2, r2, #1
	str	r9, [fp, #-232]
	cmp	r2, ip
	str	r2, [fp, #-244]
	bne	.L566
	rsb	r0, r9, r0
	mov	r2, r1
	mul	r3, r0, r3
	b	.L565
.L600:
	ldr	r1, [fp, #-232]
	rsb	r0, r1, r0
	mul	r3, r0, r3
.L565:
	rsb	r2, r2, r5
	add	r3, r2, r3
	add	r6, r3, r6
	mov	r0, r6
	sub	sp, fp, #40
	ldmfd	sp, {r4, r5, r6, r7, r8, r9, r10, fp, sp, pc}
.L575:
	cmp	r1, r5
	bgt	.L600
	mov	r1, r2
	b	.L599
.L584:
	ldr	r2, [fp, #-232]
	mov	ip, #0
	add	r9, r2, r8
	b	.L573
.L587:
	ldr	r2, [fp, #-232]
	mov	r1, #0
	add	r9, r2, r8
	b	.L579
.L603:
	ldr	r2, [fp, #-232]
	rsb	r0, r2, r0
	mov	r2, ip
	mul	r3, r0, r3
	b	.L565
.L604:
	ldr	r2, [fp, #-232]
	rsb	r0, r2, r0
	mov	r2, r1
	mul	r3, r0, r3
	b	.L565
.L581:
	mov	r2, r3
	mov	r6, r3
	b	.L565
	UNWIND(.fnend)
	.size	HEVC_CtbRsAddrToTsAddr, .-HEVC_CtbRsAddrToTsAddr
	.align	2
	.global	HEVC_CtbTsAddrToRsAddr
	.type	HEVC_CtbTsAddrToRsAddr, %function
HEVC_CtbTsAddrToRsAddr:
	UNWIND(.fnstart)
	@ args = 0, pretend = 0, frame = 200
	@ frame_needed = 1, uses_anonymous_args = 0
	UNWIND(.movsp ip)
	mov	ip, sp
	stmfd	sp!, {r4, r5, r6, r7, r8, r9, r10, fp, ip, lr, pc}
	UNWIND(.pad #4)
	UNWIND(.save {r4, r5, r6, r7, r8, r9, r10, fp, ip, lr})
	UNWIND(.setfp fp, ip, #-4)
	sub	fp, ip, #4
	UNWIND(.pad #204)
	sub	sp, sp, #204
	ldr	lr, [r0, #2832]
	mov	r7, r1
	ldrb	r3, [lr, #13]	@ zero_extendqisi2
	cmp	r3, #0
	moveq	r0, r1
	beq	.L629
	ldr	r3, [lr, #72]
	ldr	r8, [lr, #68]
	mov	r2, r3
	str	r3, [fp, #-232]
	ldr	r3, [r0, #2828]
	cmp	r2, #0
	ldr	r4, [r3, #64]
	ldr	ip, [r3, #128]
	ble	.L611
	ldr	r3, [fp, #-232]
	add	r2, lr, #210
	sub	r1, fp, #216
	add	r0, r3, #105
	add	r0, lr, r0, lsl #1
.L610:
	ldrsh	r3, [r2, #2]!
	cmp	r2, r0
	sub	r3, r3, #1
	str	r3, [r1, #4]!
	bne	.L610
.L611:
	cmp	r8, #0
	ble	.L609
	add	r0, r8, #85
	add	r2, lr, #170
	sub	r1, fp, #128
	add	r0, lr, r0, lsl #1
.L614:
	ldrsh	r3, [r2, #2]!
	cmp	r2, r0
	sub	r3, r3, #1
	str	r3, [r1, #4]!
	bne	.L614
.L609:
	mov	r5, #1
	mov	r0, r4
	mov	r5, r5, asl ip
	mov	r1, r5
	bl	__aeabi_idiv
	mov	r1, r5
	mov	r6, r0
	mov	r0, r4
	bl	__aeabi_idivmod
	ldr	r3, [fp, #-232]
	cmp	r1, #0
	addne	r6, r6, #1
	cmp	r3, #0
	str	r6, [fp, #-240]
	ble	.L613
	mov	r9, #0
	ldr	r2, [fp, #-124]
	sub	r0, fp, #212
	mov	r10, r9
	mov	r3, r9
	mov	r1, r9
	mov	r6, r9
	mov	r4, r9
	add	r2, r2, #1
	str	r2, [fp, #-236]
.L615:
	cmp	r8, #0
	ble	.L625
	ldr	r6, [r0]
	ldr	r4, [fp, #-236]
	add	r6, r6, #1
	mla	ip, r6, r4, r3
	cmp	r7, ip
	blt	.L626
	mov	r5, #0
	mov	r1, r3
	mov	r2, r5
	mov	r3, ip
	sub	lr, fp, #124
	b	.L620
.L617:
	ldr	r4, [lr, #4]!
	mov	r1, r3
	add	r4, r4, #1
	mla	ip, r6, r4, r3
	cmp	ip, r7
	bgt	.L618
	mov	r3, ip
.L620:
	add	r2, r2, #1
	add	r5, r5, r4
	cmp	r2, r8
	bne	.L617
.L619:
	cmp	r3, r7
	bgt	.L624
	ldr	r2, [fp, #-232]
	add	r10, r10, #1
	add	r9, r9, r6
	add	r0, r0, #4
	cmp	r10, r2
	bne	.L615
.L624:
	mov	r3, r1
.L618:
	cmp	r4, #0
	beq	.L613
	rsb	r7, r3, r7
	mov	r1, r4
	mov	r0, r7
	bl	__aeabi_idiv
	ldr	r3, [fp, #-240]
	mov	r1, r4
	add	r4, r0, r9
	mov	r0, r7
	mul	r4, r4, r3
	bl	__aeabi_idivmod
	add	r1, r1, r5
	add	r0, r4, r1
.L629:
	sub	sp, fp, #40
	ldmfd	sp, {r4, r5, r6, r7, r8, r9, r10, fp, sp, pc}
.L625:
	mov	r5, #0
	b	.L619
.L626:
	ldr	r4, [fp, #-236]
	mov	r5, #0
	b	.L618
.L613:
	ldr	r1, .L631
	mov	r0, #1
	bl	dprint_vfmw
	mvn	r0, #0
	b	.L629
.L632:
	.align	2
.L631:
	.word	.LC69
	UNWIND(.fnend)
	.size	HEVC_CtbTsAddrToRsAddr, .-HEVC_CtbTsAddrToRsAddr
	.align	2
	.global	HEVC_CalcTileMap
	.type	HEVC_CalcTileMap, %function
HEVC_CalcTileMap:
	UNWIND(.fnstart)
	@ args = 0, pretend = 0, frame = 32
	@ frame_needed = 1, uses_anonymous_args = 0
	UNWIND(.movsp ip)
	mov	ip, sp
	stmfd	sp!, {r4, r5, r6, r7, r8, r9, r10, fp, ip, lr, pc}
	UNWIND(.pad #4)
	UNWIND(.save {r4, r5, r6, r7, r8, r9, r10, fp, ip, lr})
	UNWIND(.setfp fp, ip, #-4)
	sub	fp, ip, #4
	UNWIND(.pad #36)
	sub	sp, sp, #36
	ldr	r4, .L656
	mov	r10, r0
	mov	r2, #147456
	mov	r1, #0
	ldr	r0, .L656+4
	ldr	r3, [r4, #48]
	blx	r3
	ldr	r3, [r4, #48]
	mov	r2, #36864
	mov	r1, #0
	ldr	r0, .L656+8
	blx	r3
	add	r0, r10, #9216
	ldr	r3, [r4, #48]
	mov	r2, #880
	mov	r1, #0
	add	r0, r0, #4
	blx	r3
	add	r3, r10, #8192
	str	r3, [fp, #-56]
	mov	r2, r3
	mov	r3, #0
	str	r3, [r2, #1024]
	ldr	r9, [r10, #2832]
	ldr	r1, [r10, #2828]
	ldr	r2, [r9, #72]
	ldr	r8, [r1, #188]
	cmp	r2, r3
	strne	r3, [fp, #-68]
	strne	r3, [fp, #-72]
	beq	.L633
.L641:
	ldr	r2, [r9, #68]
	cmp	r2, #0
	ldr	r2, [fp, #-68]
	add	r2, r2, #104
	streq	r2, [fp, #-76]
	beq	.L642
	mov	r1, r2
	str	r2, [fp, #-76]
	mov	r7, r1, asl #1
	ldr	r1, [fp, #-72]
	mov	r2, #0
	str	r2, [fp, #-48]
	str	r2, [fp, #-52]
	mul	r1, r8, r1
	ldr	r2, [fp, #-56]
	ldr	r2, [r2, #1024]
	str	r1, [fp, #-64]
.L640:
	add	r1, r2, #1152
	add	r0, r9, r7
	add	r1, r10, r1, lsl #3
	str	r3, [r1, #4]
	ldrsh	r1, [r0, #4]
	cmp	r1, #0
	ldreq	r1, [fp, #-48]
	addeq	r1, r1, #84
	streq	r1, [fp, #-60]
	beq	.L636
	ldr	r2, [fp, #-48]
	mov	r5, #0
	ldr	r1, [fp, #-52]
	add	r2, r2, #84
	ldr	r0, [fp, #-64]
	str	r2, [fp, #-60]
	add	r6, r1, r0
	mov	ip, r2, asl #1
.L637:
	add	r2, r9, ip
	ldrsh	r2, [r2, #4]
	cmp	r2, #0
	beq	.L639
	ldr	r2, .L656+4
	rsb	lr, r3, r6
	mov	r4, r3
	add	r2, r2, r3, lsl #2
.L638:
	add	r1, lr, r3
	str	r1, [r2], #4
	ldr	r9, [r10, #2832]
	add	r3, r3, #1
	rsb	r1, r4, r3
	add	r0, r9, ip
	ldrsh	r0, [r0, #4]
	cmp	r0, r1
	bhi	.L638
.L639:
	add	r2, r9, r7
	add	r5, r5, #1
	add	r6, r6, r8
	ldrsh	r2, [r2, #4]
	cmp	r2, r5
	bhi	.L637
	ldr	r2, [fp, #-56]
	ldr	r2, [r2, #1024]
.L636:
	add	r1, r10, r2, lsl #3
	sub	ip, r3, #1
	add	r1, r1, #9216
	ldr	r0, [fp, #-60]
	ldr	lr, [fp, #-48]
	add	r2, r2, #1
	str	ip, [r1, #8]
	ldr	r1, [fp, #-56]
	add	r0, r9, r0, lsl #1
	add	lr, lr, #1
	str	lr, [fp, #-48]
	str	r2, [r1, #1024]
	ldr	ip, [r9, #68]
	ldrsh	r1, [r0, #4]
	cmp	ip, lr
	ldr	r0, [fp, #-52]
	add	r1, r0, r1
	str	r1, [fp, #-52]
	bhi	.L640
.L642:
	ldr	r2, [fp, #-76]
	ldr	r0, [fp, #-68]
	ldr	r1, [r9, #72]
	add	r2, r9, r2, lsl #1
	add	r0, r0, #1
	cmp	r1, r0
	ldr	r1, [fp, #-72]
	ldrsh	r2, [r2, #4]
	str	r0, [fp, #-68]
	add	r2, r1, r2
	str	r2, [fp, #-72]
	bhi	.L641
.L633:
	sub	sp, fp, #40
	ldmfd	sp, {r4, r5, r6, r7, r8, r9, r10, fp, sp, pc}
.L657:
	.align	2
.L656:
	.word	vfmw_Osal_Func_Ptr_S
	.word	.LANCHOR2+448
	.word	.LANCHOR3+592
	UNWIND(.fnend)
	.size	HEVC_CalcTileMap, .-HEVC_CalcTileMap
	.align	2
	.global	HEVC_WritePicMsg
	.type	HEVC_WritePicMsg, %function
HEVC_WritePicMsg:
	UNWIND(.fnstart)
	@ args = 0, pretend = 0, frame = 0
	@ frame_needed = 1, uses_anonymous_args = 0
	UNWIND(.movsp ip)
	mov	ip, sp
	stmfd	sp!, {r3, r4, r5, r6, r7, r8, r9, r10, fp, ip, lr, pc}
	UNWIND(.pad #4)
	UNWIND(.save {r3, r4, r5, r6, r7, r8, r9, r10, fp, ip, lr})
	UNWIND(.setfp fp, ip, #-4)
	sub	fp, ip, #4
	add	r4, r0, #4096
	mov	r5, r0
	ldr	r1, .L681
	mov	r0, #2
	ldr	r3, [r4, #36]
	add	r6, r5, #8192
	ldr	r2, [r4, #212]
	mov	r7, #0
	bl	dprint_vfmw
	ldr	r1, .L681+4
	mov	r0, #4
	bl	dprint_vfmw
	ldr	r1, [r4, #176]
	ldr	ip, [r4, #180]
	mov	lr, #280
	ldr	r9, [r4, #36]
	add	r0, r5, #6592
	str	r1, [r4, #3720]
	mov	r2, #64
	str	ip, [r4, #3724]
	add	r0, r0, #56
	ldr	r1, [r4, #100]
	ldr	ip, [r4, #104]
	ldr	r8, [r4, #200]
	str	r9, [r4, #3716]
	rsb	ip, r1, ip
	ldr	r9, [r4, #108]
	str	ip, [r4, #3728]
	ldr	ip, [r4, #112]
	rsb	r1, r1, r9
	str	r8, [r4, #3732]
	ldr	r3, [r4, #8]
	rsb	r9, r9, ip
	ldr	r8, [r4, #204]
	ldr	ip, [r4, #208]
	ldr	r10, [r4, #212]
	str	r8, [r4, #3736]
	str	ip, [r4, #3740]
	str	r10, [r4, #3712]
	str	r1, [r4, #3744]
	str	r9, [r4, #3748]
	str	r3, [r4, #2456]
	ldr	r1, [r5, #2848]
	str	r7, [r5, #204]
	mul	r8, lr, r3
	str	r1, [r6, #820]
	ldr	ip, [r5, #2828]
	ldr	r7, .L681+8
	add	r1, r5, r8
	ldrb	r3, [ip, #10]	@ zero_extendqisi2
	add	r1, r1, #13248
	add	r1, r1, #36
	strb	r3, [r4, #2430]
	ldrb	r3, [ip, #3]	@ zero_extendqisi2
	strb	r3, [r4, #2431]
	ldrb	r3, [ip, #7]	@ zero_extendqisi2
	strb	r3, [r4, #2432]
	ldrb	r3, [ip, #6]	@ zero_extendqisi2
	ldr	lr, [r4, #12]
	strb	r3, [r4, #2433]
	ldrb	r3, [ip, #5]	@ zero_extendqisi2
	strb	r3, [r4, #2434]
	ldr	r3, [ip, #60]
	str	r3, [r4, #2436]
	ldr	r3, [ip, #104]
	strb	r3, [r4, #2440]
	ldr	r3, [ip, #192]
	sub	r3, r3, #1
	str	r3, [r4, #2444]
	ldr	r3, [ip, #188]
	str	lr, [r4, #2452]
	sub	r3, r3, #1
	str	r3, [r4, #2448]
	ldr	r3, [r5, #2832]
	ldr	lr, [r3, #84]
	sub	lr, lr, #2
	str	lr, [r4, #2460]
	ldrb	lr, [r3, #11]	@ zero_extendqisi2
	strb	lr, [r4, #2464]
	ldrb	r3, [r3, #10]	@ zero_extendqisi2
	strb	r3, [r4, #2465]
	ldr	r3, [ip, #164]
	str	r3, [r4, #2468]
	ldr	r3, [ip, #168]
	str	r3, [r4, #2472]
	ldr	r3, [ip, #156]
	str	r3, [r4, #2476]
	ldr	r3, [ip, #160]
	str	r3, [r4, #2480]
	ldr	r3, [ip, #148]
	str	r3, [r4, #2484]
	ldr	r3, [ip, #152]
	str	r3, [r4, #2488]
	ldr	lr, [ip, #172]
	ldr	r3, [r7, #52]
	str	lr, [r4, #2492]
	ldr	lr, [ip, #124]
	str	lr, [r4, #2496]
	ldr	lr, [ip, #128]
	str	lr, [r4, #2500]
	ldr	lr, [ip, #100]
	str	lr, [r4, #2504]
	ldr	lr, [ip, #92]
	str	lr, [r4, #2508]
	ldr	lr, [ip, #112]
	str	lr, [r4, #2512]
	ldr	lr, [ip, #108]
	str	lr, [r4, #2516]
	ldr	lr, [ip, #96]
	str	lr, [r4, #2520]
	ldr	ip, [ip, #88]
	str	ip, [r4, #2524]
	blx	r3
	ldr	ip, [r5, #2828]
	add	r3, r5, #8832
	add	r2, r5, #8768
	add	r1, r5, #8256
	add	r3, r3, #20
	ldr	lr, [ip, #68]
	add	r2, r2, #4
	add	r1, r1, #4
	mov	r0, r5
	str	lr, [r4, #2616]
	ldr	ip, [ip, #64]
	str	ip, [r4, #2620]
	bl	HEVC_CalcTileInfo
	subs	r7, r0, #0
	bne	.L679
	ldr	r3, [r5, #2832]
	ldrb	r2, [r3, #16]	@ zero_extendqisi2
	strb	r2, [r4, #2644]
	ldrb	r2, [r3, #7]	@ zero_extendqisi2
	strb	r2, [r4, #2645]
	ldrb	r2, [r3, #3]	@ zero_extendqisi2
	strb	r2, [r4, #2646]
	ldrb	r2, [r3, #14]	@ zero_extendqisi2
	strb	r2, [r4, #2647]
	ldrb	r2, [r3, #15]	@ zero_extendqisi2
	strb	r2, [r4, #2648]
	ldrb	r2, [r3, #13]	@ zero_extendqisi2
	strb	r2, [r4, #2649]
	ldr	r2, [r5, #2828]
	ldr	r1, [r3, #56]
	ldr	r2, [r2, #128]
	rsb	r2, r1, r2
	str	r2, [r4, #2652]
	ldr	r2, [r3, #52]
	str	r2, [r4, #2656]
	ldrb	r2, [r3, #8]	@ zero_extendqisi2
	strb	r2, [r4, #2660]
	ldrb	r2, [r3, #12]	@ zero_extendqisi2
	strb	r2, [r4, #2661]
	ldrb	r2, [r3, #6]	@ zero_extendqisi2
	strb	r2, [r4, #2662]
	ldr	r2, [r3, #60]
	str	r2, [r4, #2664]
	ldr	r2, [r3, #64]
	str	r2, [r4, #2668]
	ldr	r2, [r3, #72]
	sub	r2, r2, #1
	str	r2, [r4, #2672]
	ldr	r2, [r3, #68]
	sub	r2, r2, #1
	str	r2, [r4, #2676]
	ldrb	r2, [r3, #10]	@ zero_extendqisi2
	strb	r2, [r4, #2465]
	ldrb	r3, [r3, #11]	@ zero_extendqisi2
	strb	r3, [r4, #2464]
	ldr	r3, [r5, #2356]
	str	r7, [r5, #2372]
	cmp	r3, #1
	beq	.L670
	ldr	r3, [r4, #60]
	ldr	r0, [r5, #276]
	ldr	r1, [r3, #28]
	bl	FSP_GetLogicFs
	subs	r9, r0, #0
	beq	.L680
	ldr	r2, [r9, #28]
	ldr	r3, [r9, #32]
	cmp	r2, #0
	beq	.L663
	cmp	r3, #0
	beq	.L663
	add	r3, r5, #8128
	add	r2, r5, #7808
	add	r1, r5, #7936
	add	r3, r3, #4
	add	r2, r2, #56
	add	r1, r1, #56
	ldr	r0, [r5, #276]
	bl	FSP_GetDecFsAddrTab
	ldr	r3, [r9, #28]
	add	r2, r5, #7936
	add	r1, r5, #8064
	add	r2, r2, #60
	add	r1, r1, #60
	ldr	r3, [r3, #4]
	str	r3, [r4, #3712]
	ldr	r0, [r5, #276]
	bl	FSP_GetPmvAddrTab
	ldr	r2, [r4, #36]
	add	r3, r5, r8
	add	r3, r3, #13120
	str	r2, [r4, #3716]
	ldr	r2, [r9, #12]
	str	r2, [r4, #4032]
	ldr	r2, [r9, #32]
	ldr	r2, [r2, #8]
	str	r2, [r6, #1016]
	ldr	r2, [r9, #32]
	ldr	r2, [r2, #60]
	str	r2, [r6, #1020]
	ldr	ip, [r3, #28]
	cmp	ip, #0
	str	ip, [r6, #812]
	beq	.L665
	add	r3, r8, #13184
	add	r2, r5, #8896
	add	r3, r3, #32
	add	r2, r2, #40
	add	r3, r5, r3
	mov	r0, r7
.L666:
	add	r0, r0, #1
	ldr	r1, [r3, #4]!
	cmp	r0, ip
	str	r1, [r2, #4]!
	bne	.L666
.L665:
	add	r7, r5, #6720
	mov	r6, #0
	add	r7, r7, #60
.L667:
	mov	r2, r7
	mov	r0, r6
	mov	r1, r5
	add	r6, r6, #1
	bl	HEVC_WriteQmatrix_8x8
	cmp	r6, #4
	add	r7, r7, #64
	bne	.L667
	add	r2, r5, #6976
	mov	r0, r6
	add	r2, r2, #60
	mov	r1, r5
	bl	HEVC_WriteQmatrix_8x8
	add	r2, r5, #7040
	add	r2, r2, #60
	mov	r1, r5
	mov	r0, #5
	add	r7, r5, #7232
	bl	HEVC_WriteQmatrix_8x8
	add	r2, r5, #7104
	add	r2, r2, #60
	mov	r1, r5
	mov	r0, #0
	add	r7, r7, #60
	bl	HEVC_WriteQmatrix_16x16
	add	r2, r5, #7168
	add	r2, r2, #60
	mov	r1, r5
	mov	r0, #1
	mov	r6, #2
	bl	HEVC_WriteQmatrix_16x16
.L668:
	mov	r2, r7
	mov	r0, r6
	mov	r1, r5
	add	r6, r6, #1
	bl	HEVC_WriteQmatrix_16x16
	cmp	r6, #6
	add	r7, r7, #64
	bne	.L668
	add	r2, r5, #7488
	mov	r1, r5
	add	r2, r2, #60
	mov	r0, #0
	bl	HEVC_WriteQmatrix_32x32
	add	r2, r5, #7552
	add	r2, r2, #60
	mov	r1, r5
	mov	r0, #1
	add	r7, r5, #7616
	bl	HEVC_WriteQmatrix_32x32
	add	r7, r7, #60
	mov	r6, #0
.L669:
	mov	r2, r7
	mov	r0, r6
	mov	r1, r5
	add	r6, r6, #1
	bl	HEVC_WriteQmatrix_4x4
	cmp	r6, #6
	add	r7, r7, #16
	bne	.L669
	ldr	r1, [r5, #2308]
	mov	r0, #0
	ldr	r3, [r5, #2312]
	ldr	r2, [r5, #2300]
	ldr	ip, [r5, #2304]
	mov	r1, r1, asl #16
	orr	r3, r1, r3, asl #24
	ldr	lr, [r4, #36]
	orr	r3, r3, r2
	orr	r3, r3, ip, asl #8
	str	r3, [r4, #3676]
	ldr	r1, [r5, #2324]
	ldr	r3, [r5, #2328]
	ldr	r2, [r5, #2316]
	ldr	ip, [r5, #2320]
	mov	r1, r1, asl #16
	orr	r3, r1, r3, asl #24
	str	lr, [r4, #3708]
	orr	r3, r3, r2
	orr	r3, r3, ip, asl #8
	str	r3, [r4, #3680]
	ldmfd	sp, {r3, r4, r5, r6, r7, r8, r9, r10, fp, sp, pc}
.L670:
	mov	r0, r7
	ldmfd	sp, {r3, r4, r5, r6, r7, r8, r9, r10, fp, sp, pc}
.L679:
	ldr	r2, .L681+12
	mov	r0, #1
	ldr	r1, .L681+16
	bl	dprint_vfmw
	mvn	r0, #0
	ldmfd	sp, {r3, r4, r5, r6, r7, r8, r9, r10, fp, sp, pc}
.L663:
	ldr	r1, .L681+20
	mov	r0, #1
	bl	dprint_vfmw
	mvn	r0, #0
	ldmfd	sp, {r3, r4, r5, r6, r7, r8, r9, r10, fp, sp, pc}
.L680:
	ldr	r3, [r4, #60]
	mov	r0, #1
	ldr	r1, .L681+24
	ldr	r2, [r3, #28]
	bl	dprint_vfmw
	mvn	r0, #0
	ldmfd	sp, {r3, r4, r5, r6, r7, r8, r9, r10, fp, sp, pc}
.L682:
	.align	2
.L681:
	.word	.LC70
	.word	.LC71
	.word	vfmw_Osal_Func_Ptr_S
	.word	.LANCHOR0+332
	.word	.LC72
	.word	.LC74
	.word	.LC73
	UNWIND(.fnend)
	.size	HEVC_WritePicMsg, .-HEVC_WritePicMsg
	.align	2
	.global	HEVC_CheckListX
	.type	HEVC_CheckListX, %function
HEVC_CheckListX:
	UNWIND(.fnstart)
	@ args = 0, pretend = 0, frame = 0
	@ frame_needed = 1, uses_anonymous_args = 0
	UNWIND(.movsp ip)
	mov	ip, sp
	stmfd	sp!, {fp, ip, lr, pc}
	UNWIND(.pad #4)
	UNWIND(.save {fp, ip, lr})
	UNWIND(.setfp fp, ip, #-4)
	sub	fp, ip, #4
	add	r3, r0, #4096
	ldrb	r3, [r3, #697]	@ zero_extendqisi2
	cmp	r3, #0
	addeq	r3, r0, #4736
	addeq	r3, r3, #56
	beq	.L685
	ldrsb	r3, [r0, #14]
	cmp	r3, #0
	addne	r3, r0, #11712
	addne	r3, r3, #60
	beq	.L718
.L685:
	ldr	ip, [r3, #68]
	ldr	lr, [r3, #72]
	cmp	ip, #16
	bhi	.L719
	cmp	lr, #16
	bhi	.L689
	cmp	ip, #0
	beq	.L690
	ldr	r3, [r0, #2856]
	cmp	r3, #0
	beq	.L703
	ldr	r3, [r3, #20]
	cmp	r3, #0
	addne	r1, r0, #2848
	movne	r2, #0
	addne	r1, r1, #8
	bne	.L695
	b	.L720
.L696:
	ldr	r3, [r1, #4]!
	cmp	r3, #0
	beq	.L691
	ldr	r3, [r3, #20]
	cmp	r3, #0
	beq	.L692
.L695:
	add	r2, r2, #1
	cmp	r2, ip
	bne	.L696
.L690:
	cmp	lr, #0
	beq	.L715
	ldr	r3, [r0, #2924]
	cmp	r3, #0
	beq	.L706
	ldr	r3, [r3, #20]
	cmp	r3, #0
	addne	r0, r0, #2912
	movne	r2, #0
	addne	r0, r0, #12
	bne	.L701
	b	.L721
.L702:
	ldr	r3, [r0, #4]!
	cmp	r3, #0
	beq	.L697
	ldr	r3, [r3, #20]
	cmp	r3, #0
	beq	.L698
.L701:
	add	r2, r2, #1
	cmp	r2, lr
	bne	.L702
.L715:
	mov	r0, #0
	ldmfd	sp, {fp, sp, pc}
.L703:
	mov	r2, r3
.L691:
	ldr	r1, .L722
	mov	r0, #0
	bl	dprint_vfmw
	mvn	r0, #0
	ldmfd	sp, {fp, sp, pc}
.L720:
	mov	r2, r3
.L692:
	ldr	r1, .L722+4
	mov	r0, #0
	bl	dprint_vfmw
	mvn	r0, #0
	ldmfd	sp, {fp, sp, pc}
.L706:
	mov	r2, r3
.L697:
	ldr	r1, .L722+8
	mov	r0, #0
	bl	dprint_vfmw
	mvn	r0, #0
	ldmfd	sp, {fp, sp, pc}
.L721:
	mov	r2, r3
.L698:
	ldr	r1, .L722+12
	mov	r0, #0
	bl	dprint_vfmw
	mvn	r0, #0
	ldmfd	sp, {fp, sp, pc}
.L718:
	mov	r0, r3
	ldr	r2, .L722+16
	ldr	r1, .L722+20
	bl	dprint_vfmw
	mvn	r0, #0
	ldmfd	sp, {fp, sp, pc}
.L689:
	mov	r2, lr
	mov	r3, #17
	ldr	r1, .L722+24
	mov	r0, #0
	bl	dprint_vfmw
	mvn	r0, #0
	ldmfd	sp, {fp, sp, pc}
.L719:
	mov	r2, ip
	mov	r3, #17
	ldr	r1, .L722+28
	mov	r0, #0
	bl	dprint_vfmw
	mvn	r0, #0
	ldmfd	sp, {fp, sp, pc}
.L723:
	.align	2
.L722:
	.word	.LC78
	.word	.LC79
	.word	.LC80
	.word	.LC81
	.word	.LANCHOR0+352
	.word	.LC75
	.word	.LC77
	.word	.LC76
	UNWIND(.fnend)
	.size	HEVC_CheckListX, .-HEVC_CheckListX
	.align	2
	.global	HEVC_WriteSliceMsg
	.type	HEVC_WriteSliceMsg, %function
HEVC_WriteSliceMsg:
	UNWIND(.fnstart)
	@ args = 0, pretend = 0, frame = 128
	@ frame_needed = 1, uses_anonymous_args = 0
	UNWIND(.movsp ip)
	mov	ip, sp
	stmfd	sp!, {r4, r5, r6, r7, r8, r9, r10, fp, ip, lr, pc}
	UNWIND(.pad #4)
	UNWIND(.save {r4, r5, r6, r7, r8, r9, r10, fp, ip, lr})
	UNWIND(.setfp fp, ip, #-4)
	sub	fp, ip, #4
	UNWIND(.pad #132)
	sub	sp, sp, #132
	add	r9, r0, #4096
	mov	r4, r0
	ldr	r8, [r9, #8]
	bl	HEVC_CheckListX
	subs	r3, r0, #0
	str	r3, [fp, #-116]
	bne	.L794
	ldr	r0, [r4, #204]
	ldr	r3, [r4, #152]
	cmp	r0, r3
	bcs	.L868
	ldr	r5, [r4, #2848]
	movw	r6, #1508
	ldr	r10, [fp, #-116]
	mov	r2, r6
	ldr	r3, .L876
	mla	r5, r6, r0, r5
	mov	r1, r10
	ldr	r3, [r3, #48]
	mov	r0, r5
	blx	r3
	ldr	r3, .L876
	mov	r2, #64
	mov	r1, r10
	sub	r0, fp, #108
	ldr	r3, [r3, #48]
	blx	r3
	ldr	r3, [r4, #204]
	ldr	r2, [r4, #152]
	add	r3, r3, #1
	str	r3, [r4, #204]
	cmp	r3, r2
	ldrcc	r2, [r4, #2848]
	ldrcs	r3, [fp, #-116]
	mlacc	r3, r6, r3, r2
	str	r3, [r5, #1504]
	ldr	r1, [r9, #732]
	ldr	r2, [r4, #2816]
	ldr	r0, [r4, #176]
	ldr	r3, [r4, #260]
	add	r0, r0, #1
	str	r1, [r4, #208]
	str	r0, [r4, #176]
	add	r3, r3, #1
	str	r3, [r4, #260]
	ldrb	r1, [r2]	@ zero_extendqisi2
	ldr	r3, [r2, #8]
	str	r0, [fp, #-120]
	cmp	r1, #1
	cmpls	r1, r3
	bcs	.L729
	add	r0, r5, r1, lsl #2
.L730:
	mov	r3, r1, asl #5
	sub	r3, r3, r1, asl #2
	add	r1, r1, #1
	add	r2, r2, r3
	ldr	r2, [r2, #56]
	str	r2, [r0, #8]
	ldr	r2, [r4, #2816]
	add	r2, r2, r3
	ldr	r2, [r2, #52]
	str	r2, [r0], #4
	ldr	r2, [r4, #2816]
	add	r3, r2, r3
	ldr	r3, [r3, #60]
	str	r3, [r0, #12]
	ldr	r2, [r4, #2816]
	ldr	r3, [r2, #8]
	cmp	r3, r1
	movhi	ip, #1
	movls	ip, #0
	cmp	r1, #1
	movhi	ip, #0
	cmp	ip, #0
	bne	.L730
.L729:
	cmp	r3, #1
	addls	r3, r5, r3, lsl #2
	addls	r1, r5, #8
	movls	r2, #0
	bhi	.L735
.L734:
	str	r2, [r3, #8]
	str	r2, [r3], #4
	cmp	r3, r1
	str	r2, [r3, #12]
	bne	.L734
.L735:
	ldrb	r3, [r9, #697]	@ zero_extendqisi2
	cmp	r3, #0
	beq	.L869
.L733:
	add	r3, r4, #8192
	str	r3, [fp, #-112]
	mov	r6, r3
	ldr	r3, [r3, #3648]
	cmp	r3, #0
	beq	.L736
	add	r1, r4, #2848
	add	r0, r5, #112
	add	r1, r1, #4
	mov	ip, #0
	mov	lr, #1
	b	.L740
.L871:
	ldr	r3, [r10, #16]
	cmp	r3, #0
	beq	.L738
	ldr	r3, [r9, #728]
	cmp	r3, #0
	beq	.L738
	ldr	r2, [r10, #20]
	sub	r7, fp, #44
	add	ip, ip, #1
	ldr	r3, [r2, #20]
	ldr	r2, [r2, #36]
	add	r3, r3, #1984
	add	r3, r3, #14
	add	r2, r7, r2, lsl #2
	add	r3, r4, r3, lsl #2
	ldr	r3, [r3, #4]
	str	r3, [r2, #-64]
	ldr	r3, [r10, #20]
	ldr	r3, [r3, #36]
	str	r3, [r0, #256]
	ldrb	r3, [r4, #2]	@ zero_extendqisi2
	cmp	r3, #0
	strne	lr, [r0]
	ldr	r2, [r6, #3648]
	cmp	r2, ip
	bls	.L870
.L740:
	ldr	r3, [r1, #4]!
	ldr	r3, [r3, #4]
	str	r3, [r0, #4]!
	ldrb	r3, [r4, #1]	@ zero_extendqisi2
	ldr	r10, [r1]
	cmp	r3, #0
	bne	.L871
.L738:
	ldr	r2, [r10, #20]
	sub	r7, fp, #44
	add	ip, ip, #1
	ldr	r3, [r2, #20]
	ldr	r2, [r2, #24]
	add	r3, r3, #1984
	add	r3, r3, #14
	add	r2, r7, r2, lsl #2
	add	r3, r4, r3, lsl #2
	ldr	r3, [r3, #4]
	str	r3, [r2, #-64]
	ldr	r3, [r10, #20]
	ldr	r3, [r3, #24]
	str	r3, [r0, #256]
	ldr	r2, [r6, #3648]
	cmp	r2, ip
	bhi	.L740
.L870:
	ldr	r0, [r6, #3652]
	str	r6, [fp, #-112]
	cmp	r0, #0
	beq	.L741
.L793:
	add	r1, r4, #2912
	add	ip, r5, #176
	add	r1, r1, #8
	mov	lr, #0
	mov	r10, #1
	ldr	r6, [fp, #-112]
	b	.L745
.L873:
	ldr	r3, [r0, #16]
	cmp	r3, #0
	beq	.L743
	ldr	r3, [r9, #728]
	cmp	r3, #0
	beq	.L743
	ldr	r2, [r0, #20]
	sub	r7, fp, #44
	add	lr, lr, #1
	ldr	r3, [r2, #20]
	ldr	r2, [r2, #36]
	add	r3, r3, #1984
	add	r3, r3, #14
	add	r2, r7, r2, lsl #2
	add	r3, r4, r3, lsl #2
	ldr	r3, [r3, #4]
	str	r3, [r2, #-64]
	ldr	r3, [r0, #20]
	ldr	r3, [r3, #36]
	str	r3, [ip, #256]
	ldrb	r3, [r4, #2]	@ zero_extendqisi2
	cmp	r3, #0
	strne	r10, [ip]
	ldr	r0, [r6, #3652]
	cmp	r0, lr
	bls	.L872
.L745:
	ldr	r3, [r1, #4]!
	ldr	r3, [r3, #4]
	str	r3, [ip, #4]!
	ldrb	r3, [r4, #1]	@ zero_extendqisi2
	ldr	r0, [r1]
	cmp	r3, #0
	bne	.L873
.L743:
	ldr	r2, [r0, #20]
	sub	r7, fp, #44
	add	lr, lr, #1
	ldr	r3, [r2, #20]
	ldr	r2, [r2, #24]
	add	r3, r3, #1984
	add	r3, r3, #14
	add	r2, r7, r2, lsl #2
	add	r3, r4, r3, lsl #2
	ldr	r3, [r3, #4]
	str	r3, [r2, #-64]
	ldr	r3, [r0, #20]
	ldr	r3, [r3, #24]
	str	r3, [ip, #256]
	ldr	r0, [r6, #3652]
	cmp	r0, lr
	bhi	.L745
.L872:
	ldr	r2, [r6, #3648]
	str	r6, [fp, #-112]
.L741:
	cmp	r2, #0
	beq	.L746
	mov	lr, #70
	ldr	r3, [r5, #372]
	mul	lr, lr, r8
	ldr	r10, [r9, #12]
	add	r3, lr, r3
	add	r3, r3, #3312
	add	r3, r3, #8
	add	r3, r4, r3, lsl #2
	ldr	r3, [r3, #4]
	cmp	r10, r3
	blt	.L865
	add	ip, r5, #372
	mov	r1, #0
	ldr	r6, [fp, #-112]
	b	.L748
.L749:
	ldr	r3, [ip, #4]!
	add	r3, lr, r3
	add	r3, r3, #3312
	add	r3, r3, #8
	add	r3, r4, r3, lsl #2
	ldr	r3, [r3, #4]
	cmp	r3, r10
	bgt	.L800
.L748:
	add	r1, r1, #1
	cmp	r1, r2
	bne	.L749
	str	r6, [fp, #-112]
.L746:
	ldr	r3, [fp, #-112]
	ldr	r2, [r3, #3600]
	cmp	r2, #0
	bne	.L866
	cmp	r0, #0
	beq	.L866
	mov	r1, #70
	ldr	r3, [r5, #436]
	mul	r8, r1, r8
	ldr	ip, [r9, #12]
	add	r3, r8, r3
	add	r3, r3, #3312
	add	r3, r3, #8
	add	r3, r4, r3, lsl #2
	ldr	r3, [r3, #4]
	cmp	ip, r3
	blt	.L747
	add	r1, r5, #436
	ldr	r6, [fp, #-112]
	b	.L750
.L751:
	ldr	r3, [r1, #4]!
	add	r3, r8, r3
	add	r3, r3, #3312
	add	r3, r3, #8
	add	r3, r4, r3, lsl #2
	ldr	r3, [r3, #4]
	cmp	r3, ip
	bgt	.L800
.L750:
	add	r2, r2, #1
	cmp	r2, r0
	bne	.L751
	str	r6, [fp, #-112]
	mov	r2, #1
	b	.L747
.L800:
	str	r6, [fp, #-112]
.L865:
	mov	r2, #0
.L747:
	strb	r2, [r5, #24]
	ldr	r1, [fp, #-112]
	ldrb	r3, [r9, #697]	@ zero_extendqisi2
	strb	r3, [r5, #25]
	ldr	r3, [r1, #3596]
	str	r3, [r5, #28]
	ldrb	r2, [r1, #3587]	@ zero_extendqisi2
	strb	r2, [r5, #32]
	ldr	r2, [r1, #3620]
	str	r2, [r5, #36]
	ldr	r2, [r4, #2356]
	cmp	r2, #0
	bne	.L752
	ldr	r8, [r9, #60]
	ldr	r1, [r4, #204]
	ldr	r0, [r8, #316]
	sub	r2, r1, #1
	mla	r0, r0, r2, r3
	bl	__aeabi_uidiv
	str	r0, [r8, #68]
.L752:
	ldr	r3, [fp, #-112]
	ldr	r3, [r3, #3600]
	cmp	r3, #0
	bne	.L753
	ldr	r3, [fp, #-112]
	ldrb	r3, [r3, #3588]	@ zero_extendqisi2
	cmp	r3, #0
	bne	.L754
	ldr	r3, [fp, #-112]
	ldr	r3, [r3, #3624]
	add	r3, r5, r3, lsl #2
	ldr	r8, [r3, #436]
.L755:
	ldr	r2, [fp, #-112]
	str	r8, [r5, #40]
	ldr	r6, [fp, #-112]
	ldr	r3, [r2, #3624]
	str	r3, [r5, #48]
	ldrb	r3, [r2, #3588]	@ zero_extendqisi2
	strb	r3, [r5, #52]
	ldr	r3, [r2, #3628]
	str	r3, [r5, #44]
	ldr	r3, [r2, #3656]
	cmp	r3, #0
	subne	r3, r3, #1
	str	r3, [r5, #60]
	ldr	r3, [fp, #-112]
	ldr	r3, [r3, #3660]
	cmp	r3, #0
	subne	r3, r3, #1
	str	r3, [r5, #56]
	ldrb	r3, [r6, #3584]	@ zero_extendqisi2
	strb	r3, [r5, #64]
	ldrb	r3, [r6, #3586]	@ zero_extendqisi2
	strb	r3, [r5, #65]
	ldr	r3, [r6, #3648]
	str	r3, [r5, #68]
	ldr	r3, [r6, #3652]
	str	r3, [r5, #72]
	ldr	r3, [r6, #3600]
	str	r3, [r5, #76]
	ldr	r3, [r9, #736]
	str	r3, [r5, #80]
	ldr	r3, [r4, #2828]
	ldr	r0, [r9, #736]
	ldr	r1, [r3, #188]
	bl	__aeabi_uidivmod
	str	r1, [r5, #84]
	ldr	r3, [r4, #2828]
	ldr	r0, [r9, #736]
	ldr	r1, [r3, #188]
	bl	__aeabi_uidiv
	str	r0, [r5, #88]
	mov	r0, r4
	ldr	r1, [r9, #736]
	bl	HEVC_CtbRsAddrToTsAddr
	str	r0, [r5, #92]
	ldr	r3, [r6, #3632]
	str	r3, [r5, #96]
	ldr	r3, [r6, #3636]
	str	r3, [r5, #100]
	ldr	r3, [r6, #3644]
	str	r3, [r5, #104]
	ldr	r3, [r6, #3640]
	str	r3, [r5, #108]
	ldrb	r3, [r6, #3583]	@ zero_extendqisi2
	strb	r3, [r5, #112]
	ldrb	r3, [r6, #3582]	@ zero_extendqisi2
	strb	r3, [r5, #113]
	ldrb	r3, [r6, #3589]	@ zero_extendqisi2
	strb	r3, [r5, #114]
	ldrb	r3, [r6, #3590]	@ zero_extendqisi2
	strb	r3, [r5, #115]
	ldr	r3, [r4, #2832]
	ldrb	r2, [r3, #10]	@ zero_extendqisi2
	cmp	r2, #0
	beq	.L760
	ldr	r2, [fp, #-112]
	ldr	r2, [r2, #3600]
	cmp	r2, #1
	beq	.L761
.L760:
	ldrb	r3, [r3, #11]	@ zero_extendqisi2
	cmp	r3, #1
	beq	.L874
.L763:
	ldr	r3, [fp, #-112]
	ldrb	r3, [r3, #3584]	@ zero_extendqisi2
	cmp	r3, #0
	subne	r3, fp, #44
	addne	r8, r3, r8, lsl #2
	ldreq	r3, [r9, #3900]
	ldrne	r3, [r8, #-64]
	str	r3, [r5, #564]
	ldrb	r3, [r4, #2]	@ zero_extendqisi2
	cmp	r3, #0
	beq	.L767
	ldr	r3, [r9, #728]
	cmp	r3, #0
	beq	.L767
	ldr	r8, [r4, #2848]
	ldr	lr, [r5, #68]
	cmp	r5, r8
	moveq	r3, #0
	streq	r3, [r5, #1360]
	streqb	r3, [r5, #1356]
	cmp	lr, #0
	beq	.L771
	add	r1, r4, #2848
	ldr	r6, [fp, #-112]
	mov	ip, #0
	add	r1, r1, #4
	mov	r3, ip
.L773:
	ldr	r2, [r1, #4]!
	add	r3, r3, #1
	ldr	r2, [r2, #20]
	ldr	r0, [r2, #32]
	cmp	r0, #0
	addeq	ip, r2, #80
	cmp	r3, lr
	bne	.L773
	cmp	ip, #0
	str	r6, [fp, #-112]
	beq	.L771
.L774:
	ldr	r3, [r5, #40]
	ldr	r2, [r9, #20]
	add	r3, r4, r3
	add	r3, r3, #13632
	add	r3, r3, #56
	str	r2, [fp, #-140]
	ldr	r2, [r9, #24]
	ldrsb	r3, [r3, #4]
	cmp	r3, #0
	str	r2, [fp, #-144]
	moveq	r3, #1
	movne	r3, #0
	cmp	ip, #0
	strb	r3, [r5, #1357]
	beq	.L779
	ldr	r3, [ip, #168]
	ldr	r0, [ip, #68]
	ldr	r2, [ip, #72]
	str	r3, [r8, #1468]
	ldr	r3, [ip, #172]
	mov	r6, r2
	str	r2, [fp, #-136]
	ldr	r7, [fp, #-140]
	str	r3, [r8, #1472]
	ldr	r3, [ip, #112]
	str	r0, [fp, #-124]
	str	r3, [r8, #1476]
	ldr	r2, [ip, #20]
	ldr	r3, [ip, #24]
	rsb	r3, r2, r3
	str	r3, [r8, #1480]
	ldr	r3, [ip, #140]
	str	r3, [r8, #1484]
	ldr	r3, [ip, #144]
	str	r3, [r8, #1488]
	ldr	r2, [ip, #20]
	ldr	r3, [ip, #44]
	rsb	r3, r2, r3
	str	r3, [r8, #1492]
	ldr	r2, [ip, #44]
	ldr	r3, [ip, #48]
	rsb	r3, r2, r3
	str	r3, [r8, #1496]
	ldr	r10, [r4, #2832]
	ldr	r3, [r10, #2984]
	ldr	r2, [r10, #3496]
	ldr	r1, [r10, #1960]
	sub	r3, r0, r3, asl #1
	ldr	r0, [r10, #2472]
	sub	lr, r3, r2, asl #1
	str	lr, [fp, #-148]
	sub	r1, r7, r1, asl #1
	ldr	ip, [r10, #3240]
	mov	r3, lr, asr #31
	sub	r1, r1, r0, asl #1
	ldr	lr, [r10, #3752]
	mov	r3, r3, asl #16
	str	r1, [fp, #-160]
	mov	r0, r1
	mov	r2, r3
	ldr	r3, [fp, #-148]
	orr	r2, r2, r3, lsr #16
	mov	r3, r3, asl #16
	str	r3, [fp, #-132]
	sub	r3, r6, ip, asl #1
	sub	ip, r3, lr, asl #1
	ldr	lr, [r10, #2216]
	ldr	r3, [fp, #-144]
	str	r2, [fp, #-128]
	mov	r2, r1
	sub	r3, r3, lr, asl #1
	ldr	lr, [r10, #2728]
	ldrd	r6, [fp, #-132]
	mov	r1, r1, asr #31
	movs	r1, r1, lsr #1
	mov	r0, r0, rrx
	str	ip, [fp, #-152]
	adds	r6, r6, r0
	sub	lr, r3, lr, asl #1
	ldr	r3, .L876
	adc	r7, r7, r1
	mov	r0, r6
	str	lr, [fp, #-132]
	mov	r1, r7
	mov	r6, ip
	ldr	r3, [r3, #236]
	blx	r3
	mov	r1, r6, asr #31
	ldr	lr, [fp, #-132]
	mov	ip, r6, asl #16
	mov	r1, r1, asl #16
	ldr	r3, .L876
	mov	r7, r1
	mov	r1, lr, asr #31
	ldr	r3, [r3, #236]
	mov	r2, lr
	str	r0, [fp, #-156]
	mov	r0, lr
	strd	r0, [fp, #-172]
	orr	r1, r7, r6, lsr #16
	mov	r7, r1
	ldrd	r0, [fp, #-172]
	movs	r1, r1, lsr #1
	mov	r0, r0, rrx
	adds	r6, ip, r0
	adc	r7, r7, r1
	mov	r0, r6
	mov	r1, r7
	blx	r3
	ldr	r7, [fp, #-140]
	mov	ip, r0
	ldr	r0, [fp, #-124]
	cmp	r7, r0
	bgt	.L780
	ldr	r3, [fp, #-156]
	cmp	r3, #65536
	movgt	r7, #0
	movle	r7, #1
.L781:
	ldr	r3, [fp, #-144]
	ldr	r2, [fp, #-136]
	cmp	r3, r2
	bgt	.L782
	cmp	ip, #65536
	movgt	r2, #0
	movle	r2, #1
.L783:
	ldr	r3, [fp, #-124]
	cmp	r7, #0
	orrne	r7, r2, r7
	str	ip, [r8, #1384]
	strne	r7, [r8, #1360]
	str	r3, [r8, #1364]
	ldr	r3, [fp, #-136]
	str	ip, [r8, #1392]
	str	r3, [r8, #1368]
	mov	r3, #1
	strb	r3, [r8, #1356]
	ldr	r3, [fp, #-156]
	str	r3, [r8, #1380]
	str	r3, [r8, #1388]
	ldrb	r7, [r10, #1890]	@ zero_extendqisi2
	cmp	r7, #0
	beq	.L785
	ldr	r3, [fp, #-152]
	add	r0, r10, #4096
	ldr	r1, [r10, #4008]
	ldr	lr, [fp, #-156]
	mov	r3, r3, asr #1
	str	r1, [r8, #1428]
	mov	r6, r3
	ldr	r3, [r0, #168]
	mul	r1, r1, lr
	str	r3, [r8, #1432]
	ldr	r2, [r0, #424]
	mul	r3, r3, ip
	sub	r2, r2, #8
	str	r2, [r8, #1436]
	add	r1, r1, #8
	mul	r2, r2, lr
	add	r3, r3, #8
	mov	r1, r1, asr #4
	ldr	r0, [r0, #680]
	mov	lr, r3, asr #4
	rsb	r1, r1, #0
	add	r3, r2, #8
	rsb	r2, lr, #0
	sub	r0, r0, #8
	str	r0, [r8, #1440]
	mov	r3, r3, asr #4
	rsb	r3, r3, #0
.L786:
	mul	ip, r0, ip
	ldr	lr, [fp, #-148]
	str	r1, [r8, #1444]
	mov	r7, #61440
	ldr	r1, [fp, #-160]
	movt	r7, 65535
	add	ip, ip, #8
	mov	r0, lr, asr #1
	str	r3, [r8, #1452]
	mov	ip, ip, asr #4
	add	r0, r0, r1, lsl #8
	rsb	ip, ip, #0
	mov	r1, lr
	str	ip, [r8, #1456]
	str	r2, [r8, #1448]
	movw	r2, #4095
	str	r2, [fp, #-140]
	bl	__aeabi_idiv
	ldr	r2, [fp, #-140]
	ldr	r1, [fp, #-152]
	cmp	r0, r2
	movge	ip, r2
	ldr	r2, [fp, #-132]
	movlt	ip, r0
	cmp	ip, r7
	add	r0, r6, r2, lsl #8
	movlt	ip, r7
	str	ip, [r8, #1460]
	bl	__aeabi_idiv
	ldr	r2, [fp, #-140]
	mov	r1, #1
	cmp	r0, r2
	movge	r0, r2
	cmp	r0, r7
	movlt	r0, r7
	str	r0, [r8, #1464]
	ldr	r2, [r10, #1960]
	ldr	r0, [fp, #-136]
	mov	r2, r2, asl r1
	str	r2, [r8, #1396]
	ldr	r3, [r10, #2216]
	mov	r2, r2, asr r1
	str	r2, [r8, #1404]
	mov	r3, r3, asl r1
	str	r3, [r8, #1400]
	mov	r3, r3, asr r1
	str	r3, [r8, #1408]
	ldr	r2, [r10, #2984]
	mov	r2, r2, asl r1
	str	r2, [r8, #1412]
	ldr	r3, [r10, #3240]
	mov	r2, r2, asr r1
	str	r2, [r8, #1420]
	mov	r3, r3, asl r1
	str	r3, [r8, #1416]
	mov	r3, r3, asr r1
	str	r3, [r8, #1424]
	ldr	r3, [r4, #2828]
	ldr	r2, [r3, #128]
	ldr	r3, [fp, #-124]
	mov	r2, r1, asl r2
	sub	r1, r2, #1
	rsb	r2, r2, #0
	add	r3, r3, r1
	add	r1, r0, r1
	and	r3, r3, r2
	and	r2, r2, r1
	str	r3, [r8, #1372]
	str	r2, [r8, #1376]
.L779:
	add	ip, r4, #12288
	mov	r2, #0
	str	r2, [r5, #1500]
	ldr	r3, [ip, #1140]
	cmp	r3, r2
	beq	.L769
	add	r1, r4, #13632
	ldr	r6, [fp, #-112]
	add	r1, r1, #59
	mov	r3, r2
.L788:
	ldrsb	r0, [r1, #1]!
	orr	r2, r2, r0, asl r3
	str	r2, [r5, #1500]
	ldr	r0, [ip, #1140]
	add	r3, r3, #1
	cmp	r3, r0
	bcc	.L788
	str	r6, [fp, #-112]
	b	.L769
.L736:
	ldr	r3, [fp, #-112]
	ldr	r3, [r3, #3652]
	cmp	r3, #0
	bne	.L793
.L866:
	mov	r2, #1
	b	.L747
.L753:
	cmp	r3, #1
	movne	r8, #0
	bne	.L755
.L754:
	ldr	r3, [fp, #-112]
	ldr	r3, [r3, #3624]
	add	r3, r5, r3, lsl #2
	ldr	r8, [r3, #372]
	b	.L755
.L767:
	mov	r3, #0
	mov	r2, #1
	str	r3, [r5, #1360]
	strb	r3, [r5, #1356]
	strb	r2, [r5, #1357]
.L769:
	ldr	r3, [r4, #2356]
	cmp	r3, #0
	ldreq	r1, [r4, #2816]
	ldreq	r2, [r4, #2836]
	ldreq	r0, [fp, #-120]
	streq	r1, [r2, r0, asl #2]
	streq	r3, [r4, #2816]
	ldrb	r3, [r9, #2649]	@ zero_extendqisi2
	cmp	r3, #0
	beq	.L825
	ldr	r3, [r4, #260]
	cmp	r3, #1
	beq	.L875
	add	r1, r4, r3, lsl #3
	ldr	r0, [r5, #92]
	add	r1, r1, #10048
	add	r2, r3, #1248
	add	r2, r2, #13
	sub	r0, r0, #1
	str	r0, [r1, #40]
	sub	r3, r3, #1
	ldr	r1, [r5, #92]
	add	r2, r4, r2, lsl #3
	str	r1, [r2, #4]
.L792:
	ldr	r1, [r9, #2448]
	add	r3, r4, r3, lsl #3
	ldr	r2, [r9, #2444]
	add	r3, r3, #10048
	mla	r2, r1, r2, r2
	add	r2, r2, r1
	str	r2, [r3, #56]
	ldr	r1, [r5, #92]
	sub	r1, r1, #1
	cmp	r1, #36864
	bcs	.L825
	mov	r0, r4
	bl	HEVC_CtbTsAddrToRsAddr
	str	r0, [r5, #568]
.L825:
	ldr	r0, [fp, #-116]
	sub	sp, fp, #40
	ldmfd	sp, {r4, r5, r6, r7, r8, r9, r10, fp, sp, pc}
.L869:
	ldr	r3, .L876
	add	r1, r4, #4736
	add	r0, r4, #11712
	add	r1, r1, #56
	add	r0, r0, #60
	mov	r2, #1376
	ldr	r3, [r3, #52]
	blx	r3
	mov	r3, #1
	strb	r3, [r4, #14]
	b	.L733
.L874:
	ldr	r3, [fp, #-112]
	ldr	r3, [r3, #3600]
	cmp	r3, #0
	bne	.L763
.L761:
	ldr	r6, [fp, #-112]
	add	r1, r4, #12032
	ldr	r3, .L876
	add	r1, r1, #32
	ldr	r10, .L876
	mov	r2, #64
	ldr	ip, [r6, #3736]
	add	r0, r5, #588
	ldr	r3, [r3, #52]
	str	ip, [r5, #580]
	ldr	ip, [r6, #3868]
	str	ip, [r5, #584]
	blx	r3
	add	r1, r4, #11904
	add	r1, r1, #28
	ldr	r3, [r10, #52]
	mov	r2, #64
	add	r0, r5, #716
	blx	r3
	add	r1, r4, #12096
	add	r1, r1, #32
	ldr	r3, [r10, #52]
	mov	r2, #128
	add	r0, r5, #844
	blx	r3
	add	r1, r4, #12224
	add	r0, r5, #1088
	ldr	r3, [r10, #52]
	add	r1, r1, #32
	add	r0, r0, #12
	mov	r2, #128
	blx	r3
	ldr	r3, [r6, #3600]
	cmp	r3, #0
	bne	.L763
	add	r1, r4, #12352
	ldr	r3, [r10, #52]
	add	r1, r1, #32
	mov	r2, #64
	add	r0, r5, #652
	blx	r3
	add	r1, r4, #11968
	ldr	r3, [r10, #52]
	add	r1, r1, #28
	mov	r2, #64
	add	r0, r5, #780
	blx	r3
	add	r1, r4, #12416
	ldr	r3, [r10, #52]
	add	r1, r1, #32
	mov	r2, #128
	add	r0, r5, #972
	blx	r3
	add	r1, r4, #12544
	add	r0, r5, #1216
	ldr	r3, [r10, #52]
	add	r1, r1, #32
	mov	r2, #128
	add	r0, r0, #12
	blx	r3
	b	.L763
.L780:
	ldr	r3, [fp, #-124]
	ldr	r0, [fp, #-140]
	mov	r2, r3, asl #1
	add	r3, r2, r3
	add	r1, r3, r3, lsr #31
	cmp	r0, r1, asr #1
	movle	r7, #1
	ble	.L781
	cmp	r0, r2
	movle	r7, #2
	ble	.L781
	cmp	r0, r3
	mov	r2, r0
	movle	r7, #3
	ble	.L781
	ldr	r3, [fp, #-124]
	mov	r0, #1
	ldr	r1, .L876+4
	mov	r7, #3
	str	ip, [fp, #-172]
	bl	dprint_vfmw
	ldr	ip, [fp, #-172]
	b	.L781
.L875:
	ldr	r2, [r5, #92]
	mov	r3, #0
	ldr	r1, [fp, #-112]
	str	r2, [r1, #1908]
	b	.L792
.L785:
	ldr	r1, [fp, #-152]
	ldr	r2, [fp, #-132]
	str	r7, [r8, #1428]
	mov	r3, r1, asr #1
	str	r7, [r8, #1432]
	add	r0, r3, r2, lsl #2
	str	r7, [r8, #1436]
	str	ip, [fp, #-140]
	mov	r6, r3
	bl	__aeabi_idiv
	mov	r3, r7
	mov	r2, r7
	mov	r1, r7
	ldr	ip, [fp, #-140]
	sub	r0, r0, #4
	str	r0, [r8, #1440]
	b	.L786
.L782:
	ldr	r3, [fp, #-136]
	ldr	r0, [fp, #-144]
	mov	r2, r3, asl #1
	add	r3, r2, r3
	add	r1, r3, r3, lsr #31
	cmp	r0, r1, asr #1
	movle	r2, #1
	ble	.L783
	cmp	r0, r2
	movle	r2, #2
	ble	.L783
	cmp	r0, r3
	mov	r2, r0
	movle	r2, #3
	ble	.L783
	ldr	r3, [fp, #-136]
	mov	r0, #1
	ldr	r1, .L876+8
	str	ip, [fp, #-140]
	bl	dprint_vfmw
	mov	r2, #3
	ldr	ip, [fp, #-140]
	b	.L783
.L771:
	ldr	lr, [r5, #72]
	cmp	lr, #0
	beq	.L802
	add	r1, r4, #2912
	ldr	r6, [fp, #-112]
	mov	ip, #0
	add	r1, r1, #8
	mov	r3, ip
.L776:
	ldr	r2, [r1, #4]!
	add	r3, r3, #1
	ldr	r2, [r2, #20]
	ldr	r0, [r2, #32]
	cmp	r0, #0
	addeq	ip, r2, #80
	cmp	r3, lr
	bne	.L776
	str	r6, [fp, #-112]
	b	.L774
.L802:
	mov	ip, lr
	b	.L774
.L794:
	mvn	r3, #0
	str	r3, [fp, #-116]
	b	.L825
.L868:
	mov	r2, r0
	ldr	r1, .L876+12
	mov	r0, #1
	bl	dprint_vfmw
	mvn	r3, #0
	str	r3, [fp, #-116]
	b	.L825
.L877:
	.align	2
.L876:
	.word	vfmw_Osal_Func_Ptr_S
	.word	.LC83
	.word	.LC84
	.word	.LC82
	UNWIND(.fnend)
	.size	HEVC_WriteSliceMsg, .-HEVC_WriteSliceMsg
	.align	2
	.global	HEVC_GetVirAddr
	.type	HEVC_GetVirAddr, %function
HEVC_GetVirAddr:
	UNWIND(.fnstart)
	@ args = 0, pretend = 0, frame = 0
	@ frame_needed = 1, uses_anonymous_args = 0
	UNWIND(.movsp ip)
	mov	ip, sp
	stmfd	sp!, {fp, ip, lr, pc}
	UNWIND(.pad #4)
	UNWIND(.save {fp, ip, lr})
	UNWIND(.setfp fp, ip, #-4)
	sub	fp, ip, #4
	add	r0, r1, r0, lsl #2
	ldmfd	sp, {fp, sp, pc}
	UNWIND(.fnend)
	.size	HEVC_GetVirAddr, .-HEVC_GetVirAddr
	.align	2
	.global	HEVC_GetPhyAddr
	.type	HEVC_GetPhyAddr, %function
HEVC_GetPhyAddr:
	UNWIND(.fnstart)
	@ args = 0, pretend = 0, frame = 0
	@ frame_needed = 1, uses_anonymous_args = 0
	UNWIND(.movsp ip)
	mov	ip, sp
	stmfd	sp!, {fp, ip, lr, pc}
	UNWIND(.pad #4)
	UNWIND(.save {fp, ip, lr})
	UNWIND(.setfp fp, ip, #-4)
	sub	fp, ip, #4
	add	r0, r1, r0, lsl #2
	ldmfd	sp, {fp, sp, pc}
	UNWIND(.fnend)
	.size	HEVC_GetPhyAddr, .-HEVC_GetPhyAddr
	.align	2
	.global	HEVC_CfgVDMReg
	.type	HEVC_CfgVDMReg, %function
HEVC_CfgVDMReg:
	UNWIND(.fnstart)
	@ args = 0, pretend = 0, frame = 0
	@ frame_needed = 1, uses_anonymous_args = 0
	UNWIND(.movsp ip)
	mov	ip, sp
	stmfd	sp!, {fp, ip, lr, pc}
	UNWIND(.pad #4)
	UNWIND(.save {fp, ip, lr})
	UNWIND(.setfp fp, ip, #-4)
	sub	fp, ip, #4
	add	r2, r0, #4096
	mov	r1, r0
	add	ip, r0, #8192
	mov	r0, #0
	ldr	r3, [r2, #28]
	ldr	lr, [r2, #32]
	clz	r3, r3
	str	lr, [r2, #3756]
	mov	r3, r3, lsr #5
	str	r3, [r2, #3764]
	ldr	r3, [r1, #204]
	str	r3, [ip, #816]
	ldmfd	sp, {fp, sp, pc}
	UNWIND(.fnend)
	.size	HEVC_CfgVDMReg, .-HEVC_CfgVDMReg
	.align	2
	.global	HEVC_IsRefForCurrPic
	.type	HEVC_IsRefForCurrPic, %function
HEVC_IsRefForCurrPic:
	UNWIND(.fnstart)
	@ args = 0, pretend = 0, frame = 24
	@ frame_needed = 1, uses_anonymous_args = 0
	UNWIND(.movsp ip)
	mov	ip, sp
	stmfd	sp!, {r4, r5, r6, r7, r8, r9, r10, fp, ip, lr, pc}
	UNWIND(.pad #4)
	UNWIND(.save {r4, r5, r6, r7, r8, r9, r10, fp, ip, lr})
	UNWIND(.setfp fp, ip, #-4)
	sub	fp, ip, #4
	UNWIND(.pad #44)
	sub	sp, sp, #44
	ldrb	r3, [r0, #1]	@ zero_extendqisi2
	mov	r4, r0
	cmp	r3, #1
	beq	.L910
.L882:
	add	ip, r4, #4096
	ldr	r2, [r4, #164]
	ldr	r3, [ip, #732]
	cmp	r3, #0
	blt	.L899
	cmp	r3, r2
	bge	.L899
	ldr	r2, [r4, #2808]
	movw	r1, #5036
	mla	r3, r1, r3, r2
	ldr	r2, [r4, #160]
	ldr	r3, [r3, #32]
	cmp	r3, #0
	blt	.L886
	cmp	r3, r2
	bge	.L886
	ldr	r2, [r4, #2804]
	movw	r1, #12668
	ldr	r0, [ip, #1628]
	mov	r10, #1
	ldr	lr, [ip, #1632]
	mla	r1, r1, r3, r2
	ldr	r3, [ip, #1636]
	add	r2, lr, r0
	str	r0, [fp, #-56]
	cmp	r2, r3
	str	lr, [fp, #-60]
	mov	r5, r2
	ldr	r1, [r1, #116]
	mov	r10, r10, asl r1
	bcs	.L900
	cmp	r2, #15
	bgt	.L889
	add	r6, r2, #1440
	ldr	r9, [ip, #12]
	add	r6, r6, #15
	str	r4, [fp, #-48]
	str	r2, [fp, #-64]
	add	r6, r4, r6, lsl #2
	mov	r8, r9
	mov	r4, r3
	str	ip, [fp, #-52]
	b	.L891
.L913:
	cmp	r5, r4
	bcs	.L911
	cmp	r5, #16
	beq	.L912
.L891:
	ldr	r7, [r6, #4]!
	mov	r1, r10
	mov	r0, r8
	mov	r9, r8
	ldr	lr, [r6, #-944]
	cmp	lr, #0
	bne	.L892
	bl	__aeabi_idivmod
	mov	r0, r7
	mov	r9, r1
	mov	r1, r10
	bl	__aeabi_idivmod
	mov	r7, r1
.L892:
	cmp	r9, r7
	add	r5, r5, #1
	bne	.L913
	ldr	r2, [fp, #-64]
	mov	r5, #1
	ldr	r4, [fp, #-48]
	ldr	ip, [fp, #-52]
.L888:
	cmp	r2, #0
	beq	.L903
	ldr	lr, [ip, #708]
	ldr	r3, [ip, #1660]
	ldr	r0, [ip, #12]
	add	r3, lr, r3
	cmp	r0, r3
	beq	.L894
	add	r4, r4, #5696
	mov	r1, #0
	add	r4, r4, #60
	b	.L895
.L896:
	ldr	r3, [r4, #4]!
	add	r3, lr, r3
	cmp	r3, r0
	beq	.L894
.L895:
	add	r1, r1, #1
	cmp	r1, r2
	beq	.L903
	cmp	r1, #17
	bne	.L896
	ldr	r3, [fp, #-60]
	mov	r0, #0
	ldr	r2, [fp, #-56]
	str	r1, [sp]
	str	r3, [sp, #8]
	mov	r3, r1
	str	r2, [sp, #4]
	movw	r2, #8976
	ldr	r1, .L914
	bl	dprint_vfmw
	mov	r0, r5
	b	.L908
.L899:
	str	r2, [sp]
	mov	r0, #0
	movw	r2, #8915
	ldr	r1, .L914+4
	bl	dprint_vfmw
	mov	r0, #0
.L908:
	sub	sp, fp, #40
	ldmfd	sp, {r4, r5, r6, r7, r8, r9, r10, fp, sp, pc}
.L910:
	ldr	r3, [r0, #2844]
	ldr	r3, [r3, #24]
	bics	r3, r3, #4
	beq	.L882
.L894:
	mov	r0, #1
	sub	sp, fp, #40
	ldmfd	sp, {r4, r5, r6, r7, r8, r9, r10, fp, sp, pc}
.L886:
	str	r2, [sp]
	mov	r0, #0
	movw	r2, #8927
	ldr	r1, .L914+8
	bl	dprint_vfmw
	mov	r0, #0
	sub	sp, fp, #40
	ldmfd	sp, {r4, r5, r6, r7, r8, r9, r10, fp, sp, pc}
.L912:
	mov	r3, r4
	ldr	ip, [fp, #-52]
	ldr	r4, [fp, #-48]
.L889:
	str	r3, [sp, #4]
	mov	r1, #16
	mov	r3, r5
	movw	r2, #8947
	str	r1, [sp]
	mov	r0, #0
	ldr	r1, .L914+12
	mov	r5, r0
	str	ip, [fp, #-48]
	bl	dprint_vfmw
	ldr	ip, [fp, #-48]
	ldr	r3, [ip, #1628]
	ldr	r2, [ip, #1632]
	str	r3, [fp, #-56]
	str	r2, [fp, #-60]
	add	r2, r2, r3
	b	.L888
.L911:
	ldr	r2, [fp, #-64]
	mov	r5, #0
	ldr	r4, [fp, #-48]
	ldr	ip, [fp, #-52]
	b	.L888
.L903:
	mov	r0, r5
	b	.L908
.L900:
	mov	r5, #0
	b	.L888
.L915:
	.align	2
.L914:
	.word	.LC88
	.word	.LC85
	.word	.LC86
	.word	.LC87
	UNWIND(.fnend)
	.size	HEVC_IsRefForCurrPic, .-HEVC_IsRefForCurrPic
	.align	2
	.global	HEVC_IsPicVPSRefresh
	.type	HEVC_IsPicVPSRefresh, %function
HEVC_IsPicVPSRefresh:
	UNWIND(.fnstart)
	@ args = 0, pretend = 0, frame = 0
	@ frame_needed = 1, uses_anonymous_args = 0
	UNWIND(.movsp ip)
	mov	ip, sp
	stmfd	sp!, {fp, ip, lr, pc}
	UNWIND(.pad #4)
	UNWIND(.save {fp, ip, lr})
	UNWIND(.setfp fp, ip, #-4)
	sub	fp, ip, #4
	ldr	r2, [r0, #2824]
	ldr	r3, [r1, #4]
	ldr	r2, [r2, #4]
	cmp	r2, r3
	beq	.L919
	mov	r0, #1
	ldmfd	sp, {fp, sp, pc}
.L919:
	ldrb	r0, [r1, #2]	@ zero_extendqisi2
	adds	r0, r0, #0
	movne	r0, #1
	ldmfd	sp, {fp, sp, pc}
	UNWIND(.fnend)
	.size	HEVC_IsPicVPSRefresh, .-HEVC_IsPicVPSRefresh
	.align	2
	.global	HEVC_UpdatePicVPS
	.type	HEVC_UpdatePicVPS, %function
HEVC_UpdatePicVPS:
	UNWIND(.fnstart)
	@ args = 0, pretend = 0, frame = 0
	@ frame_needed = 1, uses_anonymous_args = 0
	UNWIND(.movsp ip)
	mov	ip, sp
	stmfd	sp!, {r4, r5, fp, ip, lr, pc}
	UNWIND(.pad #4)
	UNWIND(.save {r4, r5, fp, ip, lr})
	UNWIND(.setfp fp, ip, #-4)
	sub	fp, ip, #4
	mov	r2, #0
	strb	r2, [r1, #2]
	ldr	r3, [r0, #156]
	movw	r4, #24912
	ldr	ip, .L921
	mov	r5, r0
	ldr	r0, [r0, #2800]
	mov	r2, r4
	mul	r3, r4, r3
	ldr	ip, [ip, #52]
	sub	r3, r3, #24832
	sub	r3, r3, #80
	add	r0, r0, r3
	blx	ip
	ldr	r2, [r5, #156]
	ldr	r3, [r5, #2800]
	mul	r4, r4, r2
	sub	r4, r4, #24832
	sub	r4, r4, #80
	add	r4, r3, r4
	str	r4, [r5, #2824]
	ldmfd	sp, {r4, r5, fp, sp, pc}
.L922:
	.align	2
.L921:
	.word	vfmw_Osal_Func_Ptr_S
	UNWIND(.fnend)
	.size	HEVC_UpdatePicVPS, .-HEVC_UpdatePicVPS
	.align	2
	.global	HEVC_IsPicSPSRefresh
	.type	HEVC_IsPicSPSRefresh, %function
HEVC_IsPicSPSRefresh:
	UNWIND(.fnstart)
	@ args = 0, pretend = 0, frame = 0
	@ frame_needed = 1, uses_anonymous_args = 0
	UNWIND(.movsp ip)
	mov	ip, sp
	stmfd	sp!, {fp, ip, lr, pc}
	UNWIND(.pad #4)
	UNWIND(.save {fp, ip, lr})
	UNWIND(.setfp fp, ip, #-4)
	sub	fp, ip, #4
	ldr	r2, [r0, #2828]
	ldr	r3, [r1, #56]
	ldr	r2, [r2, #56]
	cmp	r2, r3
	beq	.L926
	mov	r0, #1
	ldmfd	sp, {fp, sp, pc}
.L926:
	ldrb	r0, [r1]	@ zero_extendqisi2
	adds	r0, r0, #0
	movne	r0, #1
	ldmfd	sp, {fp, sp, pc}
	UNWIND(.fnend)
	.size	HEVC_IsPicSPSRefresh, .-HEVC_IsPicSPSRefresh
	.align	2
	.global	HEVC_UpdatePicSPS
	.type	HEVC_UpdatePicSPS, %function
HEVC_UpdatePicSPS:
	UNWIND(.fnstart)
	@ args = 0, pretend = 0, frame = 0
	@ frame_needed = 1, uses_anonymous_args = 0
	UNWIND(.movsp ip)
	mov	ip, sp
	stmfd	sp!, {r4, r5, fp, ip, lr, pc}
	UNWIND(.pad #4)
	UNWIND(.save {r4, r5, fp, ip, lr})
	UNWIND(.setfp fp, ip, #-4)
	sub	fp, ip, #4
	mov	r2, #0
	strb	r2, [r1]
	ldr	r3, [r0, #160]
	movw	r5, #12668
	ldr	ip, .L928
	mov	r4, r0
	ldr	r0, [r0, #2804]
	mov	r2, r5
	mul	r3, r5, r3
	ldr	ip, [ip, #52]
	sub	r3, r3, #12608
	sub	r3, r3, #60
	add	r0, r0, r3
	blx	ip
	ldr	r2, [r4, #160]
	ldr	r3, [r4, #2804]
	mul	r5, r5, r2
	sub	r5, r5, #12608
	sub	r5, r5, #60
	add	r5, r3, r5
	str	r5, [r4, #2828]
	ldr	r3, [r5, #56]
	str	r3, [r4, #288]
	ldr	r3, [r5, #64]
	str	r3, [r4, #292]
	ldr	r3, [r5, #68]
	str	r3, [r4, #296]
	ldr	r3, [r5, #128]
	str	r3, [r4, #300]
	ldmfd	sp, {r4, r5, fp, sp, pc}
.L929:
	.align	2
.L928:
	.word	vfmw_Osal_Func_Ptr_S
	UNWIND(.fnend)
	.size	HEVC_UpdatePicSPS, .-HEVC_UpdatePicSPS
	.align	2
	.global	HEVC_IsPicPPSRefresh
	.type	HEVC_IsPicPPSRefresh, %function
HEVC_IsPicPPSRefresh:
	UNWIND(.fnstart)
	@ args = 0, pretend = 0, frame = 0
	@ frame_needed = 1, uses_anonymous_args = 0
	UNWIND(.movsp ip)
	mov	ip, sp
	stmfd	sp!, {fp, ip, lr, pc}
	UNWIND(.pad #4)
	UNWIND(.save {fp, ip, lr})
	UNWIND(.setfp fp, ip, #-4)
	sub	fp, ip, #4
	ldr	r2, [r0, #2832]
	ldr	r3, [r1, #28]
	ldr	r2, [r2, #28]
	cmp	r2, r3
	beq	.L933
	mov	r0, #1
	ldmfd	sp, {fp, sp, pc}
.L933:
	ldrb	r0, [r1, #1]	@ zero_extendqisi2
	adds	r0, r0, #0
	movne	r0, #1
	ldmfd	sp, {fp, sp, pc}
	UNWIND(.fnend)
	.size	HEVC_IsPicPPSRefresh, .-HEVC_IsPicPPSRefresh
	.align	2
	.global	HEVC_UpdatePicPPS
	.type	HEVC_UpdatePicPPS, %function
HEVC_UpdatePicPPS:
	UNWIND(.fnstart)
	@ args = 0, pretend = 0, frame = 8
	@ frame_needed = 1, uses_anonymous_args = 0
	UNWIND(.movsp ip)
	mov	ip, sp
	stmfd	sp!, {r4, r5, r6, r7, r8, r9, r10, fp, ip, lr, pc}
	UNWIND(.pad #4)
	UNWIND(.save {r4, r5, r6, r7, r8, r9, r10, fp, ip, lr})
	UNWIND(.setfp fp, ip, #-4)
	sub	fp, ip, #4
	UNWIND(.pad #12)
	sub	sp, sp, #12
	ldrb	r3, [r2, #13]	@ zero_extendqisi2
	mov	r4, #0
	mov	r5, r2
	cmp	r3, r4
	mov	r6, r0
	mov	r7, r1
	strb	r4, [r2, #1]
	beq	.L935
	ldrb	r3, [r2, #15]	@ zero_extendqisi2
	cmp	r3, r4
	bne	.L953
	ldr	lr, [r2, #68]
	ldr	r3, [r1, #188]
	cmp	lr, #1
	add	r0, r2, lr, lsl #1
	strh	r3, [r0, #170]	@ movhi
	ble	.L947
	add	lr, lr, #42
	add	r2, r2, #86
	add	ip, r5, #170
	add	lr, r5, lr, lsl #1
.L946:
	ldrh	r1, [r2, #2]!
	cmp	r2, lr
	strh	r1, [ip, #2]!	@ movhi
	ldrh	r3, [r0, #170]
	rsb	r3, r1, r3
	strh	r3, [r0, #170]	@ movhi
	bne	.L946
.L947:
	ldr	lr, [r5, #72]
	ldr	r3, [r7, #192]
	cmp	lr, #1
	add	r0, r5, lr, lsl #1
	strh	r3, [r0, #210]	@ movhi
	ble	.L942
	add	lr, lr, #62
	add	r2, r5, #126
	add	ip, r5, #210
	add	lr, r5, lr, lsl #1
.L948:
	ldrh	r1, [r2, #2]!
	cmp	r2, lr
	strh	r1, [ip, #2]!	@ movhi
	ldrh	r3, [r0, #210]
	rsb	r3, r1, r3
	strh	r3, [r0, #210]	@ movhi
	bne	.L948
	b	.L942
.L935:
	ldr	r3, [r1, #188]
	strh	r3, [r2, #172]	@ movhi
	ldr	r3, [r1, #192]
	strh	r3, [r2, #212]	@ movhi
.L942:
	ldr	r3, [r6, #164]
	movw	r4, #5036
	ldr	ip, .L954
	mov	r2, r4
	ldr	r0, [r6, #2808]
	mov	r1, r5
	mul	r3, r4, r3
	ldr	ip, [ip, #52]
	sub	r3, r3, #4992
	sub	r3, r3, #44
	add	r0, r0, r3
	blx	ip
	ldr	r2, [r6, #164]
	ldr	r3, [r6, #2808]
	mul	r4, r4, r2
	sub	r4, r4, #4992
	sub	r4, r4, #44
	add	r4, r3, r4
	str	r4, [r6, #2832]
	sub	sp, fp, #40
	ldmfd	sp, {r4, r5, r6, r7, r8, r9, r10, fp, sp, pc}
.L953:
	ldr	r9, [r2, #68]
	cmp	r9, r4
	addgt	r3, r2, #170
	ble	.L941
.L940:
	ldr	r10, [r7, #188]
	add	r4, r4, #1
	mov	r1, r9
	str	r3, [fp, #-48]
	mul	r0, r10, r4
	bl	__aeabi_uidiv
	mov	r1, r9
	mov	r8, r0
	sub	r0, r4, #1
	mul	r0, r0, r10
	bl	__aeabi_uidiv
	ldr	r3, [fp, #-48]
	cmp	r4, r9
	rsb	r0, r0, r8
	strh	r0, [r3, #2]!	@ movhi
	bne	.L940
.L941:
	ldr	r9, [r5, #72]
	cmp	r9, #0
	addgt	r3, r5, #210
	movgt	r4, #0
	ble	.L942
.L943:
	ldr	r10, [r7, #192]
	add	r4, r4, #1
	mov	r1, r9
	str	r3, [fp, #-48]
	mul	r0, r10, r4
	bl	__aeabi_uidiv
	mov	r1, r9
	mov	r8, r0
	sub	r0, r4, #1
	mul	r0, r0, r10
	bl	__aeabi_uidiv
	ldr	r3, [fp, #-48]
	cmp	r4, r9
	rsb	r0, r0, r8
	strh	r0, [r3, #2]!	@ movhi
	bne	.L943
	b	.L942
.L955:
	.align	2
.L954:
	.word	vfmw_Osal_Func_Ptr_S
	UNWIND(.fnend)
	.size	HEVC_UpdatePicPPS, .-HEVC_UpdatePicPPS
	.align	2
	.global	HEVC_InitPicInfo
	.type	HEVC_InitPicInfo, %function
HEVC_InitPicInfo:
	UNWIND(.fnstart)
	@ args = 0, pretend = 0, frame = 0
	@ frame_needed = 1, uses_anonymous_args = 0
	UNWIND(.movsp ip)
	mov	ip, sp
	stmfd	sp!, {r4, r5, r6, r7, fp, ip, lr, pc}
	UNWIND(.pad #4)
	UNWIND(.save {r4, r5, r6, r7, fp, ip, lr})
	UNWIND(.setfp fp, ip, #-4)
	sub	fp, ip, #4
	add	r4, r0, #4096
	mov	r5, r0
	mvn	r3, #0
	mov	r0, #1
	ldr	r2, [r4, #724]
	mov	r1, #0
	ldr	lr, [r4, #708]
	str	r3, [r4, #32]
	strb	r0, [r4, #1]
	str	r2, [r4, #4]
	str	lr, [r4, #12]
	ldr	ip, [r5, #2828]
	ldr	r3, .L970
	ldr	r2, [ip, #64]
	str	r2, [r4, #20]
	ldr	r2, [ip, #68]
	str	r1, [r4, #28]
	str	r2, [r4, #24]
	ldr	r2, [r5, #276]
	ldr	r3, [r3, r2, asl #2]
	ldrsb	r2, [r3, #44]
	cmp	r2, r0
	beq	.L969
.L957:
	ldr	r3, [r5, #2356]
	cmp	r3, #0
	bne	.L960
	ldr	ip, [r5, #2844]
	add	r6, r5, #4736
	movw	r7, #4752
	mvn	r0, #0
	mov	lr, r6
	mvn	r1, #0
	ldrd	r2, [ip, #56]
	strd	r2, [r6, #8]
	ldrd	r2, [ip, #72]
	strd	r2, [r5, r7]
	ldrd	r2, [ip, #88]
	strd	r2, [lr, #24]
	ldr	r3, [ip, #104]
	str	r3, [r4, #64]
	ldr	r3, [ip, #108]
	str	r3, [r4, #68]
	ldr	r3, [ip, #112]
	str	r3, [r4, #72]
	ldr	r3, [ip, #128]
	str	r3, [r4, #76]
	strd	r0, [ip, #56]
	ldr	ip, [r5, #2828]
.L960:
	ldr	r1, [ip, #64]
	mov	r6, #0
	ldr	r2, [r4, #728]
	add	r0, r5, #4160
	ldrb	r3, [r4, #128]	@ zero_extendqisi2
	str	r1, [r4, #132]
	ldr	r1, [ip, #68]
	str	r2, [r4, #248]
	str	r2, [r4, #8]
	str	r1, [r4, #136]
	str	r6, [r4, #116]
	ldr	r2, [ip, #60]
	ldr	r1, [ip, #2084]
	subs	r2, r2, #1
	bfi	r3, r1, #5, #3
	movne	r2, #1
	bfi	r3, r2, #2, #3
	strb	r3, [r4, #128]
	ldr	r1, [ip, #2068]
	and	r1, r1, #7
	bl	SetAspectRatio
	ldr	r3, [r5, #2356]
	cmp	r3, #1
	ldmeqfd	sp, {r4, r5, r6, r7, fp, sp, pc}
	ldr	r3, [r4, #60]
	ldr	r2, [r4, #708]
	str	r2, [r3, #8]
	ldr	r3, [r4, #60]
	ldr	r2, [r4, #128]
	str	r2, [r3, #144]
	ldr	r3, [r4, #60]
	ldr	r2, [r4, #116]
	str	r2, [r3, #132]
	ldr	r3, [r4, #60]
	ldr	r2, [r4, #168]
	str	r2, [r3, #184]
	ldr	r3, [r4, #60]
	ldr	r2, [r4, #164]
	str	r2, [r3, #180]
	ldr	r3, [r4, #60]
	ldr	r2, [r4, #132]
	str	r2, [r3, #148]
	ldr	r3, [r4, #60]
	ldr	r2, [r4, #136]
	str	r2, [r3, #152]
	ldr	r3, [r4, #60]
	ldr	r0, [r5, #276]
	ldr	r1, [r3, #28]
	bl	FSP_GetDispPhyFs
	cmp	r0, #0
	beq	.L962
	ldr	r3, [r4, #116]
	mov	r1, r6
	ldr	r2, [r0, #4]
	subs	r3, r3, r6
	ldr	r0, [r5, #276]
	movne	r3, #1
	bl	FSP_SetStoreType
.L962:
	ldr	r3, [r5, #2828]
	mov	r6, #0
	ldr	ip, [r4, #60]
	ldr	r2, [r3, #72]
	str	r2, [r4, #284]
	ldr	r5, [r3, #76]
	str	r5, [r4, #288]
	ldr	r1, [r3, #80]
	str	r1, [r4, #292]
	ldr	lr, [r3, #84]
	str	lr, [r4, #296]
	ldr	r0, [r3, #64]
	rsb	r2, r2, r0
	rsb	r2, r5, r2
	str	r2, [r4, #140]
	ldr	r0, [r3, #68]
	rsb	r1, r1, r0
	rsb	r1, lr, r1
	str	r1, [r4, #144]
	ldr	r1, [r3, #60]
	str	r1, [r4, #228]
	ldr	r1, [r3, #88]
	str	r1, [r4, #232]
	ldr	r3, [r3, #96]
	str	r3, [r4, #236]
	ldr	r3, [ip, #164]
	str	r3, [r4, #148]
	ldr	r3, [ip, #168]
	str	r3, [r4, #152]
	str	r2, [ip, #156]
	ldr	r2, [r4, #144]
	ldr	r3, [r4, #60]
	str	r2, [r3, #160]
	ldr	r2, [r4, #148]
	ldr	r3, [r4, #60]
	str	r2, [r3, #164]
	ldr	r2, [r4, #152]
	ldr	r3, [r4, #60]
	str	r2, [r3, #168]
	ldr	r3, [r4, #60]
	ldr	r2, [r4, #232]
	str	r2, [r3, #248]
	ldr	r3, [r4, #60]
	ldr	r2, [r4, #236]
	str	r2, [r3, #252]
	str	r6, [r4, #16]
	ldmfd	sp, {r4, r5, r6, r7, fp, sp, pc}
.L969:
	ldr	r2, [r3, #156]
	cmp	r2, r1
	bne	.L957
	ldr	r3, [r3, #160]
	cmp	r3, r0
	bne	.L957
	add	r3, r5, #8192
	ldrb	r3, [r3, #3520]	@ zero_extendqisi2
	cmp	r3, r0
	bne	.L957
	movw	r2, #11744
	movw	r3, #11760
	ldrd	r0, [r5, r2]
	ldrd	r2, [r3, r5]
	cmp	r1, r3
	cmpeq	r0, r2
	bls	.L958
	subs	r6, r0, r2
	sbc	r7, r1, r3
	cmp	r7, #0
	cmpeq	r6, #16
	bls	.L958
.L959:
	ldr	r0, [r5, #284]
	movw	r1, #11744
	rsb	lr, r0, lr
	adds	r2, r2, lr
	adc	r3, r3, lr, asr #31
	strd	r2, [r5, r1]
	b	.L957
.L958:
	cmp	r1, r3
	cmpeq	r0, r2
	bcs	.L957
	subs	r0, r2, r0
	sbc	r1, r3, r1
	cmp	r1, #0
	cmpeq	r0, #16
	bls	.L957
	b	.L959
.L971:
	.align	2
.L970:
	.word	s_pstVfmwChan
	UNWIND(.fnend)
	.size	HEVC_InitPicInfo, .-HEVC_InitPicInfo
	.align	2
	.global	HEVC_RepairList
	.type	HEVC_RepairList, %function
HEVC_RepairList:
	UNWIND(.fnstart)
	@ args = 0, pretend = 0, frame = 16
	@ frame_needed = 1, uses_anonymous_args = 0
	UNWIND(.movsp ip)
	mov	ip, sp
	stmfd	sp!, {r4, r5, r6, r7, r8, r9, r10, fp, ip, lr, pc}
	UNWIND(.pad #4)
	UNWIND(.save {r4, r5, r6, r7, r8, r9, r10, fp, ip, lr})
	UNWIND(.setfp fp, ip, #-4)
	sub	fp, ip, #4
	UNWIND(.pad #28)
	sub	sp, sp, #28
	add	r3, r0, #4096
	str	r3, [fp, #-56]
	mov	ip, r0
	ldr	r3, [r3, #716]
	cmp	r3, #1
	beq	.L989
	cmp	r3, #2
	beq	.L990
	cmp	r3, #0
	moveq	r3, #2
	streq	r3, [fp, #-48]
	beq	.L974
	ldr	r2, .L999
	mov	r0, #1
	ldr	r1, .L999+4
	bl	dprint_vfmw
	mvn	r0, #0
	sub	sp, fp, #40
	ldmfd	sp, {r4, r5, r6, r7, r8, r9, r10, fp, sp, pc}
.L989:
	str	r3, [fp, #-48]
.L974:
	add	r8, ip, #4800
	add	r9, ip, #2848
	add	r8, r8, #56
	add	r9, r9, #8
	mov	r10, #0
.L987:
	ldr	r1, [r8, #4]!
	cmp	r1, #0
	beq	.L977
	ldr	r3, [r9]
	cmp	r3, #0
	bne	.L991
	mov	r2, r9
	mov	r4, r3
	b	.L979
.L981:
	ldr	r6, [r2, #4]!
	cmp	r6, #0
	bne	.L997
.L979:
	add	r4, r4, #1
	cmp	r4, r1
	bne	.L981
	mov	r4, #255
.L980:
	ldr	r2, [ip, #2844]
	ldr	r2, [r2, #24]
	cmp	r2, #2
	bne	.L982
	ldr	r2, [fp, #-56]
	ldr	r6, [r2, #60]
	add	r6, r6, #56
.L978:
	mov	r7, r9
	mov	r5, #0
	b	.L988
.L984:
	ldr	r3, [r7, #4]!
.L988:
	cmp	r3, #0
	beq	.L998
.L983:
	ldr	r3, [r8]
	add	r5, r5, #1
	cmp	r3, r5
	bhi	.L984
.L985:
	ldr	r3, [fp, #-48]
	add	r10, r10, #1
	add	r9, r9, #68
	cmp	r10, r3
	bcc	.L987
.L990:
	mov	r0, #0
	sub	sp, fp, #40
	ldmfd	sp, {r4, r5, r6, r7, r8, r9, r10, fp, sp, pc}
.L977:
	ldr	r3, [ip, #2844]
	ldr	r3, [r3, #24]
	cmp	r3, #2
	bne	.L985
	mov	r3, #1
	str	r3, [r8]
	ldr	r3, [fp, #-56]
	ldr	r3, [r3, #60]
	add	r3, r3, #56
	str	r3, [r9]
	b	.L985
.L998:
	sxtb	r2, r4
	str	r5, [sp]
	str	r2, [sp, #4]
	mov	r3, r10
	ldr	r2, .L999
	mov	r0, #1
	ldr	r1, .L999+8
	str	ip, [fp, #-52]
	bl	dprint_vfmw
	str	r6, [r7]
	ldr	ip, [fp, #-52]
	b	.L983
.L997:
	uxtb	r4, r4
	cmp	r4, #255
	bne	.L978
	b	.L980
.L991:
	mov	r6, r3
	mov	r4, #0
	b	.L978
.L982:
	mov	r3, r10
	ldr	r2, .L999
	ldr	r1, .L999+12
	mov	r0, #1
	bl	dprint_vfmw
	mvn	r0, #0
	sub	sp, fp, #40
	ldmfd	sp, {r4, r5, r6, r7, r8, r9, r10, fp, sp, pc}
.L1000:
	.align	2
.L999:
	.word	.LANCHOR0+368
	.word	.LC89
	.word	.LC91
	.word	.LC90
	UNWIND(.fnend)
	.size	HEVC_RepairList, .-HEVC_RepairList
	.align	2
	.global	HEVC_InitListX
	.type	HEVC_InitListX, %function
HEVC_InitListX:
	UNWIND(.fnstart)
	@ args = 0, pretend = 0, frame = 144
	@ frame_needed = 1, uses_anonymous_args = 0
	UNWIND(.movsp ip)
	mov	ip, sp
	stmfd	sp!, {r4, r5, r6, r7, r8, r9, r10, fp, ip, lr, pc}
	UNWIND(.pad #4)
	UNWIND(.save {r4, r5, r6, r7, r8, r9, r10, fp, ip, lr})
	UNWIND(.setfp fp, ip, #-4)
	sub	fp, ip, #4
	UNWIND(.pad #148)
	sub	sp, sp, #148
	subs	r4, r0, #0
	beq	.L1064
	ldr	r3, .L1114
	mov	r2, #136
	mov	r1, #0
	sub	r0, fp, #180
	ldr	r3, [r3, #48]
	blx	r3
	ldr	lr, [r4, #3040]
	cmp	lr, #0
	beq	.L1065
	add	r0, r4, #3248
	mov	r1, #0
	add	r0, r0, #12
	mov	r3, r1
	b	.L1005
.L1004:
	cmp	r3, lr
	beq	.L1003
.L1005:
	ldr	r2, [r0, #4]!
	add	r3, r3, #1
	ldrb	ip, [r2, #1]	@ zero_extendqisi2
	cmp	ip, #1
	bne	.L1004
	ldr	ip, [r2, #60]
	cmp	ip, #0
	bne	.L1004
	ldr	ip, [r2, #64]
	cmp	ip, #1
	subeq	ip, fp, #44
	addeq	r2, r2, #56
	addeq	ip, ip, r1, lsl #2
	addeq	r1, r1, #1
	streq	r2, [ip, #-136]
	cmp	r3, lr
	bne	.L1005
.L1003:
	ldrb	r8, [r4, #1]	@ zero_extendqisi2
	cmp	r8, #0
	bne	.L1107
	ldr	r3, [r4, #3044]
	mov	r5, r1
	cmp	r3, #0
	moveq	r3, r8
	moveq	ip, r8
	beq	.L1063
	mov	ip, r8
.L1062:
	add	lr, r4, #3328
	mov	r2, #0
	b	.L1012
.L1011:
	cmp	r2, r3
	bcs	.L1108
.L1012:
	ldr	r0, [lr, #4]!
	add	r2, r2, #1
	ldrb	r6, [r0, #1]	@ zero_extendqisi2
	cmp	r6, #1
	bne	.L1011
	ldr	r6, [r0, #60]
	cmp	r6, #0
	bne	.L1011
	ldr	r6, [r0, #64]
	cmp	r6, #1
	subeq	r6, fp, #44
	addeq	r0, r0, #56
	addeq	r6, r6, r5, lsl #2
	addeq	r5, r5, #1
	streq	r0, [r6, #-136]
	cmp	r2, r3
	bcc	.L1012
.L1108:
	cmp	r8, #0
	rsbne	r2, r1, r5
	rsbne	r3, ip, r2
	bne	.L1010
	rsb	r3, r1, r5
.L1063:
	ldr	lr, [r4, #3036]
	cmp	lr, #0
	beq	.L1016
.L1014:
	add	r6, r4, #3392
	mov	r2, #0
	add	r6, r6, #4
	b	.L1018
.L1017:
	cmp	lr, r2
	bls	.L1109
.L1018:
	ldr	r0, [r6, #4]!
	add	r2, r2, #1
	ldrb	r7, [r0, #1]	@ zero_extendqisi2
	cmp	r7, #1
	bne	.L1017
	ldr	r7, [r0, #60]
	cmp	r7, #1
	bne	.L1017
	ldr	r7, [r0, #64]
	sub	r9, fp, #44
	add	r9, r9, r5, lsl #2
	add	r0, r0, #56
	cmp	r7, #0
	addeq	r5, r5, #1
	streq	r0, [r9, #-136]
	cmp	lr, r2
	bhi	.L1018
.L1109:
	cmp	r8, #0
	rsbeq	lr, r1, r5
	rsbeq	lr, r3, lr
	beq	.L1016
	rsb	r2, r1, r5
.L1015:
	ldr	r0, [r4, #3056]
	rsb	lr, r3, r2
	rsb	lr, ip, lr
	cmp	r0, #0
	beq	.L1023
	add	r9, r4, #3120
	mov	r2, #0
	add	r9, r9, #4
.L1022:
	ldr	r6, [r9, #4]!
	add	r2, r2, #1
	ldrb	r7, [r6, #1]	@ zero_extendqisi2
	cmp	r7, #1
	subeq	r7, fp, #44
	addeq	r6, r6, #56
	addeq	r7, r7, r5, lsl #2
	addeq	r5, r5, #1
	streq	r6, [r7, #-136]
	cmp	r2, r0
	bne	.L1022
	rsb	r0, r1, r5
	rsb	r0, r3, r0
	rsb	r0, ip, r0
	rsb	r0, lr, r0
.L1023:
	cmp	r5, #0
	beq	.L1110
.L1024:
	add	r2, r4, #4096
	str	r2, [fp, #-184]
	ldr	r2, [r2, #716]
	cmp	r2, #0
	str	r2, [fp, #-188]
	bne	.L1111
	cmp	r8, #0
	beq	.L1112
	cmp	r3, #0
	beq	.L1070
	add	r8, ip, r1
	sub	r6, fp, #180
	ldr	r2, [fp, #-188]
	sub	r9, fp, #116
	add	r8, r6, r8, lsl #2
.L1033:
	add	r2, r2, #1
	ldr	r6, [r8], #4
	cmp	r2, r3
	str	r6, [r9, #4]!
	bne	.L1033
.L1070:
	cmp	r0, #0
	mov	r2, r3
	beq	.L1031
	add	r8, lr, r3
	add	r9, r3, #16
	add	r8, r8, r1
	sub	r6, fp, #180
	add	r8, r8, ip
	add	r9, r6, r9, lsl #2
	mov	r2, #0
	add	r8, r6, r8, lsl #2
.L1034:
	add	r2, r2, #1
	ldr	r6, [r8], #4
	cmp	r2, r0
	str	r6, [r9, #4]!
	bne	.L1034
	add	r2, r3, r2
	b	.L1031
.L1107:
	ldr	ip, [r4, #3052]
	cmp	ip, #0
	beq	.L1066
	add	r0, r4, #3056
	mov	r5, r1
	mov	r3, #0
	b	.L1009
.L1008:
	cmp	r3, ip
	beq	.L1113
.L1009:
	ldr	r2, [r0, #4]!
	add	r3, r3, #1
	ldrb	lr, [r2, #1]	@ zero_extendqisi2
	cmp	lr, #1
	bne	.L1008
	ldr	lr, [r2, #72]
	cmp	lr, #1
	subeq	lr, fp, #44
	addeq	r2, r2, #56
	addeq	lr, lr, r5, lsl #2
	addeq	r5, r5, #1
	streq	r2, [lr, #-136]
	cmp	r3, ip
	bne	.L1009
.L1113:
	rsb	ip, r1, r5
.L1007:
	ldr	r3, [r4, #3044]
	cmp	r3, #0
	bne	.L1062
	mov	r2, ip
.L1010:
	ldr	lr, [r4, #3036]
	cmp	lr, #0
	bne	.L1014
	b	.L1015
.L1111:
	ldr	r3, [fp, #-184]
	ldr	r8, [r3, #772]
	ldr	r9, [r3, #776]
	cmp	r8, #0
	str	r8, [r3, #764]
	str	r9, [r3, #768]
	beq	.L1056
.L1027:
	ldr	r3, [fp, #-184]
	add	r7, r4, #2848
	add	r7, r7, #4
	mov	r10, #0
	ldrb	r6, [r3, #1792]	@ zero_extendqisi2
.L1050:
	cmp	r6, #0
	mov	r1, r5
	mov	r0, r10
	ldrne	r1, [r7, #3040]
	bne	.L1049
	bl	__aeabi_uidivmod
.L1049:
	sub	r3, fp, #44
	add	r10, r10, #1
	add	r3, r3, r1, lsl #2
	cmp	r10, r8
	ldr	r3, [r3, #-136]
	str	r3, [r7, #4]!
	bne	.L1050
	ldr	r3, [fp, #-188]
	cmp	r3, #0
	bne	.L1047
.L1046:
	cmp	r9, #0
	beq	.L1052
	ldr	r3, [fp, #-184]
	add	r7, r4, #2912
	add	r7, r7, #8
	mov	r6, #0
	ldrb	r10, [r3, #1793]	@ zero_extendqisi2
.L1055:
	cmp	r10, #0
	mov	r1, r5
	mov	r0, r6
	ldrne	r1, [r7, #3100]
	bne	.L1054
	bl	__aeabi_uidivmod
.L1054:
	sub	r3, fp, #44
	add	r6, r6, #1
	add	r3, r3, r1, lsl #2
	cmp	r6, r9
	ldr	r3, [r3, #-68]
	str	r3, [r7, #4]!
	bne	.L1055
.L1047:
	cmp	r8, #16
	bhi	.L1060
.L1056:
	add	r8, r8, #712
	add	r2, r4, #2912
	add	r8, r8, #1
	add	r2, r2, #8
	add	r8, r4, r8, lsl #2
.L1059:
	ldr	r3, [r4, #2856]
	str	r3, [r8, #4]!
	cmp	r8, r2
	bne	.L1059
.L1060:
	cmp	r9, #16
	bhi	.L1058
	add	r9, r9, #728
	add	r2, r4, #2976
	add	r9, r9, #2
	add	r2, r2, #12
	add	r9, r4, r9, lsl #2
.L1061:
	ldr	r3, [r4, #2924]
	str	r3, [r9, #4]!
	cmp	r9, r2
	bne	.L1061
.L1058:
	mov	r0, #0
.L1100:
	sub	sp, fp, #40
	ldmfd	sp, {r4, r5, r6, r7, r8, r9, r10, fp, sp, pc}
.L1016:
	cmp	r5, #0
	mov	r0, #0
	bne	.L1024
.L1110:
	ldr	r3, .L1114
	add	r6, r4, #4096
	add	r0, r4, #2848
	mov	r2, #136
	add	r0, r0, #8
	str	r5, [r6, #764]
	ldr	r3, [r3, #48]
	mov	r1, r5
	str	r5, [r6, #768]
	blx	r3
	ldr	r3, [r4, #2844]
	ldr	r3, [r3, #24]
	cmp	r3, #2
	bne	.L1058
	ldr	r3, [r6, #60]
	mov	r2, #1
	mov	r0, r5
	str	r2, [r6, #764]
	add	r3, r3, #56
	str	r3, [r4, #2856]
	b	.L1100
.L1112:
	cmp	r3, #0
	beq	.L1102
	sub	r2, fp, #180
	sub	r0, fp, #116
	add	r8, r2, r1, lsl #2
	ldr	r2, [fp, #-188]
.L1037:
	add	r2, r2, #1
	ldr	r6, [r8], #4
	cmp	r2, r3
	str	r6, [r0, #4]!
	bne	.L1037
.L1102:
	mov	r2, r3
.L1031:
	cmp	r1, #0
	beq	.L1036
	add	r8, r2, #16
	sub	r9, fp, #180
	mov	r0, #0
	add	r8, r9, r8, lsl #2
.L1038:
	add	r0, r0, #1
	ldr	r6, [r9], #4
	cmp	r0, r1
	str	r6, [r8, #4]!
	bne	.L1038
	add	r2, r2, r1
.L1036:
	ldrb	r0, [r4, #1]	@ zero_extendqisi2
	cmp	r0, #0
	bne	.L1039
	cmp	lr, #0
	beq	.L1041
	add	r1, r3, r1
	add	r2, r2, #16
	sub	r3, fp, #180
	add	r1, r3, r1, lsl #2
	add	r3, r3, r2, lsl #2
.L1045:
	add	r0, r0, #1
	ldr	r2, [r1], #4
	cmp	r0, lr
	str	r2, [r3, #4]!
	bne	.L1045
.L1041:
	ldr	r3, [fp, #-184]
	ldr	r8, [r3, #772]
	ldr	r9, [r3, #776]
	cmp	r8, #0
	str	r8, [r3, #764]
	str	r9, [r3, #768]
	bne	.L1027
	b	.L1046
.L1039:
	cmp	lr, #0
	beq	.L1042
	add	r0, r3, ip
	add	r8, r2, #16
	add	r0, r0, r1
	sub	r6, fp, #180
	add	r8, r6, r8, lsl #2
	mov	r3, #0
	add	r0, r6, r0, lsl #2
.L1043:
	add	r3, r3, #1
	ldr	r6, [r0], #4
	cmp	r3, lr
	str	r6, [r8, #4]!
	bne	.L1043
	add	r2, r2, r3
.L1042:
	cmp	ip, #0
	beq	.L1041
	add	r2, r2, #16
	sub	r0, fp, #180
	sub	r3, fp, #180
	add	r2, r0, r2, lsl #2
	add	r1, r3, r1, lsl #2
	mov	r3, #0
.L1044:
	add	r3, r3, #1
	ldr	r0, [r1], #4
	cmp	r3, ip
	str	r0, [r2, #4]!
	bne	.L1044
	b	.L1041
.L1065:
	mov	r1, lr
	b	.L1003
.L1066:
	mov	r5, r1
	b	.L1007
.L1052:
	ldr	r3, .L1114
	add	r1, r4, #2848
	add	r0, r4, #2912
	add	r1, r1, #8
	add	r0, r0, #12
	mov	r2, #68
	ldr	r3, [r3, #52]
	blx	r3
	ldr	r3, [fp, #-184]
	ldr	r8, [r3, #764]
	str	r8, [r3, #768]
	mov	r9, r8
	b	.L1047
.L1064:
	mvn	r0, #0
	b	.L1100
.L1115:
	.align	2
.L1114:
	.word	vfmw_Osal_Func_Ptr_S
	UNWIND(.fnend)
	.size	HEVC_InitListX, .-HEVC_InitListX
	.align	2
	.global	HEVC_DecList
	.type	HEVC_DecList, %function
HEVC_DecList:
	UNWIND(.fnstart)
	@ args = 0, pretend = 0, frame = 0
	@ frame_needed = 1, uses_anonymous_args = 0
	UNWIND(.movsp ip)
	mov	ip, sp
	stmfd	sp!, {r4, r5, fp, ip, lr, pc}
	UNWIND(.pad #4)
	UNWIND(.save {r4, r5, fp, ip, lr})
	UNWIND(.setfp fp, ip, #-4)
	sub	fp, ip, #4
	add	r3, r0, #4096
	mov	r4, r0
	ldr	r2, [r3, #716]
	cmp	r2, #2
	beq	.L1121
	bl	HEVC_InitListX
	cmp	r0, #0
	bne	.L1122
	mov	r0, r4
	bl	HEVC_RepairList
	cmp	r0, #0
	ldmeqfd	sp, {r4, r5, fp, sp, pc}
	ldr	r1, .L1123
	mov	r0, #1
	bl	dprint_vfmw
	mvn	r0, #0
	ldmfd	sp, {r4, r5, fp, sp, pc}
.L1121:
	mov	r0, #0
	str	r0, [r3, #764]
	str	r0, [r3, #768]
	ldmfd	sp, {r4, r5, fp, sp, pc}
.L1122:
	ldr	r1, .L1123+4
	mov	r0, #1
	bl	dprint_vfmw
	mvn	r0, #0
	ldmfd	sp, {r4, r5, fp, sp, pc}
.L1124:
	.align	2
.L1123:
	.word	.LC93
	.word	.LC92
	UNWIND(.fnend)
	.size	HEVC_DecList, .-HEVC_DecList
	.align	2
	.global	HEVC_ArrangeMem
	.type	HEVC_ArrangeMem, %function
HEVC_ArrangeMem:
	UNWIND(.fnstart)
	@ args = 0, pretend = 0, frame = 24
	@ frame_needed = 1, uses_anonymous_args = 0
	UNWIND(.movsp ip)
	mov	ip, sp
	stmfd	sp!, {r4, r5, r6, fp, ip, lr, pc}
	UNWIND(.pad #4)
	UNWIND(.save {r4, r5, r6, fp, ip, lr})
	UNWIND(.setfp fp, ip, #-4)
	sub	fp, ip, #4
	UNWIND(.pad #36)
	sub	sp, sp, #36
	ldr	r2, [r0, #2828]
	mov	r4, r0
	movw	r1, #8160
	ldr	r6, [r2, #188]
	ldr	r5, [r2, #192]
	ldr	r2, [r2, #128]
	mov	r5, r5, asl r2
	mov	r6, r6, asl r2
	sub	r0, r5, #32
	sub	r2, r6, #32
	cmp	r2, r1
	cmpls	r0, r1
	movhi	r1, #1
	movls	r1, #0
	bhi	.L1132
	ldr	r3, .L1134
	mov	r2, #20
	sub	r0, fp, #48
	ldr	r3, [r3, #48]
	blx	r3
	ldr	r3, [r4, #2844]
	str	r6, [fp, #-44]
	str	r5, [fp, #-40]
	ldr	r3, [r3, #28]
	str	r6, [fp, #-36]
	cmp	r3, #24
	str	r5, [fp, #-32]
	beq	.L1128
	ldrb	r3, [r4, #3024]	@ zero_extendqisi2
	strb	r3, [fp, #-47]
.L1130:
	sub	r1, fp, #48
	ldr	r0, [r4, #276]
	strb	r3, [fp, #-45]
	bl	FSP_ConfigInstance
	cmp	r0, #0
	bne	.L1133
	ldr	r1, [r4, #2844]
	sub	r3, fp, #52
	ldr	r0, [r4, #276]
	ldr	r2, [r1, #20]
	ldr	r1, [r1, #16]
	bl	FSP_ConfigFrameBuf
.L1131:
	sub	sp, fp, #24
	ldmfd	sp, {r4, r5, r6, fp, sp, pc}
.L1128:
	mov	r3, #1
	strb	r3, [fp, #-47]
	b	.L1130
.L1132:
	str	r5, [sp]
	mov	r3, r6
	ldr	r2, .L1134+4
	mov	r0, #0
	ldr	r1, .L1134+8
	bl	dprint_vfmw
	mvn	r0, #19
	sub	sp, fp, #24
	ldmfd	sp, {r4, r5, r6, fp, sp, pc}
.L1133:
	ldr	r2, .L1134+4
	mov	r0, #1
	ldr	r1, .L1134+12
	bl	dprint_vfmw
	mvn	r0, #0
	b	.L1131
.L1135:
	.align	2
.L1134:
	.word	vfmw_Osal_Func_Ptr_S
	.word	.LANCHOR0+384
	.word	.LC94
	.word	.LC95
	UNWIND(.fnend)
	.size	HEVC_ArrangeMem, .-HEVC_ArrangeMem
	.align	2
	.global	HEVC_RemoveApcStore
	.type	HEVC_RemoveApcStore, %function
HEVC_RemoveApcStore:
	UNWIND(.fnstart)
	@ args = 0, pretend = 0, frame = 0
	@ frame_needed = 1, uses_anonymous_args = 0
	UNWIND(.movsp ip)
	mov	ip, sp
	stmfd	sp!, {r4, fp, ip, lr, pc}
	UNWIND(.pad #4)
	UNWIND(.save {r4, fp, ip, lr})
	UNWIND(.setfp fp, ip, #-4)
	sub	fp, ip, #4
	UNWIND(.pad #12)
	sub	sp, sp, #12
	add	r3, r0, r1, lsl #2
	ldr	ip, [r3, #3196]
	ldr	r2, [ip, #32]
	cmp	r2, #1
	bhi	.L1139
	ldr	r3, [ip, #24]
	cmp	r3, #15
	bhi	.L1136
	mov	r1, #70
	mov	r4, #280
	mla	r1, r1, r2, r3
	mov	lr, #0
	mla	r2, r4, r2, r0
	mov	r4, #16
	add	r3, r2, r3
	add	r1, r0, r1, lsl #2
	add	r1, r1, #12288
	add	r3, r3, #13376
	add	r2, r2, #13120
	str	lr, [r1, #868]
	str	lr, [r1, #932]
	str	lr, [r1, #996]
	str	lr, [r1, #1060]
	strb	lr, [r3, #36]
	ldr	r3, [ip, #20]
	add	r3, r3, #536
	add	r3, r3, #2
	add	r0, r0, r3, lsl #2
	str	lr, [r0, #4]
	str	r4, [ip, #24]
	ldr	r3, [r2, #32]
	sub	r3, r3, #1
	str	r3, [r2, #32]
.L1136:
	sub	sp, fp, #16
	ldmfd	sp, {r4, fp, sp, pc}
.L1139:
	str	r2, [sp]
	mov	r3, r1
	ldr	r2, .L1140
	mov	r0, #1
	ldr	r1, .L1140+4
	bl	dprint_vfmw
	sub	sp, fp, #16
	ldmfd	sp, {r4, fp, sp, pc}
.L1141:
	.align	2
.L1140:
	.word	.LANCHOR0+400
	.word	.LC96
	UNWIND(.fnend)
	.size	HEVC_RemoveApcStore, .-HEVC_RemoveApcStore
	.align	2
	.global	HEVC_RemoveUnusedApcStore
	.type	HEVC_RemoveUnusedApcStore, %function
HEVC_RemoveUnusedApcStore:
	UNWIND(.fnstart)
	@ args = 0, pretend = 0, frame = 0
	@ frame_needed = 1, uses_anonymous_args = 0
	UNWIND(.movsp ip)
	mov	ip, sp
	stmfd	sp!, {r4, r5, r6, r7, fp, ip, lr, pc}
	UNWIND(.pad #4)
	UNWIND(.save {r4, r5, r6, r7, fp, ip, lr})
	UNWIND(.setfp fp, ip, #-4)
	sub	fp, ip, #4
	ldr	r3, [r0, #3028]
	mov	r6, r0
	cmp	r3, #0
	ldmeqfd	sp, {r4, r5, r6, r7, fp, sp, pc}
	add	r5, r0, #3184
	mov	r4, #0
	add	r5, r5, #8
	b	.L1145
.L1144:
	ldr	r3, [r6, #3028]
	add	r4, r4, #1
	cmp	r4, r3
	bcs	.L1148
.L1145:
	ldr	r3, [r5, #4]!
	ldrb	r3, [r3, #1]	@ zero_extendqisi2
	cmp	r3, #0
	bne	.L1144
	mov	r1, r4
	mov	r0, r6
	bl	HEVC_RemoveApcStore
	ldr	r3, [r6, #3028]
	add	r4, r4, #1
	cmp	r4, r3
	bcc	.L1145
.L1148:
	ldmfd	sp, {r4, r5, r6, r7, fp, sp, pc}
	UNWIND(.fnend)
	.size	HEVC_RemoveUnusedApcStore, .-HEVC_RemoveUnusedApcStore
	.align	2
	.global	HEVC_ApplyReferencePictureSet
	.type	HEVC_ApplyReferencePictureSet, %function
HEVC_ApplyReferencePictureSet:
	UNWIND(.fnstart)
	@ args = 0, pretend = 0, frame = 24
	@ frame_needed = 1, uses_anonymous_args = 0
	UNWIND(.movsp ip)
	mov	ip, sp
	stmfd	sp!, {r4, r5, r6, r7, r8, r9, r10, fp, ip, lr, pc}
	UNWIND(.pad #4)
	UNWIND(.save {r4, r5, r6, r7, r8, r9, r10, fp, ip, lr})
	UNWIND(.setfp fp, ip, #-4)
	sub	fp, ip, #4
	UNWIND(.pad #28)
	sub	sp, sp, #28
	add	r5, r0, #4096
	ldr	r2, [r0, #2808]
	movw	r4, #5036
	ldr	r1, [r5, #732]
	movw	ip, #12668
	ldr	r3, [r0, #2804]
	mov	r10, r0
	ldr	lr, [r10, #3028]
	mov	r0, #1
	mla	r2, r4, r1, r2
	cmp	lr, #0
	ldr	r2, [r2, #32]
	mla	r3, ip, r2, r3
	ldr	r3, [r3, #116]
	mov	r3, r0, asl r3
	str	r3, [fp, #-52]
	beq	.L1149
	add	ip, r10, #3184
	add	r3, r10, #5696
	add	r3, r3, #60
	add	ip, ip, #8
	str	r3, [fp, #-68]
	mov	r3, #0
	str	r10, [fp, #-48]
	b	.L1166
.L1152:
	ldr	r2, [fp, #-48]
	add	r3, r3, #1
	ldr	r2, [r2, #3028]
	cmp	r3, r2
	bcs	.L1149
.L1166:
	ldr	r7, [ip, #4]!
	ldr	r2, [r5, #728]
	ldr	r1, [r7, #32]
	cmp	r1, r2
	bne	.L1152
	ldr	r0, [r5, #1628]
	ldr	r2, [r5, #1632]
	ldr	r1, [r5, #1636]
	add	r2, r2, r0
	cmp	r2, r1
	mov	r8, r2
	ldrcs	r0, [r7, #8]
	movcs	r4, #0
	bcs	.L1154
	add	r6, r2, #1456
	ldr	r2, [fp, #-48]
	ldr	r9, [r7, #8]
	mov	r4, #0
	add	r6, r2, r6, lsl #2
	str	r3, [fp, #-64]
	mov	r3, r5
	mov	r5, ip
.L1160:
	ldr	r10, [r6, #-944]
	ldr	r2, [r7, #60]
	cmp	r10, #0
	beq	.L1155
	cmp	r2, #0
	beq	.L1156
	ldr	r2, [r6]
	cmp	r2, r9
	beq	.L1188
.L1156:
	cmp	r4, #0
	bne	.L1171
	ldr	r2, [r6]
	mov	r4, r9
.L1168:
	ldrb	r1, [r7, #1]	@ zero_extendqisi2
	rsb	r4, r2, r4
	clz	r4, r4
	cmp	r1, #0
	mov	r4, r4, lsr #5
	moveq	r4, #0
	cmp	r4, #0
	bne	.L1189
.L1171:
	mov	r0, r9
.L1159:
	ldr	r2, [r3, #1636]
	add	r8, r8, #1
	add	r6, r6, #4
	mov	r9, r0
	cmp	r8, r2
	bcc	.L1160
	mov	ip, r5
	mov	r5, r3
	ldr	r2, [r5, #1632]
	ldr	r1, [r5, #1628]
	ldr	r3, [fp, #-64]
	add	r2, r2, r1
.L1154:
	cmp	r2, #0
	ldr	lr, [r5, #708]
	beq	.L1162
	ldr	r8, [fp, #-68]
	mov	r1, r7
	mov	r6, #0
	mov	r9, #1
	mov	r7, r3
	mov	r10, ip
.L1164:
	ldr	r3, [r1, #60]
	add	r6, r6, #1
	cmp	r3, #0
	bne	.L1163
	ldr	r2, [r8]
	add	r2, lr, r2
	cmp	r2, r0
	beq	.L1190
.L1163:
	ldr	r2, [r5, #1632]
	add	r8, r8, #4
	ldr	r3, [r5, #1628]
	add	r2, r2, r3
	cmp	r6, r2
	bcc	.L1164
	mov	r3, r7
	mov	ip, r10
	mov	r7, r1
.L1162:
	eor	r4, r4, #1
	cmp	r0, lr
	moveq	r0, #0
	andne	r0, r4, #1
	cmp	r0, #0
	beq	.L1152
	mov	r2, #0
	strb	r2, [r7, #1]
	ldr	r2, [ip]
	mov	r1, #0
	str	r1, [r2, #60]
	ldr	r2, [ip]
	str	r1, [r2, #72]
	ldr	r2, [ip]
	ldr	r1, [r2, #52]
	cmp	r1, #1
	beq	.L1152
	str	r3, [fp, #-56]
	ldr	r3, [fp, #-48]
	ldr	r1, [r2, #28]
	mov	r2, #0
	str	ip, [fp, #-60]
	ldr	r0, [r3, #276]
	bl	FSP_SetRef
	ldr	ip, [fp, #-60]
	ldr	r3, [fp, #-56]
	b	.L1152
.L1155:
	cmp	r2, #0
	beq	.L1158
	ldr	r1, [fp, #-52]
	mov	r0, r9
	str	r3, [fp, #-60]
	bl	__aeabi_idivmod
	ldr	r0, [r6]
	str	r1, [fp, #-56]
	ldr	r1, [fp, #-52]
	bl	__aeabi_idivmod
	ldr	r2, [fp, #-56]
	ldr	r3, [fp, #-60]
	cmp	r2, r1
	beq	.L1191
.L1158:
	cmp	r4, #0
	bne	.L1171
	ldr	r1, [fp, #-52]
	mov	r0, r9
	str	r3, [fp, #-56]
	bl	__aeabi_idivmod
	ldr	r10, [r6]
	mov	r0, r10
	mov	r4, r1
	ldr	r1, [fp, #-52]
	bl	__aeabi_idivmod
	ldr	r3, [fp, #-56]
	mov	r2, r1
	b	.L1168
.L1189:
	str	r3, [fp, #-56]
	mov	r3, #1
	strb	r3, [r7, #1]
	mov	r2, r3
	ldr	r1, [r5]
	mov	r4, r3
	str	r3, [r1, #60]
	mov	r3, #0
	ldr	r1, [r5]
	str	r3, [r1, #72]
	ldr	r1, [r5]
	ldr	r3, [fp, #-48]
	str	r2, [r1, #48]
	ldr	r1, [r5]
	ldr	r0, [r3, #276]
	ldr	r1, [r1, #28]
	bl	FSP_SetRef
	ldr	r7, [r5]
	ldr	r3, [fp, #-56]
	ldr	r0, [r7, #8]
	b	.L1159
.L1190:
	strb	r9, [r1, #1]
	mov	r2, #1
	ldr	r1, [r10]
	mov	r4, r2
	str	r3, [r1, #72]
	ldr	r3, [r10]
	ldr	r1, [fp, #-48]
	str	r9, [r3, #48]
	ldr	r3, [r10]
	ldr	r0, [r1, #276]
	ldr	r1, [r3, #28]
	bl	FSP_SetRef
	ldr	r1, [r10]
	ldr	lr, [r5, #708]
	ldr	r0, [r1, #8]
	b	.L1163
.L1149:
	sub	sp, fp, #40
	ldmfd	sp, {r4, r5, r6, r7, r8, r9, r10, fp, sp, pc}
.L1191:
	str	r3, [fp, #-56]
	mov	r3, #1
	strb	r3, [r7, #1]
	mov	r2, r3
	ldr	r1, [r5]
	str	r10, [r1, #72]
	ldr	r1, [r5]
.L1187:
	str	r3, [r1, #48]
	mov	r4, #1
	ldr	r3, [fp, #-48]
	ldr	r1, [r5]
	ldr	r0, [r3, #276]
	ldr	r1, [r1, #28]
	bl	FSP_SetRef
	ldr	r7, [r5]
	ldr	r3, [fp, #-56]
	ldr	r0, [r7, #8]
	b	.L1159
.L1188:
	str	r3, [fp, #-56]
	mov	r3, #1
	strb	r3, [r7, #1]
	mov	r2, r3
	ldr	r1, [r5]
	mov	r3, #0
	str	r3, [r1, #72]
	mov	r3, r2
	ldr	r1, [r5]
	b	.L1187
	UNWIND(.fnend)
	.size	HEVC_ApplyReferencePictureSet, .-HEVC_ApplyReferencePictureSet
	.align	2
	.global	HEVC_CheckThatAllRefPicsAreAvailable
	.type	HEVC_CheckThatAllRefPicsAreAvailable, %function
HEVC_CheckThatAllRefPicsAreAvailable:
	UNWIND(.fnstart)
	@ args = 0, pretend = 0, frame = 0
	@ frame_needed = 1, uses_anonymous_args = 0
	UNWIND(.movsp ip)
	mov	ip, sp
	stmfd	sp!, {fp, ip, lr, pc}
	UNWIND(.pad #4)
	UNWIND(.save {fp, ip, lr})
	UNWIND(.setfp fp, ip, #-4)
	sub	fp, ip, #4
	add	r3, r0, #4096
	ldr	r3, [r3, #724]
	sub	r3, r3, #19
	cmp	r3, #2
	bls	.L1193
	sub	sp, fp, #12
	ldmia	sp, {fp, sp, lr}
	b	HEVC_CheckThatAllRefPicsAreAvailable.part.15
.L1193:
	mov	r0, #1
	ldmfd	sp, {fp, sp, pc}
	UNWIND(.fnend)
	.size	HEVC_CheckThatAllRefPicsAreAvailable, .-HEVC_CheckThatAllRefPicsAreAvailable
	.align	2
	.global	HEVC_SetFrmRepeatCount
	.type	HEVC_SetFrmRepeatCount, %function
HEVC_SetFrmRepeatCount:
	UNWIND(.fnstart)
	@ args = 0, pretend = 0, frame = 0
	@ frame_needed = 1, uses_anonymous_args = 0
	UNWIND(.movsp ip)
	mov	ip, sp
	stmfd	sp!, {fp, ip, lr, pc}
	UNWIND(.pad #4)
	UNWIND(.save {fp, ip, lr})
	UNWIND(.setfp fp, ip, #-4)
	sub	fp, ip, #4
	ldr	r3, [r0, #2844]
	ldr	r3, [r3, #612]
	add	r3, r3, #2032
	add	r3, r3, #15
	cmp	r3, #4096
	movcc	r3, #0
	strcc	r3, [r1, #16]
	ldmccfd	sp, {fp, sp, pc}
	sub	sp, fp, #12
	ldmia	sp, {fp, sp, lr}
	b	HEVC_SetFrmRepeatCount.part.16
	UNWIND(.fnend)
	.size	HEVC_SetFrmRepeatCount, .-HEVC_SetFrmRepeatCount
	.align	2
	.global	HEVC_GetFreeFrameStoreNum
	.type	HEVC_GetFreeFrameStoreNum, %function
HEVC_GetFreeFrameStoreNum:
	UNWIND(.fnstart)
	@ args = 0, pretend = 0, frame = 0
	@ frame_needed = 1, uses_anonymous_args = 0
	UNWIND(.movsp ip)
	mov	ip, sp
	stmfd	sp!, {r4, r5, fp, ip, lr, pc}
	UNWIND(.pad #4)
	UNWIND(.save {r4, r5, fp, ip, lr})
	UNWIND(.setfp fp, ip, #-4)
	sub	fp, ip, #4
	add	r1, r0, #13696
	add	r4, r0, #27904
	add	r1, r1, #16
	add	r4, r4, #48
	mov	r5, #0
.L1201:
	ldr	r3, [r1, #48]
	cmp	r3, #0
	bne	.L1197
	cmp	r1, #0
	beq	.L1198
	ldr	lr, [r0, #3028]
	cmp	lr, #0
	beq	.L1198
	ldr	r2, [r0, #3196]
	cmp	r2, r1
	beq	.L1197
	add	r2, r0, #3184
	add	r2, r2, #12
	b	.L1199
.L1200:
	ldr	ip, [r2, #4]!
	cmp	ip, r1
	beq	.L1197
.L1199:
	add	r3, r3, #1
	cmp	r3, lr
	bne	.L1200
.L1198:
	add	r5, r5, #1
.L1197:
	add	r1, r1, #712
	cmp	r1, r4
	bne	.L1201
	mov	r0, r5
	ldmfd	sp, {r4, r5, fp, sp, pc}
	UNWIND(.fnend)
	.size	HEVC_GetFreeFrameStoreNum, .-HEVC_GetFreeFrameStoreNum
	.align	2
	.global	HEVC_UpdateReflist
	.type	HEVC_UpdateReflist, %function
HEVC_UpdateReflist:
	UNWIND(.fnstart)
	@ args = 0, pretend = 0, frame = 8
	@ frame_needed = 1, uses_anonymous_args = 0
	UNWIND(.movsp ip)
	mov	ip, sp
	stmfd	sp!, {r4, r5, r6, r7, r8, r9, r10, fp, ip, lr, pc}
	UNWIND(.pad #4)
	UNWIND(.save {r4, r5, r6, r7, r8, r9, r10, fp, ip, lr})
	UNWIND(.setfp fp, ip, #-4)
	sub	fp, ip, #4
	UNWIND(.pad #12)
	sub	sp, sp, #12
	add	r4, r0, #4096
	mov	r6, r0
	ldr	r1, [r4, #1628]
	cmp	r1, #0
	beq	.L1231
	add	r9, r0, #5696
	mov	r7, #0
	mov	r5, r7
	mov	r8, r9
	add	r9, r9, #39
	add	r8, r8, #60
.L1217:
	ldrb	r3, [r9, #1]!	@ zero_extendqisi2
	cmp	r3, #0
	beq	.L1213
	ldr	lr, [r6, #3028]
	ldr	ip, [r4, #708]
	ldr	r3, [r8]
	cmp	lr, #0
	add	ip, ip, r3
	beq	.L1213
	add	r1, r6, #3184
	mov	r3, #0
	add	r1, r1, #8
	b	.L1216
.L1214:
	add	r3, r3, #1
	cmp	r3, lr
	beq	.L1213
.L1216:
	ldr	r2, [r1, #4]!
	ldr	r0, [r2, #8]
	cmp	r0, ip
	bne	.L1214
	ldr	r10, [r4, #728]
	ldr	r0, [r2, #32]
	cmp	r10, r0
	bne	.L1214
	add	r10, r6, r3, lsl #2
	mov	r3, #1
	strb	r3, [r2, #1]
	ldr	r3, [r10, #3196]
	ldrb	r2, [r3, #1]	@ zero_extendqisi2
	cmp	r2, #0
	bne	.L1257
.L1215:
	mov	r2, #1
	str	r2, [r3, #64]
	ldr	r2, [r10, #3196]
	mov	r1, #0
	add	r3, r7, #816
	add	r7, r7, #1
	str	r1, [r2, #60]
	ldr	r2, [r10, #3196]
	str	r2, [r6, r3, asl #2]
.L1213:
	ldr	r1, [r4, #1628]
	add	r5, r5, #1
	add	r8, r8, #4
	cmp	r1, r5
	bhi	.L1217
.L1212:
	ldr	r2, [r6, #3024]
	str	r7, [r6, #3040]
	cmp	r2, r7
	bls	.L1222
	add	r3, r7, #812
	mov	r0, #0
	add	r3, r3, #3
	add	r3, r6, r3, lsl #2
.L1221:
	add	r7, r7, #1
	str	r0, [r3, #4]!
	cmp	r7, r2
	bne	.L1221
.L1222:
	ldr	r3, [r4, #1632]
	add	r10, r1, r3
	cmp	r10, r5
	movls	r7, #0
	bls	.L1220
	add	r8, r5, #1424
	add	r9, r5, #5696
	add	r8, r8, #15
	add	r9, r9, #39
	add	r9, r6, r9
	mov	r7, #0
	add	r8, r6, r8, lsl #2
	str	r7, [fp, #-48]
.L1227:
	ldrb	r3, [r9, #1]!	@ zero_extendqisi2
	cmp	r3, #0
	beq	.L1223
	ldr	ip, [r6, #3028]
	ldr	r0, [r4, #708]
	ldr	r3, [r8]
	cmp	ip, #0
	add	r0, r0, r3
	beq	.L1223
	add	r1, r6, #3184
	mov	r3, #0
	add	r1, r1, #8
	b	.L1226
.L1224:
	add	r3, r3, #1
	cmp	r3, ip
	beq	.L1223
.L1226:
	ldr	r2, [r1, #4]!
	ldr	lr, [r2, #8]
	cmp	lr, r0
	bne	.L1224
	ldr	r7, [r4, #728]
	ldr	lr, [r2, #32]
	cmp	r7, lr
	bne	.L1224
	add	r7, r6, r3, lsl #2
	mov	r3, #1
	strb	r3, [r2, #1]
	ldr	r3, [r7, #3196]
	ldrb	r2, [r3, #1]	@ zero_extendqisi2
	cmp	r2, #0
	bne	.L1258
.L1225:
	ldr	r1, [fp, #-48]
	mov	r2, #1
	str	r2, [r3, #64]
	ldr	r2, [r7, #3196]
	add	r3, r6, r1, lsl #2
	add	r1, r1, #1
	str	r1, [fp, #-48]
	mov	r1, #0
	str	r1, [r2, #60]
	ldr	r2, [r7, #3196]
	str	r2, [r3, #3332]
.L1223:
	add	r5, r5, #1
	add	r8, r8, #4
	cmp	r10, r5
	bhi	.L1227
	ldr	r7, [fp, #-48]
	ldr	r2, [r6, #3024]
.L1220:
	cmp	r2, r7
	str	r7, [r6, #3044]
	bls	.L1211
	add	r1, r7, #832
	mov	r3, #0
	add	r6, r6, r1, lsl #2
.L1229:
	add	r7, r7, #1
	str	r3, [r6, #4]!
	cmp	r7, r2
	bne	.L1229
.L1211:
	sub	sp, fp, #40
	ldmfd	sp, {r4, r5, r6, r7, r8, r9, r10, fp, sp, pc}
.L1257:
	ldr	r1, [r3, #28]
	mov	r2, #1
	ldr	r0, [r6, #276]
	bl	FSP_SetRef
	ldr	r3, [r10, #3196]
	b	.L1215
.L1258:
	ldr	r1, [r3, #28]
	mov	r2, #1
	ldr	r0, [r6, #276]
	bl	FSP_SetRef
	ldr	r3, [r7, #3196]
	b	.L1225
.L1231:
	mov	r7, r1
	mov	r5, r1
	b	.L1212
	UNWIND(.fnend)
	.size	HEVC_UpdateReflist, .-HEVC_UpdateReflist
	.align	2
	.global	HEVC_UpdateLTReflist
	.type	HEVC_UpdateLTReflist, %function
HEVC_UpdateLTReflist:
	UNWIND(.fnstart)
	@ args = 0, pretend = 0, frame = 16
	@ frame_needed = 1, uses_anonymous_args = 0
	UNWIND(.movsp ip)
	mov	ip, sp
	stmfd	sp!, {r4, r5, r6, r7, r8, r9, r10, fp, ip, lr, pc}
	UNWIND(.pad #4)
	UNWIND(.save {r4, r5, r6, r7, r8, r9, r10, fp, ip, lr})
	UNWIND(.setfp fp, ip, #-4)
	sub	fp, ip, #4
	UNWIND(.pad #20)
	sub	sp, sp, #20
	add	r5, r0, #4096
	mov	r7, r0
	ldr	r0, [r0, #2808]
	ldr	r3, [r5, #732]
	movw	r4, #5036
	ldr	r2, [r5, #1628]
	movw	lr, #12668
	ldr	ip, [r7, #2804]
	mov	r1, #1
	mla	r0, r4, r3, r0
	ldr	r4, [r5, #1632]
	ldr	r3, [r5, #1636]
	add	r2, r2, r4
	sub	r2, r2, #1
	sub	r10, r3, #1
	cmp	r10, r2
	ldr	r0, [r0, #32]
	mla	r2, lr, r0, ip
	ldr	r2, [r2, #116]
	mov	r2, r1, asl r2
	ble	.L1270
	add	r9, r3, #1440
	add	r3, r3, #5696
	add	r9, r9, #15
	add	r3, r3, #40
	add	r3, r7, r3
	sub	r4, r2, #1
	add	r9, r7, r9, lsl #2
	mov	r8, #0
	str	r8, [fp, #-52]
	mov	r8, r3
	str	r1, [fp, #-56]
.L1266:
	ldrb	r3, [r8, #-1]!	@ zero_extendqisi2
	cmp	r3, #0
	beq	.L1261
	ldrb	r0, [r9, #-944]	@ zero_extendqisi2
	ldr	ip, [r9]
	ldr	lr, [r7, #3028]
	cmp	r0, #0
	andeq	ip, ip, r4
	cmp	lr, #0
	ble	.L1261
	add	r1, r7, #3184
	mov	r3, #0
	add	r1, r1, #8
	str	r7, [fp, #-48]
	b	.L1265
.L1264:
	add	r3, r3, #1
	cmp	r3, lr
	beq	.L1277
.L1265:
	ldr	r2, [r1, #4]!
	cmp	r0, #0
	ldr	r6, [r2, #8]
	andeq	r6, r6, r4
	cmp	ip, r6
	bne	.L1264
	ldr	r6, [r5, #728]
	ldr	r7, [r2, #32]
	cmp	r7, r6
	bne	.L1264
	ldr	r7, [fp, #-48]
	mov	ip, #0
	ldr	r0, [fp, #-56]
	add	r3, r7, r3, lsl #2
	ldr	r1, [fp, #-52]
	strb	r0, [r2, #1]
	add	r2, r1, #848
	add	r1, r1, #1
	str	r1, [fp, #-52]
	ldr	r1, [r3, #3196]
	add	r2, r2, #2
	str	ip, [r1, #64]
	ldr	r1, [r3, #3196]
	str	r0, [r1, #60]
	ldr	r3, [r3, #3196]
	str	r3, [r7, r2, asl #2]
.L1261:
	ldr	r3, [r5, #1628]
	sub	r10, r10, #1
	ldr	r2, [r5, #1632]
	sub	r9, r9, #4
	add	r3, r3, r2
	sub	r3, r3, #1
	cmp	r3, r10
	blt	.L1266
	ldr	r8, [fp, #-52]
	mov	r3, r8
.L1260:
	ldr	r2, [r7, #3024]
	str	r3, [r7, #3036]
	cmp	r2, r8
	ble	.L1259
	add	r3, r8, #848
	mov	r1, #0
	add	r3, r3, #1
	add	r3, r7, r3, lsl #2
.L1268:
	add	r8, r8, #1
	str	r1, [r3, #4]!
	cmp	r8, r2
	bne	.L1268
.L1259:
	sub	sp, fp, #40
	ldmfd	sp, {r4, r5, r6, r7, r8, r9, r10, fp, sp, pc}
.L1277:
	ldr	r7, [fp, #-48]
	b	.L1261
.L1270:
	mov	r3, #0
	mov	r8, r3
	b	.L1260
	UNWIND(.fnend)
	.size	HEVC_UpdateLTReflist, .-HEVC_UpdateLTReflist
	.align	2
	.global	HEVC_GetAPC
	.type	HEVC_GetAPC, %function
HEVC_GetAPC:
	UNWIND(.fnstart)
	@ args = 0, pretend = 0, frame = 0
	@ frame_needed = 1, uses_anonymous_args = 0
	UNWIND(.movsp ip)
	mov	ip, sp
	stmfd	sp!, {r4, r5, r6, r7, fp, ip, lr, pc}
	UNWIND(.pad #4)
	UNWIND(.save {r4, r5, r6, r7, fp, ip, lr})
	UNWIND(.setfp fp, ip, #-4)
	sub	fp, ip, #4
	UNWIND(.pad #16)
	sub	sp, sp, #16
	subs	r5, r1, #0
	mov	r6, r0
	beq	.L1296
	add	r2, r0, #4096
	mov	r3, #280
	ldr	r7, [r2, #8]
	mul	r3, r3, r7
	add	r2, r0, r3
	add	r1, r2, #13120
	ldr	ip, [r1, #28]
	cmp	ip, #0
	beq	.L1281
	add	r2, r2, #13120
	ldr	r4, [r2, #36]
	cmp	r4, #0
	addne	r3, r3, #13120
	addne	r3, r3, #36
	movne	r4, #0
	addne	r3, r0, r3
	bne	.L1284
	b	.L1282
.L1287:
	ldr	r2, [r3, #4]!
	cmp	r2, #0
	beq	.L1282
.L1284:
	add	r4, r4, #1
	cmp	r4, ip
	bne	.L1287
.L1281:
	ldr	r1, .L1297
	mov	r0, #0
	bl	dprint_vfmw
	mvn	r0, #0
.L1294:
	sub	sp, fp, #28
	ldmfd	sp, {r4, r5, r6, r7, fp, sp, pc}
.L1282:
	ldr	r1, [r5, #28]
	ldr	r0, [r6, #276]
	bl	FSP_GetLogicFs
	subs	ip, r0, #0
	beq	.L1285
	ldr	r3, [ip, #28]
	cmp	r3, #0
	beq	.L1285
	mov	r2, #70
	mov	r3, #280
	mla	r2, r2, r7, r4
	mov	lr, #1
	mla	r7, r3, r7, r6
	ldr	r1, .L1297+4
	mov	r3, r4
	mov	r0, #13
	add	r6, r6, r2, lsl #2
	add	r2, r7, #13120
	add	r6, r6, #12288
	add	r7, r7, r4
	str	lr, [r6, #868]
	ldr	ip, [ip, #28]
	ldr	ip, [ip, #4]
	str	ip, [r6, #932]
	ldr	ip, [r5, #8]
	str	ip, [r6, #996]
	ldr	ip, [r2, #32]
	add	ip, ip, lr
	str	ip, [r2, #32]
	ldr	r2, [r5, #228]
	bl	dprint_vfmw
	ldr	r1, [r5, #32]
	add	r3, r7, #13376
	mov	r2, #0
	str	r4, [r5, #24]
	mov	r0, r2
	str	r1, [r6, #1060]
	strb	r2, [r3, #36]
	sub	sp, fp, #28
	ldmfd	sp, {r4, r5, r6, r7, fp, sp, pc}
.L1285:
	ldrb	r1, [r5, #1]	@ zero_extendqisi2
	mov	r0, #0
	ldr	r2, [r5, #28]
	ldr	r3, [r5, #8]
	stmia	sp, {r1, ip}
	str	r0, [sp, #8]
	ldr	r1, .L1297+8
	bl	dprint_vfmw
	mvn	r0, #0
	b	.L1294
.L1296:
	mov	r0, r5
	movw	r3, #11486
	ldr	r2, .L1297+12
	ldr	r1, .L1297+16
	bl	dprint_vfmw
	mvn	r0, #0
	b	.L1294
.L1298:
	.align	2
.L1297:
	.word	.LC98
	.word	.LC97
	.word	.LC4
	.word	.LC2
	.word	.LC3
	UNWIND(.fnend)
	.size	HEVC_GetAPC, .-HEVC_GetAPC
	.align	2
	.global	HEVC_CheckFrameStore
	.type	HEVC_CheckFrameStore, %function
HEVC_CheckFrameStore:
	UNWIND(.fnstart)
	@ args = 0, pretend = 0, frame = 0
	@ frame_needed = 1, uses_anonymous_args = 0
	UNWIND(.movsp ip)
	mov	ip, sp
	stmfd	sp!, {r4, fp, ip, lr, pc}
	UNWIND(.pad #4)
	UNWIND(.save {r4, fp, ip, lr})
	UNWIND(.setfp fp, ip, #-4)
	sub	fp, ip, #4
	UNWIND(.pad #12)
	sub	sp, sp, #12
	mov	r4, r1
	ldr	r0, [r0, #276]
	ldr	r1, [r1, #28]
	bl	FSP_GetLogicFs
	cmp	r0, #0
	beq	.L1300
	ldrsb	r2, [r0, #1]
	cmp	r2, #3
	cmpne	r2, #0
	moveq	r0, #1
	movne	r0, #0
	beq	.L1319
	ldr	r3, [r4, #52]
	cmp	r3, #1
	beq	.L1306
	ldr	r2, [r4, #48]
	ldrb	r3, [r4]	@ zero_extendqisi2
	cmp	r2, #0
	beq	.L1305
	cmp	r3, #1
	beq	.L1305
.L1316:
	sub	sp, fp, #16
	ldmfd	sp, {r4, fp, sp, pc}
.L1319:
	ldr	r3, [r4, #28]
	mov	r0, #13
	str	r2, [sp]
	ldr	r1, .L1320
	ldr	r2, .L1320+4
	bl	dprint_vfmw
.L1302:
	ldr	r3, [r4, #52]
	cmp	r3, #1
	beq	.L1306
	ldr	r3, [r4, #8]
	mov	r0, #1
	ldr	r2, .L1320+4
	ldr	r1, .L1320+8
	bl	dprint_vfmw
	mvn	r0, #2
	b	.L1316
.L1300:
	ldr	lr, [r4, #28]
	mov	r2, r4
	ldr	ip, [r4, #52]
	mov	r0, #1
	ldr	r3, [r4, #8]
	ldr	r1, .L1320+12
	stmia	sp, {ip, lr}
	bl	dprint_vfmw
	b	.L1302
.L1305:
	str	r3, [sp, #4]
	mov	r0, #1
	str	r2, [sp]
	mov	r3, r4
	ldr	r2, .L1320+4
	ldr	r1, .L1320+16
	bl	dprint_vfmw
	mvn	r0, #0
	b	.L1316
.L1306:
	mov	r2, #1
	mov	r3, #2
	strb	r2, [r4, #2]
	mvn	r0, #2
	str	r3, [r4, #52]
	b	.L1316
.L1321:
	.align	2
.L1320:
	.word	.LC99
	.word	.LANCHOR0+420
	.word	.LC101
	.word	.LC100
	.word	.LC102
	UNWIND(.fnend)
	.size	HEVC_CheckFrameStore, .-HEVC_CheckFrameStore
	.align	2
	.global	HEVC_GetImagePara
	.type	HEVC_GetImagePara, %function
HEVC_GetImagePara:
	UNWIND(.fnstart)
	@ args = 0, pretend = 0, frame = 8
	@ frame_needed = 1, uses_anonymous_args = 0
	UNWIND(.movsp ip)
	mov	ip, sp
	stmfd	sp!, {r4, r5, r6, r7, r8, r9, r10, fp, ip, lr, pc}
	UNWIND(.pad #4)
	UNWIND(.save {r4, r5, r6, r7, r8, r9, r10, fp, ip, lr})
	UNWIND(.setfp fp, ip, #-4)
	sub	fp, ip, #4
	UNWIND(.pad #20)
	sub	sp, sp, #20
	add	r8, r1, #672
	mov	r4, r1
	mvn	r7, #0
	ldrd	r2, [r8, #-8]
	mvn	r6, #0
	ldr	r1, [r1, #12]
	mov	r5, r0
	cmp	r3, r7
	cmpeq	r2, r6
	str	r1, [fp, #-52]
	beq	.L1324
	ldr	r3, [r0, #3028]
	cmp	r3, #0
	beq	.L1324
	add	r10, r0, #3184
	mvn	r6, #1
	add	r10, r10, #8
	mvn	r7, #0
	mov	r9, #0
	mvn	r3, #0
	str	r3, [fp, #-48]
.L1327:
	ldr	r2, [r10, #4]!
	cmp	r2, #0
	beq	.L1326
	ldr	r1, [r2, #28]
	ldr	r0, [r5, #276]
	bl	FSP_GetLogicFs
	cmp	r0, #0
	beq	.L1326
	ldrsb	r2, [r0, #1]
	cmp	r2, #3
	cmpne	r2, #0
	beq	.L1326
	ldr	r2, [r10]
	add	r2, r2, #672
	ldrd	r0, [r2, #-8]
	cmp	r1, r7
	cmpeq	r0, r6
	strcc	r9, [fp, #-48]
	movcc	r6, r0
	movcc	r7, r1
.L1326:
	ldr	r2, [r5, #3028]
	add	r9, r9, #1
	cmp	r9, r2
	bcc	.L1327
	ldr	r3, [fp, #-48]
	cmn	r3, #1
	beq	.L1324
	ldrd	r2, [r8, #-8]
	cmp	r3, r7
	cmpeq	r2, r6
	bhi	.L1359
.L1324:
	ldrb	r3, [r4, #145]	@ zero_extendqisi2
	ldrb	r2, [r4, #144]	@ zero_extendqisi2
	and	r3, r3, #195
	bfc	r3, #0, #2
	bfc	r2, #0, #2
	strb	r3, [r4, #145]
	strb	r2, [r4, #144]
	ldr	r3, [r5, #144]
	str	r3, [r4, #188]
	ldr	r3, [r5, #2824]
	ldrh	r3, [r3, #124]
	cmp	r3, #1
	moveq	r2, #0
	beq	.L1328
	movw	r2, #257
	cmp	r3, r2
	movne	r2, #1
	bne	.L1328
	ldr	r2, [r5, #3484]
	subs	r2, r2, #1
	movne	r2, #1
.L1328:
	ldr	r3, [r5, #2828]
	ldrb	r3, [r3, #2066]	@ zero_extendqisi2
	cmp	r3, #0
	moveq	ip, #3
	beq	.L1329
	ldr	r3, [r4, #40]
	cmp	r3, #1
	cmpne	r3, #11
	moveq	ip, #1
	bne	.L1360
.L1330:
	ldr	r2, [r4, #44]
	clz	r2, r2
	mov	r2, r2, lsr #5
.L1329:
	ldrb	r3, [r4, #145]	@ zero_extendqisi2
	mov	r0, #2
	ldr	r1, [r4, #48]
	bfi	r3, r0, #4, #2
	ldr	r6, [fp, #-52]
	cmp	r1, #0
	bfi	r3, ip, #2, #2
	bfi	r3, r2, #0, #2
	ldrb	lr, [r4, #4]	@ zero_extendqisi2
	strb	r3, [r4, #145]
	ldrne	r3, [r4, #16]
	ldrb	r0, [r4, #144]	@ zero_extendqisi2
	ldrb	r1, [r4, #146]	@ zero_extendqisi2
	ldrb	ip, [r4, #3]	@ zero_extendqisi2
	bfi	r0, r6, #0, #2
	strne	r3, [r4, #232]
	str	lr, [r4, #200]
	bfi	r1, ip, #1, #1
	strb	r0, [r4, #144]
	strb	r1, [r4, #146]
	ldr	r3, [r5, #2844]
	ldr	r1, [r4, #28]
	ldr	r3, [r3, #596]
	str	r3, [r4, #204]
	ldr	r3, [r5, #2844]
	ldr	r3, [r3, #600]
	str	r3, [r4, #208]
	ldr	r3, [r5, #2844]
	ldr	r3, [r3, #604]
	str	r3, [r4, #212]
	ldr	r0, [r5, #276]
	bl	FSP_GetFsImagePtr
	subs	r5, r0, #0
	beq	.L1322
	ldr	r3, .L1361
	mov	r2, #632
	add	r1, r4, #80
	ldr	r3, [r3, #52]
	blx	r3
	mov	r3, #16
	str	r3, [r5, #296]
	mov	r3, #1
	ldr	r2, [r4, #56]
	strb	r3, [r5, #291]
	cmp	r2, #0
	strb	r3, [r5, #289]
	moveq	r3, #0
	movne	r3, #4
	strb	r3, [r5, #284]
	ldr	r3, [r4, #68]
	str	r3, [r5, #236]
.L1322:
	sub	sp, fp, #40
	ldmfd	sp, {r4, r5, r6, r7, r8, r9, r10, fp, sp, pc}
.L1360:
	bic	r3, r3, #8
	cmp	r3, #2
	moveq	ip, #2
	movne	ip, #3
	b	.L1330
.L1359:
	ldr	r0, [r5, #276]
	strd	r6, [sp]
	bl	IsPtsRewind
	cmp	r0, #0
	bne	.L1324
	ldrd	r2, [r8, #-8]
	mov	r0, #29
	ldr	r1, .L1361+4
	strd	r6, [sp]
	bl	dprint_vfmw
	ldr	r3, [fp, #-48]
	add	r10, r5, r3, lsl #2
	ldrd	r2, [r8, #-8]
	ldr	r1, [r10, #3196]
	add	r1, r1, #672
	strd	r2, [r1, #-8]
	strd	r6, [r8, #-8]
	b	.L1324
.L1362:
	.align	2
.L1361:
	.word	vfmw_Osal_Func_Ptr_S
	.word	.LC103
	UNWIND(.fnend)
	.size	HEVC_GetImagePara, .-HEVC_GetImagePara
	.align	2
	.global	HEVC_CheckOutputImage
	.type	HEVC_CheckOutputImage, %function
HEVC_CheckOutputImage:
	UNWIND(.fnstart)
	@ args = 0, pretend = 0, frame = 0
	@ frame_needed = 1, uses_anonymous_args = 0
	UNWIND(.movsp ip)
	mov	ip, sp
	stmfd	sp!, {fp, ip, lr, pc}
	UNWIND(.pad #4)
	UNWIND(.save {fp, ip, lr})
	UNWIND(.setfp fp, ip, #-4)
	sub	fp, ip, #4
	cmp	r1, #19
	bhi	.L1365
	mov	r3, #712
	mla	r1, r3, r1, r0
	add	r1, r1, #13696
	ldrb	r0, [r1, #17]	@ zero_extendqisi2
	adds	r0, r0, #0
	movne	r0, #1
	ldmfd	sp, {fp, sp, pc}
.L1365:
	mvn	r0, #0
	ldmfd	sp, {fp, sp, pc}
	UNWIND(.fnend)
	.size	HEVC_CheckOutputImage, .-HEVC_CheckOutputImage
	.align	2
	.global	HEVC_DECRecycleImage
	.type	HEVC_DECRecycleImage, %function
HEVC_DECRecycleImage:
	UNWIND(.fnstart)
	@ args = 0, pretend = 0, frame = 0
	@ frame_needed = 1, uses_anonymous_args = 0
	UNWIND(.movsp ip)
	mov	ip, sp
	stmfd	sp!, {r4, r5, r6, r7, r8, r9, fp, ip, lr, pc}
	UNWIND(.pad #4)
	UNWIND(.save {r4, r5, r6, r7, r8, r9, fp, ip, lr})
	UNWIND(.setfp fp, ip, #-4)
	sub	fp, ip, #4
	mov	r8, r0
	ldr	r0, [r0, #276]
	mov	r9, r1
	bl	FSP_GetLogicFs
	cmp	r0, #0
	beq	.L1371
	ldrsb	r3, [r0, #1]
	cmp	r3, #0
	addne	r4, r0, #576
	addne	r5, r0, #608
	movne	r6, #0
	movne	r7, #0
	beq	.L1376
.L1370:
	ldr	r1, [r4, #8]!
	cmp	r1, #0
	beq	.L1369
	ldr	r0, [r8, #276]
	bl	FreeUsdByDec
	strd	r6, [r4]
.L1369:
	cmp	r4, r5
	bne	.L1370
	ldr	r0, [r8, #276]
	mov	r1, r9
	mov	r2, #0
	bl	FSP_SetDisplay
	mov	r0, #0
	ldmfd	sp, {r4, r5, r6, r7, r8, r9, fp, sp, pc}
.L1376:
	ldr	r1, .L1377
	mov	r0, #1
	bl	dprint_vfmw
	mvn	r0, #0
	ldmfd	sp, {r4, r5, r6, r7, r8, r9, fp, sp, pc}
.L1371:
	mvn	r0, #0
	ldmfd	sp, {r4, r5, r6, r7, r8, r9, fp, sp, pc}
.L1378:
	.align	2
.L1377:
	.word	.LC104
	UNWIND(.fnend)
	.size	HEVC_DECRecycleImage, .-HEVC_DECRecycleImage
	.align	2
	.global	HEVC_GetSLHDR1MasteringDisplayInfo
	.type	HEVC_GetSLHDR1MasteringDisplayInfo, %function
HEVC_GetSLHDR1MasteringDisplayInfo:
	UNWIND(.fnstart)
	@ args = 0, pretend = 0, frame = 0
	@ frame_needed = 1, uses_anonymous_args = 0
	UNWIND(.movsp ip)
	mov	ip, sp
	stmfd	sp!, {r4, fp, ip, lr, pc}
	UNWIND(.pad #4)
	UNWIND(.save {r4, fp, ip, lr})
	UNWIND(.setfp fp, ip, #-4)
	sub	fp, ip, #4
	ldr	r3, [r1, #572]
	movw	r2, #14999
	cmp	r3, r2
	bhi	.L1383
	sub	r2, r3, #8448
	movw	ip, #4749
	sub	r2, r2, #52
	cmp	r2, ip
	movls	r3, #1
	strlsb	r3, [r0, #3]
	bls	.L1381
	sub	r3, r3, #13248
	movw	r2, #1749
	sub	r3, r3, #2
	cmp	r3, r2
	bhi	.L1383
	mov	r3, #2
	strb	r3, [r0, #3]
.L1381:
	ldr	r3, [r1, #604]
	movw	r2, #56963
	movt	r2, 17179
	mov	ip, #50
	add	r3, r3, #249856
	movw	lr, #10000
	add	r3, r3, #144
	movw	r4, #2063
	movt	r4, 1526
	umull	r2, r3, r3, r2
	mov	r3, r3, lsr #17
	mul	r3, ip, r3
	cmp	r3, lr
	movcs	r3, lr
	strh	r3, [r0, #4]	@ movhi
	ldr	r3, [r1, #608]
	cmp	r3, r4
	movwls	r2, #5977
	movtls	r2, 53687
	umullls	r2, r3, r3, r2
	ubfxls	lr, r3, #13, #16
	strh	lr, [r0, #6]	@ movhi
	ldmfd	sp, {r4, fp, sp, pc}
.L1383:
	mov	r3, #0
	strb	r3, [r0, #3]
	b	.L1381
	UNWIND(.fnend)
	.size	HEVC_GetSLHDR1MasteringDisplayInfo, .-HEVC_GetSLHDR1MasteringDisplayInfo
	.align	2
	.global	HEVC_PrintSLHDR1Info
	.type	HEVC_PrintSLHDR1Info, %function
HEVC_PrintSLHDR1Info:
	UNWIND(.fnstart)
	@ args = 0, pretend = 0, frame = 0
	@ frame_needed = 1, uses_anonymous_args = 0
	UNWIND(.movsp ip)
	mov	ip, sp
	stmfd	sp!, {r4, r5, r6, r7, fp, ip, lr, pc}
	UNWIND(.pad #4)
	UNWIND(.save {r4, r5, r6, r7, fp, ip, lr})
	UNWIND(.setfp fp, ip, #-4)
	sub	fp, ip, #4
	ldr	r1, .L1405
	mov	r4, r0
	ldrb	r2, [r0]	@ zero_extendqisi2
	mov	r0, #32
	bl	dprint_vfmw
	ldrb	r2, [r4, #1]	@ zero_extendqisi2
	ldr	r1, .L1405+4
	mov	r0, #32
	bl	dprint_vfmw
	ldrb	r2, [r4, #2]	@ zero_extendqisi2
	ldr	r1, .L1405+8
	mov	r0, #32
	bl	dprint_vfmw
	ldrb	r2, [r4, #3]	@ zero_extendqisi2
	ldr	r1, .L1405+12
	mov	r0, #32
	bl	dprint_vfmw
	ldrh	r2, [r4, #4]
	ldr	r1, .L1405+16
	mov	r0, #32
	bl	dprint_vfmw
	ldrh	r2, [r4, #6]
	ldr	r1, .L1405+20
	mov	r0, #32
	bl	dprint_vfmw
	ldrb	r2, [r4, #8]	@ zero_extendqisi2
	ldr	r1, .L1405+24
	mov	r0, #32
	bl	dprint_vfmw
	ldrb	r2, [r4, #9]	@ zero_extendqisi2
	ldr	r1, .L1405+28
	mov	r0, #32
	bl	dprint_vfmw
	ldrb	r5, [r4, #1]	@ zero_extendqisi2
	ldrb	r2, [r4, #10]	@ zero_extendqisi2
	mov	r0, #32
	cmp	r5, #0
	bne	.L1387
	ldr	r1, .L1405+32
	bl	dprint_vfmw
	ldrb	r2, [r4, #11]	@ zero_extendqisi2
	ldr	r1, .L1405+36
	mov	r0, #32
	bl	dprint_vfmw
	ldrb	r2, [r4, #12]	@ zero_extendqisi2
	ldr	r1, .L1405+40
	mov	r0, #32
	bl	dprint_vfmw
	ldrb	r2, [r4, #13]	@ zero_extendqisi2
	ldr	r1, .L1405+44
	mov	r0, #32
	bl	dprint_vfmw
	ldrb	r2, [r4, #14]	@ zero_extendqisi2
	ldr	r1, .L1405+48
	mov	r0, #32
	bl	dprint_vfmw
	ldrb	r2, [r4, #15]	@ zero_extendqisi2
	ldr	r1, .L1405+52
	mov	r0, #32
	bl	dprint_vfmw
	ldrb	r3, [r4, #15]	@ zero_extendqisi2
	cmp	r3, #0
	addne	r7, r4, #15
	addne	r6, r4, #26
	beq	.L1392
.L1391:
	mov	r3, r5
	ldrb	r2, [r7, #1]!	@ zero_extendqisi2
	ldr	r1, .L1405+56
	mov	r0, #32
	bl	dprint_vfmw
	mov	r3, r5
	ldrb	r2, [r6, #1]!	@ zero_extendqisi2
	mov	r0, #32
	ldr	r1, .L1405+60
	add	r5, r5, #1
	bl	dprint_vfmw
	ldrb	r3, [r4, #15]	@ zero_extendqisi2
	cmp	r3, r5
	bhi	.L1391
.L1392:
	ldrb	r2, [r4, #38]	@ zero_extendqisi2
	mov	r0, #32
	ldr	r1, .L1405+64
	bl	dprint_vfmw
	ldrb	r3, [r4, #38]	@ zero_extendqisi2
	cmp	r3, #0
	addne	r7, r4, #38
	addne	r6, r4, #45
	movne	r5, #0
	beq	.L1393
.L1394:
	mov	r3, r5
	ldrb	r2, [r7, #1]!	@ zero_extendqisi2
	ldr	r1, .L1405+68
	mov	r0, #32
	bl	dprint_vfmw
	mov	r3, r5
	ldrb	r2, [r6, #1]!	@ zero_extendqisi2
	mov	r0, #32
	ldr	r1, .L1405+72
	add	r5, r5, #1
	bl	dprint_vfmw
	ldrb	r3, [r4, #38]	@ zero_extendqisi2
	cmp	r3, r5
	bhi	.L1394
.L1393:
	movw	r2, #290
	ldr	r1, .L1405+76
	mov	r0, #32
	sub	sp, fp, #28
	ldmfd	sp, {r4, r5, r6, r7, fp, sp, lr}
	b	dprint_vfmw
.L1387:
	ldr	r1, .L1405+80
	bl	dprint_vfmw
	ldrb	r3, [r4, #10]	@ zero_extendqisi2
	cmp	r3, #0
	addne	r7, r4, #10
	addne	r6, r4, #78
	movne	r5, #0
	beq	.L1399
.L1398:
	mov	r2, r5
	ldrh	r3, [r7, #2]!
	ldr	r1, .L1405+84
	mov	r0, #32
	bl	dprint_vfmw
	ldrh	r3, [r6, #2]!
	mov	r2, r5
	ldr	r1, .L1405+88
	mov	r0, #32
	add	r5, r5, #1
	bl	dprint_vfmw
	ldrb	r3, [r4, #10]	@ zero_extendqisi2
	cmp	r3, r5
	bhi	.L1398
.L1399:
	ldrb	r2, [r4, #148]	@ zero_extendqisi2
	mov	r0, #32
	ldr	r1, .L1405+92
	bl	dprint_vfmw
	ldrb	r3, [r4, #148]	@ zero_extendqisi2
	cmp	r3, #0
	addne	r7, r4, #148
	addne	r6, r4, #216
	movne	r5, #0
	beq	.L1397
.L1400:
	mov	r3, r5
	ldrh	r2, [r7, #2]!
	ldr	r1, .L1405+96
	mov	r0, #32
	bl	dprint_vfmw
	mov	r3, r5
	ldrh	r2, [r6, #2]!
	mov	r0, #32
	ldr	r1, .L1405+100
	add	r5, r5, #1
	bl	dprint_vfmw
	ldrb	r3, [r4, #148]	@ zero_extendqisi2
	cmp	r3, r5
	bhi	.L1400
.L1397:
	movw	r3, #286
	ldr	r1, .L1405+104
	ldrh	r2, [r4, r3]
	add	r4, r4, #288
	mov	r0, #32
	bl	dprint_vfmw
	ldr	r1, .L1405+108
	ldrh	r2, [r4]
	mov	r0, #32
	bl	dprint_vfmw
	b	.L1393
.L1406:
	.align	2
.L1405:
	.word	.LC105
	.word	.LC106
	.word	.LC107
	.word	.LC108
	.word	.LC109
	.word	.LC110
	.word	.LC111
	.word	.LC112
	.word	.LC113
	.word	.LC114
	.word	.LC115
	.word	.LC116
	.word	.LC117
	.word	.LC118
	.word	.LC120
	.word	.LC121
	.word	.LC119
	.word	.LC122
	.word	.LC123
	.word	.LC132
	.word	.LC124
	.word	.LC126
	.word	.LC127
	.word	.LC125
	.word	.LC130
	.word	.LC131
	.word	.LC128
	.word	.LC129
	UNWIND(.fnend)
	.size	HEVC_PrintSLHDR1Info, .-HEVC_PrintSLHDR1Info
	.align	2
	.global	HEVC_GetSLHDR1Info
	.type	HEVC_GetSLHDR1Info, %function
HEVC_GetSLHDR1Info:
	UNWIND(.fnstart)
	@ args = 0, pretend = 0, frame = 296
	@ frame_needed = 1, uses_anonymous_args = 0
	UNWIND(.movsp ip)
	mov	ip, sp
	stmfd	sp!, {r4, r5, r6, r7, fp, ip, lr, pc}
	UNWIND(.pad #4)
	UNWIND(.save {r4, r5, r6, r7, fp, ip, lr})
	UNWIND(.setfp fp, ip, #-4)
	sub	fp, ip, #4
	UNWIND(.pad #312)
	sub	sp, sp, #312
	mov	r6, r1
	mov	r5, r0
	mov	r4, r2
	sub	r0, fp, #320
	movw	r2, #290
	mov	r1, #0
	bl	memset
	ldrb	r3, [r6, #1]	@ zero_extendqisi2
	cmp	r3, #0
	beq	.L1410
	ldrb	r2, [r4, #56]	@ zero_extendqisi2
	cmp	r2, #0
	bne	.L1453
.L1410:
	ldrb	r2, [r4, #56]	@ zero_extendqisi2
	ldrb	ip, [r4, #568]	@ zero_extendqisi2
	ldrb	r0, [r4, #59]	@ zero_extendqisi2
	ldrb	r1, [r4, #128]	@ zero_extendqisi2
.L1409:
	str	r1, [sp, #12]
	str	r0, [sp, #8]
	mov	r0, #22
	stmia	sp, {r2, ip}
	ldr	r1, .L1456
	ldr	r2, .L1456+4
	bl	dprint_vfmw
	mov	r3, #0
	strb	r3, [r5, #458]
.L1407:
	sub	sp, fp, #28
	ldmfd	sp, {r4, r5, r6, r7, fp, sp, pc}
.L1453:
	ldrb	ip, [r4, #568]	@ zero_extendqisi2
	cmp	ip, #0
	beq	.L1410
	ldrb	r1, [r4, #59]	@ zero_extendqisi2
	cmp	r1, #0
	bne	.L1411
	ldrb	r1, [r4, #128]	@ zero_extendqisi2
	cmp	r1, #0
	beq	.L1454
.L1411:
	mov	r3, #1
	strb	r3, [r5, #458]
	ldr	r0, [r6, #24]
	ldrb	r1, [r4, #57]	@ zero_extendqisi2
	ldrb	r2, [r4, #58]	@ zero_extendqisi2
	cmp	r0, #9
	strb	r1, [fp, #-320]
	strb	r2, [fp, #-319]
	bne	.L1413
	ldr	r2, [r6, #32]
	cmp	r2, #9
	streqb	r3, [fp, #-312]
.L1413:
	ldrb	r3, [r4, #60]	@ zero_extendqisi2
	cmp	r3, #1
	beq	.L1414
	ldrb	r2, [r4, #129]	@ zero_extendqisi2
	cmp	r2, #1
	beq	.L1414
	cmp	r2, #9
	cmpne	r3, #9
	ldrneb	r3, [fp, #-312]	@ zero_extendqisi2
	moveq	r3, #1
	strb	r3, [fp, #-318]
.L1414:
	mov	r1, r4
	sub	r0, fp, #320
	bl	HEVC_GetSLHDR1MasteringDisplayInfo
	ldrb	r3, [fp, #-318]	@ zero_extendqisi2
	ldrb	r2, [fp, #-312]	@ zero_extendqisi2
	cmp	r2, r3
	ldreqb	r3, [fp, #-317]	@ zero_extendqisi2
	movne	r3, #0
	strb	r3, [fp, #-311]
	ldrb	r3, [fp, #-319]	@ zero_extendqisi2
	cmp	r3, #0
	bne	.L1418
	ldrb	r7, [r4, #66]	@ zero_extendqisi2
	ldrb	lr, [r4, #61]	@ zero_extendqisi2
	ldrb	ip, [r4, #62]	@ zero_extendqisi2
	cmp	r7, #0
	ldrb	r0, [r4, #63]	@ zero_extendqisi2
	ldrb	r1, [r4, #64]	@ zero_extendqisi2
	ldrb	r2, [r4, #65]	@ zero_extendqisi2
	strb	r7, [fp, #-305]
	strb	lr, [fp, #-310]
	strb	ip, [fp, #-309]
	strb	r0, [fp, #-308]
	strb	r1, [fp, #-307]
	strb	r2, [fp, #-306]
	beq	.L1423
	sub	r2, fp, #320
	add	ip, r4, #66
	add	r0, r2, #15
	add	r1, r4, #81
	add	r2, r2, #26
.L1422:
	add	r3, r3, #1
	ldrb	r6, [ip, #1]!	@ zero_extendqisi2
	ldrb	lr, [r1, #1]!	@ zero_extendqisi2
	cmp	r3, r7
	strb	r6, [r0, #1]!
	strb	lr, [r2, #1]!
	bne	.L1422
.L1423:
	ldrb	r6, [r4, #97]	@ zero_extendqisi2
	cmp	r6, #0
	strb	r6, [fp, #-282]
	beq	.L1421
	sub	r1, fp, #280
	sub	r2, fp, #272
	add	r0, r4, #97
	sub	r1, r1, #2
	add	r4, r4, #112
	sub	r2, r2, #3
	mov	r3, #0
.L1426:
	add	r3, r3, #1
	ldrb	lr, [r0, #1]!	@ zero_extendqisi2
	ldrb	ip, [r4, #1]!	@ zero_extendqisi2
	cmp	r3, r6
	strb	lr, [r1, #1]!
	strb	ip, [r2, #1]!
	bne	.L1426
.L1421:
	ldr	r3, [r5, #464]
	cmp	r3, #0
	bne	.L1455
	ldr	r2, .L1456+4
	mov	r0, #1
	ldr	r1, .L1456+8
	bl	dprint_vfmw
	b	.L1407
.L1418:
	ldrb	r6, [r4, #168]	@ zero_extendqisi2
	ldr	r2, [r4, #136]
	add	r6, r6, #1
	ldr	r3, [r4, #140]
	uxtb	r6, r6
	strh	r2, [fp, #-34]	@ movhi
	cmp	r6, #0
	strh	r3, [fp, #-32]	@ movhi
	strb	r6, [fp, #-310]
	addne	r0, r4, #170
	addne	r1, r4, #368
	subne	r3, fp, #320
	movne	r2, #0
	beq	.L1430
.L1429:
	add	r2, r2, #1
	ldrh	lr, [r0, #2]!
	ldrh	ip, [r1, #2]!
	cmp	r2, r6
	add	r3, r3, #2
	strh	lr, [r3, #10]	@ movhi
	strh	ip, [r3, #78]	@ movhi
	bcc	.L1429
.L1430:
	ldrb	lr, [r4, #169]	@ zero_extendqisi2
	add	lr, lr, #1
	uxtb	lr, lr
	strb	lr, [fp, #-172]
	cmp	lr, #0
	beq	.L1421
	add	r1, r4, #432
	sub	r3, fp, #320
	add	r4, r4, #236
	add	r1, r1, #2
	mov	r2, #0
.L1431:
	add	r2, r2, #1
	ldrh	ip, [r4, #2]!
	ldrh	r0, [r1, #2]!
	cmp	r2, lr
	add	r3, r3, #2
	strh	ip, [r3, #148]	@ movhi
	strh	r0, [r3, #216]	@ movhi
	bcc	.L1431
	b	.L1421
.L1455:
	ldr	r3, .L1456+12
	sub	r1, fp, #320
	movw	r2, #290
	ldr	r0, [r5, #472]
	ldr	r3, [r3, #52]
	blx	r3
	movw	r3, #290
	str	r3, [r5, #460]
	b	.L1407
.L1454:
	mov	r0, r1
	b	.L1409
.L1457:
	.align	2
.L1456:
	.word	.LC133
	.word	.LANCHOR0+444
	.word	.LC134
	.word	vfmw_Osal_Func_Ptr_S
	UNWIND(.fnend)
	.size	HEVC_GetSLHDR1Info, .-HEVC_GetSLHDR1Info
	.align	2
	.global	HEVC_ConvertHDRInfo
	.type	HEVC_ConvertHDRInfo, %function
HEVC_ConvertHDRInfo:
	UNWIND(.fnstart)
	@ args = 0, pretend = 0, frame = 0
	@ frame_needed = 1, uses_anonymous_args = 0
	UNWIND(.movsp ip)
	mov	ip, sp
	stmfd	sp!, {r4, r5, r6, fp, ip, lr, pc}
	UNWIND(.pad #4)
	UNWIND(.save {r4, r5, r6, fp, ip, lr})
	UNWIND(.setfp fp, ip, #-4)
	sub	fp, ip, #4
	ldrb	r5, [r1]	@ zero_extendqisi2
	mov	r3, r0
	mov	ip, r2
	add	lr, r0, #484
	add	lr, lr, #2
	add	r4, r0, #492
	strb	r5, [r3, #480]
	mov	r0, r2
	ldr	r5, [r1, #24]
	mov	r2, #0
	strb	r5, [r3, #481]
	ldr	r5, [r1, #32]
	strb	r5, [r3, #482]
	ldr	r5, [r1, #28]
	str	r5, [r3, #484]
	ldrb	r5, [ip, #568]	@ zero_extendqisi2
	strb	r5, [r3, #456]
.L1459:
	ldr	r5, [r0, #572]
	add	r2, r2, #1
	cmp	r2, #3
	add	r0, r0, #4
	strh	r5, [lr, #2]!	@ movhi
	ldr	r5, [r0, #580]
	strh	r5, [r4, #2]!	@ movhi
	bne	.L1459
	ldr	r0, [ip, #596]
	add	lr, r3, #456
	movw	r5, #614
	add	r4, ip, #616
	mov	r2, ip
	strh	r0, [lr, #44]	@ movhi
	mov	r0, r3
	ldr	r6, [ip, #600]
	strh	r6, [lr, #46]	@ movhi
	ldr	lr, [ip, #604]
	str	lr, [r3, #504]
	ldr	lr, [ip, #608]
	str	lr, [r3, #508]
	ldrb	lr, [ip, #612]	@ zero_extendqisi2
	strb	lr, [r3, #457]
	ldrh	lr, [ip, r5]
	str	lr, [r3, #512]
	ldrh	lr, [r4]
	str	lr, [r3, #516]
	ldrb	ip, [ip, #618]	@ zero_extendqisi2
	strb	ip, [r3, #520]
	sub	sp, fp, #24
	ldmfd	sp, {r4, r5, r6, fp, sp, lr}
	b	HEVC_GetSLHDR1Info
	UNWIND(.fnend)
	.size	HEVC_ConvertHDRInfo, .-HEVC_ConvertHDRInfo
	.align	2
	.global	HEVC_AllocFrameStore
	.type	HEVC_AllocFrameStore, %function
HEVC_AllocFrameStore:
	UNWIND(.fnstart)
	@ args = 0, pretend = 0, frame = 0
	@ frame_needed = 1, uses_anonymous_args = 0
	UNWIND(.movsp ip)
	mov	ip, sp
	stmfd	sp!, {r3, r4, r5, r6, r7, r8, r9, r10, fp, ip, lr, pc}
	UNWIND(.pad #4)
	UNWIND(.save {r3, r4, r5, r6, r7, r8, r9, r10, fp, ip, lr})
	UNWIND(.setfp fp, ip, #-4)
	sub	fp, ip, #4
	add	r6, r0, #4096
	ldr	r3, [r0, #2808]
	movw	ip, #5036
	mov	r7, r0
	ldr	r2, [r6, #732]
	movw	r5, #12668
	ldr	r0, [r0, #2804]
	add	lr, r7, #13696
	mov	r1, #0
	add	lr, lr, #16
	mla	r3, ip, r2, r3
	mov	r8, r1
	ldr	r3, [r3, #32]
	strb	r1, [r6, #1]
	mla	r5, r5, r3, r0
.L1466:
	ldr	r3, [lr, #48]
	cmp	r3, #0
	bne	.L1462
	cmp	lr, #0
	beq	.L1473
	ldr	r1, [r7, #3028]
	cmp	r1, #0
	beq	.L1473
	ldr	r2, [r7, #3196]
	cmp	r2, lr
	beq	.L1462
	add	r2, r7, #3184
	add	r2, r2, #12
	b	.L1464
.L1465:
	ldr	ip, [r2, #4]!
	cmp	ip, lr
	beq	.L1462
.L1464:
	add	r3, r3, #1
	cmp	r3, r1
	bne	.L1465
.L1473:
	mov	r3, #712
	add	r9, r7, #4160
	mla	r8, r3, r8, r7
	mov	r2, #101
	mov	r3, #1
	str	r2, [r6, #40]
	strb	r3, [r6, #1]
	mov	r2, #632
	add	r1, r8, #13760
	mov	r0, r9
	add	r1, r1, #32
	mov	r4, lr
	bl	memcpy
	add	r3, r8, #13696
	movw	r2, #13728
	str	r4, [r6, #60]
	mov	r10, #0
	str	r10, [r6, #216]
	str	r10, [r8, r2]
	strb	r10, [r3, #18]
	strb	r10, [r4]
	ldr	r3, [r6, #60]
	str	r10, [r3, #60]
	ldr	r3, [r6, #60]
	str	r10, [r3, #64]
	ldr	r3, [r6, #60]
	str	r10, [r3, #52]
	ldrb	r1, [r6, #1]	@ zero_extendqisi2
	cmp	r1, #1
	bne	.L1470
	ldr	r0, [r7, #276]
	bl	FSP_NewLogicFs
	mov	r8, r0
	mov	r1, r0
	ldr	r0, [r7, #276]
	bl	FSP_GetLogicFs
	mvn	r3, r8
	mov	r3, r3, lsr #31
	cmp	r0, #0
	mov	r4, r0
	moveq	r3, #0
	cmp	r3, #0
	beq	.L1468
	add	r1, r5, #2064
	add	r2, r7, #3472
	bl	HEVC_ConvertHDRInfo
	ldr	r3, [r7, #2844]
	ldr	r3, [r3, #28]
	cmp	r3, #25
	beq	.L1477
.L1469:
	ldr	r5, .L1478
	add	r1, r4, #40
	ldr	r0, [r6, #60]
	mov	r2, #632
	ldr	r3, [r5, #52]
	add	r0, r0, #80
	blx	r3
	ldr	r1, [r6, #60]
	ldr	r3, [r5, #52]
	mov	r0, r9
	add	r1, r1, #80
	mov	r2, #632
	blx	r3
	ldr	r3, [r6, #60]
	mov	r0, #0
	str	r8, [r3, #28]
	ldrsb	r3, [r4, #4]
	str	r3, [r6, #36]
	ldmfd	sp, {r3, r4, r5, r6, r7, r8, r9, r10, fp, sp, pc}
.L1462:
	add	r8, r8, #1
	add	lr, lr, #712
	cmp	r8, #20
	bne	.L1466
.L1470:
	ldr	r1, .L1478+4
	mov	r0, #0
	bl	dprint_vfmw
	mvn	r0, #0
	ldmfd	sp, {r3, r4, r5, r6, r7, r8, r9, r10, fp, sp, pc}
.L1477:
	ldr	r1, [r7, #2828]
	ldr	r5, [r4, #152]
	ldr	r3, [r4, #76]
	ldr	r2, [r1, #68]
	ldr	r1, [r1, #64]
	str	r10, [r4, #280]
	mul	r5, r5, r2
	str	r2, [r4, #112]
	str	r1, [r4, #108]
	str	r10, [r4, #284]
	add	r3, r5, r3
	str	r10, [r4, #288]
	str	r3, [r4, #80]
	mov	r0, r3
	str	r10, [r4, #292]
	str	r10, [r4, #296]
	bl	MEM_Phy2Vir
	ldr	r2, [r4, #60]
	ldr	r3, [r4, #156]
	add	r5, r5, r2
	str	r10, [r4, #556]
	str	r5, [r4, #64]
	add	r5, r5, r3
	str	r5, [r4, #72]
	str	r0, [r4, #552]
	b	.L1469
.L1468:
	strb	r3, [r6, #1]
	mov	r0, r3
	ldr	r1, .L1478+8
	bl	dprint_vfmw
	mvn	r0, #0
	ldmfd	sp, {r3, r4, r5, r6, r7, r8, r9, r10, fp, sp, pc}
.L1479:
	.align	2
.L1478:
	.word	vfmw_Osal_Func_Ptr_S
	.word	.LC135
	.word	.LC136
	UNWIND(.fnend)
	.size	HEVC_AllocFrameStore, .-HEVC_AllocFrameStore
	.align	2
	.global	HEVC_IsVoFinish
	.type	HEVC_IsVoFinish, %function
HEVC_IsVoFinish:
	UNWIND(.fnstart)
	@ args = 0, pretend = 0, frame = 0
	@ frame_needed = 1, uses_anonymous_args = 0
	UNWIND(.movsp ip)
	mov	ip, sp
	stmfd	sp!, {r4, r5, fp, ip, lr, pc}
	UNWIND(.pad #4)
	UNWIND(.save {r4, r5, fp, ip, lr})
	UNWIND(.setfp fp, ip, #-4)
	sub	fp, ip, #4
	mov	r5, r0
	ldr	r0, [r0, #276]
	bl	FSP_GetFspType
	cmn	r0, #1
	mov	r4, r0
	movne	r4, #0
	bne	.L1484
	b	.L1487
.L1483:
	ldrsb	r3, [r0, #1]
	cmp	r3, #3
	beq	.L1485
	cmp	r4, #32
	beq	.L1488
.L1484:
	mov	r1, r4
	ldr	r0, [r5, #276]
	bl	FSP_GetLogicFs
	add	r4, r4, #1
	cmp	r0, #0
	bne	.L1483
	ldr	r1, .L1489
	mov	r0, #1
	bl	dprint_vfmw
	mvn	r0, #0
	ldmfd	sp, {r4, r5, fp, sp, pc}
.L1487:
	ldr	r1, .L1489+4
	mov	r0, #1
	bl	dprint_vfmw
	mov	r0, r4
	ldmfd	sp, {r4, r5, fp, sp, pc}
.L1485:
	mov	r0, #0
	ldmfd	sp, {r4, r5, fp, sp, pc}
.L1488:
	mov	r0, #1
	ldmfd	sp, {r4, r5, fp, sp, pc}
.L1490:
	.align	2
.L1489:
	.word	.LC138
	.word	.LC137
	UNWIND(.fnend)
	.size	HEVC_IsVoFinish, .-HEVC_IsVoFinish
	.align	2
	.global	HEVC_GetBackPicFromVOQueue
	.type	HEVC_GetBackPicFromVOQueue, %function
HEVC_GetBackPicFromVOQueue:
	UNWIND(.fnstart)
	@ args = 0, pretend = 0, frame = 0
	@ frame_needed = 1, uses_anonymous_args = 0
	UNWIND(.movsp ip)
	mov	ip, sp
	stmfd	sp!, {r4, r5, r6, r7, r8, r9, fp, ip, lr, pc}
	UNWIND(.pad #4)
	UNWIND(.save {r4, r5, r6, r7, r8, r9, fp, ip, lr})
	UNWIND(.setfp fp, ip, #-4)
	sub	fp, ip, #4
	mov	r8, r0
	add	r0, r0, #6144
	add	r0, r0, #24
	add	r5, r8, #14336
	bl	ResetVoQueue
	add	r9, r8, #28416
	add	r5, r5, #24
	add	r9, r9, #184
	mov	r6, #0
	mov	r7, #0
.L1494:
	sub	r4, r5, #32
	mov	r3, #0
	strb	r3, [r5, #-647]
	str	r3, [r5, #-600]
.L1493:
	ldr	r1, [r4, #8]!
	cmp	r1, #0
	beq	.L1492
	ldr	r0, [r8, #276]
	bl	FreeUsdByDec
	strd	r6, [r4]
.L1492:
	cmp	r4, r5
	bne	.L1493
	add	r5, r4, #712
	cmp	r5, r9
	bne	.L1494
	ldr	r2, [r8, #184]
	cmp	r2, #0
	ldmeqfd	sp, {r4, r5, r6, r7, r8, r9, fp, sp, pc}
	add	r8, r8, #2144
	mov	r3, #0
	add	r8, r8, #8
	mov	r1, r3
.L1496:
	add	r3, r3, #1
	str	r1, [r8, #4]!
	cmp	r3, r2
	bne	.L1496
	ldmfd	sp, {r4, r5, r6, r7, r8, r9, fp, sp, pc}
	UNWIND(.fnend)
	.size	HEVC_GetBackPicFromVOQueue, .-HEVC_GetBackPicFromVOQueue
	.align	2
	.global	HEVC_RemoveFrameStoreOutDPB
	.type	HEVC_RemoveFrameStoreOutDPB, %function
HEVC_RemoveFrameStoreOutDPB:
	UNWIND(.fnstart)
	@ args = 0, pretend = 0, frame = 0
	@ frame_needed = 1, uses_anonymous_args = 0
	UNWIND(.movsp ip)
	mov	ip, sp
	stmfd	sp!, {r4, r5, r6, r7, fp, ip, lr, pc}
	UNWIND(.pad #4)
	UNWIND(.save {r4, r5, r6, r7, fp, ip, lr})
	UNWIND(.setfp fp, ip, #-4)
	sub	fp, ip, #4
	add	r6, r0, r1, lsl #2
	mov	r7, #0
	mov	r4, r1
	mov	r5, r0
	ldr	r3, [r6, #3196]
	str	r7, [r3, #48]
	ldr	r3, [r6, #3196]
	ldr	r0, [r0, #276]
	ldr	r1, [r3, #28]
	bl	FSP_GetLogicFs
	cmp	r0, #0
	beq	.L1505
	ldrsb	r3, [r0, #1]
	cmp	r3, #3
	beq	.L1506
	ldr	r3, [r6, #3196]
	mov	r2, r7
	ldr	r0, [r5, #276]
	ldr	r1, [r3, #28]
	bl	FSP_SetDisplay
.L1506:
	ldr	r3, [r6, #3196]
	mov	r2, #0
	ldr	r0, [r5, #276]
	ldr	r1, [r3, #28]
	bl	FSP_SetRef
.L1505:
	ldr	r1, [r5, #3028]
	sub	r1, r1, #1
	cmp	r4, r1
	addls	r3, r4, #796
	addls	r3, r3, #3
	addls	r3, r5, r3, lsl #2
	bhi	.L1509
.L1508:
	add	r4, r4, #1
	ldr	r2, [r3, #4]!
	cmp	r4, r1
	str	r2, [r3, #-4]
	bls	.L1508
.L1509:
	add	r3, r1, #796
	mov	r2, #0
	add	r3, r3, #2
	add	r3, r5, r3, lsl #2
	str	r2, [r3, #4]
	str	r1, [r5, #3028]
	ldmfd	sp, {r4, r5, r6, r7, fp, sp, pc}
	UNWIND(.fnend)
	.size	HEVC_RemoveFrameStoreOutDPB, .-HEVC_RemoveFrameStoreOutDPB
	.align	2
	.global	HEVC_RemoveDummyFrame
	.type	HEVC_RemoveDummyFrame, %function
HEVC_RemoveDummyFrame:
	UNWIND(.fnstart)
	@ args = 0, pretend = 0, frame = 0
	@ frame_needed = 1, uses_anonymous_args = 0
	UNWIND(.movsp ip)
	mov	ip, sp
	stmfd	sp!, {r4, r5, r6, r7, fp, ip, lr, pc}
	UNWIND(.pad #4)
	UNWIND(.save {r4, r5, r6, r7, fp, ip, lr})
	UNWIND(.setfp fp, ip, #-4)
	sub	fp, ip, #4
	ldr	r3, [r0, #3028]
	mov	r5, r0
	cmp	r3, #0
	ldmeqfd	sp, {r4, r5, r6, r7, fp, sp, pc}
	mov	r7, #0
	mov	r4, r7
	mov	r6, r7
	b	.L1521
.L1520:
	ldr	r3, [r5, #3028]
	add	r4, r4, #1
	cmp	r4, r3
	mov	r7, r4
	bcs	.L1527
.L1521:
	add	r3, r5, r4, lsl #2
	ldr	r3, [r3, #3196]
	ldrb	r2, [r3]	@ zero_extendqisi2
	cmp	r2, #0
	beq	.L1520
	mov	r1, r7
	mov	r0, r5
	strb	r6, [r3]
	sub	r4, r4, #1
	bl	HEVC_RemoveApcStore
	mov	r1, r7
	mov	r0, r5
	bl	HEVC_RemoveFrameStoreOutDPB
	b	.L1520
.L1527:
	ldmfd	sp, {r4, r5, r6, r7, fp, sp, pc}
	UNWIND(.fnend)
	.size	HEVC_RemoveDummyFrame, .-HEVC_RemoveDummyFrame
	.align	2
	.global	HEVC_RemoveUnUsedFrameStore
	.type	HEVC_RemoveUnUsedFrameStore, %function
HEVC_RemoveUnUsedFrameStore:
	UNWIND(.fnstart)
	@ args = 0, pretend = 0, frame = 0
	@ frame_needed = 1, uses_anonymous_args = 0
	UNWIND(.movsp ip)
	mov	ip, sp
	stmfd	sp!, {r3, r4, r5, r6, r7, r8, r9, r10, fp, ip, lr, pc}
	UNWIND(.pad #4)
	UNWIND(.save {r3, r4, r5, r6, r7, r8, r9, r10, fp, ip, lr})
	UNWIND(.setfp fp, ip, #-4)
	sub	fp, ip, #4
	ldr	r5, [r0, #3028]
	mov	r7, r0
	cmp	r5, #0
	beq	.L1537
	mov	r6, #0
	mvn	r8, #0
	mov	r10, r6
	mov	r9, r6
	b	.L1536
.L1547:
	ldrsb	r3, [r0, #1]
	cmp	r3, #0
	cmpne	r3, #3
	ldr	r3, [r4, #3196]
	bne	.L1532
	ldr	r0, [r3, #52]
	cmp	r0, #1
	beq	.L1532
	str	r8, [r3, #28]
	mov	r2, #1
	ldr	r3, [r4, #3196]
	strb	r1, [r3, #1]
	ldr	r3, [r4, #3196]
	strb	r2, [r3, #2]
	ldr	r3, [r4, #3196]
.L1532:
	ldr	r3, [r3]
	bic	r3, r3, #-16777216
	bic	r3, r3, #255
	cmp	r3, #65536
	addne	r10, r10, #1
	beq	.L1546
	add	r9, r9, #1
	cmp	r9, r5
	beq	.L1529
.L1536:
	add	r4, r7, r10, lsl #2
	ldr	r0, [r7, #276]
	ldr	r3, [r4, #3196]
	ldr	r1, [r3, #28]
	bl	FSP_GetLogicFs
	cmp	r0, #0
	beq	.L1530
	ldrsb	r1, [r0]
	cmp	r1, #0
	beq	.L1547
	ldr	r3, [r4, #3196]
	b	.L1532
.L1530:
	ldr	r3, [r4, #3196]
	ldr	r1, [r3, #52]
	cmp	r1, #1
	beq	.L1532
	str	r8, [r3, #28]
	mov	r2, #1
	ldr	r3, [r4, #3196]
	strb	r0, [r3, #1]
	ldr	r3, [r4, #3196]
	strb	r2, [r3, #2]
	ldr	r3, [r4, #3196]
	b	.L1532
.L1546:
	mov	r1, r10
	mov	r0, r7
	add	r9, r9, #1
	bl	HEVC_RemoveFrameStoreOutDPB
	cmp	r9, r5
	mov	r6, #1
	bne	.L1536
.L1529:
	mov	r0, r6
	ldmfd	sp, {r3, r4, r5, r6, r7, r8, r9, r10, fp, sp, pc}
.L1537:
	mov	r6, r5
	b	.L1529
	UNWIND(.fnend)
	.size	HEVC_RemoveUnUsedFrameStore, .-HEVC_RemoveUnUsedFrameStore
	.align	2
	.global	HEVC_SimpleSlideDPB
	.type	HEVC_SimpleSlideDPB, %function
HEVC_SimpleSlideDPB:
	UNWIND(.fnstart)
	@ args = 0, pretend = 0, frame = 0
	@ frame_needed = 1, uses_anonymous_args = 0
	UNWIND(.movsp ip)
	mov	ip, sp
	stmfd	sp!, {r4, r5, fp, ip, lr, pc}
	UNWIND(.pad #4)
	UNWIND(.save {r4, r5, fp, ip, lr})
	UNWIND(.setfp fp, ip, #-4)
	sub	fp, ip, #4
	add	r3, r0, #12288
	mov	r4, r0
	ldr	r1, [r3, #864]
	ldr	r2, [r3, #860]
	cmp	r1, r2
	bcs	.L1550
	ldr	r2, [r3, #1144]
	ldr	r3, [r3, #1140]
	cmp	r2, r3
	bcs	.L1550
	ldr	r3, [r0, #3024]
	ldr	r2, [r0, #3028]
	cmp	r2, r3
	ldmccfd	sp, {r4, r5, fp, sp, pc}
	cmp	r3, #15
	bls	.L1554
.L1550:
	ldr	r3, [r4, #3196]
	mov	r5, #0
	mov	r2, r5
	strb	r5, [r3, #1]
	ldr	r1, [r3, #28]
	ldr	r0, [r4, #276]
	bl	FSP_SetRef
	mov	r1, r5
	mov	r0, r4
	bl	HEVC_RemoveApcStore
	mov	r1, r5
	mov	r0, r4
	sub	sp, fp, #20
	ldmfd	sp, {r4, r5, fp, sp, lr}
	b	HEVC_RemoveFrameStoreOutDPB
.L1554:
	bl	HEVC_IncreaseDPBSize
	cmp	r0, #0
	bne	.L1550
	ldmfd	sp, {r4, r5, fp, sp, pc}
	UNWIND(.fnend)
	.size	HEVC_SimpleSlideDPB, .-HEVC_SimpleSlideDPB
	.align	2
	.global	HEVC_GetMinPOC
	.type	HEVC_GetMinPOC, %function
HEVC_GetMinPOC:
	UNWIND(.fnstart)
	@ args = 0, pretend = 0, frame = 0
	@ frame_needed = 1, uses_anonymous_args = 0
	UNWIND(.movsp ip)
	mov	ip, sp
	stmfd	sp!, {r4, r5, r6, r7, fp, ip, lr, pc}
	UNWIND(.pad #4)
	UNWIND(.save {r4, r5, r6, r7, fp, ip, lr})
	UNWIND(.setfp fp, ip, #-4)
	sub	fp, ip, #4
	mov	r7, r2
	mvn	r3, #-2147483648
	mov	r2, #0
	str	r2, [r7]
	str	r3, [r1]
	mov	r5, r1
	ldr	r2, [r0, #3028]
	mov	r6, r0
	ldr	r3, [r0, #3024]
	cmp	r2, r3
	bhi	.L1562
	cmp	r2, #0
	ldmeqfd	sp, {r4, r5, r6, r7, fp, sp, pc}
.L1563:
	add	lr, r6, #3184
	mov	r3, #0
	add	lr, lr, #8
.L1559:
	ldr	r2, [lr, #4]!
	ldr	r4, [r5]
	ldr	ip, [r2, #8]
	cmp	r4, ip
	strgt	ip, [r5]
	strgt	r3, [r7]
	add	r3, r3, #1
	ldr	ip, [r6, #3028]
	cmp	ip, r3
	bhi	.L1559
	ldmfd	sp, {r4, r5, r6, r7, fp, sp, pc}
.L1562:
	ldr	r1, .L1564
	mov	r0, #1
	bl	dprint_vfmw
	ldr	r2, [r6, #3024]
	cmp	r2, #0
	str	r2, [r6, #3028]
	bne	.L1563
	ldmfd	sp, {r4, r5, r6, r7, fp, sp, pc}
.L1565:
	.align	2
.L1564:
	.word	.LC139
	UNWIND(.fnend)
	.size	HEVC_GetMinPOC, .-HEVC_GetMinPOC
	.align	2
	.global	HEVC_GetReRangeFlag
	.type	HEVC_GetReRangeFlag, %function
HEVC_GetReRangeFlag:
	UNWIND(.fnstart)
	@ args = 4, pretend = 0, frame = 0
	@ frame_needed = 1, uses_anonymous_args = 0
	UNWIND(.movsp ip)
	mov	ip, sp
	stmfd	sp!, {r4, r5, r6, fp, ip, lr, pc}
	UNWIND(.pad #4)
	UNWIND(.save {r4, r5, r6, fp, ip, lr})
	UNWIND(.setfp fp, ip, #-4)
	sub	fp, ip, #4
	add	r3, r0, #4096
	ldr	r5, [r0, #2808]
	movw	r6, #5036
	movw	r4, #12668
	ldr	ip, [r3, #732]
	ldr	r3, [r0, #2804]
	ldr	lr, [fp, #4]
	mla	ip, r6, ip, r5
	ldr	ip, [ip, #32]
	mla	r3, r4, ip, r3
	ldr	ip, [r3, #64]
	ldr	r3, [r3, #68]
	cmp	r1, ip
	cmpeq	lr, #0
	bne	.L1567
	cmp	r2, r3
	beq	.L1578
.L1567:
	ldrb	r3, [r0, #1]	@ zero_extendqisi2
	cmp	r3, #1
	beq	.L1579
.L1572:
	mov	r0, #1
	ldmfd	sp, {r4, r5, r6, fp, sp, pc}
.L1579:
	ldr	r2, [r0, #2844]
	ldr	r2, [r2, #24]
	bics	r2, r2, #4
	beq	.L1572
	ldr	r2, [r0, #2384]
	cmp	r2, #0
	bne	.L1577
	str	r3, [r0, #2384]
	mov	r0, r3
	ldmfd	sp, {r4, r5, r6, fp, sp, pc}
.L1578:
	ldr	r3, [r0, #172]
	cmp	r3, #0
	beq	.L1567
	ldr	r3, [r0, #2844]
	ldr	r3, [r3, #904]
	cmp	r3, #0
	bne	.L1567
.L1577:
	mov	r0, #0
	ldmfd	sp, {r4, r5, r6, fp, sp, pc}
	UNWIND(.fnend)
	.size	HEVC_GetReRangeFlag, .-HEVC_GetReRangeFlag
	.align	2
	.global	HEVC_CalcStreamBits
	.type	HEVC_CalcStreamBits, %function
HEVC_CalcStreamBits:
	UNWIND(.fnstart)
	@ args = 0, pretend = 0, frame = 0
	@ frame_needed = 1, uses_anonymous_args = 0
	UNWIND(.movsp ip)
	mov	ip, sp
	stmfd	sp!, {r4, fp, ip, lr, pc}
	UNWIND(.pad #4)
	UNWIND(.save {r4, fp, ip, lr})
	UNWIND(.setfp fp, ip, #-4)
	sub	fp, ip, #4
	ldr	r4, [r0, #2816]
	ldrb	ip, [r4]	@ zero_extendqisi2
	cmp	ip, #0
	beq	.L1591
	mov	r3, #0
	mov	r2, r4
	mov	lr, r3
.L1582:
	add	r3, r3, #1
	ldr	r1, [r2, #44]
	cmp	r3, ip
	add	r2, r2, #28
	add	lr, lr, r1
	bne	.L1582
.L1581:
	ldr	r2, [r0, #2796]
	mov	r3, ip, asl #5
	sub	ip, r3, ip, asl #2
	add	r4, r4, ip
	ldr	r3, [r2, #24]
	and	r3, r3, #7
	str	r3, [r4, #56]
	ldr	r2, [r0, #2816]
	ldr	r3, [r0, #2796]
	ldrb	r1, [r2]	@ zero_extendqisi2
	ldr	ip, [r3, #24]
	mov	r3, r1, asl #5
	sub	r3, r3, r1, asl #2
	add	r3, r2, r3
	ldr	r2, [r3, #48]
	add	r2, r2, ip, lsr #3
	rsb	r2, lr, r2
	str	r2, [r3, #60]
	ldr	r1, [r0, #2816]
	ldr	r3, [r0, #2796]
	ldrb	r2, [r1]	@ zero_extendqisi2
	ldr	ip, [r3, #24]
	mov	r3, r2, asl #5
	sub	r2, r3, r2, asl #2
	add	r2, r1, r2
	ldr	r3, [r2, #44]
	add	r3, lr, r3
	rsb	r3, ip, r3, lsl #3
	str	r3, [r2, #52]
	ldr	r2, [r0, #2816]
	ldrb	r1, [r2]	@ zero_extendqisi2
	mov	r3, r1, asl #5
	sub	r3, r3, r1, asl #2
	add	r3, r2, r3
	ldr	r2, [r3, #60]
	ldr	r1, [r3, #56]
	and	r2, r2, #3
	add	r2, r1, r2, lsl #3
	str	r2, [r3, #56]
	ldr	r2, [r0, #2816]
	ldrb	r1, [r2]	@ zero_extendqisi2
	mov	r3, r1, asl #5
	sub	r3, r3, r1, asl #2
	add	r3, r2, r3
	ldr	r2, [r3, #60]
	bic	r2, r2, #3
	str	r2, [r3, #60]
	ldr	r1, [r0, #2816]
	ldr	r2, [r1, #8]
	sub	r3, r2, #1
	cmp	r3, #1
	bhi	.L1598
	ldrb	ip, [r1]	@ zero_extendqisi2
	add	lr, ip, #1
	cmp	r2, lr
	movhi	r2, #1
	movls	r2, #0
	cmp	lr, #1
	movhi	r2, #0
	cmp	r2, #0
	beq	.L1584
	add	ip, ip, #2
	mov	lr, #0
.L1585:
	sub	r3, ip, #1
	mov	r2, r3, asl #5
	sub	r3, r2, r3, asl #2
	add	r1, r1, r3
	str	lr, [r1, #56]
	ldr	r2, [r0, #2816]
	add	r2, r2, r3
	ldr	r1, [r2, #48]
	str	r1, [r2, #60]
	ldr	r2, [r0, #2816]
	add	r2, r2, r3
	ldr	r1, [r2, #44]
	mov	r1, r1, asl #3
	str	r1, [r2, #52]
	ldr	r2, [r0, #2816]
	add	r2, r2, r3
	ldr	r1, [r2, #60]
	ldr	r4, [r2, #56]
	and	r1, r1, #15
	add	r1, r4, r1, lsl #3
	str	r1, [r2, #56]
	ldr	r2, [r0, #2816]
	add	r3, r2, r3
	ldr	r2, [r3, #60]
	bic	r2, r2, #15
	str	r2, [r3, #60]
	ldr	r1, [r0, #2816]
	ldr	r3, [r1, #8]
	cmp	ip, #1
	cmpls	ip, r3
	add	ip, ip, #1
	movcc	r2, #1
	movcs	r2, #0
	cmp	r2, #0
	bne	.L1585
	sub	r3, r3, #1
.L1584:
	mov	r2, r3, asl #5
	ldr	ip, [r1, #12]
	sub	r3, r2, r3, asl #2
	add	r1, r1, r3
	ldr	r3, [r1, #52]
	rsb	r3, ip, r3
	str	r3, [r1, #52]
	ldr	lr, [r0, #2816]
	ldrb	r1, [lr]	@ zero_extendqisi2
	ldr	r3, [lr, #8]
	cmp	r1, r3
	ldmcsfd	sp, {r4, fp, sp, pc}
	sxth	r3, r1
	add	r0, r0, #4096
	mov	r2, r3, asl #5
	sub	r3, r2, r3, asl #2
	add	r3, lr, r3
.L1589:
	ldr	r2, [r3, #60]
	add	r1, r1, #1
	ldr	ip, [r0, #32]
	add	r3, r3, #28
	cmp	r2, ip
	strcc	r2, [r0, #32]
	ldr	r2, [lr, #8]
	cmp	r2, r1
	bhi	.L1589
	ldmfd	sp, {r4, fp, sp, pc}
.L1598:
	ldr	r1, .L1599
	mov	r0, #0
	sub	sp, fp, #16
	ldmia	sp, {r4, fp, sp, lr}
	b	dprint_vfmw
.L1591:
	mov	lr, ip
	b	.L1581
.L1600:
	.align	2
.L1599:
	.word	.LC140
	UNWIND(.fnend)
	.size	HEVC_CalcStreamBits, .-HEVC_CalcStreamBits
	.align	2
	.global	HEVC_VpsSpsPpsCheck
	.type	HEVC_VpsSpsPpsCheck, %function
HEVC_VpsSpsPpsCheck:
	UNWIND(.fnstart)
	@ args = 0, pretend = 0, frame = 0
	@ frame_needed = 1, uses_anonymous_args = 0
	UNWIND(.movsp ip)
	mov	ip, sp
	stmfd	sp!, {fp, ip, lr, pc}
	UNWIND(.pad #4)
	UNWIND(.save {fp, ip, lr})
	UNWIND(.setfp fp, ip, #-4)
	sub	fp, ip, #4
	add	r2, r0, #4096
	ldr	r3, [r0, #164]
	ldr	r2, [r2, #732]
	cmp	r2, r3
	bge	.L1609
	movw	r3, #5036
	ldr	r1, [r0, #2808]
	mul	r3, r3, r2
	add	ip, r1, r3
	ldrb	r3, [r1, r3]	@ zero_extendqisi2
	cmp	r3, #0
	beq	.L1610
	ldr	r2, [ip, #32]
	ldr	r3, [r0, #160]
	cmp	r2, r3
	bge	.L1611
	ldr	r1, [r0, #2804]
	movw	r3, #12668
	mla	r3, r3, r2, r1
	ldrb	r1, [r3, #1]	@ zero_extendqisi2
	cmp	r1, #0
	beq	.L1612
	ldr	r2, [r3, #48]
	ldr	r3, [r0, #156]
	cmp	r2, r3
	bcs	.L1613
	movw	r3, #24912
	ldr	r1, [r0, #2800]
	mul	r3, r3, r2
	ldrb	r3, [r1, r3]	@ zero_extendqisi2
	cmp	r3, #0
	beq	.L1614
	mov	r0, #0
	ldmfd	sp, {fp, sp, pc}
.L1609:
	ldr	r1, .L1615
	mov	r0, #1
	bl	dprint_vfmw
	mvn	r0, #0
	ldmfd	sp, {fp, sp, pc}
.L1610:
	ldr	r1, .L1615+4
	mov	r0, #1
	bl	dprint_vfmw
	mvn	r0, #0
	ldmfd	sp, {fp, sp, pc}
.L1611:
	ldr	r1, .L1615+8
	mov	r0, #1
	bl	dprint_vfmw
	mvn	r0, #0
	ldmfd	sp, {fp, sp, pc}
.L1612:
	ldr	r1, .L1615+12
	mov	r0, #1
	bl	dprint_vfmw
	mvn	r0, #0
	ldmfd	sp, {fp, sp, pc}
.L1613:
	ldr	r1, .L1615+16
	mov	r0, #1
	bl	dprint_vfmw
	mvn	r0, #0
	ldmfd	sp, {fp, sp, pc}
.L1614:
	ldr	r1, .L1615+20
	mov	r0, #1
	bl	dprint_vfmw
	mvn	r0, #0
	ldmfd	sp, {fp, sp, pc}
.L1616:
	.align	2
.L1615:
	.word	.LC141
	.word	.LC142
	.word	.LC143
	.word	.LC144
	.word	.LC145
	.word	.LC146
	UNWIND(.fnend)
	.size	HEVC_VpsSpsPpsCheck, .-HEVC_VpsSpsPpsCheck
	.align	2
	.global	HEVC_IsNewPic
	.type	HEVC_IsNewPic, %function
HEVC_IsNewPic:
	UNWIND(.fnstart)
	@ args = 0, pretend = 0, frame = 0
	@ frame_needed = 1, uses_anonymous_args = 0
	UNWIND(.movsp ip)
	mov	ip, sp
	stmfd	sp!, {r4, r5, r6, r7, fp, ip, lr, pc}
	UNWIND(.pad #4)
	UNWIND(.save {r4, r5, r6, r7, fp, ip, lr})
	UNWIND(.setfp fp, ip, #-4)
	sub	fp, ip, #4
	UNWIND(.pad #16)
	sub	sp, sp, #16
	add	r1, r0, #4096
	ldr	ip, [r0, #2816]
	ldr	r2, [r1, #728]
	ldr	r3, [ip, #16]
	add	r4, r0, r2, lsl #2
	sub	r5, r3, #16
	ldr	lr, [r4, #244]
	cmn	lr, #-2147483647
	beq	.L1651
	cmp	r3, #21
	cmpne	r5, #2
	bls	.L1647
.L1631:
	sub	r3, r3, #19
	cmp	r3, #1
	movls	lr, #-2147483647
	strls	lr, [r4, #244]
.L1647:
	ldr	r5, [r1, #708]
	cmp	r5, lr
	bge	.L1621
	ldr	r3, [ip, #16]
	sub	r6, r3, #8
	cmp	r6, #1
	addhi	r2, r0, r2
	bls	.L1652
.L1624:
	ldrb	lr, [r2, #12]	@ zero_extendqisi2
	cmp	lr, #0
	beq	.L1625
	ldr	r6, [r4, #252]
	cmp	r5, r6
	blt	.L1653
.L1625:
	ldrb	r3, [r1, #697]	@ zero_extendqisi2
	cmp	r3, #0
	bne	.L1626
	ldr	ip, [ip, #16]
	sub	lr, ip, #19
	cmp	lr, #1
	bls	.L1648
	cmp	ip, #21
	beq	.L1648
	sub	ip, ip, #16
	cmp	ip, #2
	strls	r5, [r4, #252]
	movls	r3, #1
	strlsb	r3, [r2, #12]
.L1626:
	ldr	r2, [r0, #260]
	ldrb	r3, [r1, #696]	@ zero_extendqisi2
	cmp	r2, #0
	ldr	r2, [r1, #732]
	beq	.L1630
	ldr	r1, [r0, #208]
	cmp	r2, r1
	movne	r3, #1
.L1630:
	ldr	r1, [r0, #320]
	cmp	r1, r2
	movne	r0, #1
	beq	.L1654
.L1645:
	sub	sp, fp, #28
	ldmfd	sp, {r4, r5, r6, r7, fp, sp, pc}
.L1651:
	cmp	r5, #5
	bhi	.L1649
	cmp	r3, #21
	cmpne	r5, #2
	bhi	.L1631
	ldr	r5, [r1, #708]
	str	r5, [r4, #244]
.L1621:
	add	r2, r0, r2
	ldrb	lr, [r2, #6]	@ zero_extendqisi2
	cmp	lr, #0
	beq	.L1624
	ldr	r3, [ip, #16]
	sub	r6, r3, #8
	cmp	r6, #1
	bhi	.L1624
	str	r3, [sp, #8]
	mov	r0, #1
	movw	r3, #12854
	str	lr, [sp, #4]
	str	r5, [sp]
	ldr	r2, .L1655
	ldr	r1, .L1655+4
	bl	dprint_vfmw
	mov	r0, #2
	b	.L1645
.L1653:
	ldr	r3, [ip, #16]
	sub	r7, r3, #8
	cmp	r7, #1
	bhi	.L1625
	str	r3, [sp, #12]
	mov	r0, #1
	movw	r3, #12863
	str	r6, [sp, #8]
	str	r5, [sp, #4]
	str	lr, [sp]
	ldr	r2, .L1655
	ldr	r1, .L1655+8
	bl	dprint_vfmw
.L1649:
	mov	r0, #2
	sub	sp, fp, #28
	ldmfd	sp, {r4, r5, r6, r7, fp, sp, pc}
.L1648:
	str	r5, [r4, #252]
	strb	r3, [r2, #12]
	b	.L1626
.L1654:
	ldr	r0, [r0, #284]
	cmp	r5, r0
	moveq	r0, r3
	movne	r0, #1
	sub	sp, fp, #28
	ldmfd	sp, {r4, r5, r6, r7, fp, sp, pc}
.L1652:
	str	r3, [sp, #8]
	mov	r0, #1
	movw	r3, #12847
	str	lr, [sp, #4]
	str	r5, [sp]
	ldr	r2, .L1655
	ldr	r1, .L1655+12
	bl	dprint_vfmw
	mov	r0, #2
	b	.L1645
.L1656:
	.align	2
.L1655:
	.word	.LANCHOR0+464
	.word	.LC148
	.word	.LC149
	.word	.LC147
	UNWIND(.fnend)
	.size	HEVC_IsNewPic, .-HEVC_IsNewPic
	.align	2
	.global	HEVC_ReadByteAlignment
	.type	HEVC_ReadByteAlignment, %function
HEVC_ReadByteAlignment:
	UNWIND(.fnstart)
	@ args = 0, pretend = 0, frame = 0
	@ frame_needed = 1, uses_anonymous_args = 0
	UNWIND(.movsp ip)
	mov	ip, sp
	stmfd	sp!, {r4, r5, fp, ip, lr, pc}
	UNWIND(.pad #4)
	UNWIND(.save {r4, r5, fp, ip, lr})
	UNWIND(.setfp fp, ip, #-4)
	sub	fp, ip, #4
	mov	r1, #1
	mov	r4, r0
	ldr	r0, [r0, #2796]
	bl	BsGet
	cmp	r0, #0
	beq	.L1662
	ldr	r0, [r4, #2796]
	bl	BsBitsToNextByte
	subs	r1, r0, #0
	beq	.L1661
	ldr	r0, [r4, #2796]
	bl	BsGet
	ldr	r1, .L1663
	mov	r2, r0
	mov	r0, #19
	bl	dprint_vfmw
.L1661:
	mov	r0, #0
	ldmfd	sp, {r4, r5, fp, sp, pc}
.L1662:
	ldr	r1, .L1663+4
	mov	r0, #1
	bl	dprint_vfmw
	mvn	r0, #0
	ldmfd	sp, {r4, r5, fp, sp, pc}
.L1664:
	.align	2
.L1663:
	.word	.LC151
	.word	.LC150
	UNWIND(.fnend)
	.size	HEVC_ReadByteAlignment, .-HEVC_ReadByteAlignment
	.align	2
	.global	HEVC_GetRapPicFlag
	.type	HEVC_GetRapPicFlag, %function
HEVC_GetRapPicFlag:
	UNWIND(.fnstart)
	@ args = 0, pretend = 0, frame = 0
	@ frame_needed = 1, uses_anonymous_args = 0
	UNWIND(.movsp ip)
	mov	ip, sp
	stmfd	sp!, {fp, ip, lr, pc}
	UNWIND(.pad #4)
	UNWIND(.save {fp, ip, lr})
	UNWIND(.setfp fp, ip, #-4)
	sub	fp, ip, #4
	add	r0, r0, #4096
	ldr	r0, [r0, #724]
	sub	r0, r0, #16
	cmp	r0, #5
	movhi	r0, #0
	movls	r0, #1
	ldmfd	sp, {fp, sp, pc}
	UNWIND(.fnend)
	.size	HEVC_GetRapPicFlag, .-HEVC_GetRapPicFlag
	.align	2
	.global	HEVC_GetIdrPicFlag
	.type	HEVC_GetIdrPicFlag, %function
HEVC_GetIdrPicFlag:
	UNWIND(.fnstart)
	@ args = 0, pretend = 0, frame = 0
	@ frame_needed = 1, uses_anonymous_args = 0
	UNWIND(.movsp ip)
	mov	ip, sp
	stmfd	sp!, {fp, ip, lr, pc}
	UNWIND(.pad #4)
	UNWIND(.save {fp, ip, lr})
	UNWIND(.setfp fp, ip, #-4)
	sub	fp, ip, #4
	add	r0, r0, #4096
	ldr	r0, [r0, #724]
	sub	r0, r0, #19
	cmp	r0, #1
	movhi	r0, #0
	movls	r0, #1
	ldmfd	sp, {fp, sp, pc}
	UNWIND(.fnend)
	.size	HEVC_GetIdrPicFlag, .-HEVC_GetIdrPicFlag
	.align	2
	.global	HEVC_DecPTL
	.type	HEVC_DecPTL, %function
HEVC_DecPTL:
	UNWIND(.fnstart)
	@ args = 0, pretend = 0, frame = 48
	@ frame_needed = 1, uses_anonymous_args = 0
	UNWIND(.movsp ip)
	mov	ip, sp
	stmfd	sp!, {r4, r5, r6, r7, r8, r9, r10, fp, ip, lr, pc}
	UNWIND(.pad #4)
	UNWIND(.save {r4, r5, r6, r7, r8, r9, r10, fp, ip, lr})
	UNWIND(.setfp fp, ip, #-4)
	sub	fp, ip, #4
	UNWIND(.pad #52)
	sub	sp, sp, #52
	subs	r8, r2, #0
	mov	r9, r1
	mov	r5, r0
	mov	r6, r3
	moveq	r1, #8
	bne	.L1704
.L1702:
	ldr	r0, [r5, #2796]
	bl	BsGet
	cmp	r6, #0
	str	r0, [r9, #4]
	ble	.L1673
	sub	r3, fp, #84
	sub	r7, fp, #92
	add	r10, r3, r6
	mov	r4, r3
	mov	r9, r7
.L1674:
	mov	r1, #1
	ldr	r0, [r5, #2796]
	bl	BsGet
	mov	r1, #1
	strb	r0, [r4], #1
	ldr	r0, [r5, #2796]
	bl	BsGet
	cmp	r4, r10
	strb	r0, [r9], #1
	bne	.L1674
	cmp	r6, #7
	movle	r4, r6
	ble	.L1678
	b	.L1684
.L1677:
	cmp	r4, #8
	beq	.L1684
.L1678:
	mov	r1, #2
	ldr	r0, [r5, #2796]
	bl	BsGet
	add	r4, r4, #1
	cmp	r0, #0
	beq	.L1677
	ldr	r1, .L1706
	mov	r0, #1
	bl	dprint_vfmw
	mvn	r0, #0
	sub	sp, fp, #40
	ldmfd	sp, {r4, r5, r6, r7, r8, r9, r10, fp, sp, pc}
.L1673:
	mov	r0, #0
	sub	sp, fp, #40
	ldmfd	sp, {r4, r5, r6, r7, r8, r9, r10, fp, sp, pc}
.L1684:
	mov	r10, #0
	b	.L1682
.L1681:
	add	r10, r10, #1
	cmp	r6, r10
	ble	.L1673
.L1682:
	cmp	r8, #0
	beq	.L1679
	sub	r3, fp, #84
	ldrb	r3, [r3, r10]	@ zero_extendqisi2
	cmp	r3, #0
	bne	.L1705
.L1679:
	ldrb	r3, [r7, r10]	@ zero_extendqisi2
	cmp	r3, #0
	beq	.L1681
	mov	r1, #8
	ldr	r0, [r5, #2796]
	bl	BsGet
	b	.L1681
.L1705:
	mov	r1, #2
	ldr	r0, [r5, #2796]
	bl	BsGet
	mov	r1, #1
	ldr	r0, [r5, #2796]
	mov	r4, #32
	bl	BsGet
	mov	r1, #5
	ldr	r0, [r5, #2796]
	bl	BsGet
.L1680:
	mov	r1, #1
	ldr	r0, [r5, #2796]
	bl	BsGet
	subs	r4, r4, #1
	bne	.L1680
	mov	r1, #1
	ldr	r0, [r5, #2796]
	bl	BsGet
	mov	r1, #1
	ldr	r0, [r5, #2796]
	bl	BsGet
	mov	r1, #1
	ldr	r0, [r5, #2796]
	bl	BsGet
	mov	r1, #1
	ldr	r0, [r5, #2796]
	bl	BsGet
	mov	r1, #16
	ldr	r0, [r5, #2796]
	bl	BsGet
	mov	r1, #16
	ldr	r0, [r5, #2796]
	bl	BsGet
	mov	r1, #12
	ldr	r0, [r5, #2796]
	bl	BsGet
	b	.L1679
.L1704:
	mov	r1, #2
	ldr	r0, [r0, #2796]
	bl	BsGet
	mov	r1, #1
	ldr	r0, [r5, #2796]
	sub	r4, fp, #77
	bl	BsGet
	mov	r1, #5
	ldr	r0, [r5, #2796]
	sub	r7, fp, #45
	bl	BsGet
	mov	r10, r0
.L1669:
	mov	r1, #1
	ldr	r0, [r5, #2796]
	bl	BsGet
	strb	r0, [r4, #1]!
	cmp	r4, r7
	bne	.L1669
	mov	r1, #1
	ldr	r0, [r5, #2796]
	bl	BsGet
	mov	r1, #1
	strb	r0, [r9]
	ldr	r0, [r5, #2796]
	bl	BsGet
	mov	r1, #1
	strb	r0, [r9, #1]
	ldr	r0, [r5, #2796]
	bl	BsGet
	mov	r1, #1
	ldr	r0, [r5, #2796]
	bl	BsGet
	sub	r3, r10, #4
	cmp	r3, #3
	bls	.L1670
	ldrb	r3, [fp, #-72]	@ zero_extendqisi2
	cmp	r3, #0
	bne	.L1670
	ldrb	r3, [fp, #-71]	@ zero_extendqisi2
	cmp	r3, #0
	bne	.L1670
	ldrb	r3, [fp, #-70]	@ zero_extendqisi2
	cmp	r3, #0
	bne	.L1670
	ldrb	r3, [fp, #-69]	@ zero_extendqisi2
	cmp	r3, #0
	bne	.L1670
	mov	r1, #16
	ldr	r0, [r5, #2796]
	bl	BsGet
	mov	r1, #16
	ldr	r0, [r5, #2796]
	bl	BsGet
	mov	r1, #11
	ldr	r0, [r5, #2796]
	bl	BsGet
	b	.L1672
.L1670:
	mov	r1, #1
	ldr	r0, [r5, #2796]
	bl	BsGet
	mov	r1, #1
	ldr	r0, [r5, #2796]
	bl	BsGet
	mov	r1, #1
	ldr	r0, [r5, #2796]
	bl	BsGet
	mov	r1, #1
	ldr	r0, [r5, #2796]
	bl	BsGet
	mov	r1, #1
	ldr	r0, [r5, #2796]
	bl	BsGet
	mov	r1, #1
	ldr	r0, [r5, #2796]
	bl	BsGet
	mov	r1, #1
	ldr	r0, [r5, #2796]
	bl	BsGet
	mov	r1, #1
	ldr	r0, [r5, #2796]
	bl	BsGet
	mov	r1, #1
	ldr	r0, [r5, #2796]
	bl	BsGet
	mov	r1, #16
	ldr	r0, [r5, #2796]
	bl	BsGet
	mov	r1, #16
	ldr	r0, [r5, #2796]
	bl	BsGet
	mov	r1, #2
	ldr	r0, [r5, #2796]
	bl	BsGet
.L1672:
	mov	r1, #1
	ldr	r0, [r5, #2796]
	bl	BsGet
	ldrb	r2, [fp, #-75]	@ zero_extendqisi2
	ldrb	r3, [fp, #-74]	@ zero_extendqisi2
	mov	r1, #8
	str	r10, [r5, #324]
	str	r2, [r5, #328]
	str	r3, [r5, #332]
	b	.L1702
.L1707:
	.align	2
.L1706:
	.word	.LC152
	UNWIND(.fnend)
	.size	HEVC_DecPTL, .-HEVC_DecPTL
	.align	2
	.global	HEVC_SetDefaultScalingList
	.type	HEVC_SetDefaultScalingList, %function
HEVC_SetDefaultScalingList:
	UNWIND(.fnstart)
	@ args = 0, pretend = 0, frame = 8
	@ frame_needed = 1, uses_anonymous_args = 0
	UNWIND(.movsp ip)
	mov	ip, sp
	stmfd	sp!, {r4, r5, r6, r7, r8, r9, r10, fp, ip, lr, pc}
	UNWIND(.pad #4)
	UNWIND(.save {r4, r5, r6, r7, r8, r9, r10, fp, ip, lr})
	UNWIND(.setfp fp, ip, #-4)
	sub	fp, ip, #4
	UNWIND(.pad #12)
	sub	sp, sp, #12
	ldr	r9, .L1726
	add	r10, r0, #2224
	add	r3, r0, #2240
	add	r10, r10, #8
	mov	r6, #0
	add	r3, r3, #8
	str	r0, [fp, #-52]
	str	r3, [fp, #-48]
.L1709:
	ldr	r3, [r10, #4]!
	cmp	r3, #0
	beq	.L1717
	ldr	r3, [fp, #-52]
	mov	r8, r6, asl #9
	ldr	r7, [fp, #-48]
	sub	r8, r8, r6, asl #7
	add	r5, r3, #620
	mov	r4, #0
.L1715:
	cmp	r6, #0
	add	r0, r5, r8
	mov	r2, #64
	ldr	r3, [r9, #52]
	beq	.L1724
	cmp	r6, #3
	beq	.L1725
	ldr	ip, .L1726+4
	cmp	r4, #2
	ldr	r1, .L1726+8
	movhi	r1, ip
	blx	r3
.L1711:
	mov	r3, #16
	str	r3, [r7, #4]!
	ldr	r3, [r10]
	add	r4, r4, #1
	add	r5, r5, #64
	cmp	r3, r4
	bhi	.L1715
.L1717:
	add	r6, r6, #1
	ldr	r3, [fp, #-48]
	cmp	r6, #4
	add	r3, r3, #24
	str	r3, [fp, #-48]
	bne	.L1709
	sub	sp, fp, #40
	ldmfd	sp, {r4, r5, r6, r7, r8, r9, r10, fp, sp, pc}
.L1724:
	mov	r2, #16
	ldr	r1, .L1726+12
	mov	r0, r5
	blx	r3
	b	.L1711
.L1725:
	ldr	r0, .L1726+4
	cmp	r4, #0
	ldr	r1, .L1726+8
	mov	r2, #64
	movne	r1, r0
	add	r0, r5, #1152
	blx	r3
	b	.L1711
.L1727:
	.align	2
.L1726:
	.word	vfmw_Osal_Func_Ptr_S
	.word	.LANCHOR0+480
	.word	.LANCHOR4
	.word	.LANCHOR0+544
	UNWIND(.fnend)
	.size	HEVC_SetDefaultScalingList, .-HEVC_SetDefaultScalingList
	.align	2
	.global	HEVC_CalScalingList
	.type	HEVC_CalScalingList, %function
HEVC_CalScalingList:
	UNWIND(.fnstart)
	@ args = 0, pretend = 0, frame = 0
	@ frame_needed = 1, uses_anonymous_args = 0
	UNWIND(.movsp ip)
	mov	ip, sp
	stmfd	sp!, {r4, r5, r6, r7, r8, r9, fp, ip, lr, pc}
	UNWIND(.pad #4)
	UNWIND(.save {r4, r5, r6, r7, r8, r9, fp, ip, lr})
	UNWIND(.setfp fp, ip, #-4)
	sub	fp, ip, #4
	add	lr, r0, r2, lsl #2
	mov	ip, r2, asl #3
	sub	r2, ip, r2, asl #1
	mov	r5, #0
	ldr	r7, [lr, #348]
	add	r3, r3, r2
	cmp	r7, #64
	mov	r6, r3, asl #4
	movcs	r7, #64
	mov	r8, r7, lsr #2
.L1729:
	cmp	r5, r8
	ldmcsfd	sp, {r4, r5, r6, r7, r8, r9, fp, sp, pc}
	cmp	r7, #0
	beq	.L1729
	add	r3, r5, r6
	ldrb	ip, [r1]	@ zero_extendqisi2
	mov	r4, r1
	mov	r2, #0
	add	r3, r0, r3, lsl #2
	ldr	lr, [r3, #620]
	orr	ip, lr, ip
	str	ip, [r3, #620]
.L1735:
	add	r2, r2, #1
	add	r3, r5, r6
	and	lr, r2, #3
	cmp	r2, r7
	add	r3, r0, r3, lsl #2
	mov	ip, lr, asl #3
	beq	.L1729
	ldrb	r9, [r4, #1]!	@ zero_extendqisi2
	cmp	lr, #3
	ldr	lr, [r3, #620]
	addeq	r5, r5, #1
	orr	ip, lr, r9, asl ip
	str	ip, [r3, #620]
	b	.L1735
	UNWIND(.fnend)
	.size	HEVC_CalScalingList, .-HEVC_CalScalingList
	.align	2
	.global	HEVC_SetScalingList
	.type	HEVC_SetScalingList, %function
HEVC_SetScalingList:
	UNWIND(.fnstart)
	@ args = 0, pretend = 0, frame = 8
	@ frame_needed = 1, uses_anonymous_args = 0
	UNWIND(.movsp ip)
	mov	ip, sp
	stmfd	sp!, {r4, r5, r6, r7, r8, r9, r10, fp, ip, lr, pc}
	UNWIND(.pad #4)
	UNWIND(.save {r4, r5, r6, r7, r8, r9, r10, fp, ip, lr})
	UNWIND(.setfp fp, ip, #-4)
	sub	fp, ip, #4
	UNWIND(.pad #12)
	sub	sp, sp, #12
	ldr	r1, [r0, #2828]
	mov	r7, r0
	ldrb	r3, [r1, #3]	@ zero_extendqisi2
	cmp	r3, #0
	beq	.L1763
	ldrb	r3, [r0, #1]	@ zero_extendqisi2
	cmp	r3, #1
	beq	.L1774
	ldr	r3, [r0, #2832]
	ldrb	r2, [r3, #21]	@ zero_extendqisi2
	cmp	r2, #0
	beq	.L1747
	cmn	r3, #256
	add	r2, r3, #256
	str	r2, [fp, #-48]
	movne	r1, #0
	moveq	r1, #1
.L1746:
	cmp	r1, #0
	bne	.L1764
.L1749:
	ldr	r10, .L1777
	mov	r2, #1536
	add	r0, r7, #620
	add	r9, r7, #2224
	mov	r6, r1
	add	r9, r9, #8
	ldr	r3, [r10, #48]
	blx	r3
	ldr	r8, [fp, #-48]
.L1750:
	ldr	r3, [r9, #4]!
	cmp	r3, #0
	movne	r5, r8
	movne	r4, #0
	beq	.L1753
.L1751:
	mov	r3, r4
	mov	r1, r5
	mov	r2, r6
	mov	r0, r7
	bl	HEVC_CalScalingList
	ldr	r3, [r9]
	add	r4, r4, #1
	add	r5, r5, #64
	cmp	r3, r4
	bhi	.L1751
.L1753:
	add	r6, r6, #1
	add	r8, r8, #384
	cmp	r6, #4
	bne	.L1750
	ldr	r2, [fp, #-48]
	add	r0, r7, #2240
	ldr	r3, [r10, #52]
	add	r0, r0, #12
	add	r1, r2, #1536
	mov	r2, #96
	blx	r3
.L1763:
	mov	r0, #0
	sub	sp, fp, #40
	ldmfd	sp, {r4, r5, r6, r7, r8, r9, r10, fp, sp, pc}
.L1774:
	ldr	r2, [r0, #2832]
	ldrb	r3, [r2, #1889]	@ zero_extendqisi2
	cmp	r3, #1
	beq	.L1775
	add	r0, r1, #12288
	ldrb	ip, [r0, #372]	@ zero_extendqisi2
	cmp	ip, #1
	beq	.L1776
	ldrb	r3, [r2, #21]	@ zero_extendqisi2
	cmp	r3, #0
	bne	.L1754
.L1747:
	ldrb	r3, [r1, #4]	@ zero_extendqisi2
	cmp	r3, #0
	beq	.L1764
.L1769:
	cmn	r1, #432
	add	r3, r1, #432
	str	r3, [fp, #-48]
	movne	r1, #0
	moveq	r1, #1
	cmp	r1, #0
	beq	.L1749
.L1764:
	mov	r0, r7
	bl	HEVC_SetDefaultScalingList
	mov	r0, #0
	sub	sp, fp, #40
	ldmfd	sp, {r4, r5, r6, r7, r8, r9, r10, fp, sp, pc}
.L1743:
	ldrb	r3, [r2, #21]	@ zero_extendqisi2
	cmp	r3, #0
	beq	.L1769
.L1754:
	cmn	r2, #256
	add	r3, r2, #256
	str	r3, [fp, #-48]
	movne	r1, #0
	moveq	r1, #1
	b	.L1746
.L1776:
	ldrb	ip, [r1, #4]	@ zero_extendqisi2
	cmp	ip, #0
	bne	.L1743
	ldrb	r1, [r2, #21]	@ zero_extendqisi2
	orrs	r3, r1, r3
	bne	.L1744
	ldr	r2, [r0, #376]
	movw	r1, #12668
	ldr	r3, [r7, #2804]
	add	r2, r7, r2, lsl #2
	ldr	r2, [r2, #228]
	mla	r3, r1, r2, r3
.L1772:
	ldrb	r2, [r3, #4]	@ zero_extendqisi2
	cmp	r2, #1
	bne	.L1764
	cmn	r3, #432
	add	r2, r3, #432
	str	r2, [fp, #-48]
	movne	r1, #0
	moveq	r1, #1
	b	.L1746
.L1775:
	ldr	r2, [r2, #1956]
	movw	r0, #5036
	ldr	r1, [r7, #2808]
	movw	lr, #12668
	ldr	r3, [r7, #2804]
	add	r2, r7, r2, lsl #2
	ldr	ip, [r2, #236]
	ldr	r2, [r2, #228]
	mla	r0, r0, ip, r1
	mla	r3, lr, r2, r3
	ldrb	r2, [r0, #21]	@ zero_extendqisi2
	cmp	r2, #1
	bne	.L1772
	cmn	r0, #256
	add	r3, r0, #256
	str	r3, [fp, #-48]
	movne	r1, #0
	moveq	r1, #1
	b	.L1746
.L1744:
	cmp	r1, #0
	beq	.L1764
	b	.L1754
.L1778:
	.align	2
.L1777:
	.word	vfmw_Osal_Func_Ptr_S
	UNWIND(.fnend)
	.size	HEVC_SetScalingList, .-HEVC_SetScalingList
	.align	2
	.global	HEVC_GetScalingListDefaultAddress
	.type	HEVC_GetScalingListDefaultAddress, %function
HEVC_GetScalingListDefaultAddress:
	UNWIND(.fnstart)
	@ args = 0, pretend = 0, frame = 0
	@ frame_needed = 1, uses_anonymous_args = 0
	UNWIND(.movsp ip)
	mov	ip, sp
	stmfd	sp!, {fp, ip, lr, pc}
	UNWIND(.pad #4)
	UNWIND(.save {fp, ip, lr})
	UNWIND(.setfp fp, ip, #-4)
	sub	fp, ip, #4
	cmp	r0, #3
	ldrls	pc, [pc, r0, asl #2]
	b	.L1780
.L1782:
	.word	.L1786
	.word	.L1784
	.word	.L1784
	.word	.L1785
.L1784:
	ldr	r3, .L1790
	cmp	r1, #2
	add	r0, r3, #64
	movhi	r0, r3
	ldmfd	sp, {fp, sp, pc}
.L1786:
	ldr	r0, .L1790+4
	ldmfd	sp, {fp, sp, pc}
.L1785:
	ldr	r3, .L1790
	cmp	r1, #0
	add	r0, r3, #64
	movne	r0, r3
	ldmfd	sp, {fp, sp, pc}
.L1780:
	ldr	r1, .L1790+8
	mov	r0, #1
	bl	dprint_vfmw
	mov	r0, #0
	ldmfd	sp, {fp, sp, pc}
.L1791:
	.align	2
.L1790:
	.word	.LANCHOR4+80
	.word	.LANCHOR4+64
	.word	.LC153
	UNWIND(.fnend)
	.size	HEVC_GetScalingListDefaultAddress, .-HEVC_GetScalingListDefaultAddress
	.align	2
	.global	HEVC_DecRefPicListsModification
	.type	HEVC_DecRefPicListsModification, %function
HEVC_DecRefPicListsModification:
	UNWIND(.fnstart)
	@ args = 0, pretend = 0, frame = 0
	@ frame_needed = 1, uses_anonymous_args = 0
	UNWIND(.movsp ip)
	mov	ip, sp
	stmfd	sp!, {r3, r4, r5, r6, r7, r8, r9, r10, fp, ip, lr, pc}
	UNWIND(.pad #4)
	UNWIND(.save {r3, r4, r5, r6, r7, r8, r9, r10, fp, ip, lr})
	UNWIND(.setfp fp, ip, #-4)
	sub	fp, ip, #4
	cmp	r2, #0
	cmpne	r1, #0
	mov	r5, r3
	mov	r7, r1
	mov	r8, r2
	moveq	ip, #1
	movne	ip, #0
	cmp	r0, #0
	orreq	ip, ip, #1
	mov	r6, r0
	cmp	ip, #0
	bne	.L1802
	sub	ip, r3, #1
	mov	r4, #1
	movs	ip, ip, asr #1
	beq	.L1794
.L1795:
	movs	ip, ip, asr #1
	add	r4, r4, #1
	bne	.L1795
.L1794:
	mov	r1, #1
	ldr	r0, [r6, #2796]
	bl	BsGet
	cmp	r5, #1
	movls	r10, #0
	movhi	r10, #1
	uxtb	r0, r0
	strb	r0, [r8]
	cmp	r0, #0
	cmpne	r5, #1
	bls	.L1799
	ldr	r3, [r7, #76]
	cmp	r3, #0
	beq	.L1799
	mov	r9, r8
	mov	r5, #0
.L1800:
	mov	r1, r4
	ldr	r0, [r6, #2796]
	bl	BsGet
	add	r5, r5, #1
	str	r0, [r9, #4]!
	ldr	r3, [r7, #76]
	cmp	r3, r5
	bhi	.L1800
.L1799:
	ldr	r5, [r7, #20]
	cmp	r5, #0
	beq	.L1817
.L1798:
	mov	r0, #0
	ldmfd	sp, {r3, r4, r5, r6, r7, r8, r9, r10, fp, sp, pc}
.L1817:
	mov	r1, #1
	ldr	r0, [r6, #2796]
	bl	BsGet
	uxtb	r0, r0
	strb	r0, [r8, #1]
	cmp	r0, #0
	moveq	r10, #0
	andne	r10, r10, #1
	cmp	r10, #0
	beq	.L1798
	ldr	r3, [r7, #80]
	cmp	r3, #0
	beq	.L1798
	add	r8, r8, #128
.L1801:
	mov	r1, r4
	ldr	r0, [r6, #2796]
	bl	BsGet
	add	r5, r5, #1
	str	r0, [r8, #4]!
	ldr	r3, [r7, #80]
	cmp	r3, r5
	bhi	.L1801
	mov	r0, #0
	ldmfd	sp, {r3, r4, r5, r6, r7, r8, r9, r10, fp, sp, pc}
.L1802:
	mvn	r0, #0
	ldmfd	sp, {r3, r4, r5, r6, r7, r8, r9, r10, fp, sp, pc}
	UNWIND(.fnend)
	.size	HEVC_DecRefPicListsModification, .-HEVC_DecRefPicListsModification
	.align	2
	.global	HEVC_MoreRbspData
	.type	HEVC_MoreRbspData, %function
HEVC_MoreRbspData:
	UNWIND(.fnstart)
	@ args = 0, pretend = 0, frame = 0
	@ frame_needed = 1, uses_anonymous_args = 0
	UNWIND(.movsp ip)
	mov	ip, sp
	stmfd	sp!, {r4, r5, fp, ip, lr, pc}
	UNWIND(.pad #4)
	UNWIND(.save {r4, r5, fp, ip, lr})
	UNWIND(.setfp fp, ip, #-4)
	sub	fp, ip, #4
	mov	r4, r0
	ldr	r0, [r0, #2796]
	bl	BsResidBits
	subs	r3, r0, #0
	ble	.L1820
	ldr	r2, [r4, #2816]
	ldr	r0, [r2, #12]
	add	r0, r0, #3
	cmp	r3, r0
	movls	r0, #0
	movhi	r0, #1
	ldmfd	sp, {r4, r5, fp, sp, pc}
.L1820:
	mov	r0, #0
	ldmfd	sp, {r4, r5, fp, sp, pc}
	UNWIND(.fnend)
	.size	HEVC_MoreRbspData, .-HEVC_MoreRbspData
	.align	2
	.global	HEVC_More_Rbsp_Data
	.type	HEVC_More_Rbsp_Data, %function
HEVC_More_Rbsp_Data:
	UNWIND(.fnstart)
	@ args = 0, pretend = 0, frame = 0
	@ frame_needed = 1, uses_anonymous_args = 0
	UNWIND(.movsp ip)
	mov	ip, sp
	stmfd	sp!, {fp, ip, lr, pc}
	UNWIND(.pad #4)
	UNWIND(.save {fp, ip, lr})
	UNWIND(.setfp fp, ip, #-4)
	sub	fp, ip, #4
	ldr	r0, [r0, #2796]
	ldr	r2, [r0, #16]
	ldr	r3, [r0, #24]
	mov	r2, r2, asl #3
	cmp	r2, r3
	bls	.L1824
	mov	r1, #8
	bl	BsShow
	subs	r0, r0, #128
	movne	r0, #1
	ldmfd	sp, {fp, sp, pc}
.L1824:
	ldr	r1, .L1825
	mov	r0, #1
	bl	dprint_vfmw
	mov	r0, #0
	ldmfd	sp, {fp, sp, pc}
.L1826:
	.align	2
.L1825:
	.word	.LC154
	UNWIND(.fnend)
	.size	HEVC_More_Rbsp_Data, .-HEVC_More_Rbsp_Data
	.align	2
	.global	HEVC_FindTrailZeros
	.type	HEVC_FindTrailZeros, %function
HEVC_FindTrailZeros:
	UNWIND(.fnstart)
	@ args = 0, pretend = 0, frame = 0
	@ frame_needed = 1, uses_anonymous_args = 0
	UNWIND(.movsp ip)
	mov	ip, sp
	stmfd	sp!, {r4, r5, r6, r7, fp, ip, lr, pc}
	UNWIND(.pad #4)
	UNWIND(.save {r4, r5, r6, r7, fp, ip, lr})
	UNWIND(.setfp fp, ip, #-4)
	sub	fp, ip, #4
	mov	r1, #0
	mov	r6, r0
.L1839:
	ldr	r3, [r6, #2816]
	ldr	ip, [r3, #8]
	sub	ip, ip, #1
	mov	r0, ip, asl #2
	mov	ip, ip, asl #5
	rsb	r2, r0, ip
	add	r2, r3, r2
	ldr	r3, [r2, #44]
	ldr	r2, [r2, #40]
	sub	r3, r3, #1
	add	r3, r2, r3
.L1828:
	ldrb	r4, [r3]	@ zero_extendqisi2
	rsb	r5, r0, ip
	cmp	r4, #0
	bne	.L1840
	ldr	r2, [r6, #2816]
	add	r1, r1, #1
	add	lr, r2, r5
	ldr	r2, [r2, #40]
	cmp	r2, r3
	beq	.L1841
	ldr	r2, [lr, #40]
	cmp	r2, r3
	sub	r3, r3, #1
	bne	.L1828
	ldr	r1, [lr, #64]
	ldr	r0, [r6, #276]
	bl	SM_ReleaseStreamSeg
	ldr	r3, [r6, #2816]
	mov	r1, r4
	add	r5, r3, r5
	str	r4, [r5, #40]
	ldr	r2, [r6, #2816]
	ldr	r3, [r2, #8]
	sub	r3, r3, #1
	str	r3, [r2, #8]
	b	.L1839
.L1840:
	tst	r4, #1
	mov	r3, #1
	moveq	r2, r3
	bne	.L1835
.L1836:
	ands	r0, r4, r2, asl r3
	add	r3, r3, #1
	bne	.L1835
	cmp	r3, #8
	bne	.L1836
	ldr	r1, .L1842
	mov	r0, #1
	bl	dprint_vfmw
	mvn	r0, #0
	ldmfd	sp, {r4, r5, r6, r7, fp, sp, pc}
.L1841:
	ldr	r1, .L1842+4
	mov	r0, #1
	bl	dprint_vfmw
	mvn	r0, #0
	ldmfd	sp, {r4, r5, r6, r7, fp, sp, pc}
.L1835:
	ldr	ip, [r6, #2816]
	mov	r2, #0
	add	r1, r3, r1, lsl #3
	mov	r0, r2
	str	r2, [ip, #4]
	ldr	r3, [r6, #2816]
	str	r1, [r3, #12]
	ldmfd	sp, {r4, r5, r6, r7, fp, sp, pc}
.L1843:
	.align	2
.L1842:
	.word	.LC156
	.word	.LC155
	UNWIND(.fnend)
	.size	HEVC_FindTrailZeros, .-HEVC_FindTrailZeros
	.align	2
	.global	HEVC_FindNaluArraySlot
	.type	HEVC_FindNaluArraySlot, %function
HEVC_FindNaluArraySlot:
	UNWIND(.fnstart)
	@ args = 0, pretend = 0, frame = 0
	@ frame_needed = 1, uses_anonymous_args = 0
	UNWIND(.movsp ip)
	mov	ip, sp
	stmfd	sp!, {r4, r5, r6, r7, r8, r9, fp, ip, lr, pc}
	UNWIND(.pad #4)
	UNWIND(.save {r4, r5, r6, r7, r8, r9, fp, ip, lr})
	UNWIND(.setfp fp, ip, #-4)
	sub	fp, ip, #4
	ldr	r5, [r0, #168]
	mov	r8, r0
	ldr	r3, [r0, #148]
	cmp	r5, #0
	blt	.L1845
	add	r6, r5, #1
	mov	r0, r3
	mov	r1, r6
	bl	__aeabi_uidivmod
	ldr	r7, [r8, #2840]
	mov	r3, r1
	mov	r1, r1, asl #5
	mov	ip, r3, asl #7
	rsb	r2, r1, ip
	add	r2, r7, r2
	ldr	r2, [r2, #32]
	cmp	r2, #0
	beq	.L1846
	mov	r4, #0
	b	.L1848
.L1849:
	bl	__aeabi_uidivmod
	mov	r3, r1
	mov	r1, r1, asl #5
	mov	ip, r3, asl #7
	rsb	r2, r1, ip
	add	r2, r7, r2
	ldr	r2, [r2, #32]
	cmp	r2, #0
	beq	.L1846
.L1848:
	add	r4, r4, #1
	mov	r1, r6
	cmp	r4, r5
	add	r0, r3, r4
	ble	.L1849
.L1845:
	mvn	r0, #0
	str	r3, [r8, #148]
	ldmfd	sp, {r4, r5, r6, r7, r8, r9, fp, sp, pc}
.L1846:
	cmp	r3, r6
	mov	r0, r3
	str	r3, [r8, #148]
	bcs	.L1859
	rsb	r1, r1, ip
	mov	r3, #1
	add	r7, r7, r1
	str	r3, [r7, #32]
	ldmfd	sp, {r4, r5, r6, r7, r8, r9, fp, sp, pc}
.L1859:
	mvn	r0, #0
	ldmfd	sp, {r4, r5, r6, r7, r8, r9, fp, sp, pc}
	UNWIND(.fnend)
	.size	HEVC_FindNaluArraySlot, .-HEVC_FindNaluArraySlot
	.align	2
	.global	HEVC_ReleaseNAL
	.type	HEVC_ReleaseNAL, %function
HEVC_ReleaseNAL:
	UNWIND(.fnstart)
	@ args = 0, pretend = 0, frame = 0
	@ frame_needed = 1, uses_anonymous_args = 0
	UNWIND(.movsp ip)
	mov	ip, sp
	stmfd	sp!, {r4, r5, r6, r7, fp, ip, lr, pc}
	UNWIND(.pad #4)
	UNWIND(.save {r4, r5, r6, r7, fp, ip, lr})
	UNWIND(.setfp fp, ip, #-4)
	sub	fp, ip, #4
	UNWIND(.pad #8)
	sub	sp, sp, #8
	subs	r5, r1, #0
	mov	r6, r0
	beq	.L1868
	add	r7, r5, #56
	mov	r4, r5
	mov	r3, #0
	str	r3, [r5, #32]
	str	r3, [r5, #36]
.L1863:
	ldr	r3, [r4, #40]
	mov	r0, r6
	cmp	r3, #0
	beq	.L1862
	ldr	r1, [r4, #64]
	bl	SM_ReleaseStreamSeg
	ldr	ip, [r4, #44]
	ldr	r3, [r4, #40]
	mov	r0, #7
	ldr	r2, .L1869
	ldr	r1, .L1869+4
	str	ip, [sp]
	bl	dprint_vfmw
	mov	r3, #0
	str	r3, [r4, #40]
	str	r3, [r4, #56]
	str	r3, [r4, #44]
.L1862:
	add	r4, r4, #28
	cmp	r4, r7
	bne	.L1863
	ldr	r3, .L1869+8
	mov	r0, r5
	mov	r2, #96
	mov	r1, #0
	ldr	r3, [r3, #48]
	sub	sp, fp, #28
	ldmfd	sp, {r4, r5, r6, r7, fp, sp, lr}
	bx	r3
.L1868:
	mov	r0, r5
	movw	r3, #14174
	ldr	r2, .L1869+12
	ldr	r1, .L1869+16
	sub	sp, fp, #28
	ldmfd	sp, {r4, r5, r6, r7, fp, sp, lr}
	b	dprint_vfmw
.L1870:
	.align	2
.L1869:
	.word	.LANCHOR0+560
	.word	.LC157
	.word	vfmw_Osal_Func_Ptr_S
	.word	.LC2
	.word	.LC3
	UNWIND(.fnend)
	.size	HEVC_ReleaseNAL, .-HEVC_ReleaseNAL
	.align	2
	.global	HEVC_InitDecBuffers
	.type	HEVC_InitDecBuffers, %function
HEVC_InitDecBuffers:
	UNWIND(.fnstart)
	@ args = 0, pretend = 0, frame = 0
	@ frame_needed = 1, uses_anonymous_args = 0
	UNWIND(.movsp ip)
	mov	ip, sp
	stmfd	sp!, {r4, r5, r6, r7, r8, r9, r10, fp, ip, lr, pc}
	UNWIND(.pad #4)
	UNWIND(.save {r4, r5, r6, r7, r8, r9, r10, fp, ip, lr})
	UNWIND(.setfp fp, ip, #-4)
	sub	fp, ip, #4
	UNWIND(.pad #12)
	sub	sp, sp, #12
	ldrb	r3, [r0, #1]	@ zero_extendqisi2
	mov	r6, r0
	cmp	r3, #1
	beq	.L1907
.L1872:
	ldr	r3, [r6, #2828]
	ldr	r3, [r3, #184]
	add	r3, r3, #1
	str	r3, [r6, #3024]
.L1874:
	cmp	r3, #17
	bhi	.L1908
.L1875:
	add	lr, r6, #3392
	add	ip, r6, #3248
	add	r0, r6, #3184
	add	r1, r6, #3120
	mov	r7, #0
	add	lr, lr, #4
	add	ip, ip, #12
	add	r0, r0, #8
	add	r1, r1, #4
	add	r5, r6, #3328
	add	r4, r6, #3056
	mov	r2, r7
	mov	r3, r7
	str	r7, [r6, #3028]
	str	r7, [r6, #3040]
	str	r7, [r6, #3044]
	str	r7, [r6, #3036]
	str	r7, [r6, #3032]
	str	r7, [r6, #3052]
	str	r7, [r6, #3056]
.L1876:
	add	r2, r2, #1
	str	r3, [lr, #4]!
	cmp	r2, #17
	str	r3, [ip, #4]!
	str	r3, [r5, #4]!
	str	r3, [r0, #4]!
	str	r3, [r4, #4]!
	str	r3, [r1, #4]!
	bne	.L1876
	add	r4, r6, #13760
	ldr	r9, .L1909
	add	r4, r4, #32
	mov	r7, #0
.L1877:
	ldr	r3, [r9, #48]
	mov	r2, #632
	mov	r0, r4
	mov	r1, #0
	blx	r3
	str	r7, [r4, #148]
	add	r7, r7, #1
	mov	r5, #0
	cmp	r7, #20
	sub	r3, r4, #80
	strb	r5, [r4, #-80]
	mov	r2, #20
	str	r5, [r4, #-32]
	mov	r8, #16
	strb	r5, [r4, #-79]
	add	r4, r4, #712
	str	r5, [r4, #-784]
	strb	r5, [r4, #-790]
	str	r5, [r4, #-736]
	str	r2, [r4, #-772]
	str	r8, [r4, #-768]
	str	r3, [r4, #-716]
	ldr	r10, .L1909
	bne	.L1877
	add	r0, r6, #13120
	add	r4, r6, #12288
	ldr	r3, [r10, #48]
	mov	r2, #280
	mov	r1, r5
	add	r0, r0, #28
	blx	r3
	add	r0, r6, #13376
	ldr	r3, [r10, #48]
	mov	r2, #280
	mov	r1, r5
	add	r0, r0, #52
	str	r8, [r4, #860]
	str	r5, [r4, #864]
	blx	r3
	add	r2, r6, #2848
	add	r3, r6, #2912
	add	r2, r2, #4
	add	r3, r3, #8
	mov	r1, r5
	str	r8, [r4, #1140]
	str	r5, [r4, #1144]
.L1878:
	str	r1, [r2, #4]!
	cmp	r2, r3
	mov	r0, #0
	bne	.L1878
	add	r1, r6, #2976
	add	lr, r6, #4096
	add	r1, r1, #12
	mov	ip, r0
	str	r0, [lr, #764]
.L1879:
	str	ip, [r3, #4]!
	cmp	r3, r1
	mov	r2, #0
	bne	.L1879
	str	r2, [lr, #768]
	ldr	r0, [r6, #184]
	cmp	r0, r2
	addne	r1, r6, #2144
	movne	r3, r2
	addne	r1, r1, #8
	movne	r2, r3
	beq	.L1884
.L1883:
	add	r3, r3, #1
	str	r2, [r1, #4]!
	cmp	r3, r0
	bne	.L1883
.L1884:
	ldr	r3, [r6, #168]
	cmp	r3, #0
	movne	r4, #0
	movne	r5, r4
	beq	.L1871
.L1889:
	ldr	r3, [r6, #2836]
	mov	r7, r4, asl #2
	ldr	r1, [r3, r4, asl #2]
	cmp	r1, #0
	beq	.L1885
	ldr	r3, [r6, #2816]
	cmp	r1, r3
	beq	.L1885
	ldr	r0, [r6, #276]
	bl	HEVC_ReleaseNAL
	ldr	r3, [r6, #2836]
	str	r5, [r3, r7]
	ldr	r3, [r6, #204]
	ldr	r2, [r6, #260]
	cmp	r3, #0
	subne	r3, r3, #1
	str	r3, [r6, #204]
	ldr	r3, [r6, #176]
	cmp	r2, #0
	subne	r2, r2, #1
	str	r2, [r6, #260]
	cmp	r3, #2
	subhi	r3, r3, #1
	movls	r3, #2
	str	r3, [r6, #176]
.L1885:
	ldr	r3, [r6, #168]
	add	r4, r4, #1
	cmp	r3, r4
	bhi	.L1889
.L1871:
	sub	sp, fp, #40
	ldmfd	sp, {r4, r5, r6, r7, r8, r9, r10, fp, sp, pc}
.L1908:
	mov	r4, #17
	ldr	r2, .L1909+4
	str	r4, [sp]
	mov	r3, r4
	ldr	r1, .L1909+8
	mov	r0, #1
	bl	dprint_vfmw
	str	r4, [r6, #3024]
	b	.L1875
.L1907:
	ldr	r3, [r0, #2844]
	ldr	r3, [r3, #24]
	bics	r3, r3, #4
	beq	.L1872
	ldr	r2, [r0, #2380]
	cmp	r2, #0
	beq	.L1872
	ldr	r3, [r6, #2828]
	ldr	r3, [r3, #184]
	mul	r3, r3, r2
	add	r3, r3, #1
	str	r3, [r6, #3024]
	b	.L1874
.L1910:
	.align	2
.L1909:
	.word	vfmw_Osal_Func_Ptr_S
	.word	.LANCHOR0+576
	.word	.LC158
	UNWIND(.fnend)
	.size	HEVC_InitDecBuffers, .-HEVC_InitDecBuffers
	.align	2
	.global	HEVC_EmptyFrmFromDPB
	.type	HEVC_EmptyFrmFromDPB, %function
HEVC_EmptyFrmFromDPB:
	UNWIND(.fnstart)
	@ args = 0, pretend = 0, frame = 0
	@ frame_needed = 1, uses_anonymous_args = 0
	UNWIND(.movsp ip)
	mov	ip, sp
	stmfd	sp!, {r4, r5, r6, r7, r8, r9, fp, ip, lr, pc}
	UNWIND(.pad #4)
	UNWIND(.save {r4, r5, r6, r7, r8, r9, fp, ip, lr})
	UNWIND(.setfp fp, ip, #-4)
	sub	fp, ip, #4
	subs	r6, r0, #0
	beq	.L1922
	ldr	r3, [r6, #3028]
	add	r8, r6, #3184
	cmp	r3, #0
	addne	r8, r8, #8
	movne	r3, #0
	movne	ip, #1
	movne	r1, r8
	beq	.L1937
.L1916:
	ldr	r2, [r1, #4]!
	add	r3, r3, #1
	ldrb	r0, [r2, #2]	@ zero_extendqisi2
	cmp	r0, #0
	streqb	ip, [r2, #2]
	ldr	r2, [r6, #3028]
	cmp	r2, r3
	bhi	.L1916
.L1917:
	mov	r4, r6
	mov	r7, #17
	mov	r5, #0
	mov	r3, #-2147483647
	str	r3, [r6, #212]
	str	r3, [r6, #216]
.L1914:
	ldr	r3, [r8, #4]!
	mov	r2, #1
	cmp	r3, #0
	beq	.L1918
	ldr	r1, [r3, #28]
	ldr	r0, [r6, #276]
	bl	FSP_ClearLogicFs
.L1918:
	ldr	r3, [r4, #3264]
	mov	r2, #1
	cmp	r3, #0
	beq	.L1919
	ldr	r1, [r3, #28]
	ldr	r0, [r6, #276]
	bl	FSP_ClearLogicFs
.L1919:
	ldr	r3, [r4, #3332]
	mov	r2, #1
	cmp	r3, #0
	beq	.L1920
	ldr	r1, [r3, #28]
	ldr	r0, [r6, #276]
	bl	FSP_ClearLogicFs
.L1920:
	ldr	r3, [r4, #3400]
	mov	r2, #1
	cmp	r3, #0
	beq	.L1921
	ldr	r1, [r3, #28]
	ldr	r0, [r6, #276]
	bl	FSP_ClearLogicFs
.L1921:
	subs	r7, r7, #1
	str	r5, [r4, #3400]
	str	r5, [r4, #3332]
	add	r4, r4, #4
	str	r5, [r4, #3260]
	str	r5, [r4, #3192]
	bne	.L1914
	mov	r0, r6
	bl	HEVC_InitDecBuffers
	mov	r0, r7
	ldmfd	sp, {r4, r5, r6, r7, r8, r9, fp, sp, pc}
.L1937:
	add	r8, r8, #8
	b	.L1917
.L1922:
	mvn	r0, #0
	ldmfd	sp, {r4, r5, r6, r7, r8, r9, fp, sp, pc}
	UNWIND(.fnend)
	.size	HEVC_EmptyFrmFromDPB, .-HEVC_EmptyFrmFromDPB
	.align	2
	.global	HEVC_CombinePacket
	.type	HEVC_CombinePacket, %function
HEVC_CombinePacket:
	UNWIND(.fnstart)
	@ args = 0, pretend = 0, frame = 0
	@ frame_needed = 1, uses_anonymous_args = 0
	UNWIND(.movsp ip)
	mov	ip, sp
	stmfd	sp!, {r4, r5, fp, ip, lr, pc}
	UNWIND(.pad #4)
	UNWIND(.save {r4, r5, fp, ip, lr})
	UNWIND(.setfp fp, ip, #-4)
	sub	fp, ip, #4
	mov	r4, r0
	ldr	r0, [r0, #2816]
	cmp	r0, #0
	beq	.L1941
	ldr	r3, [r0, #44]
	cmp	r3, #4096
	ldmcsfd	sp, {r4, r5, fp, sp, pc}
	ldr	r1, .L1942
	mov	r0, #7
	bl	dprint_vfmw
	ldr	r3, [r4, #2816]
	ldr	ip, .L1942+4
	mov	r5, #0
	ldr	r2, [r3, #44]
	ldr	r0, [r3, #68]
	ldr	r1, [r3, #40]
	rsb	r0, r2, r0
	ldr	r3, [ip, #52]
	blx	r3
	ldr	r3, [r4, #2816]
	mov	r0, #1
	ldr	r2, [r3, #92]
	ldr	r1, [r3, #64]
	str	r2, [r3, #64]
	ldr	r3, [r4, #2816]
	str	r5, [r3, #56]
	ldr	r3, [r4, #2816]
	ldr	ip, [r3, #44]
	ldr	r2, [r3, #68]
	rsb	r2, ip, r2
	str	r2, [r3, #40]
	ldr	r3, [r4, #2816]
	ldr	ip, [r3, #44]
	ldr	r2, [r3, #76]
	rsb	r2, ip, r2
	str	r2, [r3, #48]
	ldr	r3, [r4, #2816]
	ldr	r2, [r3, #44]
	ldr	ip, [r3, #72]
	add	r2, r2, ip
	str	r2, [r3, #44]
	ldr	r3, [r4, #2816]
	str	r0, [r3, #8]
	ldr	r0, [r4, #276]
	bl	SM_ReleaseStreamSeg
	ldr	r3, [r4, #2816]
	str	r5, [r3, #68]
	ldr	r3, [r4, #2816]
	str	r5, [r3, #84]
	ldr	r3, [r4, #2816]
	str	r5, [r3, #72]
	ldmfd	sp, {r4, r5, fp, sp, pc}
.L1941:
	ldr	r1, .L1942+8
	sub	sp, fp, #20
	ldmfd	sp, {r4, r5, fp, sp, lr}
	b	dprint_vfmw
.L1943:
	.align	2
.L1942:
	.word	.LC160
	.word	vfmw_Osal_Func_Ptr_S
	.word	.LC159
	UNWIND(.fnend)
	.size	HEVC_CombinePacket, .-HEVC_CombinePacket
	.align	2
	.global	HEVC_IsOutDPB
	.type	HEVC_IsOutDPB, %function
HEVC_IsOutDPB:
	UNWIND(.fnstart)
	@ args = 0, pretend = 0, frame = 0
	@ frame_needed = 1, uses_anonymous_args = 0
	UNWIND(.movsp ip)
	mov	ip, sp
	stmfd	sp!, {fp, ip, lr, pc}
	UNWIND(.pad #4)
	UNWIND(.save {fp, ip, lr})
	UNWIND(.setfp fp, ip, #-4)
	sub	fp, ip, #4
	cmp	r1, #0
	beq	.L1949
	ldr	ip, [r0, #3028]
	cmp	ip, #0
	beq	.L1949
	ldr	r3, [r0, #3196]
	cmp	r3, r1
	beq	.L1951
	add	r0, r0, #3184
	mov	r3, #0
	add	r0, r0, #12
	b	.L1946
.L1947:
	ldr	r2, [r0, #4]!
	cmp	r2, r1
	beq	.L1951
.L1946:
	add	r3, r3, #1
	cmp	r3, ip
	bne	.L1947
.L1949:
	mov	r0, #1
	ldmfd	sp, {fp, sp, pc}
.L1951:
	mov	r0, #0
	ldmfd	sp, {fp, sp, pc}
	UNWIND(.fnend)
	.size	HEVC_IsOutDPB, .-HEVC_IsOutDPB
	.align	2
	.global	HEVC_IsNewPicNal
	.type	HEVC_IsNewPicNal, %function
HEVC_IsNewPicNal:
	UNWIND(.fnstart)
	@ args = 0, pretend = 0, frame = 0
	@ frame_needed = 1, uses_anonymous_args = 0
	UNWIND(.movsp ip)
	mov	ip, sp
	stmfd	sp!, {fp, ip, lr, pc}
	UNWIND(.pad #4)
	UNWIND(.save {fp, ip, lr})
	UNWIND(.setfp fp, ip, #-4)
	sub	fp, ip, #4
	mov	r0, #0
	ldmfd	sp, {fp, sp, pc}
	UNWIND(.fnend)
	.size	HEVC_IsNewPicNal, .-HEVC_IsNewPicNal
	.align	2
	.global	HEVC_u_v
	.type	HEVC_u_v, %function
HEVC_u_v:
	UNWIND(.fnstart)
	@ args = 0, pretend = 0, frame = 0
	@ frame_needed = 1, uses_anonymous_args = 0
	UNWIND(.movsp ip)
	mov	ip, sp
	stmfd	sp!, {fp, ip, lr, pc}
	UNWIND(.pad #4)
	UNWIND(.save {fp, ip, lr})
	UNWIND(.setfp fp, ip, #-4)
	sub	fp, ip, #4
	sub	sp, fp, #12
	ldmia	sp, {fp, sp, lr}
	b	BsGet
	UNWIND(.fnend)
	.size	HEVC_u_v, .-HEVC_u_v
	.align	2
	.global	HEVC_f_v
	.type	HEVC_f_v, %function
HEVC_f_v:
	UNWIND(.fnstart)
	@ args = 0, pretend = 0, frame = 0
	@ frame_needed = 1, uses_anonymous_args = 0
	UNWIND(.movsp ip)
	mov	ip, sp
	stmfd	sp!, {fp, ip, lr, pc}
	UNWIND(.pad #4)
	UNWIND(.save {fp, ip, lr})
	UNWIND(.setfp fp, ip, #-4)
	sub	fp, ip, #4
	sub	sp, fp, #12
	ldmia	sp, {fp, sp, lr}
	b	BsGet
	UNWIND(.fnend)
	.size	HEVC_f_v, .-HEVC_f_v
	.align	2
	.global	HEVC_ue_v
	.type	HEVC_ue_v, %function
HEVC_ue_v:
	UNWIND(.fnstart)
	@ args = 0, pretend = 0, frame = 0
	@ frame_needed = 1, uses_anonymous_args = 0
	UNWIND(.movsp ip)
	mov	ip, sp
	stmfd	sp!, {r4, r5, fp, ip, lr, pc}
	UNWIND(.pad #4)
	UNWIND(.save {r4, r5, fp, ip, lr})
	UNWIND(.setfp fp, ip, #-4)
	sub	fp, ip, #4
	mov	r1, #32
	mov	r5, r0
	bl	BsShow
	bl	ZerosMS_32
	cmp	r0, #31
	bls	.L1958
	movw	r0, #61166
	movt	r0, 65535
	ldmfd	sp, {r4, r5, fp, sp, pc}
.L1958:
	add	r4, r0, #1
	mov	r1, r0
	mov	r0, r5
	bl	BsSkip
	mov	r1, r4
	mov	r0, r5
	bl	BsShow
	mov	r1, r4
	sub	r4, r0, #1
	mov	r0, r5
	bl	BsSkip
	mov	r0, r4
	ldmfd	sp, {r4, r5, fp, sp, pc}
	UNWIND(.fnend)
	.size	HEVC_ue_v, .-HEVC_ue_v
	.align	2
	.global	HEVC_Sei_Tone_Mapping_Info
	.type	HEVC_Sei_Tone_Mapping_Info, %function
HEVC_Sei_Tone_Mapping_Info:
	UNWIND(.fnstart)
	@ args = 0, pretend = 0, frame = 0
	@ frame_needed = 1, uses_anonymous_args = 0
	UNWIND(.movsp ip)
	mov	ip, sp
	stmfd	sp!, {r4, r5, r6, r7, r8, r9, fp, ip, lr, pc}
	UNWIND(.pad #4)
	UNWIND(.save {r4, r5, r6, r7, r8, r9, fp, ip, lr})
	UNWIND(.setfp fp, ip, #-4)
	sub	fp, ip, #4
	ldr	r1, .L1981
	mov	r4, r0
	ldr	r0, [r0, #2796]
	bl	HEVC_ue_v
	ldr	r0, [r4, #2796]
	mov	r1, #1
	bl	BsGet
	tst	r0, #255
	beq	.L1978
.L1964:
	mov	r1, #32
	ldr	r0, [r4, #2796]
	bl	BsGet
	ldr	r0, [r4, #2796]
	mov	r1, #32
	bl	BsGet
	mov	r0, #0
	ldmfd	sp, {r4, r5, r6, r7, r8, r9, fp, sp, pc}
.L1978:
	mov	r1, #1
	ldr	r0, [r4, #2796]
	bl	BsGet
	mov	r1, #8
	ldr	r0, [r4, #2796]
	bl	BsGet
	mov	r1, #8
	mov	r6, r0
	ldr	r0, [r4, #2796]
	bl	BsGet
	cmp	r0, #8
	mov	r7, r0
	bhi	.L1979
	mov	r1, #8
	ldr	r0, [r4, #2796]
	bl	BsGet
	cmp	r0, #4
	ldrls	pc, [pc, r0, asl #2]
	b	.L1975
.L1963:
	.word	.L1964
	.word	.L1964
	.word	.L1965
	.word	.L1966
	.word	.L1967
.L1966:
	mov	r1, #16
	ldr	r0, [r4, #2796]
	bl	BsGet
	cmp	r0, #256
	mov	r8, r0
	bhi	.L1971
	cmp	r0, #0
	beq	.L1975
	add	r6, r6, #7
	add	r7, r7, #7
	bic	r6, r6, #7
	bic	r7, r7, #7
	mov	r5, #0
.L1973:
	mov	r1, r6
	ldr	r0, [r4, #2796]
	bl	BsGet
	add	r5, r5, #1
	mov	r1, r7
	ldr	r0, [r4, #2796]
	bl	BsGet
	cmp	r5, r8
	bne	.L1973
.L1975:
	mov	r0, #0
	ldmfd	sp, {r4, r5, r6, r7, r8, r9, fp, sp, pc}
.L1965:
	mov	r2, #1
	movs	r7, r2, asl r7
	addne	r6, r6, #7
	movne	r5, #0
	bicne	r6, r6, #7
	beq	.L1975
.L1969:
	add	r5, r5, #1
	mov	r1, r6
	ldr	r0, [r4, #2796]
	bl	BsGet
	cmp	r7, r5
	bne	.L1969
	mov	r0, #0
	ldmfd	sp, {r4, r5, r6, r7, r8, r9, fp, sp, pc}
.L1967:
	mov	r1, #8
	ldr	r0, [r4, #2796]
	bl	BsGet
	cmp	r0, #255
	beq	.L1980
.L1974:
	mov	r1, #1
	ldr	r0, [r4, #2796]
	bl	BsGet
	mov	r1, #16
	ldr	r0, [r4, #2796]
	bl	BsGet
	mov	r1, #16
	ldr	r0, [r4, #2796]
	bl	BsGet
	mov	r1, #32
	ldr	r0, [r4, #2796]
	bl	BsGet
	mov	r1, #32
	ldr	r0, [r4, #2796]
	bl	BsGet
	mov	r1, #16
	ldr	r0, [r4, #2796]
	bl	BsGet
	mov	r1, #16
	ldr	r0, [r4, #2796]
	bl	BsGet
	mov	r1, #16
	ldr	r0, [r4, #2796]
	bl	BsGet
	ldr	r0, [r4, #2796]
	mov	r1, #16
	bl	BsGet
	mov	r0, #0
	ldmfd	sp, {r4, r5, r6, r7, r8, r9, fp, sp, pc}
.L1980:
	mov	r1, #32
	ldr	r0, [r4, #2796]
	bl	BsGet
	b	.L1974
.L1979:
	mov	r2, r0
	ldr	r1, .L1981+4
	mov	r0, #1
	bl	dprint_vfmw
	mvn	r0, #0
	ldmfd	sp, {r4, r5, r6, r7, r8, r9, fp, sp, pc}
.L1971:
	ldr	r1, .L1981+8
	mov	r0, #1
	bl	dprint_vfmw
	mvn	r0, #0
	ldmfd	sp, {r4, r5, r6, r7, r8, r9, fp, sp, pc}
.L1982:
	.align	2
.L1981:
	.word	.LC161
	.word	.LC162
	.word	.LC163
	UNWIND(.fnend)
	.size	HEVC_Sei_Tone_Mapping_Info, .-HEVC_Sei_Tone_Mapping_Info
	.align	2
	.global	HEVC_Sei_Frame_Packing_Arrangement
	.type	HEVC_Sei_Frame_Packing_Arrangement, %function
HEVC_Sei_Frame_Packing_Arrangement:
	UNWIND(.fnstart)
	@ args = 0, pretend = 0, frame = 0
	@ frame_needed = 1, uses_anonymous_args = 0
	UNWIND(.movsp ip)
	mov	ip, sp
	stmfd	sp!, {r4, r5, r6, r7, fp, ip, lr, pc}
	UNWIND(.pad #4)
	UNWIND(.save {r4, r5, r6, r7, fp, ip, lr})
	UNWIND(.setfp fp, ip, #-4)
	sub	fp, ip, #4
	ldr	r1, .L1993
	mov	r4, r0
	ldr	r0, [r0, #2796]
	bl	HEVC_ue_v
	ldr	r0, [r4, #2796]
	mov	r1, #1
	bl	BsGet
	tst	r0, #255
	bne	.L1984
	mov	r1, #7
	ldr	r0, [r4, #2796]
	bl	BsGet
	sub	r3, r0, #3
	mov	r6, r0
	cmp	r3, #2
	bhi	.L1991
	mov	r1, #1
	ldr	r0, [r4, #2796]
	bl	BsGet
	mov	r1, #6
	mov	r5, r0
	ldr	r0, [r4, #2796]
	bl	BsGet
	mov	r1, #1
	ldr	r0, [r4, #2796]
	uxtb	r5, r5
	bl	BsGet
	mov	r1, #1
	ldr	r0, [r4, #2796]
	clz	r5, r5
	bl	BsGet
	mov	r1, #1
	ldr	r0, [r4, #2796]
	mov	r5, r5, lsr #5
	bl	BsGet
	mov	r1, #1
	ldr	r0, [r4, #2796]
	bl	BsGet
	mov	r1, #1
	ldr	r0, [r4, #2796]
	bl	BsGet
	mov	r1, #1
	ldr	r0, [r4, #2796]
	bl	BsGet
	cmp	r6, #5
	moveq	r5, #0
	cmp	r5, #0
	bne	.L1992
.L1987:
	mov	r1, #8
	ldr	r0, [r4, #2796]
	bl	BsGet
	mov	r1, #1
	ldr	r0, [r4, #2796]
	bl	BsGet
.L1984:
	mov	r1, #1
	ldr	r0, [r4, #2796]
	bl	BsGet
	ldr	r0, [r4, #2796]
	bl	BsToNextByte
	mov	r0, #0
	ldmfd	sp, {r4, r5, r6, r7, fp, sp, pc}
.L1992:
	mov	r1, #4
	ldr	r0, [r4, #2796]
	bl	BsGet
	mov	r1, #4
	ldr	r0, [r4, #2796]
	bl	BsGet
	mov	r1, #4
	ldr	r0, [r4, #2796]
	bl	BsGet
	mov	r1, #4
	ldr	r0, [r4, #2796]
	bl	BsGet
	b	.L1987
.L1991:
	mov	r2, r0
	ldr	r1, .L1993+4
	mov	r0, #1
	bl	dprint_vfmw
	mvn	r0, #0
	ldmfd	sp, {r4, r5, r6, r7, fp, sp, pc}
.L1994:
	.align	2
.L1993:
	.word	.LC164
	.word	.LC165
	UNWIND(.fnend)
	.size	HEVC_Sei_Frame_Packing_Arrangement, .-HEVC_Sei_Frame_Packing_Arrangement
	.align	2
	.global	HEVC_Sei_Dec_Unit_Info
	.type	HEVC_Sei_Dec_Unit_Info, %function
HEVC_Sei_Dec_Unit_Info:
	UNWIND(.fnstart)
	@ args = 0, pretend = 0, frame = 0
	@ frame_needed = 1, uses_anonymous_args = 0
	UNWIND(.movsp ip)
	mov	ip, sp
	stmfd	sp!, {r4, r5, fp, ip, lr, pc}
	UNWIND(.pad #4)
	UNWIND(.save {r4, r5, fp, ip, lr})
	UNWIND(.setfp fp, ip, #-4)
	sub	fp, ip, #4
	cmp	r2, #0
	cmpne	r1, #0
	mov	r5, r2
	mov	r4, r0
	moveq	r1, #1
	movne	r1, #0
	cmp	r0, #0
	orreq	r1, r1, #1
	cmp	r1, #0
	bne	.L1999
	ldr	r1, .L2008
	ldr	r0, [r0, #2796]
	bl	HEVC_ue_v
	ldrb	r3, [r5, #3]	@ zero_extendqisi2
	cmp	r3, #0
	bne	.L2006
.L1997:
	mov	r1, #1
	ldr	r0, [r4, #2796]
	bl	BsGet
	tst	r0, #255
	bne	.L2007
.L1998:
	ldr	r0, [r4, #2796]
	bl	BsToNextByte
	mov	r0, #0
	ldmfd	sp, {r4, r5, fp, sp, pc}
.L2006:
	ldr	r1, [r5, #4]
	ldr	r0, [r4, #2796]
	add	r1, r1, #1
	bl	BsGet
	b	.L1997
.L2007:
	ldr	r1, [r5, #8]
	ldr	r0, [r4, #2796]
	add	r1, r1, #1
	bl	BsGet
	b	.L1998
.L1999:
	mvn	r0, #0
	ldmfd	sp, {r4, r5, fp, sp, pc}
.L2009:
	.align	2
.L2008:
	.word	.LC166
	UNWIND(.fnend)
	.size	HEVC_Sei_Dec_Unit_Info, .-HEVC_Sei_Dec_Unit_Info
	.align	2
	.global	HEVC_Sei_Active_Param_sets
	.type	HEVC_Sei_Active_Param_sets, %function
HEVC_Sei_Active_Param_sets:
	UNWIND(.fnstart)
	@ args = 0, pretend = 0, frame = 0
	@ frame_needed = 1, uses_anonymous_args = 0
	UNWIND(.movsp ip)
	mov	ip, sp
	stmfd	sp!, {r4, r5, r6, r7, fp, ip, lr, pc}
	UNWIND(.pad #4)
	UNWIND(.save {r4, r5, r6, r7, fp, ip, lr})
	UNWIND(.setfp fp, ip, #-4)
	sub	fp, ip, #4
	mov	r1, #4
	mov	r5, r0
	ldr	r0, [r0, #2796]
	bl	BsGet
	mov	r1, #1
	ldr	r0, [r5, #2796]
	bl	BsGet
	mov	r1, #1
	ldr	r0, [r5, #2796]
	bl	BsGet
	ldr	r0, [r5, #2796]
	ldr	r1, .L2017
	bl	HEVC_ue_v
	cmp	r0, #15
	bgt	.L2011
	cmp	r0, #0
	addge	r6, r0, #1
	movge	r4, #0
	blt	.L2015
.L2014:
	add	r4, r4, #1
	ldr	r1, .L2017+4
	ldr	r0, [r5, #2796]
	bl	HEVC_ue_v
	cmp	r4, r6
	bne	.L2014
.L2015:
	ldr	r0, [r5, #2796]
	bl	BsToNextByte
	mov	r0, #0
	ldmfd	sp, {r4, r5, r6, r7, fp, sp, pc}
.L2011:
	ldr	r1, .L2017+8
	mov	r0, #1
	bl	dprint_vfmw
	mvn	r0, #0
	ldmfd	sp, {r4, r5, r6, r7, fp, sp, pc}
.L2018:
	.align	2
.L2017:
	.word	.LC167
	.word	.LC169
	.word	.LC168
	UNWIND(.fnend)
	.size	HEVC_Sei_Active_Param_sets, .-HEVC_Sei_Active_Param_sets
	.align	2
	.global	HEVC_Sei_Buf_Period
	.type	HEVC_Sei_Buf_Period, %function
HEVC_Sei_Buf_Period:
	UNWIND(.fnstart)
	@ args = 0, pretend = 0, frame = 0
	@ frame_needed = 1, uses_anonymous_args = 0
	UNWIND(.movsp ip)
	mov	ip, sp
	stmfd	sp!, {r4, r5, r6, r7, r8, r9, fp, ip, lr, pc}
	UNWIND(.pad #4)
	UNWIND(.save {r4, r5, r6, r7, r8, r9, fp, ip, lr})
	UNWIND(.setfp fp, ip, #-4)
	sub	fp, ip, #4
	add	r4, r0, #8192
	mov	r5, r0
	mov	r9, r1
	mov	r6, #0
	ldr	r1, .L2048
	mov	r7, r2
	str	r6, [r4, #3528]
	ldr	r0, [r0, #2796]
	bl	HEVC_ue_v
	cmp	r0, #15
	bhi	.L2044
	mov	r1, #1
	strb	r1, [r4, #3521]
	ldrb	r3, [r7, #2]	@ zero_extendqisi2
	cmp	r3, #0
	movne	r8, r6
	beq	.L2045
.L2022:
	mov	r1, #1
	ldr	r0, [r5, #2796]
	bl	BsGet
	mov	r4, #1
	strb	r0, [r9]
	ldr	r1, [r7, #16]
	ldr	r0, [r5, #2796]
	add	r1, r1, r4
	bl	BsGet
	subs	r3, r4, #1
	beq	.L2046
.L2024:
	cmp	r3, #1
	beq	.L2047
.L2028:
	cmp	r4, #1
	bhi	.L2027
.L2026:
	add	r4, r4, #1
	subs	r3, r4, #1
	bne	.L2024
.L2046:
	ldrb	r2, [r7]	@ zero_extendqisi2
	cmp	r2, #0
	beq	.L2028
	ldr	r2, [r7, #24]
	cmn	r2, #1
	beq	.L2026
.L2035:
	mov	r6, #0
	b	.L2031
.L2030:
	ldr	r3, [r7, #24]
	add	r3, r3, #1
	cmp	r3, r6
	bls	.L2028
.L2031:
	ldr	r1, [r7, #12]
	add	r6, r6, #1
	ldr	r0, [r5, #2796]
	add	r1, r1, #1
	bl	BsGet
	ldr	r1, [r7, #12]
	ldr	r0, [r5, #2796]
	add	r1, r1, #1
	bl	BsGet
	ldrb	r3, [r7, #2]	@ zero_extendqisi2
	orrs	r3, r8, r3
	beq	.L2030
	ldr	r1, [r7, #12]
	ldr	r0, [r5, #2796]
	add	r1, r1, #1
	bl	BsGet
	ldr	r1, [r7, #12]
	ldr	r0, [r5, #2796]
	add	r1, r1, #1
	bl	BsGet
	b	.L2030
.L2047:
	ldrb	r3, [r7, #1]	@ zero_extendqisi2
	cmp	r3, #0
	beq	.L2027
	ldr	r3, [r7, #24]
	cmn	r3, #1
	bne	.L2035
.L2027:
	ldr	r0, [r5, #2796]
	bl	BsToNextByte
	mov	r0, #0
	ldmfd	sp, {r4, r5, r6, r7, r8, r9, fp, sp, pc}
.L2045:
	ldr	r0, [r5, #2796]
	bl	BsGet
	uxtb	r8, r0
	cmp	r8, #0
	beq	.L2022
	ldr	r1, [r7, #16]
	ldr	r0, [r5, #2796]
	add	r1, r1, #1
	bl	BsGet
	ldr	r1, [r7, #20]
	ldr	r0, [r5, #2796]
	add	r1, r1, #1
	bl	BsGet
	b	.L2022
.L2044:
	mov	r2, r0
	ldr	r1, .L2048+4
	mov	r0, #1
	bl	dprint_vfmw
	mvn	r0, #0
	ldmfd	sp, {r4, r5, r6, r7, r8, r9, fp, sp, pc}
.L2049:
	.align	2
.L2048:
	.word	.LC170
	.word	.LC171
	UNWIND(.fnend)
	.size	HEVC_Sei_Buf_Period, .-HEVC_Sei_Buf_Period
	.align	2
	.global	HEVC_Sei_Pic_Timming
	.type	HEVC_Sei_Pic_Timming, %function
HEVC_Sei_Pic_Timming:
	UNWIND(.fnstart)
	@ args = 0, pretend = 0, frame = 0
	@ frame_needed = 1, uses_anonymous_args = 0
	UNWIND(.movsp ip)
	mov	ip, sp
	stmfd	sp!, {r4, r5, r6, r7, r8, r9, fp, ip, lr, pc}
	UNWIND(.pad #4)
	UNWIND(.save {r4, r5, r6, r7, r8, r9, fp, ip, lr})
	UNWIND(.setfp fp, ip, #-4)
	sub	fp, ip, #4
	add	r3, r0, #8192
	mov	r5, r2
	mov	r4, r0
	mov	r6, r1
	ldr	r0, [r3, #3524]
	ldr	r2, [r3, #3528]
	add	r0, r0, #1
	str	r0, [r3, #3524]
	add	r2, r2, #1
	str	r2, [r3, #3528]
	ldrb	r3, [r5, #2]	@ zero_extendqisi2
	cmp	r3, #0
	bne	.L2078
.L2051:
	ldrh	r3, [r5, #44]
	cmp	r3, #0
	beq	.L2053
	ldr	r1, [r5, #60]
	ldr	r0, [r4, #2796]
	add	r1, r1, #1
	bl	BsGet
	add	r0, r0, #1
	str	r0, [r6, #8]
	ldr	r1, [r5, #64]
	ldr	r0, [r4, #2796]
	add	r1, r1, #1
	bl	BsGet
	str	r0, [r6, #12]
	ldrb	r3, [r5, #46]	@ zero_extendqisi2
	cmp	r3, #0
	bne	.L2054
.L2057:
	ldr	r2, [r4, #276]
	ldr	r3, .L2081
	ldr	r3, [r3, r2, asl #2]
	ldrsb	r2, [r3, #44]
	cmp	r2, #1
	beq	.L2079
.L2053:
	ldr	r0, [r4, #2796]
	bl	BsToNextByte
	mov	r0, #0
	ldmfd	sp, {r4, r5, r6, r7, r8, r9, fp, sp, pc}
.L2078:
	mov	r1, #4
	ldr	r0, [r4, #2796]
	bl	BsGet
	mov	r1, #2
	str	r0, [r6]
	ldr	r0, [r4, #2796]
	bl	BsGet
	mov	r1, #1
	str	r0, [r6, #4]
	ldr	r0, [r4, #2796]
	bl	BsGet
	b	.L2051
.L2079:
	ldr	r2, [r3, #156]
	cmp	r2, #0
	bne	.L2053
	ldr	r3, [r3, #160]
	cmp	r3, #1
	bne	.L2053
	mov	r2, r5
	mov	r1, r6
	mov	r0, r4
	bl	HEVC_Sei_Get_Dpb_Output_Time
	b	.L2053
.L2054:
	ldr	r1, [r5, #52]
	ldr	r0, [r4, #2796]
	add	r1, r1, #1
	bl	BsGet
	ldrb	r3, [r5, #46]	@ zero_extendqisi2
	cmp	r3, #0
	beq	.L2057
	ldrb	r3, [r5, #47]	@ zero_extendqisi2
	cmp	r3, #0
	beq	.L2057
	ldr	r1, .L2081+4
	ldr	r0, [r4, #2796]
	bl	HEVC_ue_v
	mov	r1, #1
	mov	r8, r0
	ldr	r0, [r4, #2796]
	bl	BsGet
	uxtb	r9, r0
	cmp	r9, #0
	bne	.L2080
.L2058:
	cmp	r8, #255
	bhi	.L2062
	add	r8, r8, #1
	mov	r7, #0
	b	.L2061
.L2060:
	cmp	r7, r8
	beq	.L2057
.L2061:
	ldr	r1, .L2081+8
	add	r7, r7, #1
	ldr	r0, [r4, #2796]
	bl	HEVC_ue_v
	cmp	r9, #0
	bne	.L2060
	ldr	r1, [r5, #48]
	ldr	r0, [r4, #2796]
	add	r1, r1, #1
	bl	BsGet
	b	.L2060
.L2080:
	ldr	r1, [r5, #48]
	ldr	r0, [r4, #2796]
	add	r1, r1, #1
	bl	BsGet
	b	.L2058
.L2062:
	ldr	r1, .L2081+12
	mov	r0, #1
	bl	dprint_vfmw
	mvn	r0, #0
	ldmfd	sp, {r4, r5, r6, r7, r8, r9, fp, sp, pc}
.L2082:
	.align	2
.L2081:
	.word	s_pstVfmwChan
	.word	.LC172
	.word	.LC174
	.word	.LC173
	UNWIND(.fnend)
	.size	HEVC_Sei_Pic_Timming, .-HEVC_Sei_Pic_Timming
	.align	2
	.global	HEVC_Sei_Color_Volume_Reconstruction_Info
	.type	HEVC_Sei_Color_Volume_Reconstruction_Info, %function
HEVC_Sei_Color_Volume_Reconstruction_Info:
	UNWIND(.fnstart)
	@ args = 0, pretend = 0, frame = 0
	@ frame_needed = 1, uses_anonymous_args = 0
	UNWIND(.movsp ip)
	mov	ip, sp
	stmfd	sp!, {r4, r5, r6, r7, fp, ip, lr, pc}
	UNWIND(.pad #4)
	UNWIND(.save {r4, r5, r6, r7, fp, ip, lr})
	UNWIND(.setfp fp, ip, #-4)
	sub	fp, ip, #4
	cmp	r1, #0
	cmpne	r0, #0
	mov	r4, r0
	mov	r5, r1
	beq	.L2093
	ldr	r1, .L2097
	ldr	r0, [r0, #2796]
	bl	HEVC_ue_v
	mov	r1, #1
	ldr	r0, [r4, #2796]
	bl	BsGet
	tst	r0, #255
	beq	.L2085
.L2089:
	mov	r3, #1
	mov	r0, #0
	strb	r3, [r5]
	ldmfd	sp, {r4, r5, r6, r7, fp, sp, pc}
.L2085:
	mov	r1, #1
	ldr	r0, [r4, #2796]
	bl	BsGet
	mov	r1, #1
	ldr	r0, [r4, #2796]
	bl	BsGet
	uxtb	r0, r0
	cmp	r0, #1
	beq	.L2096
.L2086:
	mov	r1, #8
	ldr	r0, [r4, #2796]
	bl	BsGet
	mov	r1, #8
	strb	r0, [r5, #2]
	ldr	r0, [r4, #2796]
	bl	BsGet
	mov	r1, #8
	strb	r0, [r5, #3]
	ldr	r0, [r4, #2796]
	bl	BsGet
	mov	r1, #8
	strb	r0, [r5, #4]
	ldr	r0, [r4, #2796]
	bl	BsGet
	mov	r1, #8
	strb	r0, [r5, #5]
	ldr	r0, [r4, #2796]
	bl	BsGet
	mov	r1, #4
	strb	r0, [r5, #6]
	ldr	r0, [r4, #2796]
	bl	BsGet
	tst	r0, #255
	strb	r0, [r5, #7]
	addne	r7, r5, #7
	movne	r6, #0
	beq	.L2091
.L2090:
	mov	r1, #8
	ldr	r0, [r4, #2796]
	bl	BsGet
	mov	r1, #8
	add	r6, r6, #1
	strb	r0, [r7, #1]!
	ldr	r0, [r4, #2796]
	bl	BsGet
	strb	r0, [r7, #15]
	ldrb	r3, [r5, #7]	@ zero_extendqisi2
	cmp	r3, r6
	bhi	.L2090
.L2091:
	mov	r1, #4
	ldr	r0, [r4, #2796]
	bl	BsGet
	tst	r0, #255
	strb	r0, [r5, #38]
	addne	r7, r5, #38
	movne	r6, #0
	beq	.L2089
.L2092:
	mov	r1, #8
	ldr	r0, [r4, #2796]
	bl	BsGet
	mov	r1, #8
	add	r6, r6, #1
	strb	r0, [r7, #1]!
	ldr	r0, [r4, #2796]
	bl	BsGet
	strb	r0, [r7, #15]
	ldrb	r3, [r5, #38]	@ zero_extendqisi2
	cmp	r3, r6
	bhi	.L2092
	b	.L2089
.L2093:
	mvn	r0, #0
	ldmfd	sp, {r4, r5, r6, r7, fp, sp, pc}
.L2096:
	mov	r1, #8
	ldr	r0, [r4, #2796]
	bl	BsGet
	mov	r1, #8
	strb	r0, [r5, #1]
	ldr	r0, [r4, #2796]
	bl	BsGet
	b	.L2086
.L2098:
	.align	2
.L2097:
	.word	.LC175
	UNWIND(.fnend)
	.size	HEVC_Sei_Color_Volume_Reconstruction_Info, .-HEVC_Sei_Color_Volume_Reconstruction_Info
	.align	2
	.global	HEVC_Sei_User_Data_Registered_Itu_T_T35
	.type	HEVC_Sei_User_Data_Registered_Itu_T_T35, %function
HEVC_Sei_User_Data_Registered_Itu_T_T35:
	UNWIND(.fnstart)
	@ args = 0, pretend = 0, frame = 0
	@ frame_needed = 1, uses_anonymous_args = 0
	UNWIND(.movsp ip)
	mov	ip, sp
	stmfd	sp!, {r4, r5, r6, r7, fp, ip, lr, pc}
	UNWIND(.pad #4)
	UNWIND(.save {r4, r5, r6, r7, fp, ip, lr})
	UNWIND(.setfp fp, ip, #-4)
	sub	fp, ip, #4
	cmp	r1, #0
	cmpne	r0, #0
	mov	r6, r2
	mov	r5, r0
	moveq	r4, #1
	movne	r4, #0
	beq	.L2106
	cmp	r2, #3
	bls	.L2109
	mov	r1, #8
	ldr	r0, [r0, #2796]
	bl	BsGet
	mov	r1, #16
	ldr	r0, [r5, #2796]
	bl	BsGet
	mov	r1, #8
	ldr	r0, [r5, #2796]
	bl	BsGet
	uxtb	r0, r0
	cmp	r0, #2
	beq	.L2110
	cmp	r0, #4
	beq	.L2111
	subs	r6, r6, #4
	beq	.L2105
.L2104:
	add	r4, r4, #1
	mov	r1, #8
	ldr	r0, [r5, #2796]
	bl	BsGet
	cmp	r6, r4
	bne	.L2104
.L2105:
	mov	r0, #0
	ldmfd	sp, {r4, r5, r6, r7, fp, sp, pc}
.L2110:
	add	r1, r5, #3520
	mov	r0, r5
	add	r1, r1, #8
	bl	HEVC_Sei_TSI
	cmn	r0, #1
	movne	r0, #0
	moveq	r0, #1
	rsb	r0, r0, #0
	ldmfd	sp, {r4, r5, r6, r7, fp, sp, pc}
.L2111:
	add	r1, r5, #3520
	mov	r0, r5
	add	r1, r1, #11
	bl	HEVC_Sei_Color_Volume_Reconstruction_Info
	cmn	r0, #1
	movne	r0, #0
	moveq	r0, #1
	rsb	r0, r0, #0
	ldmfd	sp, {r4, r5, r6, r7, fp, sp, pc}
.L2106:
	mvn	r0, #0
	ldmfd	sp, {r4, r5, r6, r7, fp, sp, pc}
.L2109:
	ldr	r1, .L2112
	mov	r0, #1
	bl	dprint_vfmw
	mvn	r0, #0
	ldmfd	sp, {r4, r5, r6, r7, fp, sp, pc}
.L2113:
	.align	2
.L2112:
	.word	.LC176
	UNWIND(.fnend)
	.size	HEVC_Sei_User_Data_Registered_Itu_T_T35, .-HEVC_Sei_User_Data_Registered_Itu_T_T35
	.align	2
	.global	HEVC_DecShortTermRefPicSet
	.type	HEVC_DecShortTermRefPicSet, %function
HEVC_DecShortTermRefPicSet:
	UNWIND(.fnstart)
	@ args = 0, pretend = 0, frame = 16
	@ frame_needed = 1, uses_anonymous_args = 0
	UNWIND(.movsp ip)
	mov	ip, sp
	stmfd	sp!, {r4, r5, r6, r7, r8, r9, r10, fp, ip, lr, pc}
	UNWIND(.pad #4)
	UNWIND(.save {r4, r5, r6, r7, r8, r9, r10, fp, ip, lr})
	UNWIND(.setfp fp, ip, #-4)
	sub	fp, ip, #4
	UNWIND(.pad #20)
	sub	sp, sp, #20
	subs	r6, r3, #0
	mov	r5, r0
	mov	r9, r1
	mov	r4, r2
	bne	.L2159
.L2115:
	ldr	r1, .L2168
	ldr	r0, [r5, #2796]
	bl	HEVC_ue_v
	cmp	r0, #16
	str	r0, [r4]
	bhi	.L2160
	ldr	r1, .L2168+4
	ldr	r0, [r5, #2796]
	bl	HEVC_ue_v
	cmp	r0, #16
	str	r0, [r4, #4]
	bhi	.L2161
	ldr	r6, [r4]
	add	r2, r0, r6
	str	r2, [r4, #8]
	cmp	r2, #16
	bhi	.L2138
	cmp	r6, #0
	addne	r10, r4, #28
	addne	r9, r4, #11
	movne	r7, #0
	movne	r8, r7
	bne	.L2142
	b	.L2140
.L2141:
	str	r8, [r10, #4]!
	ldr	r0, [r5, #2796]
	bl	BsGet
	strb	r0, [r9, #1]!
	ldr	r6, [r4]
	cmp	r6, r7
	bls	.L2162
.L2142:
	ldr	r1, .L2168+8
	add	r7, r7, #1
	ldr	r0, [r5, #2796]
	bl	HEVC_ue_v
	mov	r1, #1
	cmp	r0, #32768
	mvn	r3, r0
	add	r8, r8, r3
	bcc	.L2141
	mov	r2, r0
	ldr	r1, .L2168+12
	mov	r0, #1
	bl	dprint_vfmw
	mvn	r0, #0
	sub	sp, fp, #40
	ldmfd	sp, {r4, r5, r6, r7, r8, r9, r10, fp, sp, pc}
.L2159:
	mov	r1, #1
	ldr	r0, [r0, #2796]
	bl	BsGet
	cmp	r0, #0
	beq	.L2115
	ldr	r7, [r9, #176]
	cmp	r7, r6
	movne	r0, #0
	beq	.L2163
.L2116:
	sub	r3, r6, #1
	rsb	r8, r0, r3
	cmp	r8, r3
	bhi	.L2164
	mov	r1, #1
	ldr	r0, [r5, #2796]
	bl	BsGet
	ldr	r1, .L2168+16
	mov	r6, r0
	ldr	r0, [r5, #2796]
	bl	HEVC_ue_v
	mov	r3, #164
	mul	r8, r3, r8
	mov	r3, r6, asl #1
	rsb	r3, r3, #1
	add	r2, r9, r8
	ldr	r2, [r2, #2172]
	cmp	r2, #16
	mla	r3, r0, r3, r3
	str	r3, [fp, #-56]
	bhi	.L2165
	add	r6, r8, #2192
	mov	r10, #0
	add	r6, r6, #4
	str	r10, [fp, #-48]
	add	r6, r9, r6
	str	r10, [fp, #-52]
	mov	r7, r10
	b	.L2125
.L2120:
	sub	r3, r0, #1
	cmp	r3, #1
	bls	.L2166
.L2121:
	add	r3, r9, r8
	add	r10, r10, #1
	add	r6, r6, #4
	ldr	r3, [r3, #2172]
	cmp	r3, r10
	bcc	.L2167
.L2125:
	mov	r1, #1
	ldr	r0, [r5, #2796]
	bl	BsGet
	cmp	r0, #0
	bne	.L2120
	mov	r1, #1
	ldr	r0, [r5, #2796]
	bl	BsGet
	mov	r0, r0, asl #1
	sub	r3, r0, #1
	cmp	r3, #1
	bhi	.L2121
.L2166:
	add	r3, r9, r8
	ldr	r2, [fp, #-56]
	add	r1, r4, r7
	add	ip, r7, #8
	ldr	r3, [r3, #2172]
	sub	r0, r0, #1
	clz	r0, r0
	add	r7, r7, #1
	cmp	r3, r10
	mov	r0, r0, lsr #5
	ldrhi	r3, [r6]
	movls	r3, #0
	add	r3, r3, r2
	str	r3, [r4, ip, asl #2]
	cmp	r3, #0
	mov	r3, r1
	strb	r0, [r1, #12]
	ldrlt	r3, [fp, #-52]
	ldrge	r3, [fp, #-48]
	addlt	r3, r3, #1
	addge	r3, r3, #1
	strlt	r3, [fp, #-52]
	strge	r3, [fp, #-48]
	b	.L2121
.L2167:
	ldr	r3, [fp, #-52]
	cmp	r7, #16
	ldr	r2, [fp, #-48]
	str	r7, [r4, #8]
	str	r3, [r4]
	str	r2, [r4, #4]
	bhi	.L2126
	cmp	r3, #16
	bhi	.L2126
	cmp	r2, #16
	bhi	.L2126
	cmp	r7, #1
	subhi	r7, r7, #1
	addhi	r8, r4, #32
	addhi	r6, r4, #12
	movhi	r5, #0
	bls	.L2132
.L2131:
	ldr	ip, [r8, #4]!
	cmp	r5, #0
	ldrb	lr, [r6, #1]!	@ zero_extendqisi2
	mov	r2, r5
	movge	r1, r8
	movge	r3, r6
	blt	.L2134
.L2130:
	ldr	r0, [r1, #-4]!
	sub	r3, r3, #1
	cmp	ip, r0
	strlt	r0, [r1, #4]
	ldrltb	r0, [r3]	@ zero_extendqisi2
	strltb	r0, [r3, #1]
	strlt	ip, [r1]
	strltb	lr, [r3]
	subs	r2, r2, #1
	bpl	.L2130
.L2134:
	add	r5, r5, #1
	cmp	r5, r7
	bne	.L2131
.L2132:
	ldr	r3, [fp, #-52]
	movs	r6, r3, lsr #1
	beq	.L2129
	ldr	r3, [fp, #-52]
	add	r0, r4, #32
	mov	r1, #0
	add	r2, r3, #7
	add	r3, r3, #11
	add	r3, r4, r3
	add	r2, r4, r2, lsl #2
	add	r4, r4, #12
.L2135:
	ldr	r5, [r2]
	add	r1, r1, #1
	ldr	lr, [r0]
	cmp	r1, r6
	ldrb	ip, [r4]	@ zero_extendqisi2
	str	r5, [r0], #4
	ldrb	r5, [r3]	@ zero_extendqisi2
	strb	r5, [r4], #1
	str	lr, [r2], #-4
	strb	ip, [r3], #-1
	bne	.L2135
.L2129:
	mov	r0, #0
.L2117:
	sub	sp, fp, #40
	ldmfd	sp, {r4, r5, r6, r7, r8, r9, r10, fp, sp, pc}
.L2162:
	ldr	r2, [r4, #8]
.L2140:
	cmp	r2, r6
	bls	.L2129
	add	r8, r6, #7
	add	r9, r6, #11
	add	r9, r4, r9
	mov	r7, #0
	add	r8, r4, r8, lsl #2
.L2143:
	ldr	r1, .L2168+20
	add	r6, r6, #1
	ldr	r0, [r5, #2796]
	bl	HEVC_ue_v
	mov	r1, #1
	add	r0, r0, r1
	add	r7, r7, r0
	str	r7, [r8, #4]!
	ldr	r0, [r5, #2796]
	bl	BsGet
	strb	r0, [r9, #1]!
	ldr	r3, [r4, #8]
	cmp	r3, r6
	bhi	.L2143
	b	.L2129
.L2163:
	ldr	r1, .L2168+24
	ldr	r0, [r5, #2796]
	bl	HEVC_ue_v
	add	r2, r0, #1
	cmp	r7, r2
	bcs	.L2116
	mov	r3, r7
	ldr	r1, .L2168+28
	mov	r0, #1
	bl	dprint_vfmw
	mvn	r0, #0
	b	.L2117
.L2126:
	ldr	r1, .L2168+32
	mov	r0, #1
	bl	dprint_vfmw
	mvn	r0, #0
	b	.L2117
.L2161:
	ldr	r2, [r4]
	mov	r0, #1
	ldr	r1, .L2168+36
	bl	dprint_vfmw
	mvn	r0, #0
	b	.L2117
.L2164:
	mov	r2, r8
	ldr	r1, .L2168+40
	mov	r0, #1
	bl	dprint_vfmw
	mvn	r0, #0
	b	.L2117
.L2165:
	ldr	r1, .L2168+44
	mov	r0, #1
	bl	dprint_vfmw
	mvn	r0, #0
	b	.L2117
.L2160:
	mov	r2, r0
	ldr	r1, .L2168+48
	mov	r0, #1
	bl	dprint_vfmw
	mvn	r0, #0
	b	.L2117
.L2138:
	mov	r3, #16
	ldr	r1, .L2168+52
	mov	r0, #1
	bl	dprint_vfmw
	mvn	r0, #0
	b	.L2117
.L2169:
	.align	2
.L2168:
	.word	.LC183
	.word	.LC185
	.word	.LC188
	.word	.LC189
	.word	.LC180
	.word	.LC190
	.word	.LC177
	.word	.LC178
	.word	.LC182
	.word	.LC186
	.word	.LC179
	.word	.LC181
	.word	.LC184
	.word	.LC187
	UNWIND(.fnend)
	.size	HEVC_DecShortTermRefPicSet, .-HEVC_DecShortTermRefPicSet
	.align	2
	.global	HEVC_DecHrdParam
	.type	HEVC_DecHrdParam, %function
HEVC_DecHrdParam:
	UNWIND(.fnstart)
	@ args = 0, pretend = 0, frame = 0
	@ frame_needed = 1, uses_anonymous_args = 0
	UNWIND(.movsp ip)
	mov	ip, sp
	stmfd	sp!, {r3, r4, r5, r6, r7, r8, r9, r10, fp, ip, lr, pc}
	UNWIND(.pad #4)
	UNWIND(.save {r3, r4, r5, r6, r7, r8, r9, r10, fp, ip, lr})
	UNWIND(.setfp fp, ip, #-4)
	sub	fp, ip, #4
	cmp	r1, #0
	cmpne	r0, #0
	mov	r8, r3
	mov	r6, r0
	mov	r9, r1
	beq	.L2192
	cmp	r2, #0
	bne	.L2219
.L2175:
	add	r5, r9, #24
	mov	r7, #0
.L2187:
	mov	r1, #1
	ldr	r0, [r6, #2796]
	bl	BsGet
	uxtb	r4, r0
	cmp	r4, #0
	movne	r3, #0
	strne	r3, [r5]
	beq	.L2220
.L2190:
	ldr	r1, .L2225
	ldr	r0, [r6, #2796]
	bl	HEVC_ue_v
.L2178:
	ldr	r1, .L2225+4
	ldr	r0, [r6, #2796]
	bl	HEVC_ue_v
	mov	r2, r0
	str	r0, [r5]
.L2179:
	cmp	r2, #31
	bhi	.L2221
.L2180:
	mov	r4, #0
.L2191:
	cmp	r4, #0
	beq	.L2222
	cmp	r4, #1
	beq	.L2217
.L2186:
	add	r4, r4, #1
	cmp	r4, #2
	bne	.L2191
.L2185:
	add	r7, r7, #1
	add	r5, r5, #4
	cmp	r8, r7
	bcs	.L2187
	mov	r0, #0
	ldmfd	sp, {r3, r4, r5, r6, r7, r8, r9, r10, fp, sp, pc}
.L2221:
	ldr	r1, .L2225+8
	mov	r0, #1
	bl	dprint_vfmw
	mov	r3, #0
	str	r3, [r5]
	b	.L2180
.L2220:
	mov	r1, #1
	ldr	r0, [r6, #2796]
	bl	BsGet
	str	r4, [r5]
	tst	r0, #255
	bne	.L2190
	mov	r1, #1
	ldr	r0, [r6, #2796]
	bl	BsGet
	tst	r0, #255
	beq	.L2178
	ldr	r2, [r5]
	b	.L2179
.L2219:
	mov	r1, #1
	ldr	r0, [r0, #2796]
	bl	BsGet
	mov	r1, #1
	strb	r0, [r9]
	ldr	r0, [r6, #2796]
	bl	BsGet
	strb	r0, [r9, #1]
	ldrh	r3, [r9]
	cmp	r3, #0
	beq	.L2175
	mov	r1, #1
	ldr	r0, [r6, #2796]
	bl	BsGet
	uxtb	r0, r0
	strb	r0, [r9, #2]
	cmp	r0, #0
	bne	.L2223
.L2173:
	mov	r1, #4
	ldr	r0, [r6, #2796]
	bl	BsGet
	mov	r1, #4
	ldr	r0, [r6, #2796]
	bl	BsGet
	ldrb	r3, [r9, #2]	@ zero_extendqisi2
	cmp	r3, #0
	bne	.L2224
.L2174:
	mov	r1, #5
	ldr	r0, [r6, #2796]
	bl	BsGet
	mov	r1, #5
	str	r0, [r9, #12]
	ldr	r0, [r6, #2796]
	bl	BsGet
	mov	r1, #5
	str	r0, [r9, #16]
	ldr	r0, [r6, #2796]
	bl	BsGet
	str	r0, [r9, #20]
	b	.L2175
.L2192:
	mvn	r0, #0
	ldmfd	sp, {r3, r4, r5, r6, r7, r8, r9, r10, fp, sp, pc}
.L2224:
	mov	r1, #4
	ldr	r0, [r6, #2796]
	bl	BsGet
	b	.L2174
.L2223:
	mov	r1, #8
	ldr	r0, [r6, #2796]
	bl	BsGet
	mov	r1, #5
	ldr	r0, [r6, #2796]
	bl	BsGet
	mov	r1, #1
	str	r0, [r9, #4]
	ldr	r0, [r6, #2796]
	bl	BsGet
	mov	r1, #5
	strb	r0, [r9, #3]
	ldr	r0, [r6, #2796]
	bl	BsGet
	str	r0, [r9, #20]
	b	.L2173
.L2222:
	ldrb	r3, [r9]	@ zero_extendqisi2
	cmp	r3, #0
	bne	.L2194
	mov	r4, #1
.L2217:
	ldrb	r3, [r9, #1]	@ zero_extendqisi2
	cmp	r3, #0
	beq	.L2185
.L2194:
	mov	r10, #0
	b	.L2189
.L2188:
	mov	r1, #1
	ldr	r0, [r6, #2796]
	bl	BsGet
	ldr	r3, [r5]
	cmp	r3, r10
	bcc	.L2186
.L2189:
	ldr	r1, .L2225+12
	add	r10, r10, #1
	ldr	r0, [r6, #2796]
	bl	HEVC_ue_v
	ldr	r1, .L2225+16
	ldr	r0, [r6, #2796]
	bl	HEVC_ue_v
	ldrb	r3, [r9, #2]	@ zero_extendqisi2
	cmp	r3, #0
	beq	.L2188
	ldr	r1, .L2225+20
	ldr	r0, [r6, #2796]
	bl	HEVC_ue_v
	ldr	r1, .L2225+24
	ldr	r0, [r6, #2796]
	bl	HEVC_ue_v
	b	.L2188
.L2226:
	.align	2
.L2225:
	.word	.LC191
	.word	.LC192
	.word	.LC193
	.word	.LC194
	.word	.LC195
	.word	.LC196
	.word	.LC197
	UNWIND(.fnend)
	.size	HEVC_DecHrdParam, .-HEVC_DecHrdParam
	.align	2
	.type	HEVC_ParseVPSExtension, %function
HEVC_ParseVPSExtension:
	UNWIND(.fnstart)
	@ args = 0, pretend = 0, frame = 672
	@ frame_needed = 1, uses_anonymous_args = 0
	UNWIND(.movsp ip)
	mov	ip, sp
	stmfd	sp!, {r4, r5, r6, r7, r8, r9, r10, fp, ip, lr, pc}
	UNWIND(.pad #4)
	UNWIND(.save {r4, r5, r6, r7, r8, r9, r10, fp, ip, lr})
	UNWIND(.setfp fp, ip, #-4)
	sub	fp, ip, #4
	UNWIND(.pad #692)
	sub	sp, sp, #692
	mov	r4, #0
	mov	r5, r1
	str	r0, [fp, #-652]
	str	r1, [fp, #-648]
	mov	r2, #64
	mov	r1, r4
	sub	r0, fp, #496
	str	r4, [fp, #-640]
	sub	r7, fp, #304
	str	r4, [fp, #-636]
	bl	memset
	mov	r1, r4
	mov	r2, #128
	sub	r0, fp, #172
	bl	memset
	add	r3, r5, #16384
	mov	r1, r4
	mov	r2, #64
	sub	r0, fp, #432
	mov	r6, r3
	str	r3, [fp, #-660]
	str	r4, [fp, #-632]
	str	r4, [fp, #-628]
	str	r4, [fp, #-624]
	str	r4, [fp, #-620]
	str	r4, [fp, #-608]
	str	r4, [fp, #-604]
	str	r4, [fp, #-600]
	str	r4, [fp, #-596]
	bl	memset
	mov	r1, r4
	mov	r2, #64
	sub	r0, fp, #368
	bl	memset
	mov	r1, r4
	mov	r2, #64
	mov	r0, r7
	bl	memset
	ldr	r3, .L2747
	add	r0, r5, #12416
	mov	r1, r4
	add	r0, r0, #4
	movw	r2, #12492
	ldr	r3, [r3, #48]
	blx	r3
	ldr	r3, [r5, #8]
	cmp	r3, #62
	movge	r3, #62
	cmp	r3, #1
	str	r3, [r6, #152]
	bgt	.L2715
	cmp	r3, #0
	ble	.L2230
	ldr	r3, [fp, #-648]
	ldrb	r3, [r3, #3]	@ zero_extendqisi2
	cmp	r3, #0
	bne	.L2716
.L2230:
	ldr	r8, [fp, #-652]
	mov	r1, #1
	sub	r6, fp, #500
	sub	r4, fp, #436
	mov	r5, #0
	ldr	r0, [r8, #2796]
	bl	BsGet
	uxtb	r3, r0
	str	r3, [fp, #-672]
.L2231:
	mov	r1, #1
	ldr	r0, [r8, #2796]
	bl	BsGet
	str	r0, [r6, #4]!
	cmp	r0, #0
	addne	r5, r5, #1
